 cgamex86

 Timestamp is 4ff6c38d (Fri Jul 06 03:53:01 2012)

 Preferred load address is 30000000

 Start         Length     Name                   Class
 0001:00000000 00097848H .text                   CODE
 0001:00097848 00000014H .text$yd                CODE
 0002:00000000 00000160H .idata$5                DATA
 0002:00000160 00000004H .CRT$XCA                DATA
 0002:00000164 00000004H .CRT$XCZ                DATA
 0002:00000168 00000004H .CRT$XIA                DATA
 0002:0000016c 00000014H .CRT$XIC                DATA
 0002:00000180 00000004H .CRT$XIZ                DATA
 0002:00000184 00000004H .CRT$XPA                DATA
 0002:00000188 00000004H .CRT$XPX                DATA
 0002:0000018c 00000004H .CRT$XPXA               DATA
 0002:00000190 00000004H .CRT$XPZ                DATA
 0002:00000194 00000004H .CRT$XTA                DATA
 0002:00000198 00000004H .CRT$XTZ                DATA
 0002:000001a0 00027650H .rdata                  DATA
 0002:000277f0 000000dcH .rdata$r                DATA
 0002:000278d0 0000000cH .rdata$sxdata           DATA
 0002:000278dc 00000004H .rtc$IAA                DATA
 0002:000278e0 00000004H .rtc$IZZ                DATA
 0002:000278e4 00000004H .rtc$TAA                DATA
 0002:000278e8 00000004H .rtc$TZZ                DATA
 0002:000278f0 0000056cH .xdata$x                DATA
 0002:00027e5c 00000028H .idata$2                DATA
 0002:00027e84 00000014H .idata$3                DATA
 0002:00027e98 00000160H .idata$4                DATA
 0002:00027ff8 0000063eH .idata$6                DATA
 0002:00028640 00000059H .edata                  DATA
 0003:00000000 0000c360H .data                   DATA
 0003:0000c360 00b1b728H .bss                    DATA
 0004:00000000 00000058H .rsrc$01                DATA
 0004:00000060 00000338H .rsrc$02                DATA

  Address         Publics by Value              Rva+Base       Lib:Object

 0000:00000000       __except_list              00000000     <absolute>
 0000:00000003       ___safe_se_handler_count   00000003     <absolute>
 0000:00000000       ___ImageBase               30000000     <linker-defined>
 0001:000000c0       ?detour_gen_brk@@YAPAEPAE0@Z 300010c0 f i detours:detours.obj
 0001:000000f0       ?detour_does_code_end_function@@YAHPAE@Z 300010f0 f i detours:detours.obj
 0001:00000430       _DetourCodeFromPointer@8   30001430 f   detours:detours.obj
 0001:00000480       _DetourTransactionBegin@0  30001480 f   detours:detours.obj
 0001:00000500       _DetourTransactionAbort@0  30001500 f   detours:detours.obj
 0001:00000600       _DetourTransactionCommit@0 30001600 f   detours:detours.obj
 0001:00000610       _DetourTransactionCommitEx@4 30001610 f   detours:detours.obj
 0001:00000940       _DetourUpdateThread@4      30001940 f   detours:detours.obj
 0001:000009d0       _DetourAttach@8            300019d0 f   detours:detours.obj
 0001:000009e0       _DetourAttachEx@20         300019e0 f   detours:detours.obj
 0001:00000c10       _DetourDetach@8            30001c10 f   detours:detours.obj
 0001:00000d30       _DetourEnumerateModules@4  30001d30 f   detours:modules.obj
 0001:00000f90       _DetourFindPayload@12      30001f90 f   detours:modules.obj
 0001:000010f0       _DetourRestoreAfterWithEx@8 300020f0 f   detours:modules.obj
 0001:000011f0       _DetourRestoreAfterWith@0  300021f0 f   detours:modules.obj
 0001:00001240       _DetourCopyInstructionEx@16 30002240 f   detours:disasm.obj
 0001:000012d0       ?CopyBytes@CDetourDis@@IAEPAEPBUCOPYENTRY@1@PAE1@Z 300022d0 f   detours:disasm.obj
 0001:000013e0       ?CopyBytesPrefix@CDetourDis@@IAEPAEPBUCOPYENTRY@1@PAE1@Z 300023e0 f   detours:disasm.obj
 0001:00001420       ?AdjustTarget@CDetourDis@@IAEPAEPAE0JJJ@Z 30002420 f   detours:disasm.obj
 0001:00001510       ?Invalid@CDetourDis@@IAEPAEPBUCOPYENTRY@1@PAE1@Z 30002510 f   detours:disasm.obj
 0001:00001520       ?Copy0F@CDetourDis@@IAEPAEPBUCOPYENTRY@1@PAE1@Z 30002520 f   detours:disasm.obj
 0001:00001560       ?Copy66@CDetourDis@@IAEPAEPBUCOPYENTRY@1@PAE1@Z 30002560 f   detours:disasm.obj
 0001:000015a0       ?Copy67@CDetourDis@@IAEPAEPBUCOPYENTRY@1@PAE1@Z 300025a0 f   detours:disasm.obj
 0001:000015e0       ?CopyF6@CDetourDis@@IAEPAEPBUCOPYENTRY@1@PAE1@Z 300025e0 f   detours:disasm.obj
 0001:00001630       ?CopyF7@CDetourDis@@IAEPAEPBUCOPYENTRY@1@PAE1@Z 30002630 f   detours:disasm.obj
 0001:00001680       ?CopyFF@CDetourDis@@IAEPAEPBUCOPYENTRY@1@PAE1@Z 30002680 f   detours:disasm.obj
 0001:000016e0       _DllMain@12                300026e0 f   detours:detoured.obj
 0001:00001a50       _G_SetAnimalVehicleFunctions 30002a50 f   AnimalNPC.obj
 0001:00001a80       _BG_AttachToRancor         30002a80 f   bg_g2_utils.obj
 0001:00001c40       _BG_GetRootSurfNameWithVariant 30002c40 f   bg_g2_utils.obj
 0001:00001d30       _BG_FileExists             30002d30 f   bg_misc.obj
 0001:00001d70       _BG_ParseField             30002d70 f   bg_misc.obj
 0001:00001ea0       _vectoyaw                  30002ea0 f   bg_misc.obj
 0001:00001f40       _BG_HasYsalamiri           30002f40 f   bg_misc.obj
 0001:00001f80       _BG_CanUseFPNow            30002f80 f   bg_misc.obj
 0001:00002070       _BG_FindItemForPowerup     30003070 f   bg_misc.obj
 0001:000020d0       _BG_FindItemForHoldable    300030d0 f   bg_misc.obj
 0001:00002130       _BG_FindItemForWeapon      30003130 f   bg_misc.obj
 0001:00002180       _BG_ProperForceIndex       30003180 f   bg_misc.obj
 0001:000021b0       _BG_CycleForce             300031b0 f   bg_misc.obj
 0001:00002290       _BG_GetItemIndexByTag      30003290 f   bg_misc.obj
 0001:000022d0       _BG_IsItemSelectable       300032d0 f   bg_misc.obj
 0001:000022f0       _BG_CycleInven             300032f0 f   bg_misc.obj
 0001:000023c0       _BG_CanItemBeGrabbed       300033c0 f   bg_misc.obj
 0001:000026c0       _BG_EvaluateTrajectory     300036c0 f   bg_misc.obj
 0001:000028b0       _BG_EvaluateTrajectoryDelta 300038b0 f   bg_misc.obj
 0001:00002a70       _BG_AddPredictableEventToPlayerstate 30003a70 f   bg_misc.obj
 0001:00002ab0       _BG_TouchJumpPad           30003ab0 f   bg_misc.obj
 0001:00002b30       _BG_EmplacedView           30003b30 f   bg_misc.obj
 0001:00002c10       _BG_IsValidCharacterModel  30003c10 f   bg_misc.obj
 0001:00002c90       _BG_ValidateSkinForTeam    30003c90 f   bg_misc.obj
 0001:00002ec0       _BG_PlayerStateToEntityState 30003ec0 f   bg_misc.obj
 0001:00003270       _BG_ModelCache             30004270 f   bg_misc.obj
 0001:000032a0       _BG_Alloc                  300042a0 f   bg_misc.obj
 0001:000032f0       _BG_TempAlloc              300042f0 f   bg_misc.obj
 0001:00003330       _BG_TempFree               30004330 f   bg_misc.obj
 0001:00003370       _BG_PlayerTouchesItem      30004370 f   bg_misc.obj
 0001:00003410       _BG_InSaberStandAnim       30004410 f   bg_panimate.obj
 0001:00003440       _BG_InReboundJump          30004440 f   bg_panimate.obj
 0001:00003460       _BG_InReboundHold          30004460 f   bg_panimate.obj
 0001:00003480       _BG_InBackFlip             30004480 f   bg_panimate.obj
 0001:000034a0       _BG_SaberInAttack          300044a0 f   bg_panimate.obj
 0001:000034d0       _BG_SaberInKata            300044d0 f   bg_panimate.obj
 0001:000034f0       _BG_InKataAnim             300044f0 f   bg_panimate.obj
 0001:00003510       _BG_SaberInSpecial         30004510 f   bg_panimate.obj
 0001:00003530       _BG_KickMove               30004530 f   bg_panimate.obj
 0001:00003550       _BG_SaberInIdle            30004550 f   bg_panimate.obj
 0001:00003570       _BG_FlippingAnim           30004570 f   bg_panimate.obj
 0001:00003650       _BG_SpinningSaberAnim      30004650 f   bg_panimate.obj
 0001:000038b0       _BG_SaberInSpecialAttack   300048b0 f   bg_panimate.obj
 0001:00003a10       _BG_KickingAnim            30004a10 f   bg_panimate.obj
 0001:00003a70       _BG_InGrappleMove          30004a70 f   bg_panimate.obj
 0001:00003ac0       _BG_InRoll                 30004ac0 f   bg_panimate.obj
 0001:00003b50       _BG_InDeathAnim            30004b50 f   bg_panimate.obj
 0001:00003b90       _BG_InKnockDownOnly        30004b90 f   bg_panimate.obj
 0001:00003bb0       _BG_InSaberLockOld         30004bb0 f   bg_panimate.obj
 0001:00003bf0       _BG_InSaberLock            30004bf0 f   bg_panimate.obj
 0001:00003cb0       _PM_SaberBounceForAttack   30004cb0 f   bg_panimate.obj
 0001:00003d30       _PM_SaberInParry           30004d30 f   bg_panimate.obj
 0001:00003d50       _PM_SaberInKnockaway       30004d50 f   bg_panimate.obj
 0001:00003d70       _PM_SaberInReflect         30004d70 f   bg_panimate.obj
 0001:00003d90       _PM_SaberInStart           30004d90 f   bg_panimate.obj
 0001:00003db0       _PM_SaberInReturn          30004db0 f   bg_panimate.obj
 0001:00003dd0       _PM_InSaberAnim            30004dd0 f   bg_panimate.obj
 0001:00003df0       _PM_InKnockDown            30004df0 f   bg_panimate.obj
 0001:00003e50       _PM_PainAnim               30004e50 f   bg_panimate.obj
 0001:00003e70       _PM_JumpingAnim            30004e70 f   bg_panimate.obj
 0001:00003e90       _PM_LandingAnim            30004e90 f   bg_panimate.obj
 0001:00003ee0       _PM_InOnGroundAnim         30004ee0 f   bg_panimate.obj
 0001:00003f20       _PM_InRollComplete         30004f20 f   bg_panimate.obj
 0001:00003f50       _PM_CanRollFromSoulCal     30004f50 f   bg_panimate.obj
 0001:00003f80       _BG_SuperBreakLoseAnim     30004f80 f   bg_panimate.obj
 0001:00004010       _BG_SuperBreakWinAnim      30005010 f   bg_panimate.obj
 0001:000040a0       _BG_SaberLockBreakAnim     300050a0 f   bg_panimate.obj
 0001:00004230       _BG_FullBodyTauntAnim      30005230 f   bg_panimate.obj
 0001:00004280       _BG_AnimLength             30005280 f   bg_panimate.obj
 0001:000042d0       _PM_AnimLength             300052d0 f   bg_panimate.obj
 0001:00004340       _PM_SaberInTransition      30005340 f   bg_panimate.obj
 0001:00004360       _BG_SaberInTransitionAny   30005360 f   bg_panimate.obj
 0001:00004390       _BG_InitAnimsets           30005390 f   bg_panimate.obj
 0001:000043b0       _CG_RunMenuScript          300053b0 f   cg_newDraw.obj
 0001:000043b0       _BG_ClearAnimsets          300053b0 f   bg_panimate.obj
 0001:000043b0       _CG_OwnerDraw              300053b0 f   cg_newDraw.obj
 0001:000043c0       _BG_AnimsetAlloc           300053c0 f   bg_panimate.obj
 0001:000043f0       _CheckAnimFrameForEventType 300053f0 f   bg_panimate.obj
 0001:00004420       _ParseAnimationEvtBlock    30005420 f   bg_panimate.obj
 0001:000049e0       _BG_ParseAnimationEvtFile  300059e0 f   bg_panimate.obj
 0001:00004cd0       _BG_ParseAnimationFile     30005cd0 f   bg_panimate.obj
 0001:00005000       _PM_ContinueLegsAnim       30006000 f   bg_panimate.obj
 0001:00005050       _PM_StartTorsoAnim         30006050 f   bg_panimate.obj
 0001:00005080       _BG_SaberStartTransAnim    30006080 f   bg_panimate.obj
 0001:00005180       _BG_SetAnimFinal           30006180 f   bg_panimate.obj
 0001:000053e0       _BG_SetAnim                300063e0 f   bg_panimate.obj
 0001:00005490       _PM_SetAnim                30006490 f   bg_panimate.obj
 0001:000054c0       _BG_InSpecialJump          300064c0 f   bg_panimate.obj
 0001:000055c0       _PM_ForceLegsAnim          300065c0 f   bg_panimate.obj
 0001:00005770       _PM_BGEntForNum            30006770 f   bg_pmove.obj
 0001:000057a0       _BG_SabersOff              300067a0 f   bg_pmove.obj
 0001:000057d0       _BG_KnockDownable          300067d0 f   bg_pmove.obj
 0001:00005800       _PM_GetSaberStance         30006800 f   bg_pmove.obj
 0001:000058f0       _PM_pitch_roll_for_slope   300068f0 f   bg_pmove.obj
 0001:00005bd0       _PM_SetSpecialMoveValues   30006bd0 f   bg_pmove.obj
 0001:00005fc0       _BG_VehicleTurnRateForSpeed 30006fc0 f   bg_pmove.obj
 0001:00006090       _PM_AddEvent               30007090 f   bg_pmove.obj
 0001:000060b0       _PM_AddEventWithParm       300070b0 f   bg_pmove.obj
 0001:000060d0       _PM_AddTouchEnt            300070d0 f   bg_pmove.obj
 0001:00006120       _PM_ClipVelocity           30007120 f   bg_pmove.obj
 0001:00006780       _PM_ForceJumpingUp         30007780 f   bg_pmove.obj
 0001:000068e0       _PM_SetPMViewAngle         300078e0 f   bg_pmove.obj
 0001:00006950       _PM_AdjustAngleForWallRun  30007950 f   bg_pmove.obj
 0001:00006cf0       _PM_AdjustAngleForWallRunUp 30007cf0 f   bg_pmove.obj
 0001:00007090       _PM_AdjustAngleForWallJump 30008090 f   bg_pmove.obj
 0001:00007490       _PM_SetForceJumpZStart     30008490 f   bg_pmove.obj
 0001:000074d0       _PM_GrabWallForJump        300084d0 f   bg_pmove.obj
 0001:0000ad60       _PM_CheckDualForwardJumpDuck 3000bd60 f   bg_pmove.obj
 0001:0000adf0       _PM_CheckFixMins           3000bdf0 f   bg_pmove.obj
 0001:0000b3a0       _PM_Use                    3000c3a0 f   bg_pmove.obj
 0001:0000b400       _PM_WalkingAnim            3000c400 f   bg_pmove.obj
 0001:0000b460       _PM_RunningAnim            3000c460 f   bg_pmove.obj
 0001:0000b4b0       _PM_SwimmingAnim           3000c4b0 f   bg_pmove.obj
 0001:0000b4d0       _PM_FootSlopeTrace         3000c4d0 f   bg_pmove.obj
 0001:0000b6a0       _BG_InSlopeAnim            3000c6a0 f   bg_pmove.obj
 0001:0000b6c0       _PM_AdjustStandAnimForSlope 3000c6c0 f   bg_pmove.obj
 0001:0000bba0       _PM_LegsSlopeBackTransition 3000cba0 f   bg_pmove.obj
 0001:0000c540       _BG_ClearRocketLock        3000d540 f   bg_pmove.obj
 0001:0000c570       _PM_BeginWeaponChange      3000d570 f   bg_pmove.obj
 0001:0000c620       _PM_FinishWeaponChange     3000d620 f   bg_pmove.obj
 0001:0000c6a0       _BG_VehTraceFromCamPos     3000d6a0 f   bg_pmove.obj
 0001:0000c850       _PM_RocketLock             3000d850 f   bg_pmove.obj
 0001:0000d180       _PM_VehicleWeaponAnimate   3000e180 f   bg_pmove.obj
 0001:0000eb10       _BG_UnrestrainedPitchRoll  3000fb10 f   bg_pmove.obj
 0001:0000eb70       _PM_UpdateViewAngles       3000fb70 f   bg_pmove.obj
 0001:0000ec10       _PM_AdjustAttackStates     3000fc10 f   bg_pmove.obj
 0001:0000ef00       _BG_CmdForRoll             3000ff00 f   bg_pmove.obj
 0001:0000f0d0       _BG_AdjustClientSpeed      300100d0 f   bg_pmove.obj
 0001:0000f440       _BG_InKnockDown            30010440 f   bg_pmove.obj
 0001:0000f490       _BG_InRollES               30010490 f   bg_pmove.obj
 0001:0000f4b0       _BG_IK_MoveArm             300104b0 f   bg_pmove.obj
 0001:0000f8c0       _BG_UpdateLookAngles       300108c0 f   bg_pmove.obj
 0001:000101e0       _BG_InRoll2                300111e0 f   bg_pmove.obj
 0001:00010270       _BG_G2PlayerAngles         30011270 f   bg_pmove.obj
 0001:00010db0       _BG_G2ATSTAngles           30011db0 f   bg_pmove.obj
 0001:00011100       _PM_VehicleViewAngles      30012100 f   bg_pmove.obj
 0001:00011340       _PM_WeaponOkOnVehicle      30012340 f   bg_pmove.obj
 0001:00011360       _PM_GetOkWeaponForVehicle  30012360 f   bg_pmove.obj
 0001:000113a0       _PM_VehForcedTurning       300123a0 f   bg_pmove.obj
 0001:00011530       _PM_VehFaceHyperspacePoint 30012530 f   bg_pmove.obj
 0001:000117e0       _BG_VehicleAdjustBBoxForOrientation 300127e0 f   bg_pmove.obj
 0001:00011c40       _PM_MoveForKata            30012c40 f   bg_pmove.obj
 0001:00011da0       _PM_HoverTrace             30012da0 f   bg_pmove.obj
 0001:00012210       _PmoveSingle               30013210 f   bg_pmove.obj
 0001:00013770       _Pmove                     30014770 f   bg_pmove.obj
 0001:00013820       _PM_irand_timesync         30014820 f   bg_saber.obj
 0001:00013870       _BG_ForcePowerDrain        30014870 f   bg_saber.obj
 0001:00013960       _BG_EnoughForcePowerForMove 30014960 f   bg_saber.obj
 0001:00013990       _PM_SaberMoveQuadrantForMovement 30014990 f   bg_saber.obj
 0001:000139f0       _PM_SaberInBounce          300149f0 f   bg_saber.obj
 0001:00013a20       _PM_SaberAttackChainAngle  30014a20 f   bg_saber.obj
 0001:00013a60       _PM_SaberKataDone          30014a60 f   bg_saber.obj
 0001:00013bb0       _PM_SaberLockWinAnim       30014bb0 f   bg_saber.obj
 0001:00013d10       _PM_SaberLockLoseAnim      30014d10 f   bg_saber.obj
 0001:00013dd0       _PM_SaberLockResultAnim    30014dd0 f   bg_saber.obj
 0001:00013eb0       _PM_SaberLockBreak         30014eb0 f   bg_saber.obj
 0001:000141e0       _PM_SaberLocked            300151e0 f   bg_saber.obj
 0001:00014690       _PM_SaberInBrokenParry     30015690 f   bg_saber.obj
 0001:000146c0       _PM_BrokenParryForParry    300156c0 f   bg_saber.obj
 0001:000147d0       _PM_CanBackstab            300157d0 f   bg_saber.obj
 0001:000148f0       _PM_GroundDistance         300158f0 f   bg_saber.obj
 0001:000149a0       _PM_WalkableGroundDistance 300159a0 f   bg_saber.obj
 0001:00014a70       _PM_KickMoveForConditions  30015a70 f   bg_saber.obj
 0001:00014ab0       _PM_SaberPowerCheck        30015ab0 f   bg_saber.obj
 0001:00014b00       _BG_MySaber                30015b00 f   bg_saber.obj
 0001:00014b60       _PM_SaberAnimTransitionAnim 30015b60 f   bg_saber.obj
 0001:00014ce0       _PM_CheckStabDown          30015ce0 f   bg_saber.obj
 0001:00014ef0       _PM_SaberFlipOverAttackMove 30015ef0 f   bg_saber.obj
 0001:00015080       _PM_SaberBackflipAttackMove 30016080 f   bg_saber.obj
 0001:00015190       _PM_SaberLungeAttackMove   30016190 f   bg_saber.obj
 0001:00015320       _PM_SaberJumpAttackMove2   30016320 f   bg_saber.obj
 0001:00015430       _PM_SaberJumpAttackMove    30016430 f   bg_saber.obj
 0001:00015640       _PM_SaberAttackForMovement 30016640 f   bg_saber.obj
 0001:00016390       _PM_CanDoKata              30017390 f   bg_saber.obj
 0001:000164c0       _PM_CheckAltKickAttack     300174c0 f   bg_saber.obj
 0001:00016560       _PM_CanDoRollStab          30017560 f   bg_saber.obj
 0001:000165c0       _PM_SetSaberMove           300175c0 f   bg_saber.obj
 0001:00016cc0       _PM_WeaponLightsaber       30017cc0 f   bg_saber.obj
 0001:00018a30       _BG_ParseLiteral           30019a30 f   bg_saberLoad.obj
 0001:00018a90       _TranslateSaberColor       30019a90 f   bg_saberLoad.obj
 0001:00018b50       _TranslateSaberStyle       30019b50 f   bg_saberLoad.obj
 0001:00018c10       _WP_SaberBladeUseSecondBladeStyle 30019c10 f   bg_saberLoad.obj
 0001:00018c40       _WP_SaberSetDefaults       30019c40 f   bg_saberLoad.obj
 0001:00018f80       _WP_SaberParseParms        30019f80 f   bg_saberLoad.obj
 0001:0001b590       _WP_SaberParseParm         3001c590 f   bg_saberLoad.obj
 0001:0001b6c0       _WP_SaberValidForPlayerInMP 3001c6c0 f   bg_saberLoad.obj
 0001:0001b720       _WP_SaberLoadParms         3001c720 f   bg_saberLoad.obj
 0001:0001b860       _BG_SI_SetLength           3001c860 f   bg_saberLoad.obj
 0001:0001b890       _BG_SI_SetDesiredLength    3001c890 f   bg_saberLoad.obj
 0001:0001b8e0       _BG_SI_SetLengthGradual    3001c8e0 f   bg_saberLoad.obj
 0001:0001ba60       _WP_RemoveSaber            3001ca60 f   bg_saberLoad.obj
 0001:0001baf0       _WP_SetSaber               3001caf0 f   bg_saberLoad.obj
 0001:0001bbb0       _BG_SiegeStripTabs         3001cbb0 f   bg_saga.obj
 0001:0001bbf0       _BG_SiegeGetValueGroup     3001cbf0 f   bg_saga.obj
 0001:0001bf00       _BG_SiegeGetPairedValue    3001cf00 f   bg_saga.obj
 0001:0001c170       _BG_SiegeTranslateForcePowers 3001d170 f   bg_saga.obj
 0001:0001c350       _BG_SiegeTranslateGenericTable 3001d350 f   bg_saga.obj
 0001:0001c440       _BG_SiegeParseClassFile    3001d440 f   bg_saga.obj
 0001:0001cd30       _BG_SiegeLoadClasses       3001dd30 f   bg_saga.obj
 0001:0001ce40       _BG_SiegeFindClassByName   3001de40 f   bg_saga.obj
 0001:0001ce90       _BG_SiegeLoadTeams         3001de90 f   bg_saga.obj
 0001:0001d1c0       _BG_SiegeFindThemeForTeam  3001e1c0 f   bg_saga.obj
 0001:0001d1f0       _BG_PrecacheSabersForSiegeTeam 3001e1f0 f   bg_saga.obj
 0001:0001d2d0       _BG_SiegeFindTeamForTheme  3001e2d0 f   bg_saga.obj
 0001:0001d330       _BG_SiegeSetTeamTheme      3001e330 f   bg_saga.obj
 0001:0001d360       _BG_SiegeFindClassIndexByName 3001e360 f   bg_saga.obj
 0001:0001d3f0       _PM_VehicleImpact          3001e3f0 f   bg_slidemove.obj
 0001:0001d9e0       _PM_GroundSlideOkay        3001e9e0 f   bg_slidemove.obj
 0001:0001da60       _PM_SlideMove              3001ea60 f   bg_slidemove.obj
 0001:0001e190       _PM_StepSlideMove          3001f190 f   bg_slidemove.obj
 0001:0001e9a0       _VEH_LoadVehWeapon         3001f9a0 f   bg_vehicleLoad.obj
 0001:0001eb80       _VEH_VehWeaponIndexForName 3001fb80 f   bg_vehicleLoad.obj
 0001:0001ec20       _BG_SetSharedVehicleFunctions 3001fc20 f   bg_vehicleLoad.obj
 0001:0001ec80       _BG_VehicleClampData       3001fc80 f   bg_vehicleLoad.obj
 0001:0001efe0       _BG_VehWeaponLoadParms     3001ffe0 f   bg_vehicleLoad.obj
 0001:0001f160       _BG_VehicleLoadParms       30020160 f   bg_vehicleLoad.obj
 0001:0001f380       _AttachRidersGeneric       30020380 f   bg_vehicleLoad.obj
 0001:0001f420       _VEH_LoadVehicle           30020420 f   bg_vehicleLoad.obj
 0001:0001fc20       _VEH_VehicleIndexForName   30020c20 f   bg_vehicleLoad.obj
 0001:0001fcc0       _BG_VehicleGetIndex        30020cc0 f   bg_vehicleLoad.obj
 0001:0001fcd0       _BG_GetVehicleModelName    30020cd0 f   bg_vehicleLoad.obj
 0001:0001fd20       _BG_GetVehicleSkinName     30020d20 f   bg_vehicleLoad.obj
 0001:0001fd80       _CG_TargetCommand_f        30020d80 f   cg_consolecmds.obj
 0001:00020790       _reCalc                    30021790 f   cg_consolecmds.obj
 0001:00021db0       _CG_DumpLoc_f              30022db0 f   cg_consolecmds.obj
 0001:000235b0       _FS_BuildOSPath            300245b0 f   cg_consolecmds.obj
 0001:00023880       _SaveTGA                   30024880 f   cg_consolecmds.obj
 0001:000239d0       _SavePNG                   300249d0 f   cg_consolecmds.obj
 0001:00023bb0       _R_MME_SaveShot            30024bb0 f   cg_consolecmds.obj
 0001:000240e0       _R_MME_CheckCvars          300250e0 f   cg_consolecmds.obj
 0001:00024240       _my_glFrustum@48           30025240 f   cg_consolecmds.obj
 0001:00024280       _my_glMatrixMode@4         30025280 f   cg_consolecmds.obj
 0001:000242a0       _my_glLoadMatrixf@4        300252a0 f   cg_consolecmds.obj
 0001:00024300       _R_MME_TakeShot            30025300 f   cg_consolecmds.obj
 0001:00024760       _R_MME_CaptureShotCmd      30025760 f   cg_consolecmds.obj
 0001:00024900       _R_MME_Init                30025900 f   cg_consolecmds.obj
 0001:00024990       _R_MME_Shutdown            30025990 f   cg_consolecmds.obj
 0001:000249b0       _R_ScreenShot_f            300259b0 f   cg_consolecmds.obj
 0001:00024a50       _CG_ConsoleCommand         30025a50 f   cg_consolecmds.obj
 0001:00024aa0       _CG_InitConsoleCommands    30025aa0 f   cg_consolecmds.obj
 0001:00024e60       _CG_Text_Width             30025e60 f   cg_draw.obj
 0001:00024eb0       _CG_Text_Height            30025eb0 f   cg_draw.obj
 0001:00024f20       _CG_Text_Paint             30025f20 f   cg_draw.obj
 0001:000257b0       _CG_Draw3DModel            300267b0 f   cg_draw.obj
 0001:000258e0       _CG_DrawFlagModel          300268e0 f   cg_draw.obj
 0001:00025a60       _CG_DrawHealth             30026a60 f   cg_draw.obj
 0001:00025bb0       _CG_DrawArmor              30026bb0 f   cg_draw.obj
 0001:00026130       _CG_DrawForcePower         30027130 f   cg_draw.obj
 0001:00026360       _CG_DrawHUD                30027360 f   cg_draw.obj
 0001:000267d0       _CG_DrawForceSelect        300277d0 f   cg_draw.obj
 0001:00026b30       _CG_DrawInvenSelect        30027b30 f   cg_draw.obj
 0001:00026ee0       _CG_CheckTargetVehicle     30027ee0 f   cg_draw.obj
 0001:00027010       _CG_DrawVehicleShields     30028010 f   cg_draw.obj
 0001:00027180       _CG_DrawVehicleAmmo        30028180 f   cg_draw.obj
 0001:00027330       _CG_DrawVehicleAmmoUpper   30028330 f   cg_draw.obj
 0001:000274e0       _CG_DrawVehicleAmmoLower   300284e0 f   cg_draw.obj
 0001:00027690       _CG_DrawVehicleTurboRecharge 30028690 f   cg_draw.obj
 0001:00027770       _CG_DrawVehicleWeaponsLinked 30028770 f   cg_draw.obj
 0001:00027840       _CG_DrawVehicleSpeed       30028840 f   cg_draw.obj
 0001:00027a20       _CG_DrawVehicleArmor       30028a20 f   cg_draw.obj
 0001:00027b80       _CG_DrawVehicleDamage      30028b80 f   cg_draw.obj
 0001:00027cd0       _CG_DrawVehicleDamageHUD   30028cd0 f   cg_draw.obj
 0001:00027ff0       _CG_DrawVehicleHud         30028ff0 f   cg_draw.obj
 0001:000282b0       _CG_DrawTeamBackground     300292b0 f   cg_draw.obj
 0001:000286c0       _CG_DrawHealthBarRough     300296c0 f   cg_draw.obj
 0001:000287e0       _CG_DrawDuelistHealth      300297e0 f   cg_draw.obj
 0001:000288b0       _CG_DrawRadar              300298b0 f   cg_draw.obj
 0001:00029fc0       _CG_AddLagometerFrameInfo  3002afc0 f   cg_draw.obj
 0001:00029ff0       _CG_AddLagometerSnapshotInfo 3002aff0 f   cg_draw.obj
 0001:0002a550       _CG_DrawSiegeMessage       3002b550 f   cg_draw.obj
 0001:0002a590       _CG_CenterPrint            3002b590 f   cg_draw.obj
 0001:0002a7e0       _CG_DrawSiegeInfo          3002b7e0 f   cg_draw.obj
 0001:0002ab30       _CG_DrawHealthBar          3002bb30 f   cg_draw.obj
 0001:0002acb0       _CG_DrawHaqrBar            3002bcb0 f   cg_draw.obj
 0001:0002ae50       _CG_DrawGenericTimerBar    3002be50 f   cg_draw.obj
 0001:0002afb0       _CG_WorldCoordToScreenCoordFloat 3002bfb0 f   cg_draw.obj
 0001:0002b0d0       _CG_WorldCoordToScreenCoord 3002c0d0 f   cg_draw.obj
 0001:0002b110       _CG_SaberClashFlare        3002c110 f   cg_draw.obj
 0001:0002b2c0       _CG_DottedLine             3002c2c0 f   cg_draw.obj
 0001:0002b3a0       _CG_BracketEntity          3002c3a0 f   cg_draw.obj
 0001:0002b920       _CG_InFighter              3002c920 f   cg_draw.obj
 0001:0002b960       _CG_InATST                 3002c960 f   cg_draw.obj
 0001:0002b9a0       _CG_DrawBracketedEntities  3002c9a0 f   cg_draw.obj
 0001:0002c080       _CG_CalcVehicleMuzzlePoint 3002d080 f   cg_draw.obj
 0001:0002c270       _CG_CalcEWebMuzzlePoint    3002d270 f   cg_draw.obj
 0001:0002c350       _CG_SanitizeString         3002d350 f   cg_draw.obj
 0001:0002d500       _CG_DrawFlagStatus         3002e500 f   cg_draw.obj
 0001:0002d620       _CG_DrawJetpackFuel        3002e620 f   cg_draw.obj
 0001:0002d760       _CG_DrawEWebHealth         3002e760 f   cg_draw.obj
 0001:0002d8f0       _CG_DrawCloakFuel          3002e8f0 f   cg_draw.obj
 0001:0002ddd0       _CG_ChatBox_StrInsert      3002edd0 f   cg_draw.obj
 0001:0002de40       _CG_ChatBox_AddString      3002ee40 f   cg_draw.obj
 0001:0002dfc0       _CG_ChatBox_ArrayInsert    3002efc0 f   cg_draw.obj
 0001:0002f2f0       _CG_DrawSiegeMessageNonMenu 300302f0 f   cg_draw.obj
 0001:00030b10       _CG_DrawActive             30031b10 f   cg_draw.obj
 0001:00030ca0       _CG_GetColorForHealth      30031ca0 f   cg_drawtools.obj
 0001:00030d40       _CG_DrawSides              30031d40 f   cg_drawtools.obj
 0001:00030de0       _CG_DrawTopBottom          30031de0 f   cg_drawtools.obj
 0001:00030e80       _CG_FillRect               30031e80 f   cg_drawtools.obj
 0001:00030ee0       _CG_DrawPic                30031ee0 f   cg_drawtools.obj
 0001:00030f30       _CG_DrawRotatePic          30031f30 f   cg_drawtools.obj
 0001:00030f80       _CG_DrawRotatePic2         30031f80 f   cg_drawtools.obj
 0001:00030fd0       _CG_DrawChar               30031fd0 f   cg_drawtools.obj
 0001:00031070       _CG_DrawStringExt          30032070 f   cg_drawtools.obj
 0001:00031200       _CG_DrawBigString          30032200 f   cg_drawtools.obj
 0001:00031240       _CG_DrawSmallString        30032240 f   cg_drawtools.obj
 0001:00031280       _CG_DrawStrlen             30032280 f   cg_drawtools.obj
 0001:00031350       _CG_TileClear              30032350 f   cg_drawtools.obj
 0001:00031400       _CG_FadeColor              30032400 f   cg_drawtools.obj
 0001:00031460       _CG_ColorForGivenHealth    30032460 f   cg_drawtools.obj
 0001:000314d0       _CG_ColorForHealth         300324d0 f   cg_drawtools.obj
 0001:00031540       _CG_DrawNumField           30032540 f   cg_drawtools.obj
 0001:000317f0       _UI_DrawProportionalString 300327f0 f   cg_drawtools.obj
 0001:000318a0       _UI_DrawScaledProportionalString 300328a0 f   cg_drawtools.obj
 0001:00031930       _CG_DrawRect               30032930 f   cg_drawtools.obj
 0001:000319a0       _CG_BubbleTrail            300329a0 f   cg_effects.obj
 0001:00031c20       _CG_SmokePuff              30032c20 f   cg_effects.obj
 0001:00031dd0       _CG_TestLine               30032dd0 f   cg_effects.obj
 0001:00032690       _CG_InitGlass              30033690 f   cg_effects.obj
 0001:00032730       _CG_DoGlass                30033730 f   cg_effects.obj
 0001:00032b00       _CG_GlassShatter           30033b00 f   cg_effects.obj
 0001:00032b60       _CG_MiscModelExplosion     30033b60 f   cg_effects.obj
 0001:00032d70       _CG_Chunks                 30033d70 f   cg_effects.obj
 0001:000333f0       _CG_ScorePlum              300343f0 f   cg_effects.obj
 0001:00033560       _CG_PositionEntityOnTag    30034560 f   cg_ents.obj
 0001:00033650       _CG_PositionRotatedEntityOnTag 30034650 f   cg_ents.obj
 0001:00033740       _CG_SetEntitySoundPosition 30034740 f   cg_ents.obj
 0001:000337c0       _CG_S_AddLoopingSound      300347c0 f   cg_ents.obj
 0001:00033880       _CG_S_AddRealLoopingSound  30034880 f   cg_ents.obj
 0001:00033890       _CG_S_StopLoopingSound     30034890 f   cg_ents.obj
 0001:00033930       _CG_S_UpdateLoopingSounds  30034930 f   cg_ents.obj
 0001:00033b80       _FX_AddOrientedLine        30034b80 f   cg_ents.obj
 0001:00033c90       _FX_DrawPortableShield     30034c90 f   cg_ents.obj
 0001:00033e10       _CG_Special                30034e10 f   cg_ents.obj
 0001:00033e40       _CG_SetGhoul2Info          30034e40 f   cg_ents.obj
 0001:00033eb0       _ScaleModelAxis            30034eb0 f   cg_ents.obj
 0001:00033fa0       _CG_Disintegration         30034fa0 f   cg_ents.obj
 0001:000342e0       _CG_AddRadarEnt            300352e0 f   cg_ents.obj
 0001:00034310       _CG_AddBracketedEnt        30035310 f   cg_ents.obj
 0001:00034340       _G_GetDismemberBolt        30035340 f   cg_ents.obj
 0001:00034600       _G_Dismember               30035600 f   cg_ents.obj
 0001:00036a90       _CG_GreyItem               30037a90 f   cg_ents.obj
 0001:00037cf0       _CG_PlayDoorLoopSound      30038cf0 f   cg_ents.obj
 0001:00037db0       _CG_PlayDoorSound          30038db0 f   cg_ents.obj
 0001:000380f0       _CG_Beam                   300390f0 f   cg_ents.obj
 0001:00038300       _CG_AdjustPositionForMover 30039300 f   cg_ents.obj
 0001:00038510       _CG_CalcEntityLerpPositions 30039510 f   cg_ents.obj
 0001:00038ab0       _CG_ManualEntityRender     30039ab0 f   cg_ents.obj
 0001:00038ac0       _CG_AddPacketEntities      30039ac0 f   cg_ents.obj
 0001:00038dc0       _CG_ROFF_NotetrackCallback 30039dc0 f   cg_ents.obj
 0001:000391c0       _CG_Cube                   3003a1c0 f   cg_ents.obj
 0001:00039350       _CG_PlaceString            3003a350 f   cg_event.obj
 0001:00039c10       _CG_ToggleBinoculars       3003ac10 f   cg_event.obj
 0001:00039ca0       _CG_LocalTimingBar         3003aca0 f   cg_event.obj
 0001:00039f80       _CG_PainEvent              3003af80 f   cg_event.obj
 0001:0003a000       _CG_ReattachLimb           3003b000 f   cg_event.obj
 0001:0003a060       _CG_PrintCTFMessage        3003b060 f   cg_event.obj
 0001:0003a210       _CG_GetCTFMessageEvent     3003b210 f   cg_event.obj
 0001:0003a280       _DoFall                    3003b280 f   cg_event.obj
 0001:0003a420       _CG_InClientBitflags       3003b420 f   cg_event.obj
 0001:0003a4c0       _CG_TryPlayCustomSound     3003b4c0 f   cg_event.obj
 0001:0003a4f0       _CG_G2MarkEvent            3003b4f0 f   cg_event.obj
 0001:0003a720       _CG_CalcVehMuzzle          3003b720 f   cg_event.obj
 0001:0003a810       _CG_VehMuzzleFireFX        3003b810 f   cg_event.obj
 0001:0003a920       _CG_GetStringForVoiceSound 3003b920 f   cg_event.obj
 0001:0003a980       _CG_EntityEvent            3003b980 f   cg_event.obj
 0001:0003e5a0       _CG_CheckEvents            3003f5a0 f   cg_event.obj
 0001:0003e630       _CG_LoadingString          3003f630 f   cg_info.obj
 0001:0003e650       _CG_LoadingItem            3003f650 f   cg_info.obj
 0001:0003e6c0       _CG_LoadingClient          3003f6c0 f   cg_info.obj
 0001:0003e720       _CG_LoadBar                3003f720 f   cg_info.obj
 0001:0003e830       _CG_DrawInformation        3003f830 f   cg_info.obj
 0001:0003f160       _CG_RunLightStyles         30040160 f   cg_light.obj
 0001:0003f1f0       _CG_SetLightstyle          300401f0 f   cg_light.obj
 0001:0003f2b0       _CG_ClearLightStyles       300402b0 f   cg_light.obj
 0001:0003f3a0       _CG_InitLocalEntities      300403a0 f   cg_localents.obj
 0001:0003f3f0       _CG_FreeLocalEntity        300403f0 f   cg_localents.obj
 0001:0003f430       _CG_AllocLocalEntity       30040430 f   cg_localents.obj
 0001:0003f4c0       _CG_BloodTrail             300404c0 f   cg_localents.obj
 0001:0003f590       _CG_FragmentBounceMark     30040590 f   cg_localents.obj
 0001:0003f5c0       _CG_FragmentBounceSound    300405c0 f   cg_localents.obj
 0001:0003f650       _CG_ReflectVelocity        30040650 f   cg_localents.obj
 0001:0003f780       _CG_AddFragment            30040780 f   cg_localents.obj
 0001:0003f9c0       _CG_AddFadeRGB             300409c0 f   cg_localents.obj
 0001:00040940       _CG_AddRefEntity           30041940 f   cg_localents.obj
 0001:000409a0       _CG_AddScorePlum           300419a0 f   cg_localents.obj
 0001:00040c60       _CG_AddOLine               30041c60 f   cg_localents.obj
 0001:00040d80       _CG_AddLine                30041d80 f   cg_localents.obj
 0001:00040da0       _CG_AddLocalEntities       30041da0 f   cg_localents.obj
 0001:00040f20       _CG_NoUseableForce         30041f20 f   cg_main.obj
 0001:000413f0       _CG_DrawMiscEnts           300423f0 f   cg_main.obj
 0001:000414f0       _CG_RegisterCvars          300424f0 f   cg_main.obj
 0001:00041800       _CG_CrosshairPlayer        30042800 f   cg_main.obj
 0001:00041820       _CG_LastAttacker           30042820 f   cg_main.obj
 0001:00041840       _CG_Printf                 30042840 f   cg_main.obj
 0001:00041840       _CG_Error                  30042840 f   cg_main.obj
 0001:00041870       _Com_Error                 30042870 f   cg_main.obj
 0001:000418b0       _Com_Printf                300428b0 f   cg_main.obj
 0001:000418f0       _CG_Argv                   300428f0 f   cg_main.obj
 0001:00041910       _BG_GetTime                30042910 f   cg_main.obj
 0001:00041a70       _CG_ParseWeatherEffect     30042a70 f   cg_main.obj
 0001:00041a90       _CG_ParseSiegeState        30042a90 f   cg_main.obj
 0001:00041c10       _CG_GetStringEdString      30042c10 f   cg_main.obj
 0001:00041c60       _CG_SiegeCountCvars        30042c60 f   cg_main.obj
 0001:00041ea0       _CG_BuildSpectatorString   30042ea0 f   cg_main.obj
 0001:00041f20       _CG_ConfigString           30042f20 f   cg_main.obj
 0001:00041f50       _CG_StartMusic             30042f50 f   cg_main.obj
 0001:00041fc0       _CG_Asset_Parse            30042fc0 f   cg_main.obj
 0001:00042480       _CG_ParseMenu              30043480 f   cg_main.obj
 0001:000425d0       _CG_SetScoreSelection      300435d0 f   cg_main.obj
 0001:00042910       _CG_DeferMenuScript        30043910 f   cg_newDraw.obj
 0001:00042910       _ItemParse_isSaber         30043910 f   ui_shared.obj
 0001:00042910       _ItemParse_isSaber2        30043910 f   ui_shared.obj
 0001:00042990       _CG_Cvar_Get               30043990 f   cg_main.obj
 0001:000429e0       _CG_Cvar_Int               300439e0 f   cg_main.obj
 0001:00042a20       _CG_Cvar_String            30043a20 f   cg_main.obj
 0001:00042a70       _CG_Text_PaintWithCursor   30043a70 f   cg_main.obj
 0001:00042c20       _CG_LoadMenus              30043c20 f   cg_main.obj
 0001:00042db0       _CG_LoadHudMenu            30043db0 f   cg_main.obj
 0001:00042fe0       _CG_AssetCache             30043fe0 f   cg_main.obj
 0001:000430f0       _CG_TransitionPermanent    300440f0 f   cg_main.obj
 0001:000431a0       _CG_NewString              300441a0 f   cg_main.obj
 0001:00043240       _CG_CreateWeatherZoneFromSpawnEnt 30044240 f   cg_main.obj
 0001:00043270       _CG_CreateModelFromSpawnEnt 30044270 f   cg_main.obj
 0001:00043440       _CG_ParseSpawnVars         30044440 f   cg_main.obj
 0001:00043600       _CG_SpawnCGameEntFromVars  30044600 f   cg_main.obj
 0001:000437b0       _CG_GetLocationString      300447b0 f   cg_main.obj
 0001:000437e0       _CG_DestroyAllGhoul2       300447e0 f   cg_main.obj
 0001:00043850       _CG_Shutdown               30044850 f   cg_main.obj
 0001:000438e0       _CG_NextInventory_f        300448e0 f   cg_main.obj
 0001:00043970       _CG_PrevInventory_f        30044970 f   cg_main.obj
 0001:00043b00       _CG_MiscEnt                30044b00 f   cg_main.obj
 0001:00043cc0       _CG_UpdateCvars            30044cc0 f   cg_main.obj
 0001:00045ac0       _CG_Init                   30046ac0 f   cg_main.obj
 0001:00045f80       _CG_NextForcePower_f       30046f80 f   cg_main.obj
 0001:00046030       _CG_PrevForcePower_f       30047030 f   cg_main.obj
 0001:000460e0       _vmMain                    300470e0 f   cg_main.obj
 0001:00046480       _CG_InitMarkPolys          30047480 f   cg_marks.obj
 0001:000464d0       _CG_AllocMark              300474d0 f   cg_marks.obj
 0001:00046560       _CG_ImpactMark             30047560 f   cg_marks.obj
 0001:00046950       _CG_AddMarks               30047950 f   cg_marks.obj
 0001:00046b60       _CG_ClearParticles         30047b60 f   cg_marks.obj
 0001:00046bd0       _CG_AddParticleToScene     30047bd0 f   cg_marks.obj
 0001:00048570       _CG_AddParticles           30049570 f   cg_marks.obj
 0001:00048860       _CG_GetSelectedPlayer      30049860 f   cg_newDraw.obj
 0001:00048880       _CG_StatusHandle           30049880 f   cg_newDraw.obj
 0001:000488e0       _CG_GetValue               300498e0 f   cg_newDraw.obj
 0001:00048a20       _CG_OtherTeamHasFlag       30049a20 f   cg_newDraw.obj
 0001:00048a60       _CG_YourTeamHasFlag        30049a60 f   cg_newDraw.obj
 0001:00048aa0       _CG_OwnerDrawVisible       30049aa0 f   cg_newDraw.obj
 0001:00048bf0       _CG_GetKillerText          30049bf0 f   cg_newDraw.obj
 0001:00048c30       _CG_GetGameStatusText      30049c30 f   cg_newDraw.obj
 0001:00048d40       _CG_GameTypeString         30049d40 f   cg_newDraw.obj
 0001:00048da0       _CG_MouseEvent             30049da0 f   cg_newDraw.obj
 0001:00048e90       _CG_EventHandling          30049e90 f   cg_newDraw.obj
 0001:00048ec0       _CG_KeyEvent               30049ec0 f   cg_newDraw.obj
 0001:00048f70       _CG_GetTeamColor           30049f70 f   cg_newDraw.obj
 0001:00049010       _CG_CustomSound            3004a010 f   cg_players.obj
 0001:00049360       _CG_ParseSurfsFile         3004a360 f   cg_players.obj
 0001:00049b90       _CG_G2SkelForModel         3004ab90 f   cg_players.obj
 0001:00049c10       _CG_G2EvIndexForModel      3004ac10 f   cg_players.obj
 0001:00049c70       _CG_LoadCISounds           3004ac70 f   cg_players.obj
 0001:0004a510       _CG_LoadDeferredPlayers    3004b510 f   cg_players.obj
 0001:0004a9f0       _CG_PlayerAnimEventDo      3004b9f0 f   cg_players.obj
 0001:0004ad80       _CG_PlayerAnimEvents       3004bd80 f   cg_players.obj
 0001:0004b080       _CG_TriggerAnimSounds      3004c080 f   cg_players.obj
 0001:0004bac0       _CG_RagDoll                3004cac0 f   cg_players.obj
 0001:0004c910       _CG_G2ServerBoneAngles     3004d910 f   cg_players.obj
 0001:0004cc00       _CG_G2PlayerHeadAnims      3004dc00 f   cg_players.obj
 0001:0004e000       _CG_PlayerShieldHit        3004f000 f   cg_players.obj
 0001:0004e090       _CG_DrawPlayerShield       3004f090 f   cg_players.obj
 0001:0004e220       _CG_PlayerHitFX            3004f220 f   cg_players.obj
 0001:0004e7c0       _CG_DoSaber                3004f7c0 f   cg_players.obj
 0001:0004eae0       _CG_CreateSaberMarks       3004fae0 f   cg_players.obj
 0001:0004f1c0       _CG_G2TraceCollide         300501c0 f   cg_players.obj
 0001:0004f390       _CG_G2SaberEffects         30050390 f   cg_players.obj
 0001:0004f5d0       _CG_AddGhoul2Mark          300505d0 f   cg_players.obj
 0001:0004f740       _CG_SaberCompWork          30050740 f   cg_players.obj
 0001:0004fb40       _CG_AddSaberBlade          30050b40 f   cg_players.obj
 0001:000507c0       _CG_IsMindTricked          300517c0 f   cg_players.obj
 0001:00050860       _CG_DrawPlayerSphere       30051860 f   cg_players.obj
 0001:00050bd0       _CG_ThereIsAMaster         30051bd0 f   cg_players.obj
 0001:00050c00       _CG_HandleAppendedSkin     30051c00 f   cg_players.obj
 0001:00050cc0       _CG_CacheG2AnimInfo        30051cc0 f   cg_players.obj
 0001:00050e70       _CG_G2AnimEntModelLoad     30051e70 f   cg_players.obj
 0001:000517a0       _CG_VehicleShouldDrawShields 300527a0 f   cg_players.obj
 0001:000517e0       _CG_VehicleAttachDroidUnit 300527e0 f   cg_players.obj
 0001:00051900       _CG_CreateNPCClient        30052900 f   cg_players.obj
 0001:00051920       _CG_DestroyNPCClient       30052920 f   cg_players.obj
 0001:00051f40       _CG_InitJetpackGhoul2      30052f40 f   cg_players.obj
 0001:00051fa0       _CG_CleanJetpackGhoul2     30052fa0 f   cg_players.obj
 0001:00052750       _CG_RadiusForCent          30053750 f   cg_players.obj
 0001:000527b0       _CG_CheckThirdPersonAlpha  300537b0 f   cg_players.obj
 0001:00052a40       _CG_ResetPlayerEntity      30053a40 f   cg_players.obj
 0001:00052e70       _CG_LoadClientInfo         30053e70 f   cg_players.obj
 0001:000532a0       _CG_NewClientInfo          300542a0 f   cg_players.obj
 0001:00053d80       _CG_ActualLoadDeferredPlayers 30054d80 f   cg_players.obj
 0001:00054450       _CG_AddRefEntityWithPowerups 30055450 f   cg_players.obj
 0001:000544a0       _CG_Player                 300554a0 f   cg_players.obj
 0001:00058870       _CG_G2Animated             30059870 f   cg_players.obj
 0001:00058a60       _CG_DamageFeedback         30059a60 f   cg_playerstate.obj
 0001:00058d40       _CG_Respawn                30059d40 f   cg_playerstate.obj
 0001:00058d70       _CG_CheckPlayerstateEvents 30059d70 f   cg_playerstate.obj
 0001:00058e70       _CG_CheckLocalSounds       30059e70 f   cg_playerstate.obj
 0001:000590b0       _CG_TransitionPlayerState  3005a0b0 f   cg_playerstate.obj
 0001:00059220       _CG_BuildSolidList         3005a220 f   cg_predict.obj
 0001:00059840       _CG_Trace                  3005a840 f   cg_predict.obj
 0001:000598c0       _CG_G2Trace                3005a8c0 f   cg_predict.obj
 0001:00059940       _CG_PointContents          3005a940 f   cg_predict.obj
 0001:00059ee0       _CG_PmoveClientPointerUpdate 3005aee0 f   cg_predict.obj
 0001:00059f80       _CG_UsingEWeb              3005af80 f   cg_predict.obj
 0001:00059fb0       _CG_PredictPlayerState     3005afb0 f   cg_predict.obj
 0001:0005b670       _CG_PrecacheSiegeObjectiveAssetsForTeam 3005c670 f   cg_saga.obj
 0001:0005b820       _CG_PrecachePlayersForSiegeTeam 3005c820 f   cg_saga.obj
 0001:0005b9d0       _CG_SiegeRoundOver         3005c9d0 f   cg_saga.obj
 0001:0005bb40       _CG_SiegeGetObjectiveDescription 3005cb40 f   cg_saga.obj
 0001:0005bbf0       _CG_SiegeGetObjectiveFinal 3005cbf0 f   cg_saga.obj
 0001:0005bcb0       _CG_SiegeBriefingDisplay   3005ccb0 f   cg_saga.obj
 0001:0005c180       _CG_SiegeObjectiveCompleted 3005d180 f   cg_saga.obj
 0001:0005c330       _CG_ParseSiegeExtendedData 3005d330 f   cg_saga.obj
 0001:0005c4e0       _CG_SetSiegeTimerCvar      3005d4e0 f   cg_saga.obj
 0001:0005c550       _CG_InitSiegeMode          3005d550 f   cg_saga.obj
 0001:0005cc00       _CG_ParseSiegeObjectiveStatus 3005dc00 f   cg_saga.obj
 0001:0005d4e0       _CG_GetClassCount          3005e4e0 f   cg_scoreboard.obj
 0001:0005d530       _CG_GetTeamNonScoreCount   3005e530 f   cg_scoreboard.obj
 0001:0005d580       _CG_GetTeamCount           3005e580 f   cg_scoreboard.obj
 0001:0005d5d0       _CG_DrawOldScoreboard      3005e5d0 f   cg_scoreboard.obj
 0001:0005e240       _CG_ParseServerinfo        3005f240 f   cg_servercmds.obj
 0001:0005e600       _CG_SetConfigValues        3005f600 f   cg_servercmds.obj
 0001:0005e730       _CG_ShaderStateChanged     3005f730 f   cg_servercmds.obj
 0001:0005e810       _SetCustomSoundForType     3005f810 f   cg_servercmds.obj
 0001:0005ea20       _CG_PrecacheNPCSounds      3005fa20 f   cg_servercmds.obj
 0001:0005eb40       _CG_HandleNPCSounds        3005fb40 f   cg_servercmds.obj
 0001:0005efd0       _SetDuelistHealthsFromConfigString 3005ffd0 f   cg_servercmds.obj
 0001:0005f5d0       _CG_KillCEntityG2          300605d0 f   cg_servercmds.obj
 0001:0005f730       _CG_KillCEntityInstances   30060730 f   cg_servercmds.obj
 0001:0005f9e0       _CG_CheckSVStringEdRef     300609e0 f   cg_servercmds.obj
 0001:00060950       _CG_ExecuteNewServerCommands 30061950 f   cg_servercmds.obj
 0001:00060a20       _CG_SetInitialSnapshot     30061a20 f   cg_snapshot.obj
 0001:00060f60       _CG_ProcessSnapshots       30061f60 f   cg_snapshot.obj
 0001:00061080       _strap_G2API_GetBoltMatrix 30062080 f   cg_strap.obj
 0001:00061090       _strap_G2API_GetBoltMatrix_NoRecNoRot 30062090 f   cg_strap.obj
 0001:000610a0       _strap_G2API_SetBoneAngles 300620a0 f   cg_strap.obj
 0001:000610b0       _strap_G2API_SetBoneAnim   300620b0 f   cg_strap.obj
 0001:000610f0       _strap_G2API_GetBoneAnim   300620f0 f   cg_strap.obj
 0001:00061100       _strap_G2API_AnimateG2Models 30062100 f   cg_strap.obj
 0001:00061110       _strap_G2API_SetBoneIKState 30062110 f   cg_strap.obj
 0001:00061120       _strap_G2API_IKMove        30062120 f   cg_strap.obj
 0001:00061130       _dllEntry                  30062130 f   cg_syscalls.obj
 0001:00061140       _trap_Print                30062140 f   cg_syscalls.obj
 0001:00061160       _trap_Milliseconds         30062160 f   cg_syscalls.obj
 0001:00061170       _trap_Cvar_Register        30062170 f   cg_syscalls.obj
 0001:00061190       _trap_Cvar_Update          30062190 f   cg_syscalls.obj
 0001:000611b0       _trap_Cvar_Set             300621b0 f   cg_syscalls.obj
 0001:000611d0       _trap_Cvar_VariableStringBuffer 300621d0 f   cg_syscalls.obj
 0001:000611f0       _trap_Argc                 300621f0 f   cg_syscalls.obj
 0001:00061200       _trap_Argv                 30062200 f   cg_syscalls.obj
 0001:00061220       _trap_Args                 30062220 f   cg_syscalls.obj
 0001:00061240       _trap_FS_FOpenFile         30062240 f   cg_syscalls.obj
 0001:00061260       _trap_FS_Read              30062260 f   cg_syscalls.obj
 0001:00061280       _trap_FS_Write             30062280 f   cg_syscalls.obj
 0001:000612a0       _trap_FS_FCloseFile        300622a0 f   cg_syscalls.obj
 0001:000612c0       _trap_FS_GetFileList       300622c0 f   cg_syscalls.obj
 0001:000612e0       _trap_SendConsoleCommand   300622e0 f   cg_syscalls.obj
 0001:00061300       _trap_AddCommand           30062300 f   cg_syscalls.obj
 0001:00061320       _trap_SendClientCommand    30062320 f   cg_syscalls.obj
 0001:00061340       _trap_UpdateScreen         30062340 f   cg_syscalls.obj
 0001:00061350       _trap_CM_LoadMap           30062350 f   cg_syscalls.obj
 0001:00061370       _trap_CM_NumInlineModels   30062370 f   cg_syscalls.obj
 0001:00061380       _trap_CM_InlineModel       30062380 f   cg_syscalls.obj
 0001:000613a0       _trap_CM_TempBoxModel      300623a0 f   cg_syscalls.obj
 0001:000613c0       _trap_CM_PointContents     300623c0 f   cg_syscalls.obj
 0001:000613e0       _trap_CM_TransformedPointContents 300623e0 f   cg_syscalls.obj
 0001:00061400       _trap_CM_BoxTrace          30062400 f   cg_syscalls.obj
 0001:00061430       _trap_CM_TransformedBoxTrace 30062430 f   cg_syscalls.obj
 0001:00061470       _trap_CM_MarkFragments     30062470 f   cg_syscalls.obj
 0001:000614a0       _trap_S_GetVoiceVolume     300624a0 f   cg_syscalls.obj
 0001:000614c0       _trap_S_MuteSound          300624c0 f   cg_syscalls.obj
 0001:000614e0       _trap_S_StartSound         300624e0 f   cg_syscalls.obj
 0001:00061500       _trap_S_StartLocalSound    30062500 f   cg_syscalls.obj
 0001:00061540       _trap_S_ClearLoopingSounds 30062540 f   cg_syscalls.obj
 0001:00061550       _trap_S_AddLoopingSound    30062550 f   cg_syscalls.obj
 0001:00061570       _trap_S_UpdateEntityPosition 30062570 f   cg_syscalls.obj
 0001:00061590       _trap_S_AddRealLoopingSound 30062590 f   cg_syscalls.obj
 0001:000615b0       _trap_S_Respatialize       300625b0 f   cg_syscalls.obj
 0001:000615d0       _trap_S_ShutUp             300625d0 f   cg_syscalls.obj
 0001:000615f0       _trap_S_RegisterSound      300625f0 f   cg_syscalls.obj
 0001:00061610       _trap_S_StartBackgroundTrack 30062610 f   cg_syscalls.obj
 0001:00061630       _trap_S_UpdateAmbientSet   30062630 f   cg_syscalls.obj
 0001:00061650       _trap_AS_ParseSets         30062650 f   cg_syscalls.obj
 0001:00061660       _trap_AS_AddPrecacheEntry  30062660 f   cg_syscalls.obj
 0001:00061680       _trap_S_AddLocalSet        30062680 f   cg_syscalls.obj
 0001:000616b0       _trap_AS_GetBModelSound    300626b0 f   cg_syscalls.obj
 0001:000616d0       _trap_R_LoadWorldMap       300626d0 f   cg_syscalls.obj
 0001:000616f0       _trap_R_RegisterModel      300626f0 f   cg_syscalls.obj
 0001:00061710       _trap_R_RegisterSkin       30062710 f   cg_syscalls.obj
 0001:00061730       _trap_R_RegisterShader     30062730 f   cg_syscalls.obj
 0001:00061750       _trap_R_RegisterShaderNoMip 30062750 f   cg_syscalls.obj
 0001:00061770       _trap_R_RegisterFont       30062770 f   cg_syscalls.obj
 0001:00061790       _trap_R_Font_StrLenPixels  30062790 f   cg_syscalls.obj
 0001:000617c0       _trap_R_Font_StrLenChars   300627c0 f   cg_syscalls.obj
 0001:000617e0       _trap_R_Font_HeightPixels  300627e0 f   cg_syscalls.obj
 0001:00061800       _trap_R_Font_DrawString    30062800 f   cg_syscalls.obj
 0001:00061840       _trap_Language_IsAsian     30062840 f   cg_syscalls.obj
 0001:00061850       _trap_Language_UsesSpaces  30062850 f   cg_syscalls.obj
 0001:00061860       _trap_AnyLanguage_ReadCharFromString 30062860 f   cg_syscalls.obj
 0001:00061880       _trap_R_ClearScene         30062880 f   cg_syscalls.obj
 0001:00061890       _trap_R_ClearDecals        30062890 f   cg_syscalls.obj
 0001:000618a0       _trap_R_AddRefEntityToScene 300628a0 f   cg_syscalls.obj
 0001:000618c0       _trap_R_AddPolyToScene     300628c0 f   cg_syscalls.obj
 0001:000618e0       _trap_R_AddDecalToScene    300628e0 f   cg_syscalls.obj
 0001:00061950       _trap_R_AddLightToScene    30062950 f   cg_syscalls.obj
 0001:00061990       _trap_R_RenderScene        30062990 f   cg_syscalls.obj
 0001:000619b0       _trap_R_SetColor           300629b0 f   cg_syscalls.obj
 0001:000619d0       _trap_R_DrawStretchPic     300629d0 f   cg_syscalls.obj
 0001:00061a40       _trap_R_ModelBounds        30062a40 f   cg_syscalls.obj
 0001:00061a60       _trap_R_LerpTag            30062a60 f   cg_syscalls.obj
 0001:00061aa0       _trap_R_DrawRotatePic      30062aa0 f   cg_syscalls.obj
 0001:00061b20       _trap_R_DrawRotatePic2     30062b20 f   cg_syscalls.obj
 0001:00061ba0       _trap_R_SetRangeFog        30062ba0 f   cg_syscalls.obj
 0001:00061bc0       _trap_R_SetRefractProp     30062bc0 f   cg_syscalls.obj
 0001:00061bf0       _trap_R_RemapShader        30062bf0 f   cg_syscalls.obj
 0001:00061c10       _trap_R_SetLightStyle      30062c10 f   cg_syscalls.obj
 0001:00061c30       _trap_R_GetBModelVerts     30062c30 f   cg_syscalls.obj
 0001:00061c50       _trap_R_GetDistanceCull    30062c50 f   cg_syscalls.obj
 0001:00061c70       _trap_R_GetRealRes         30062c70 f   cg_syscalls.obj
 0001:00061c90       _trap_R_AutomapElevAdj     30062c90 f   cg_syscalls.obj
 0001:00061cb0       _trap_R_InitWireframeAutomap 30062cb0 f   cg_syscalls.obj
 0001:00061cc0       _trap_FX_AddLine           30062cc0 f   cg_syscalls.obj
 0001:00061d40       _trap_GetGlconfig          30062d40 f   cg_syscalls.obj
 0001:00061d60       _trap_GetGameState         30062d60 f   cg_syscalls.obj
 0001:00061d80       _trap_GetCurrentSnapshotNumber 30062d80 f   cg_syscalls.obj
 0001:00061da0       _trap_GetSnapshot          30062da0 f   cg_syscalls.obj
 0001:00061dc0       _trap_GetDefaultState      30062dc0 f   cg_syscalls.obj
 0001:00061de0       _trap_GetServerCommand     30062de0 f   cg_syscalls.obj
 0001:00061e00       _trap_GetCurrentCmdNumber  30062e00 f   cg_syscalls.obj
 0001:00061e10       _trap_GetUserCmd           30062e10 f   cg_syscalls.obj
 0001:00061e30       _trap_SetUserCmdValue      30062e30 f   cg_syscalls.obj
 0001:00061e80       _trap_SetClientForceAngle  30062e80 f   cg_syscalls.obj
 0001:00061ea0       _trap_OpenUIMenu           30062ea0 f   cg_syscalls.obj
 0001:00061ec0       _trap_Key_GetCatcher       30062ec0 f   cg_syscalls.obj
 0001:00061ed0       _trap_Key_SetCatcher       30062ed0 f   cg_syscalls.obj
 0001:00061ef0       _trap_PC_LoadSource        30062ef0 f   cg_syscalls.obj
 0001:00061f10       _trap_PC_FreeSource        30062f10 f   cg_syscalls.obj
 0001:00061f30       _trap_PC_ReadToken         30062f30 f   cg_syscalls.obj
 0001:00061f50       _trap_PC_SourceFileAndLine 30062f50 f   cg_syscalls.obj
 0001:00061f70       _trap_S_StopBackgroundTrack 30062f70 f   cg_syscalls.obj
 0001:00061f80       _trap_RealTime             30062f80 f   cg_syscalls.obj
 0001:00061fa0       _trap_SnapVector           30062fa0 f   cg_syscalls.obj
 0001:00061fc0       _trap_CIN_PlayCinematic    30062fc0 f   cg_syscalls.obj
 0001:00061ff0       _trap_CIN_StopCinematic    30062ff0 f   cg_syscalls.obj
 0001:00062010       _trap_CIN_RunCinematic     30063010 f   cg_syscalls.obj
 0001:00062030       _trap_CIN_DrawCinematic    30063030 f   cg_syscalls.obj
 0001:00062050       _trap_CIN_SetExtents       30063050 f   cg_syscalls.obj
 0001:00062080       _trap_GetEntityToken       30063080 f   cg_syscalls.obj
 0001:000620a0       _trap_R_inPVS              300630a0 f   cg_syscalls.obj
 0001:000620c0       _trap_FX_RegisterEffect    300630c0 f   cg_syscalls.obj
 0001:000620e0       _trap_FX_PlayEffectID      300630e0 f   cg_syscalls.obj
 0001:000621c0       _trap_FX_PlayEffectIDFix   300631c0 f   cg_syscalls.obj
 0001:00062230       _trap_FX_PlayPortalEffectID 30063230 f   cg_syscalls.obj
 0001:00062250       _trap_FX_PlayEntityEffectID 30063250 f   cg_syscalls.obj
 0001:00062280       _trap_FX_PlayBoltedEffectID 30063280 f   cg_syscalls.obj
 0001:000622c0       _trap_FX_AddScheduledEffects 300632c0 f   cg_syscalls.obj
 0001:000622e0       _trap_FX_InitSystem        300632e0 f   cg_syscalls.obj
 0001:00062300       _trap_FX_FreeSystem        30063300 f   cg_syscalls.obj
 0001:00062310       _trap_FX_AdjustTime        30063310 f   cg_syscalls.obj
 0001:00062330       _trap_FX_AddPoly           30063330 f   cg_syscalls.obj
 0001:00062350       _trap_FX_AddBezier         30063350 f   cg_syscalls.obj
 0001:00062370       _trap_FX_AddPrimitive      30063370 f   cg_syscalls.obj
 0001:00062390       _trap_FX_AddSprite         30063390 f   cg_syscalls.obj
 0001:000623b0       _trap_FX_AddElectricity    300633b0 f   cg_syscalls.obj
 0001:000623d0       _trap_SP_GetStringTextString 300633d0 f   cg_syscalls.obj
 0001:000623f0       _trap_ROFF_Clean           300633f0 f   cg_syscalls.obj
 0001:00062400       _trap_ROFF_UpdateEntities  30063400 f   cg_syscalls.obj
 0001:00062410       _trap_ROFF_Play            30063410 f   cg_syscalls.obj
 0001:00062430       _trap_TrueMalloc           30063430 f   cg_syscalls.obj
 0001:00062470       _trap_TrueFree             30063470 f   cg_syscalls.obj
 0001:00062490       _trap_G2_HaveWeGhoul2Models 30063490 f   cg_syscalls.obj
 0001:000624b0       _trap_G2API_GetBoltMatrix  300634b0 f   cg_syscalls.obj
 0001:000624f0       _trap_G2API_GetBoltMatrix_NoRecNoRot 300634f0 f   cg_syscalls.obj
 0001:00062530       _trap_G2API_InitGhoul2Model 30063530 f   cg_syscalls.obj
 0001:00062560       _trap_G2API_SetSkin        30063560 f   cg_syscalls.obj
 0001:00062590       _trap_G2API_CollisionDetect 30063590 f   cg_syscalls.obj
 0001:000625e0       _trap_G2API_CollisionDetectCache 300635e0 f   cg_syscalls.obj
 0001:00062630       _trap_G2API_CleanGhoul2Models 30063630 f   cg_syscalls.obj
 0001:00062650       _trap_G2API_SetBoneAngles  30063650 f   cg_syscalls.obj
 0001:00062690       _trap_G2API_SetBoneAnim    30063690 f   cg_syscalls.obj
 0001:000626e0       _trap_G2API_GetBoneAnim    300636e0 f   cg_syscalls.obj
 0001:00062720       _trap_G2API_GetBoneFrame   30063720 f   cg_syscalls.obj
 0001:00062750       _trap_G2API_GetGLAName     30063750 f   cg_syscalls.obj
 0001:00062770       _trap_G2API_CopySpecificGhoul2Model 30063770 f   cg_syscalls.obj
 0001:000627a0       _trap_G2API_DuplicateGhoul2Instance 300637a0 f   cg_syscalls.obj
 0001:000627c0       _trap_G2API_HasGhoul2ModelOnIndex 300637c0 f   cg_syscalls.obj
 0001:000627e0       _trap_G2API_RemoveGhoul2Model 300637e0 f   cg_syscalls.obj
 0001:00062800       _trap_G2API_SkinlessModel  30063800 f   cg_syscalls.obj
 0001:00062820       _trap_G2API_GetNumGoreMarks 30063820 f   cg_syscalls.obj
 0001:00062840       _trap_G2API_AddSkinGore    30063840 f   cg_syscalls.obj
 0001:00062860       _trap_G2API_ClearSkinGore  30063860 f   cg_syscalls.obj
 0001:00062880       _trap_G2API_AddBolt        30063880 f   cg_syscalls.obj
 0001:000628a0       _trap_G2API_SetBoltInfo    300638a0 f   cg_syscalls.obj
 0001:000628c0       _trap_G2API_SetRootSurface 300638c0 f   cg_syscalls.obj
 0001:000628e0       _trap_G2API_SetSurfaceOnOff 300638e0 f   cg_syscalls.obj
 0001:00062900       _trap_G2API_SetNewOrigin   30063900 f   cg_syscalls.obj
 0001:00062920       _trap_G2API_GetSurfaceRenderStatus 30063920 f   cg_syscalls.obj
 0001:00062940       _trap_G2API_AbsurdSmoothing 30063940 f   cg_syscalls.obj
 0001:00062960       _trap_G2API_SetRagDoll     30063960 f   cg_syscalls.obj
 0001:00062980       _trap_G2API_AnimateG2Models 30063980 f   cg_syscalls.obj
 0001:000629a0       _trap_G2API_RagPCJConstraint 300639a0 f   cg_syscalls.obj
 0001:000629d0       _trap_G2API_RagPCJGradientSpeed 300639d0 f   cg_syscalls.obj
 0001:00062a00       _trap_G2API_RagEffectorGoal 30063a00 f   cg_syscalls.obj
 0001:00062a20       _trap_G2API_RagEffectorKick 30063a20 f   cg_syscalls.obj
 0001:00062a40       _trap_G2API_RagForceSolve  30063a40 f   cg_syscalls.obj
 0001:00062a60       _trap_G2API_SetBoneIKState 30063a60 f   cg_syscalls.obj
 0001:00062a90       _trap_G2API_IKMove         30063a90 f   cg_syscalls.obj
 0001:00062ab0       _trap_G2API_AttachInstanceToEntNum 30063ab0 f   cg_syscalls.obj
 0001:00062ad0       _trap_G2API_ClearAttachedInstance 30063ad0 f   cg_syscalls.obj
 0001:00062af0       _trap_CG_RegisterSharedMemory 30063af0 f   cg_syscalls.obj
 0001:00062b10       _trap_R_WeatherContentsOverride 30063b10 f   cg_syscalls.obj
 0001:00062b30       _trap_R_WorldEffectCommand 30063b30 f   cg_syscalls.obj
 0001:00062b50       _trap_WE_AddWeatherZone    30063b50 f   cg_syscalls.obj
 0001:00062b70       _CreepToPosition           30063b70 f   cg_turret.obj
 0001:00062d40       _TurretClientRun           30063d40 f   cg_turret.obj
 0001:000630e0       _CG_TestModel_f            300640e0 f   cg_view.obj
 0001:00063200       _CG_TestGun_f              30064200 f   cg_view.obj
 0001:00063220       _CG_TestModelNextFrame_f   30064220 f   cg_view.obj
 0001:00063240       _CG_TestModelPrevFrame_f   30064240 f   cg_view.obj
 0001:00063270       _CG_TestModelNextSkin_f    30064270 f   cg_view.obj
 0001:00063290       _CG_TestModelPrevSkin_f    30064290 f   cg_view.obj
 0001:00064370       _CG_GetVehicleCamPos       30065370 f   cg_view.obj
 0001:00065330       _CG_CheckPassengerTurretView 30066330 f   cg_view.obj
 0001:000655b0       _CG_DrawSkyBoxPortal       300665b0 f   cg_view.obj
 0001:000659d0       _CG_AddBufferedSound       300669d0 f   cg_view.obj
 0001:00065a80       _CG_UpdateSoundTrackers    30066a80 f   cg_view.obj
 0001:00065b30       _CG_SE_UpdateShake         30066b30 f   cg_view.obj
 0001:00065c50       _CG_SE_UpdateMusic         30066c50 f   cg_view.obj
 0001:00065d90       _CGCam_Shake               30066d90 f   cg_view.obj
 0001:00065de0       _CG_DoCameraShake          30066de0 f   cg_view.obj
 0001:00065e80       _CGCam_SetMusicMult        30066e80 f   cg_view.obj
 0001:00065ee0       _CG_EmplacedView           30066ee0 f   cg_view.obj
 0001:000660b0       _CG_AddRadarAutomapEnts    300670b0 f   cg_view.obj
 0001:00066210       _CG_DrawAutoMap            30067210 f   cg_view.obj
 0001:00066760       _computePosition           30067760 f   cg_view.obj
 0001:000667f0       _drawSplines               300677f0 f   cg_view.obj
 0001:00067040       _CG_DrawActiveFrame        30068040 f   cg_view.obj
 0001:00069320       _CG_RegisterWeapon         3006a320 f   cg_weaponinit.obj
 0001:0006a2f0       _CG_RegisterItemVisuals    3006b2f0 f   cg_weapons.obj
 0001:0006a750       _CG_AddPlayerWeapon        3006b750 f   cg_weapons.obj
 0001:0006afa0       _CG_AddViewWeapon          3006bfa0 f   cg_weapons.obj
 0001:0006b260       _CG_DrawIconBackground     3006c260 f   cg_weapons.obj
 0001:0006b470       _CG_DrawWeaponSelect       3006c470 f   cg_weapons.obj
 0001:0006b990       _CG_NextWeapon_f           3006c990 f   cg_weapons.obj
 0001:0006bb30       _CG_PrevWeapon_f           3006cb30 f   cg_weapons.obj
 0001:0006bce0       _CG_Weapon_f               3006cce0 f   cg_weapons.obj
 0001:0006be10       _CG_WeaponClean_f          3006ce10 f   cg_weapons.obj
 0001:0006bf40       _CG_OutOfAmmoChange        3006cf40 f   cg_weapons.obj
 0001:0006c000       _CG_GetClientWeaponMuzzleBoltPoint 3006d000 f   cg_weapons.obj
 0001:0006c0a0       _CG_FireWeapon             3006d0a0 f   cg_weapons.obj
 0001:0006c2c0       _CG_VehicleWeaponImpact    3006d2c0 f   cg_weapons.obj
 0001:0006c340       _CG_MissileHitWall         3006d340 f   cg_weapons.obj
 0001:0006c550       _CG_MissileHitPlayer       3006d550 f   cg_weapons.obj
 0001:0006c730       _CG_CalcMuzzlePoint        3006d730 f   cg_weapons.obj
 0001:0006ca20       _CG_InitG2Weapons          3006da20 f   cg_weapons.obj
 0001:0006cad0       _CG_ShutDownG2Weapons      3006dad0 f   cg_weapons.obj
 0001:0006caf0       _CG_G2WeaponInstance       3006daf0 f   cg_weapons.obj
 0001:0006cb60       _CG_CopyG2WeaponInstance   3006db60 f   cg_weapons.obj
 0001:0006ccc0       _CG_CheckPlayerG2Weapons   3006dcc0 f   cg_weapons.obj
 0001:0006cf50       _BG_FighterUpdate          3006df50 f   FighterNPC.obj
 0001:0006d0e0       _FighterOverValidLandingSurface 3006e0e0 f   FighterNPC.obj
 0001:0006d120       _FighterIsLanded           3006e120 f   FighterNPC.obj
 0001:0006d170       _FighterIsLanding          3006e170 f   FighterNPC.obj
 0001:0006d1d0       _FighterIsLaunching        3006e1d0 f   FighterNPC.obj
 0001:0006dfd0       _FighterYawAdjust          3006efd0 f   FighterNPC.obj
 0001:0006e0c0       _FighterPitchAdjust        3006f0c0 f   FighterNPC.obj
 0001:0006e970       _G_SetFighterVehicleFunctions 3006f970 f   FighterNPC.obj
 0001:0006e9a0       _FX_BlasterProjectileThink 3006f9a0 f   fx_blaster.obj
 0001:0006e9f0       _FX_BlasterWeaponHitWall   3006f9f0 f   fx_blaster.obj
 0001:0006ea10       _FX_BlasterWeaponHitPlayer 3006fa10 f   fx_blaster.obj
 0001:0006ea40       _FX_BowcasterAltProjectileThink 3006fa40 f   fx_bowcaster.obj
 0001:0006ea40       _FX_BowcasterProjectileThink 3006fa40 f   fx_bowcaster.obj
 0001:0006ea90       _FX_BowcasterHitWall       3006fa90 f   fx_bowcaster.obj
 0001:0006ea90       _FX_BowcasterHitPlayer     3006fa90 f   fx_bowcaster.obj
 0001:0006eab0       _FX_BryarProjectileThink   3006fab0 f   fx_bryarpistol.obj
 0001:0006eb00       _FX_BryarHitWall           3006fb00 f   fx_bryarpistol.obj
 0001:0006eb00       _FX_TurretHitWall          3006fb00 f   fx_bryarpistol.obj
 0001:0006eb20       _FX_BryarAltProjectileThink 3006fb20 f   fx_bryarpistol.obj
 0001:0006ebb0       _FX_BryarAltHitWall        3006fbb0 f   fx_bryarpistol.obj
 0001:0006ec10       _FX_TurretHitPlayer        3006fc10 f   fx_bryarpistol.obj
 0001:0006ec10       _FX_BryarHitPlayer         3006fc10 f   fx_bryarpistol.obj
 0001:0006ec10       _FX_BryarAltHitPlayer      3006fc10 f   fx_bryarpistol.obj
 0001:0006ec40       _FX_TurretProjectileThink  3006fc40 f   fx_bryarpistol.obj
 0001:0006ec90       _FX_ConcussionHitWall      3006fc90 f   fx_bryarpistol.obj
 0001:0006ec90       _FX_ConcussionHitPlayer    3006fc90 f   fx_bryarpistol.obj
 0001:0006ecb0       _FX_ConcussionProjectileThink 3006fcb0 f   fx_bryarpistol.obj
 0001:0006ed00       _FX_ConcAltShot            3006fd00 f   fx_bryarpistol.obj
 0001:0006edd0       _FX_DEMP2_ProjectileThink  3006fdd0 f   fx_demp2.obj
 0001:0006ee20       _FX_DEMP2_HitWall          3006fe20 f   fx_demp2.obj
 0001:0006ee40       _FX_DEMP2_HitPlayer        3006fe40 f   fx_demp2.obj
 0001:0006ee60       _FX_DEMP2_AltDetonate      3006fe60 f   fx_demp2.obj
 0001:0006ef00       _FX_DisruptorMainShot      3006ff00 f   fx_disruptor.obj
 0001:0006ef70       _FX_DisruptorAltShot       3006ff70 f   fx_disruptor.obj
 0001:0006f060       _FX_DisruptorAltMiss       30070060 f   fx_disruptor.obj
 0001:0006f200       _FX_DisruptorAltHit        30070200 f   fx_disruptor.obj
 0001:0006f220       _FX_DisruptorHitWall       30070220 f   fx_disruptor.obj
 0001:0006f240       _FX_DisruptorHitPlayer     30070240 f   fx_disruptor.obj
 0001:0006f260       _FX_FlechetteProjectileThink 30070260 f   fx_flechette.obj
 0001:0006f2b0       _FX_FlechetteWeaponHitWall 300702b0 f   fx_flechette.obj
 0001:0006f2d0       _FX_FlechetteWeaponHitPlayer 300702d0 f   fx_flechette.obj
 0001:0006f2f0       _FX_FlechetteAltProjectileThink 300702f0 f   fx_flechette.obj
 0001:0006f340       _FX_RepeaterProjectileThink 30070340 f   fx_heavyrepeater.obj
 0001:0006f390       _FX_RepeaterHitWall        30070390 f   fx_heavyrepeater.obj
 0001:0006f3b0       _FX_RepeaterHitPlayer      300703b0 f   fx_heavyrepeater.obj
 0001:0006f600       _FX_RepeaterAltProjectileThink 30070600 f   fx_heavyrepeater.obj
 0001:0006f660       _FX_RepeaterAltHitPlayer   30070660 f   fx_heavyrepeater.obj
 0001:0006f660       _FX_RepeaterAltHitWall     30070660 f   fx_heavyrepeater.obj
 0001:00070100       _FX_RocketHitWall          30071100 f   fx_rocketlauncher.obj
 0001:00070100       _FX_RocketHitPlayer        30071100 f   fx_rocketlauncher.obj
 0001:00070120       _FX_RocketProjectileThink  30071120 f   fx_rocketlauncher.obj
 0001:00070120       _FX_RocketAltProjectileThink 30071120 f   fx_rocketlauncher.obj
 0001:00070190       _Q_random                  30071190 f   q_math.obj
 0001:000701c0       _ByteToDir                 300711c0 f   q_math.obj
 0001:00070220       _vectoangles               30071220 f   q_math.obj
 0001:00070340       _AxisClear                 30071340 f   q_math.obj
 0001:00070370       _AxisCopy                  30071370 f   q_math.obj
 0001:000703b0       _ProjectPointOnPlane       300713b0 f   q_math.obj
 0001:00070450       _Q_fabs                    30071450 f   q_math.obj
 0001:00070470       _LerpAngle                 30071470 f   q_math.obj
 0001:000704f0       _AngleSubtract             300714f0 f   q_math.obj
 0001:00070580       _AnglesSubtract            30071580 f   q_math.obj
 0001:000705e0       _AngleMod                  300715e0 f   q_math.obj
 0001:000705e0       _AngleNormalize360         300715e0 f   q_math.obj
 0001:00070610       _AngleNormalize180         30071610 f   q_math.obj
 0001:00070660       _AngleDelta                30071660 f   q_math.obj
 0001:000706b0       _VectorNormalize           300716b0 f   q_math.obj
 0001:00070720       _VectorNormalize2          30071720 f   q_math.obj
 0001:000707a0       _MatrixMultiply            300717a0 f   q_math.obj
 0001:00070890       _AngleVectors              30071890 f   q_math.obj
 0001:000709f0       _PerpendicularVector       300719f0 f   q_math.obj
 0001:00070ad0       _flrand                    30071ad0 f   q_math.obj
 0001:00070b40       _irand                     30071b40 f   q_math.obj
 0001:00070b40       _Q_irand                   30071b40 f   q_math.obj
 0001:00070b80       _FIXEDpowf                 30071b80 f   q_math.obj
 0001:00070c00       _RotatePointAroundVector   30071c00 f   q_math.obj
 0001:00070db0       _RotateAroundDirection     30071db0 f   q_math.obj
 0001:00070e40       _AnglesToAxis              30071e40 f   q_math.obj
 0001:00070e90       _GetStringForID            30071e90 f   q_shared.obj
 0001:00070ed0       _COM_SkipPath              30071ed0 f   q_shared.obj
 0001:00070f00       _COM_StripExtension        30071f00 f   q_shared.obj
 0001:00070f30       _COM_Compress              30071f30 f   q_shared.obj
 0001:00071030       _COM_ParseExt              30072030 f   q_shared.obj
 0001:000711a0       _COM_ParseString           300721a0 f   q_shared.obj
 0001:000711e0       _COM_ParseInt              300721e0 f   q_shared.obj
 0001:00071220       _COM_ParseFloat            30072220 f   q_shared.obj
 0001:00071260       _SkipBracedSection         30072260 f   q_shared.obj
 0001:000713a0       _SkipRestOfLine            300723a0 f   q_shared.obj
 0001:000713d0       _Q_strrchr                 300723d0 f   q_shared.obj
 0001:00071400       _Q_strncpyz                30072400 f   q_shared.obj
 0001:00071460       _Q_stricmpn                30072460 f   q_shared.obj
 0001:000714e0       _Q_strncmp                 300724e0 f   q_shared.obj
 0001:00071520       _Q_stricmp                 30072520 f   q_shared.obj
 0001:00071550       _Q_strupr                  30072550 f   q_shared.obj
 0001:00071580       _Q_strcat                  30072580 f   q_shared.obj
 0001:000715d0       _Q_CleanStr                300725d0 f   q_shared.obj
 0001:00071620       _Com_sprintf               30072620 f   q_shared.obj
 0001:000716c0       _va                        300726c0 f   q_shared.obj
 0001:00071700       _Info_ValueForKey          30072700 f   q_shared.obj
 0001:000717f0       _GetIDForString            300727f0 f   q_shared.obj
 0001:00071840       _COM_BeginParseSession     30072840 f   q_shared.obj
 0001:00071870       _COM_Parse                 30072870 f   q_shared.obj
 0001:00071bb0       _ProcessOrientCommands     30072bb0 f   SpeederNPC.obj
 0001:00071d00       _G_SetSpeederVehicleFunctions 30072d00 f   SpeederNPC.obj
 0001:00071d30       _UI_Alloc                  30072d30 f   ui_shared.obj
 0001:00071dd0       _String_Alloc              30072dd0 f   ui_shared.obj
 0001:00071ef0       _PC_SourceError            30072ef0 f   ui_shared.obj
 0001:00071f50       _Float_Parse               30072f50 f   ui_shared.obj
 0001:00071f90       _PC_Float_Parse            30072f90 f   ui_shared.obj
 0001:00072030       _Color_Parse               30073030 f   ui_shared.obj
 0001:00072080       _PC_Color_Parse            30073080 f   ui_shared.obj
 0001:00072120       _Int_Parse                 30073120 f   ui_shared.obj
 0001:00072160       _PC_Int_Parse              30073160 f   ui_shared.obj
 0001:000721f0       _Rect_Parse                300731f0 f   ui_shared.obj
 0001:00072280       _String_Parse              30073280 f   ui_shared.obj
 0001:000722c0       _PC_String_Parse           300732c0 f   ui_shared.obj
 0001:00072330       _PC_Script_Parse           30073330 f   ui_shared.obj
 0001:00072450       _Init_Display              30073450 f   ui_shared.obj
 0001:00072460       _IsVisible                 30073460 f   ui_shared.obj
 0001:00072480       _Rect_ContainsPoint        30073480 f   ui_shared.obj
 0001:000724e0       _Menu_ItemsMatchingGroup   300734e0 f   ui_shared.obj
 0001:00072570       _Menu_GetMatchingItemByNumber 30073570 f   ui_shared.obj
 0001:000725f0       _Script_SetColor           300735f0 f   ui_shared.obj
 0001:000726d0       _Script_SetAsset           300736d0 f   ui_shared.obj
 0001:00072700       _Script_SetBackground      30073700 f   ui_shared.obj
 0001:00072750       _Menu_FindItemByName       30073750 f   ui_shared.obj
 0001:000727b0       _Script_SetTeamColor       300737b0 f   ui_shared.obj
 0001:00072800       _Script_SetItemColor       30073800 f   ui_shared.obj
 0001:00072990       _Script_SetItemColorCvar   30073990 f   ui_shared.obj
 0001:00072c00       _Script_SetItemRect        30073c00 f   ui_shared.obj
 0001:00072cb0       _Menu_ShowItemByName       30073cb0 f   ui_shared.obj
 0001:00072d30       _Menu_FadeItemByName       30073d30 f   ui_shared.obj
 0001:00072d90       _Menus_FindByName          30073d90 f   ui_shared.obj
 0001:00072de0       _Script_Show               30073de0 f   ui_shared.obj
 0001:00072e30       _Script_Hide               30073e30 f   ui_shared.obj
 0001:00072e80       _Script_FadeIn             30073e80 f   ui_shared.obj
 0001:00072ed0       _Script_FadeOut            30073ed0 f   ui_shared.obj
 0001:00072f20       _Script_Defer              30073f20 f   ui_shared.obj
 0001:00072f70       _Menu_ItemDisable          30073f70 f   ui_shared.obj
 0001:00072fc0       _Script_SetPlayerModel     30073fc0 f   ui_shared.obj
 0001:00073010       _ParseRect                 30074010 f   ui_shared.obj
 0001:00073070       _Script_SetCvar            30074070 f   ui_shared.obj
 0001:000730f0       _Script_SetCvarToCvar      300740f0 f   ui_shared.obj
 0001:00073190       _Script_Exec               30074190 f   ui_shared.obj
 0001:000731f0       _Script_Play               300741f0 f   ui_shared.obj
 0001:00073250       _Script_playLooped         30074250 f   ui_shared.obj
 0001:000732c0       _Menu_SetItemBackground    300742c0 f   ui_shared.obj
 0001:00073320       _Item_RunScript            30074320 f   ui_shared.obj
 0001:00073410       _Item_EnableShowViaCvar    30074410 f   ui_shared.obj
 0001:00073530       _Item_TextScroll_ThumbPosition 30074530 f   ui_shared.obj
 0001:000735c0       _Item_TextScroll_OverLB    300745c0 f   ui_shared.obj
 0001:00073750       _Item_TextScroll_HandleKey 30074750 f   ui_shared.obj
 0001:000738f0       _Item_ListBox_MaxScroll    300748f0 f   ui_shared.obj
 0001:00073950       _Item_ListBox_ThumbPosition 30074950 f   ui_shared.obj
 0001:00073a60       _Item_Slider_ThumbPosition 30074a60 f   ui_shared.obj
 0001:00073b20       _Item_Slider_OverSlider    30074b20 f   ui_shared.obj
 0001:00073ba0       _Item_ListBox_OverLB       30074ba0 f   ui_shared.obj
 0001:00073f30       _Item_ListBox_MouseEnter   30074f30 f   ui_shared.obj
 0001:000740e0       _Item_MouseEnter           300750e0 f   ui_shared.obj
 0001:00074260       _Item_MouseLeave           30075260 f   ui_shared.obj
 0001:000742b0       _Item_OwnerDraw_HandleKey  300752b0 f   ui_shared.obj
 0001:00074340       _Item_ListBox_HandleKey    30075340 f   ui_shared.obj
 0001:000747a0       _Item_YesNo_HandleKey      300757a0 f   ui_shared.obj
 0001:000748a0       _Item_Multi_FindCvarByValue 300758a0 f   ui_shared.obj
 0001:00074960       _Item_Multi_HandleKey      30075960 f   ui_shared.obj
 0001:00074b30       _Leaving_EditField         30075b30 f   ui_shared.obj
 0001:00075050       _Item_StartCapture         30076050 f   ui_shared.obj
 0001:000752e0       _Item_Slider_HandleKey     300762e0 f   ui_shared.obj
 0001:00075450       _Item_HandleAccept         30076450 f   ui_shared.obj
 0001:00075480       _Item_Action               30076480 f   ui_shared.obj
 0001:00075590       _Menus_Activate            30076590 f   ui_shared.obj
 0001:00075600       _Controls_GetConfig        30076600 f   ui_shared.obj
 0001:000756a0       _Controls_SetConfig        300766a0 f   ui_shared.obj
 0001:000756f0       _BindingIDFromName         300766f0 f   ui_shared.obj
 0001:00075730       _Item_Bind_HandleKey       30076730 f   ui_shared.obj
 0001:00075a00       _Menu_Init                 30076a00 f   ui_shared.obj
 0001:00075a80       _Menu_GetFocused           30076a80 f   ui_shared.obj
 0001:00075ac0       _Menu_ScrollFeeder         30076ac0 f   ui_shared.obj
 0001:00075b40       _Menu_SetFeederSelection   30076b40 f   ui_shared.obj
 0001:00075c10       _Item_ValidateTypeData     30076c10 f   ui_shared.obj
 0001:00075d20       _ItemParse_name            30076d20 f   ui_shared.obj
 0001:00075d40       _ItemParse_focusSound      30076d40 f   ui_shared.obj
 0001:00075d90       _ItemParse_text            30076d90 f   ui_shared.obj
 0001:00075db0       _ItemParse_descText        30076db0 f   ui_shared.obj
 0001:00075dd0       _ItemParse_text2           30076dd0 f   ui_shared.obj
 0001:00075dd0       _MenuParse_soundLoop       30076dd0 f   ui_shared.obj
 0001:00075df0       _ItemParse_text2alignx     30076df0 f   ui_shared.obj
 0001:00075e10       _ItemParse_text2aligny     30076e10 f   ui_shared.obj
 0001:00075e30       _ItemParse_group           30076e30 f   ui_shared.obj
 0001:00075e50       _UI_CleanupGhoul2          30076e50 f   ui_shared.obj
 0001:00075e90       _ItemParse_asset_model     30076e90 f   ui_shared.obj
 0001:00075ec0       _ItemParse_asset_shader    30076ec0 f   ui_shared.obj
 0001:00075f10       _ItemParse_model_origin    30076f10 f   ui_shared.obj
 0001:00075f70       _ItemParse_model_rotation  30076f70 f   ui_shared.obj
 0001:00075fa0       _ItemParse_model_angle     30076fa0 f   ui_shared.obj
 0001:00075fd0       _ItemParse_model_g2mins    30076fd0 f   ui_shared.obj
 0001:00076030       _ItemParse_model_g2maxs    30077030 f   ui_shared.obj
 0001:00076090       _ItemParse_model_g2scale   30077090 f   ui_shared.obj
 0001:000760f0       _ItemParse_model_g2skin    300770f0 f   ui_shared.obj
 0001:00076150       _ItemParse_model_g2anim    30077150 f   ui_shared.obj
 0001:000761f0       _ItemParse_rectcvar        300771f0 f   ui_shared.obj
 0001:00076320       _ItemParse_rect            30077320 f   ui_shared.obj
 0001:00076380       _ItemParse_flag            30077380 f   ui_shared.obj
 0001:00076420       _ItemParse_style           30077420 f   ui_shared.obj
 0001:00076460       _ItemParse_decoration      30077460 f   ui_shared.obj
 0001:00076480       _ItemParse_notselectable   30077480 f   ui_shared.obj
 0001:000764c0       _ItemParse_scrollhidden    300774c0 f   ui_shared.obj
 0001:00076500       _ItemParse_wrapped         30077500 f   ui_shared.obj
 0001:00076520       _ItemParse_autowrapped     30077520 f   ui_shared.obj
 0001:00076540       _ItemParse_horizontalscroll 30077540 f   ui_shared.obj
 0001:00076560       _ItemParse_type            30077560 f   ui_shared.obj
 0001:000765a0       _ItemParse_model_fovx      300775a0 f   ui_shared.obj
 0001:000765a0       _ItemParse_elementwidth    300775a0 f   ui_shared.obj
 0001:000765d0       _ItemParse_model_fovy      300775d0 f   ui_shared.obj
 0001:000765d0       _ItemParse_elementheight   300775d0 f   ui_shared.obj
 0001:00076600       _ItemParse_elementtype     30077600 f   ui_shared.obj
 0001:00076640       _ItemParse_columns         30077640 f   ui_shared.obj
 0001:00076700       _ItemParse_border          30077700 f   ui_shared.obj
 0001:00076700       _MenuParse_border          30077700 f   ui_shared.obj
 0001:00076720       _ItemParse_ownerdraw       30077720 f   ui_shared.obj
 0001:00076750       _MenuParse_fadeCycle       30077750 f   ui_shared.obj
 0001:00076750       _ItemParse_align           30077750 f   ui_shared.obj
 0001:00076770       _ItemParse_isCharacter     30077770 f   ui_shared.obj
 0001:000767c0       _ItemParse_textalign       300777c0 f   ui_shared.obj
 0001:00076800       _ItemParse_textalignx      30077800 f   ui_shared.obj
 0001:00076800       _MenuParse_fadeAmount      30077800 f   ui_shared.obj
 0001:00076820       _ItemParse_textaligny      30077820 f   ui_shared.obj
 0001:00076840       _ItemParse_textscale       30077840 f   ui_shared.obj
 0001:00076860       _ItemParse_textstyle       30077860 f   ui_shared.obj
 0001:00076880       _ItemParse_invertyesno     30077880 f   ui_shared.obj
 0001:000768a0       _ItemParse_xoffset         300778a0 f   ui_shared.obj
 0001:000768c0       _ItemParse_backcolor       300778c0 f   ui_shared.obj
 0001:00076970       _ItemParse_forecolor       30077970 f   ui_shared.obj
 0001:00076a50       _ItemParse_bordercolor     30077a50 f   ui_shared.obj
 0001:00076b10       _ItemParse_cinematic       30077b10 f   ui_shared.obj
 0001:00076b10       _MenuParse_cinematic       30077b10 f   ui_shared.obj
 0001:00076b30       _ItemParse_doubleClick     30077b30 f   ui_shared.obj
 0001:00076b70       _ItemParse_onFocus         30077b70 f   ui_shared.obj
 0001:00076b90       _ItemParse_leaveFocus      30077b90 f   ui_shared.obj
 0001:00076bb0       _ItemParse_mouseEnter      30077bb0 f   ui_shared.obj
 0001:00076bd0       _ItemParse_mouseExit       30077bd0 f   ui_shared.obj
 0001:00076bf0       _ItemParse_mouseEnterText  30077bf0 f   ui_shared.obj
 0001:00076c10       _ItemParse_mouseExitText   30077c10 f   ui_shared.obj
 0001:00076c30       _ItemParse_action          30077c30 f   ui_shared.obj
 0001:00076c50       _ItemParse_special         30077c50 f   ui_shared.obj
 0001:00076c50       _ItemParse_feeder          30077c50 f   ui_shared.obj
 0001:00076c70       _ItemParse_cvarTest        30077c70 f   ui_shared.obj
 0001:00076c90       _ItemParse_cvar            30077c90 f   ui_shared.obj
 0001:00076d10       _ItemParse_font            30077d10 f   ui_shared.obj
 0001:00076d40       _ItemParse_maxChars        30077d40 f   ui_shared.obj
 0001:00076d90       _ItemParse_maxPaintChars   30077d90 f   ui_shared.obj
 0001:00076de0       _ItemParse_maxLineChars    30077de0 f   ui_shared.obj
 0001:00076e30       _ItemParse_lineHeight      30077e30 f   ui_shared.obj
 0001:00076e80       _ItemParse_cvarFloat       30077e80 f   ui_shared.obj
 0001:00076f00       _ItemParse_cvarStrList     30077f00 f   ui_shared.obj
 0001:00077060       _ItemParse_cvarFloatList   30078060 f   ui_shared.obj
 0001:00077180       _ItemParse_addColorRange   30078180 f   ui_shared.obj
 0001:00077220       _ItemParse_ownerdrawFlag   30078220 f   ui_shared.obj
 0001:00077220       _MenuParse_ownerdrawFlag   30078220 f   ui_shared.obj
 0001:00077250       _ItemParse_enableCvar      30078250 f   ui_shared.obj
 0001:00077290       _ItemParse_disableCvar     30078290 f   ui_shared.obj
 0001:000772d0       _ItemParse_showCvar        300782d0 f   ui_shared.obj
 0001:00077310       _ItemParse_hideCvar        30078310 f   ui_shared.obj
 0001:00077350       _ItemParse_Appearance_slot 30078350 f   ui_shared.obj
 0001:00077370       _Item_SetupKeywordHash     30078370 f   ui_shared.obj
 0001:00077410       _Item_Parse                30078410 f   ui_shared.obj
 0001:000777b0       _MenuParse_font            300787b0 f   ui_shared.obj
 0001:00077810       _MenuParse_name            30078810 f   ui_shared.obj
 0001:00077850       _MenuParse_fullscreen      30078850 f   ui_shared.obj
 0001:00077870       _MenuParse_rect            30078870 f   ui_shared.obj
 0001:000778d0       _MenuParse_style           300788d0 f   ui_shared.obj
 0001:00077910       _MenuParse_visible         30078910 f   ui_shared.obj
 0001:00077910       _ItemParse_visible         30078910 f   ui_shared.obj
 0001:00077950       _MenuParse_onOpen          30078950 f   ui_shared.obj
 0001:00077970       _MenuParse_onClose         30078970 f   ui_shared.obj
 0001:00077990       _MenuParse_onAccept        30078990 f   ui_shared.obj
 0001:000779b0       _MenuParse_onESC           300789b0 f   ui_shared.obj
 0001:000779d0       _ItemParse_bordersize      300789d0 f   ui_shared.obj
 0001:000779d0       _MenuParse_borderSize      300789d0 f   ui_shared.obj
 0001:000779f0       _MenuParse_backcolor       300789f0 f   ui_shared.obj
 0001:00077aa0       _MenuParse_descAlignment   30078aa0 f   ui_shared.obj
 0001:00077ae0       _MenuParse_descX           30078ae0 f   ui_shared.obj
 0001:00077b00       _MenuParse_descY           30078b00 f   ui_shared.obj
 0001:00077b20       _MenuParse_descScale       30078b20 f   ui_shared.obj
 0001:00077b40       _MenuParse_descColor       30078b40 f   ui_shared.obj
 0001:00077c00       _MenuParse_forecolor       30078c00 f   ui_shared.obj
 0001:00077ce0       _MenuParse_bordercolor     30078ce0 f   ui_shared.obj
 0001:00077da0       _MenuParse_focuscolor      30078da0 f   ui_shared.obj
 0001:00077e60       _MenuParse_disablecolor    30078e60 f   ui_shared.obj
 0001:00077f20       _ItemParse_outlinecolor    30078f20 f   ui_shared.obj
 0001:00077f20       _MenuParse_outlinecolor    30078f20 f   ui_shared.obj
 0001:00077f40       _ItemParse_background      30078f40 f   ui_shared.obj
 0001:00077f40       _MenuParse_background      30078f40 f   ui_shared.obj
 0001:00077f90       _MenuParse_ownerdraw       30078f90 f   ui_shared.obj
 0001:00077fb0       _MenuParse_popup           30078fb0 f   ui_shared.obj
 0001:00077fd0       _MenuParse_outOfBounds     30078fd0 f   ui_shared.obj
 0001:00077ff0       _MenuParse_fadeClamp       30078ff0 f   ui_shared.obj
 0001:00078010       _MenuParse_itemDef         30079010 f   ui_shared.obj
 0001:00078110       _MenuParse_appearanceIncrement 30079110 f   ui_shared.obj
 0001:00078130       _Menu_SetupKeywordHash     30079130 f   ui_shared.obj
 0001:000781d0       _Menu_Parse                300791d0 f   ui_shared.obj
 0001:00078320       _Menu_Reset                30079320 f   ui_shared.obj
 0001:00078330       _Display_CaptureItem       30079330 f   ui_shared.obj
 0001:000783c0       _Display_CursorType        300793c0 f   ui_shared.obj
 0001:00078540       _String_Init               30079540 f   ui_shared.obj
 0001:000785a0       _Item_SetScreenCoords      300795a0 f   ui_shared.obj
 0001:00078620       _Menu_UpdatePosition       30079620 f   ui_shared.obj
 0001:00078730       _Menu_ClearFocus           30079730 f   ui_shared.obj
 0001:00078890       _Script_SetItemRectCvar    30079890 f   ui_shared.obj
 0001:00078a40       _Script_SetItemBackground  30079a40 f   ui_shared.obj
 0001:00078ac0       _Menus_CloseByName         30079ac0 f   ui_shared.obj
 0001:00078b40       _Menus_CloseAll            30079b40 f   ui_shared.obj
 0001:00078bd0       _Script_Close              30079bd0 f   ui_shared.obj
 0001:00078c40       _Menu_TransitionItemByName 30079c40 f   ui_shared.obj
 0001:00078da0       _Script_RunDeferred        30079da0 f   ui_shared.obj
 0001:00078dd0       _Script_Transition         30079dd0 f   ui_shared.obj
 0001:00078e90       _Menu_OrbitItemByName      30079e90 f   ui_shared.obj
 0001:00078f40       _Script_Disable            30079f40 f   ui_shared.obj
 0001:00078fe0       _Script_Scale              30079fe0 f   ui_shared.obj
 0001:00079110       _Script_Orbit              3007a110 f   ui_shared.obj
 0001:00079220       _Script_SetFocus           3007a220 f   ui_shared.obj
 0001:000792d0       _Script_Transition2        3007a2d0 f   ui_shared.obj
 0001:000793a0       _Menu_SetItemText          3007a3a0 f   ui_shared.obj
 0001:00079450       _Item_SetFocus             3007a450 f   ui_shared.obj
 0001:000795e0       _Item_HandleKey            3007a5e0 f   ui_shared.obj
 0001:00079730       _Menu_HandleMouseMove      3007a730 f   ui_shared.obj
 0001:000798f0       _Menu_New                  3007a8f0 f   ui_shared.obj
 0001:00079960       _Display_MouseMove         3007a960 f   ui_shared.obj
 0001:00079a20       _Script_SetItemText        3007aa20 f   ui_shared.obj
 0001:00079aa0       _Menu_SetPrevCursorItem    3007aaa0 f   ui_shared.obj
 0001:00079b90       _Menu_SetNextCursorItem    3007ab90 f   ui_shared.obj
 0001:00079c90       _Menus_HandleOOBClick      3007ac90 f   ui_shared.obj
 0001:00079df0       _Menus_ActivateByName      3007adf0 f   ui_shared.obj
 0001:00079f00       _Script_Open               3007af00 f   ui_shared.obj
 0001:00079f40       _Item_TextField_HandleKey  3007af40 f   ui_shared.obj
 0001:0007a370       _Menu_HandleKey            3007b370 f   ui_shared.obj
 0001:0007a840       _Display_HandleKey         3007b840 f   ui_shared.obj
 0001:0007aa70       _WalkerYawAdjust           3007ba70 f   WalkerNPC.obj
 0001:0007ac70       _G_SetWalkerVehicleFunctions 3007bc70 f   WalkerNPC.obj
 0001:0007aca0       _G_CreateAnimalNPC         3007bca0 f   AnimalNPC.obj
 0001:0007aca0       _G_CreateSpeederNPC        3007bca0 f   SpeederNPC.obj
 0001:0007aca0       _G_CreateFighterNPC        3007bca0 f   FighterNPC.obj
 0001:0007aca0       _G_CreateWalkerNPC         3007bca0 f   WalkerNPC.obj
 0001:0007acec       _glLoadMatrixf@4           3007bcec f   opengl32:OPENGL32.dll
 0001:0007acf2       _glMatrixMode@4            3007bcf2 f   opengl32:OPENGL32.dll
 0001:0007acf8       _glFrustum@48              3007bcf8 f   opengl32:OPENGL32.dll
 0001:0007ad00       _png_zalloc                3007bd00 f   libpng:png.obj
 0001:0007ad60       _png_zfree                 3007bd60 f   libpng:png.obj
 0001:0007ad70       _png_reset_crc             3007bd70 f   libpng:png.obj
 0001:0007ad90       _png_calculate_crc         3007bd90 f   libpng:png.obj
 0001:0007ade0       _png_info_init_3           3007bde0 f   libpng:png.obj
 0001:0007ae20       _png_free_data             3007be20 f   libpng:png.obj
 0001:0007b230       _png_get_io_ptr            3007c230 f   libpng:png.obj
 0001:0007b250       _png_get_header_ver        3007c250 f   libpng:png.obj
 0001:0007b260       _png_handle_as_unknown     3007c260 f   libpng:png.obj
 0001:0007b2b0       _png_64bit_product         3007c2b0 f   libpng:png.obj
 0001:0007b330       _png_check_cHRM_fixed      3007c330 f   libpng:png.obj
 0001:0007b4d0       _png_check_IHDR            3007c4d0 f   libpng:png.obj
 0001:0007b710       _png_create_info_struct    3007c710 f   libpng:png.obj
 0001:0007b760       _png_write_info_before_PLTE 3007c760 f   libpng:pngwrite.obj
 0001:0007b960       _png_write_info            3007c960 f   libpng:pngwrite.obj
 0001:0007bc70       _png_write_end             3007cc70 f   libpng:pngwrite.obj
 0001:0007be00       _png_write_row             3007ce00 f   libpng:pngwrite.obj
 0001:0007c060       _png_write_flush           3007d060 f   libpng:pngwrite.obj
 0001:0007c140       _png_write_destroy         3007d140 f   libpng:pngwrite.obj
 0001:0007c260       _png_set_filter_heuristics 3007d260 f   libpng:pngwrite.obj
 0001:0007c580       _png_set_compression_level 3007d580 f   libpng:pngwrite.obj
 0001:0007c5a0       _png_set_compression_mem_level 3007d5a0 f   libpng:pngwrite.obj
 0001:0007c5c0       _png_set_compression_strategy 3007d5c0 f   libpng:pngwrite.obj
 0001:0007c5e0       _png_set_compression_window_bits 3007d5e0 f   libpng:pngwrite.obj
 0001:0007c640       _png_set_compression_method 3007d640 f   libpng:pngwrite.obj
 0001:0007c670       _png_create_write_struct_2 3007d670 f   libpng:pngwrite.obj
 0001:0007c8f0       _png_write_image           3007d8f0 f   libpng:pngwrite.obj
 0001:0007c950       _png_destroy_write_struct  3007d950 f   libpng:pngwrite.obj
 0001:0007ca00       _png_create_write_struct   3007da00 f   libpng:pngwrite.obj
 0001:0007ca30       _png_set_interlace_handling 3007da30 f   libpng:pngtrans.obj
 0001:0007ca60       _png_set_filler            3007da60 f   libpng:pngtrans.obj
 0001:0007cac0       _png_do_invert             3007dac0 f   libpng:pngtrans.obj
 0001:0007cb50       _png_do_swap               3007db50 f   libpng:pngtrans.obj
 0001:0007cb90       _png_do_packswap           3007db90 f   libpng:pngtrans.obj
 0001:0007cbe0       _png_do_strip_filler       3007dbe0 f   libpng:pngtrans.obj
 0001:0007ce30       _png_do_bgr                3007de30 f   libpng:pngtrans.obj
 0001:0007cf10       _png_set_IHDR              3007df10 f   libpng:pngset.obj
 0001:0007cfe0       _png_set_compression_buffer_size 3007dfe0 f   libpng:pngset.obj
 0001:0007d030       _png_write_data            3007e030 f   libpng:pngwio.obj
 0001:0007d060       _png_default_write_data    3007e060 f   libpng:pngwio.obj
 0001:0007d0a0       _png_flush                 3007e0a0 f   libpng:pngwio.obj
 0001:0007d0c0       _png_default_flush         3007e0c0 f   libpng:pngwio.obj
 0001:0007d0e0       _png_set_write_fn          3007e0e0 f   libpng:pngwio.obj
 0001:0007d150       _png_set_longjmp_fn        3007e150 f   libpng:pngerror.obj
 0001:0007d1f0       _png_set_error_fn          3007e1f0 f   libpng:pngerror.obj
 0001:0007d210       _png_error                 3007e210 f   libpng:pngerror.obj
 0001:0007d240       _png_warning               3007e240 f   libpng:pngerror.obj
 0001:0007d2a0       _png_create_struct_2       3007e2a0 f   libpng:pngmem.obj
 0001:0007d330       _png_destroy_struct_2      3007e330 f   libpng:pngmem.obj
 0001:0007d390       _png_malloc_default        3007e390 f   libpng:pngmem.obj
 0001:0007d3b0       _png_free_default          3007e3b0 f   libpng:pngmem.obj
 0001:0007d3d0       _png_set_mem_fn            3007e3d0 f   libpng:pngmem.obj
 0001:0007d400       _png_create_struct         3007e400 f   libpng:pngmem.obj
 0001:0007d420       _png_destroy_struct        3007e420 f   libpng:pngmem.obj
 0001:0007d440       _png_malloc                3007e440 f   libpng:pngmem.obj
 0001:0007d4a0       _png_free                  3007e4a0 f   libpng:pngmem.obj
 0001:0007d4d0       _png_malloc_warn           3007e4d0 f   libpng:pngmem.obj
 0001:0007d510       _png_calloc                3007e510 f   libpng:pngmem.obj
 0001:0007d540       _png_save_uint_32          3007e540 f   libpng:pngwutil.obj
 0001:0007d570       _png_save_int_32           3007e570 f   libpng:pngwutil.obj
 0001:0007d5a0       _png_save_uint_16          3007e5a0 f   libpng:pngwutil.obj
 0001:0007d5c0       _png_write_sig             3007e5c0 f   libpng:pngwutil.obj
 0001:0007d630       _png_write_chunk_start     3007e630 f   libpng:pngwutil.obj
 0001:0007d6b0       _png_write_chunk_data      3007e6b0 f   libpng:pngwutil.obj
 0001:0007d6f0       _png_write_chunk_end       3007e6f0 f   libpng:pngwutil.obj
 0001:0007da60       _png_write_PLTE            3007ea60 f   libpng:pngwutil.obj
 0001:0007db50       _png_write_hIST            3007eb50 f   libpng:pngwutil.obj
 0001:0007dc00       _png_check_keyword         3007ec00 f   libpng:pngwutil.obj
 0001:0007ddf0       _png_write_tEXt            3007edf0 f   libpng:pngwutil.obj
 0001:0007dea0       _png_write_zTXt            3007eea0 f   libpng:pngwutil.obj
 0001:0007dfc0       _png_write_iTXt            3007efc0 f   libpng:pngwutil.obj
 0001:0007e150       _png_write_pCAL            3007f150 f   libpng:pngwutil.obj
 0001:0007e2e0       _png_write_start_row       3007f2e0 f   libpng:pngwutil.obj
 0001:0007e460       _png_do_write_interlace    3007f460 f   libpng:pngwutil.obj
 0001:0007e740       _png_write_chunk           3007f740 f   libpng:pngwutil.obj
 0001:0007e780       _png_write_IHDR            3007f780 f   libpng:pngwutil.obj
 0001:0007eb30       _png_write_IDAT            3007fb30 f   libpng:pngwutil.obj
 0001:0007ec60       _png_write_IEND            3007fc60 f   libpng:pngwutil.obj
 0001:0007ecb0       _png_write_gAMA            3007fcb0 f   libpng:pngwutil.obj
 0001:0007ed30       _png_write_sRGB            3007fd30 f   libpng:pngwutil.obj
 0001:0007ed90       _png_write_iCCP            3007fd90 f   libpng:pngwutil.obj
 0001:0007ef10       _png_write_sPLT            3007ff10 f   libpng:pngwutil.obj
 0001:0007f080       _png_write_sBIT            30080080 f   libpng:pngwutil.obj
 0001:0007f170       _png_write_cHRM            30080170 f   libpng:pngwutil.obj
 0001:0007f370       _png_write_tRNS            30080370 f   libpng:pngwutil.obj
 0001:0007f4c0       _png_write_bKGD            300804c0 f   libpng:pngwutil.obj
 0001:0007f620       _png_write_oFFs            30080620 f   libpng:pngwutil.obj
 0001:0007f6a0       _png_write_sCAL            300806a0 f   libpng:pngwutil.obj
 0001:0007f750       _png_write_pHYs            30080750 f   libpng:pngwutil.obj
 0001:0007f7d0       _png_write_tIME            300807d0 f   libpng:pngwutil.obj
 0001:0007f890       _png_write_finish_row      30080890 f   libpng:pngwutil.obj
 0001:0007fb00       _png_write_filtered_row    30080b00 f   libpng:pngwutil.obj
 0001:0007fbe0       _png_write_find_filter     30080be0 f   libpng:pngwutil.obj
 0001:000806d0       _png_do_pack               300816d0 f   libpng:pngwtran.obj
 0001:00080800       _png_do_shift              30081800 f   libpng:pngwtran.obj
 0001:00080a90       _png_do_write_swap_alpha   30081a90 f   libpng:pngwtran.obj
 0001:00080bb0       _png_do_write_invert_alpha 30081bb0 f   libpng:pngwtran.obj
 0001:00080c60       _png_do_write_intrapixel   30081c60 f   libpng:pngwtran.obj
 0001:00080d40       _png_do_write_transformations 30081d40 f   libpng:pngwtran.obj
 0001:00081160       _crc32                     30082160 f   zlib:crc32.obj
 0001:00081200       _deflateEnd                30082200 f   zlib:deflate.obj
 0001:00082220       _deflateReset              30083220 f   zlib:deflate.obj
 0001:000822c0       _deflate                   300832c0 f   zlib:deflate.obj
 0001:00082b10       _deflateInit2_             30083b10 f   zlib:deflate.obj
 0001:00082d50       _zcalloc                   30083d50 f   zlib:zutil.obj
 0001:00082d70       _zcfree                    30083d70 f   zlib:zutil.obj
 0001:00082d90       _adler32                   30083d90 f   zlib:adler32.obj
 0001:00084220       __tr_init                  30085220 f   zlib:trees.obj
 0001:000845e0       __tr_stored_block          300855e0 f   zlib:trees.obj
 0001:00084690       __tr_align                 30085690 f   zlib:trees.obj
 0001:00084890       __tr_flush_block           30085890 f   zlib:trees.obj
 0001:00084a8c       __cfltcvt_init             30085a8c f   LIBCMT:_fpinit_.obj
 0001:00084aec       __fpmath                   30085aec f   LIBCMT:_fpinit_.obj
 0001:00084b10       _memset                    30085b10 f   LIBCMT:memset.obj
 0001:00084b8a       ??0_LocaleUpdate@@QAE@PAUlocaleinfo_struct@@@Z 30085b8a f i LIBCMT:atof.obj
 0001:00084c11       __atof_l                   30085c11 f   LIBCMT:atof.obj
 0001:00084cbc       _atof                      30085cbc f   LIBCMT:atof.obj
 0001:00084ccf       _atol                      30085ccf f   LIBCMT:atox.obj
 0001:00084ce5       _atoi                      30085ce5 f   LIBCMT:atox.obj
 0001:00084d5e       _sscanf                    30085d5e f   LIBCMT:sscanf.obj
 0001:00084d80       _atan2                     30085d80 f   LIBCMT:_87ctriga_.obj
 0001:00084d8a       __CIatan2                  30085d8a f   LIBCMT:_87ctriga_.obj
 0001:00084da0       _cos                       30085da0 f   LIBCMT:_cos_.obj
 0001:00084de0       __CIcos                    30085de0 f   LIBCMT:_cos_.obj
 0001:00084e1b       __CIcos_default            30085e1b f   LIBCMT:_cos_.obj
 0001:00084e2f       __cos_default              30085e2f     LIBCMT:_cos_.obj
 0001:00084ed0       _sin                       30085ed0 f   LIBCMT:_sin_.obj
 0001:00084f10       __CIsin                    30085f10 f   LIBCMT:_sin_.obj
 0001:00084f4b       __CIsin_default            30085f4b f   LIBCMT:_sin_.obj
 0001:00084f5f       __sin_default              30085f5f     LIBCMT:_sin_.obj
 0001:00085010       _strchr                    30086010 f   LIBCMT:strchr.obj
 0001:00085016       ___from_strstr_to_strchr   30086016     LIBCMT:strchr.obj
 0001:000850d0       __ftol2_sse                300860d0 f   LIBCMT:ftol2.obj
 0001:000850d9       __ftol2_pentium4           300860d9 f   LIBCMT:ftol2.obj
 0001:000850ec       __ftol2_sse_excpt          300860ec f   LIBCMT:ftol2.obj
 0001:00085106       __ftol2                    30086106 f   LIBCMT:ftol2.obj
 0001:00085180       __chkstk                   30086180 f   LIBCMT:chkstk.obj
 0001:00085180       __alloca_probe             30086180     LIBCMT:chkstk.obj
 0001:000851b0       _ceil                      300861b0 f   LIBCMT:_ceil_pentium4_.obj
 0001:000851f0       __ceil_pentium4            300861f0 f   LIBCMT:_ceil_pentium4_.obj
 0001:000852d0       _strstr                    300862d0 f   LIBCMT:strstr.obj
 0001:00085360       _floor                     30086360 f   LIBCMT:_floor_pentium4_.obj
 0001:000853a0       __floor_pentium4           300863a0 f   LIBCMT:_floor_pentium4_.obj
 0001:00085490       __CIsqrt                   30086490 f   LIBCMT:_sqrt_.obj
 0001:000854a4       _sqrt                      300864a4     LIBCMT:_sqrt_.obj
 0001:0008554a       __mkdir                    3008654a f   LIBCMT:mkdir.obj
 0001:0008557c       __fclose_nolock            3008657c f   LIBCMT:fclose.obj
 0001:000855e9       _fclose                    300865e9 f   LIBCMT:fclose.obj
 0001:0008565d       _strncmp                   3008665d f   LIBCMT:strncmp.obj
 0001:0008571d       __fsopen                   3008671d f   LIBCMT:fopen.obj
 0001:000857d9       _fopen                     300867d9 f   LIBCMT:fopen.obj
 0001:000857f0       _memcpy                    300867f0 f   LIBCMT:memcpy.obj
 0001:00085b51       __fwrite_nolock            30086b51 f   LIBCMT:fwrite.obj
 0001:00085ca8       _fwrite                    30086ca8 f   LIBCMT:fwrite.obj
 0001:00085d30       _exp                       30086d30 f   LIBCMT:_87ctran_.obj
 0001:00085d6c       __CIexp                    30086d6c f   LIBCMT:_87ctran_.obj
 0001:00085da7       __exp_default              30086da7 f   LIBCMT:_87ctran_.obj
 0001:00085db1       __CIexp_default            30086db1 f   LIBCMT:_87ctran_.obj
 0001:00085dbb       _rand                      30086dbb f   LIBCMT:rand.obj
 0001:00085ddc       _sprintf                   30086ddc f   LIBCMT:sprintf.obj
 0001:00085e60       __vsprintf_l               30086e60 f   LIBCMT:vsprintf.obj
 0001:00085ee4       _vsprintf                  30086ee4 f   LIBCMT:vsprintf.obj
 0001:00085f00       _strncpy                   30086f00 f   LIBCMT:strncpy.obj
 0001:00086030       _tan                       30087030 f   LIBCMT:_tan_.obj
 0001:00086070       __CItan                    30087070 f   LIBCMT:_tan_.obj
 0001:000860ab       __CItan_default            300870ab f   LIBCMT:_tan_.obj
 0001:000860bf       __tan_default              300870bf     LIBCMT:_tan_.obj
 0001:00086160       _pow                       30087160 f   LIBCMT:_pow_.obj
 0001:000861a0       __CIpow                    300871a0 f   LIBCMT:_pow_.obj
 0001:000861db       __CIpow_default            300871db f   LIBCMT:_pow_.obj
 0001:000861f4       __pow_default              300871f4     LIBCMT:_pow_.obj
 0001:000863ea       __fread_nolock_s           300873ea f   LIBCMT:fread.obj
 0001:000865a6       _fread_s                   300875a6 f   LIBCMT:fread.obj
 0001:00086634       _fread                     30087634 f   LIBCMT:fread.obj
 0001:00086651       _rewind                    30087651 f   LIBCMT:rewind.obj
 0001:00086710       _fmod                      30087710 f   LIBCMT:_87fmod_.obj
 0001:0008671a       __CIfmod                   3008771a f   LIBCMT:_87fmod_.obj
 0001:00086740       _acos                      30087740 f   LIBCMT:_acos_.obj
 0001:00086780       __CIacos                   30087780 f   LIBCMT:_acos_.obj
 0001:000867bb       __CIacos_default           300877bb f   LIBCMT:_acos_.obj
 0001:000867cf       __acos_default             300877cf     LIBCMT:_acos_.obj
 0001:00086886       __tolower_l                30087886 f   LIBCMT:tolower.obj
 0001:0008699b       _tolower                   3008799b f   LIBCMT:tolower.obj
 0001:000869c7       __toupper_l                300879c7 f   LIBCMT:toupper.obj
 0001:00086add       _toupper                   30087add f   LIBCMT:toupper.obj
 0001:00086b10       _memmove                   30087b10 f   LIBCMT:memmove.obj
 0001:00086e71       __CRT_INIT@12              30087e71 f   LIBCMT:dllcrt0.obj
 0001:000870cb       __DllMainCRTStartup@12     300880cb f   LIBCMT:dllcrt0.obj
 0001:000870ee       @__security_check_cookie@4 300880ee f   LIBCMT:secchk.obj
 0001:000870fd       __snprintf                 300880fd f   LIBCMT:snprintf.obj
 0001:000871a9       _abort                     300881a9 f   LIBCMT:abort.obj
 0001:000871e0       _longjmp                   300881e0 f   LIBCMT:longjmp.obj
 0001:000872a0       __setjmp3                  300882a0 f   LIBCMT:setjmp3.obj
 0001:0008731b       __flush                    3008831b f   LIBCMT:fflush.obj
 0001:00087383       __fflush_nolock            30088383 f   LIBCMT:fflush.obj
 0001:000874a5       _fflush                    300884a5 f   LIBCMT:fflush.obj
 0001:000874f8       __flushall                 300884f8 f   LIBCMT:fflush.obj
 0001:00087501       _fprintf                   30088501 f   LIBCMT:fprintf.obj
 0001:0008760d       ___iob_func                3008860d f   LIBCMT:_file.obj
 0001:00087613       ___initstdio               30088613 f   LIBCMT:_file.obj
 0001:000876c4       ___endstdio                300886c4 f   LIBCMT:_file.obj
 0001:000876e4       __lock_file                300886e4 f   LIBCMT:_file.obj
 0001:00087725       __lock_file2               30088725 f   LIBCMT:_file.obj
 0001:00087757       __unlock_file              30088757 f   LIBCMT:_file.obj
 0001:00087793       __unlock_file2             30088793 f   LIBCMT:_file.obj
 0001:000877c2       _malloc                    300887c2 f   LIBCMT:malloc.obj
 0001:00087856       _free                      30088856 f   LIBCMT:free.obj
 0001:00087890       ??3@YAXPAX@Z               30088890 f   LIBCMT:delete.obj
 0001:0008789b       ??1bad_alloc@std@@UAE@XZ   3008889b f i LIBCMT:new.obj
 0001:000878a6       ??_Gbad_alloc@std@@UAEPAXI@Z 300888a6 f i LIBCMT:new.obj
 0001:000878a6       ??_Ebad_alloc@std@@UAEPAXI@Z 300888a6 f i LIBCMT:new.obj
 0001:000878cd       ??0bad_alloc@std@@QAE@ABV01@@Z 300888cd f i LIBCMT:new.obj
 0001:000878ea       ??2@YAPAXI@Z               300888ea f   LIBCMT:new.obj
 0001:0008796a       __forcdecpt_l              3008896a f   LIBCMT:cvt.obj
 0001:000879de       __cropzeros_l              300889de f   LIBCMT:cvt.obj
 0001:00087a60       __positive                 30088a60 f   LIBCMT:cvt.obj
 0001:00087a7c       __fassign_l                30088a7c f   LIBCMT:cvt.obj
 0001:00087abe       __fassign                  30088abe f   LIBCMT:cvt.obj
 0001:00087af7       __forcdecpt                30088af7 f   LIBCMT:cvt.obj
 0001:00087b0a       __cropzeros                30088b0a f   LIBCMT:cvt.obj
 0001:00087c7e       __cftoe_l                  30088c7e f   LIBCMT:cvt.obj
 0001:00087d45       __cftoe                    30088d45 f   LIBCMT:cvt.obj
 0001:00087d65       __cftoa_l                  30088d65 f   LIBCMT:cvt.obj
 0001:000881de       __cftof_l                  300891de f   LIBCMT:cvt.obj
 0001:0008829f       __cftog_l                  3008929f f   LIBCMT:cvt.obj
 0001:0008838c       __cfltcvt_l                3008938c f   LIBCMT:cvt.obj
 0001:00088414       __cfltcvt                  30089414 f   LIBCMT:cvt.obj
 0001:00088437       __initp_misc_cfltcvt_tab   30089437 f   LIBCMT:cmiscdat.obj
 0001:0008845a       __setdefaultprecision      3008945a f   LIBCMT:fp8.obj
 0001:00088482       __VEC_memzero              30089482 f   LIBCMT:p4_memset.obj
 0001:0008853c       ___sse2_available_init     3008953c f   LIBCMT:cpu_disp.obj
 0001:0008876f       ___updatetmbcinfo          3008976f f   LIBCMT:mbctype.obj
 0001:0008888f       __setmbcp_nolock           3008988f f   LIBCMT:mbctype.obj
 0001:00088a78       __setmbcp                  30089a78 f   LIBCMT:mbctype.obj
 0001:00088c12       ___initmbctable            30089c12 f   LIBCMT:mbctype.obj
 0001:00088c30       ___addlocaleref            30089c30 f   LIBCMT:localref.obj
 0001:00088cbf       ___removelocaleref         30089cbf f   LIBCMT:localref.obj
 0001:00088d58       ___freetlocinfo            30089d58 f   LIBCMT:localref.obj
 0001:00088ea3       __updatetlocinfoEx_nolock  30089ea3 f   LIBCMT:localref.obj
 0001:00088ef0       ___updatetlocinfo          30089ef0 f   LIBCMT:localref.obj
 0001:00088f69       __encoded_null             30089f69 f   LIBCMT:tidtable.obj
 0001:00088f72       ___crtTlsAlloc@4           30089f72 f   LIBCMT:tidtable.obj
 0001:00088f7b       ___set_flsgetvalue         30089f7b f   LIBCMT:tidtable.obj
 0001:00088faf       __mtterm                   30089faf f   LIBCMT:tidtable.obj
 0001:00088fec       __initptd                  30089fec f   LIBCMT:tidtable.obj
 0001:000890a0       __getptd_noexit            3008a0a0 f   LIBCMT:tidtable.obj
 0001:00089119       __getptd                   3008a119 f   LIBCMT:tidtable.obj
 0001:00089133       __freefls@4                3008a133 f   LIBCMT:tidtable.obj
 0001:00089262       __freeptd                  3008a262 f   LIBCMT:tidtable.obj
 0001:000892d0       __mtinit                   3008a2d0 f   LIBCMT:tidtable.obj
 0001:0008944b       __fltin2                   3008a44b f   LIBCMT:_cfin_.obj
 0001:000894f2       __isctype_l                3008a4f2 f   LIBCMT:isctype.obj
 0001:000895aa       __initp_misc_invarg        3008a5aa f   LIBCMT:invarg.obj
 0001:000895b9       __call_reportfault         3008a5b9 f   LIBCMT:invarg.obj
 0001:000896e2       __invoke_watson            3008a6e2 f   LIBCMT:invarg.obj
 0001:00089707       __invalid_parameter        3008a707 f   LIBCMT:invarg.obj
 0001:00089734       __invalid_parameter_noinfo 3008a734 f   LIBCMT:invarg.obj
 0001:00089744       __get_errno_from_oserr     3008a744 f   LIBCMT:dosmap.obj
 0001:00089786       __errno                    3008a786 f   LIBCMT:dosmap.obj
 0001:00089799       ___doserrno                3008a799 f   LIBCMT:dosmap.obj
 0001:000897ac       __dosmaperr                3008a7ac f   LIBCMT:dosmap.obj
 0001:000897cf       ___strgtold12_l            3008a7cf f   LIBCMT:_strgtold_.obj
 0001:0008a0d6       _strtol                    3008b0d6 f   LIBCMT:strtol.obj
 0001:0008a110       _strlen                    3008b110 f   LIBCMT:strlen.obj
 0001:0008a252       __input_l                  3008b252 f   LIBCMT:input.obj
 0001:0008b27c       __fFATN2                   3008c27c     LIBCMT:_87triga_.obj
 0001:0008b2cc       __rtpiby2                  3008c2cc     LIBCMT:_87triga_.obj
 0001:0008b310       __cintrindisp2             3008c310 f   LIBCMT:_87cdisp_.obj
 0001:0008b34e       __cintrindisp1             3008c34e f   LIBCMT:_87cdisp_.obj
 0001:0008b38b       __ctrandisp2               3008c38b f   LIBCMT:_87cdisp_.obj
 0001:0008b51a       __ctrandisp1               3008c51a f   LIBCMT:_87cdisp_.obj
 0001:0008b54d       __fload                    3008c54d f   LIBCMT:_87cdisp_.obj
 0001:0008b589       __sse2_mathfcns_init       3008c589 f   LIBCMT:_mathfcns_.obj
 0001:0008b5a0       __CIcos_pentium4           3008c5a0 f   LIBCMT:_cos_pentium4_.obj
 0001:0008b5b8       __cos_pentium4             3008c5b8     LIBCMT:_cos_pentium4_.obj
 0001:0008b750       __trandisp1                3008c750 f   LIBCMT:_87disp_.obj
 0001:0008b7b7       __trandisp2                3008c7b7 f   LIBCMT:_87disp_.obj
 0001:0008b843       __rttospopde               3008c843     LIBCMT:_87disp_.obj
 0001:0008b848       __rttospop                 3008c848     LIBCMT:_87disp_.obj
 0001:0008b84a       __rtnospop                 3008c84a     LIBCMT:_87disp_.obj
 0001:0008b84c       __rttosnpop                3008c84c     LIBCMT:_87disp_.obj
 0001:0008b84d       __rtnospopde               3008c84d     LIBCMT:_87disp_.obj
 0001:0008b854       __rtzeropop                3008c854     LIBCMT:_87disp_.obj
 0001:0008b856       __rtzeronpop               3008c856     LIBCMT:_87disp_.obj
 0001:0008b85b       __rtonepop                 3008c85b     LIBCMT:_87disp_.obj
 0001:0008b85d       __rtonenpop                3008c85d     LIBCMT:_87disp_.obj
 0001:0008b862       __tosnan1                  3008c862     LIBCMT:_87disp_.obj
 0001:0008b88d       __nosnan2                  3008c88d     LIBCMT:_87disp_.obj
 0001:0008b88f       __tosnan2                  3008c88f     LIBCMT:_87disp_.obj
 0001:0008b8b7       __nan2                     3008c8b7     LIBCMT:_87disp_.obj
 0001:0008b8f6       __rtindfpop                3008c8f6     LIBCMT:_87disp_.obj
 0001:0008b8f8       __rtindfnpop               3008c8f8     LIBCMT:_87disp_.obj
 0001:0008b909       __rttosnpopde              3008c909     LIBCMT:_87disp_.obj
 0001:0008b913       __rtchsifneg               3008c913     LIBCMT:_87disp_.obj
 0001:0008b920       __twoToTOS                 3008c920 f   LIBCMT:_common_.obj
 0001:0008b935       __load_CW                  3008c935 f   LIBCMT:_common_.obj
 0001:0008b94c       __convertTOStoQNaN         3008c94c f   LIBCMT:_common_.obj
 0001:0008b965       __fload_withFB             3008c965 f   LIBCMT:_common_.obj
 0001:0008b9a8       __checkTOS_withFB          3008c9a8 f   LIBCMT:_common_.obj
 0001:0008b9be       __fast_exit                3008c9be f   LIBCMT:_common_.obj
 0001:0008b9cb       __math_exit                3008c9cb f   LIBCMT:_common_.obj
 0001:0008b9f5       __check_overflow_exit      3008c9f5 f   LIBCMT:_common_.obj
 0001:0008ba09       __check_range_exit         3008ca09 f   LIBCMT:_common_.obj
 0001:0008bab0       __startTwoArgErrorHandling 3008cab0 f   LIBCMT:_genexcep_.obj
 0001:0008bac7       __startOneArgErrorHandling 3008cac7 f   LIBCMT:_genexcep_.obj
 0001:0008bb10       __CIsin_pentium4           3008cb10 f   LIBCMT:_sin_pentium4_.obj
 0001:0008bb28       __sin_pentium4             3008cb28     LIBCMT:_sin_pentium4_.obj
 0001:0008bcd8       ___libm_error_support      3008ccd8 f   LIBCMT:_libm_error_.obj
 0001:0008bfa4       __ceil_default             3008cfa4 f   LIBCMT:_ceil_.obj
 0001:0008c07c       __floor_default            3008d07c f   LIBCMT:_floor_.obj
 0001:0008c154       __close_nolock             3008d154 f   LIBCMT:close.obj
 0001:0008c1f0       __close                    3008d1f0 f   LIBCMT:close.obj
 0001:0008c2b4       __fileno                   3008d2b4 f   LIBCMT:fileno.obj
 0001:0008c2da       __freebuf                  3008d2da f   LIBCMT:_freebuf.obj
 0001:0008c310       __SEH_prolog4              3008d310 f   LIBCMT:sehprolg4.obj
 0001:0008c355       __SEH_epilog4              3008d355 f   LIBCMT:sehprolg4.obj
 0001:0008c370       __except_handler4          3008d370 f   LIBCMT:chandler4.obj
 0001:0008c4ff       __openfile                 3008d4ff f   LIBCMT:_open.obj
 0001:0008c796       __getstream                3008d796 f   LIBCMT:stream.obj
 0001:0008c8d0       __local_unwind4            3008d8d0 f   LIBCMT:exsup4.obj
 0001:0008c9a6       __seh_longjmp_unwind4@4    3008d9a6 f   LIBCMT:exsup4.obj
 0001:0008c9c2       @_EH4_CallFilterFunc@8     3008d9c2 f   LIBCMT:exsup4.obj
 0001:0008c9d9       @_EH4_TransferToHandler@8  3008d9d9 f   LIBCMT:exsup4.obj
 0001:0008c9f2       @_EH4_GlobalUnwind2@8      3008d9f2 f   LIBCMT:exsup4.obj
 0001:0008ca0b       @_EH4_LocalUnwind@16       3008da0b f   LIBCMT:exsup4.obj
 0001:0008ca22       __VEC_memcpy               3008da22 f   LIBCMT:p4_memcpy.obj
 0001:0008cb25       __flsbuf                   3008db25 f   LIBCMT:_flsbuf.obj
 0001:0008cc89       __write_nolock             3008dc89 f   LIBCMT:write.obj
 0001:0008d386       __write                    3008e386 f   LIBCMT:write.obj
 0001:0008d460       __CIexp_pentium4           3008e460 f   LIBCMT:_exp_pentium4_.obj
 0001:0008d478       __exp_pentium4             3008e478     LIBCMT:_exp_pentium4_.obj
 0001:0008d731       __fFEXP                    3008e731     LIBCMT:_87tran_.obj
 0001:0008d788       __rtinfpopse               3008e788     LIBCMT:_87tran_.obj
 0001:0008d78a       __rtinfnpopse              3008e78a     LIBCMT:_87tran_.obj
 0001:0008d79a       __fFLN                     3008e79a     LIBCMT:_87tran_.obj
 0001:0008d84f       __rtinfpop                 3008e84f     LIBCMT:_87tran_.obj
 0001:0008d851       __rtinfnpop                3008e851     LIBCMT:_87tran_.obj
 0001:0008d86e       __ffexpm1                  3008e86e     LIBCMT:_87tran_.obj
 0001:0008d997       __output_l                 3008e997 f   LIBCMT:output.obj
 0001:0008e550       __CItan_pentium4           3008f550 f   LIBCMT:_tan_pentium4_.obj
 0001:0008e568       __tan_pentium4             3008f568     LIBCMT:_tan_pentium4_.obj
 0001:0008e7b0       __CIpow_pentium4           3008f7b0 f   LIBCMT:_pow_pentium4_.obj
 0001:0008e7c9       __pow_pentium4             3008f7c9     LIBCMT:_pow_pentium4_.obj
 0001:0008f310       __d_inttype                30090310 f   LIBCMT:_powhlp_.obj
 0001:0008f37a       __powhlp                   3009037a f   LIBCMT:_powhlp_.obj
 0001:0008f4a5       __filbuf                   300904a5 f   LIBCMT:_filbuf.obj
 0001:0008f5c7       __read_nolock              300905c7 f   LIBCMT:read.obj
 0001:0008fb7e       __read                     30090b7e f   LIBCMT:read.obj
 0001:0008fc74       _memcpy_s                  30090c74 f   LIBCMT:memcpy_s.obj
 0001:0008fce9       __lseek_nolock             30090ce9 f   LIBCMT:lseek.obj
 0001:0008fd5e       __lseek                    30090d5e f   LIBCMT:lseek.obj
 0001:0008fe32       __ioinit                   30090e32 f   LIBCMT:ioinit.obj
 0001:00090077       __ioterm                   30091077 f   LIBCMT:ioinit.obj
 0001:000900d0       __CIacos_pentium4          300910d0 f   LIBCMT:_acos_pentium4_.obj
 0001:000900e8       __acos_pentium4            300910e8     LIBCMT:_acos_pentium4_.obj
 0001:00090624       __freea                    30091624 f i LIBCMT:a_map.obj
 0001:0009082b       ___crtLCMapStringA         3009182b f   LIBCMT:a_map.obj
 0001:00090871       __isleadbyte_l             30091871 f i LIBCMT:_wctype.obj
 0001:000908a9       _isleadbyte                300918a9 f i LIBCMT:_wctype.obj
 0001:000908bc       __malloc_crt               300918bc f   LIBCMT:crtheap.obj
 0001:00090901       __calloc_crt               30091901 f   LIBCMT:crtheap.obj
 0001:0009094d       __realloc_crt              3009194d f   LIBCMT:crtheap.obj
 0001:0009099b       __recalloc_crt             3009199b f   LIBCMT:crtheap.obj
 0001:000909ed       ___crtCorExitProcess       300919ed f   LIBCMT:crt0dat.obj
 0001:00090a18       ___crtExitProcess          30091a18 f   LIBCMT:crt0dat.obj
 0001:00090a30       __lockexit                 30091a30 f   LIBCMT:crt0dat.obj
 0001:00090a39       __unlockexit               30091a39 f   LIBCMT:crt0dat.obj
 0001:00090a42       __init_pointers            30091a42 f   LIBCMT:crt0dat.obj
 0001:00090a75       __initterm_e               30091a75 f   LIBCMT:crt0dat.obj
 0001:00090a99       __cinit                    30091a99 f   LIBCMT:crt0dat.obj
 0001:00090c70       __exit                     30091c70 f   LIBCMT:crt0dat.obj
 0001:00090c86       __cexit                    30091c86 f   LIBCMT:crt0dat.obj
 0001:00090c95       __amsg_exit                30091c95 f   LIBCMT:crt0dat.obj
 0001:00090cb3       __setenvp                  30091cb3 f   LIBCMT:stdenvp.obj
 0001:00090f29       __setargv                  30091f29 f   LIBCMT:stdargv.obj
 0001:00090fe4       ___crtGetEnvironmentStringsA 30091fe4 f   LIBCMT:a_env.obj
 0001:0009107b       __RTC_Initialize           3009207b f   LIBCMT:_initsect_.obj
 0001:000910a1       __RTC_Terminate            300920a1 f   LIBCMT:_initsect_.obj
 0001:000910c7       __heap_init                300920c7 f   LIBCMT:heapinit.obj
 0001:000910e5       __heap_term                300920e5 f   LIBCMT:heapinit.obj
 0001:000910f9       __XcptFilter               300920f9 f   LIBCMT:winxfltr.obj
 0001:00091243       ___CppXcptFilter           30092243 f   LIBCMT:winxfltr.obj
 0001:00091263       ___security_init_cookie    30092263 f   LIBCMT:gs_support.obj
 0001:000912fe       ___report_gsfailure        300922fe f   LIBCMT:gs_report.obj
 0001:00091410       __allmul                   30092410 f   LIBCMT:llmul.obj
 0001:00091450       __alldiv                   30092450 f   LIBCMT:lldiv.obj
 0001:000914fa       __initp_misc_winsig        300924fa f   LIBCMT:winsig.obj
 0001:0009154f       ___get_sigabrt             3009254f f   LIBCMT:winsig.obj
 0001:0009155c       _raise                     3009255c f   LIBCMT:winsig.obj
 0001:00091700       __global_unwind2           30092700 f   LIBCMT:exsup.obj
 0001:00091765       __local_unwind2            30092765 f   LIBCMT:exsup.obj
 0001:000917e9       __abnormal_termination     300927e9 f   LIBCMT:exsup.obj
 0001:0009180c       __NLG_Notify1              3009280c f   LIBCMT:exsup.obj
 0001:00091815       __NLG_Notify               30092815 f   LIBCMT:exsup.obj
 0001:0009182c       __NLG_Dispatch             3009282c     LIBCMT:exsup.obj
 0001:0009182c       __NLG_Dispatch2            3009282c     LIBCMT:exsup.obj
 0001:00091834       __NLG_Call                 30092834 f   LIBCMT:exsup.obj
 0001:00091836       __NLG_Return2              30092836     LIBCMT:exsup.obj
 0001:00091837       __rt_probe_read4@4         30092837 f   LIBCMT:sehsupp.obj
 0001:00091882       __commit                   30092882 f   LIBCMT:commit.obj
 0001:0009195b       __mtinitlocks              3009295b f   LIBCMT:mlock.obj
 0001:000919a5       __mtdeletelocks            300929a5 f   LIBCMT:mlock.obj
 0001:000919fc       __unlock                   300929fc f   LIBCMT:mlock.obj
 0001:00091a13       __mtinitlocknum            30092a13 f   LIBCMT:mlock.obj
 0001:00091ad5       __lock                     30092ad5 f   LIBCMT:mlock.obj
 0001:00091b08       __stbuf                    30092b08 f   LIBCMT:_sftbuf.obj
 0001:00091ba4       __ftbuf                    30092ba4 f   LIBCMT:_sftbuf.obj
 0001:00091bd8       __fcloseall                30092bd8 f   LIBCMT:closeall.obj
 0001:00091c74       __GET_RTERRMSG             30092c74 f   LIBCMT:crt0msg.obj
 0001:00091c9a       __NMSG_WRITE               30092c9a f   LIBCMT:crt0msg.obj
 0001:00091e49       __FF_MSGBANNER             30092e49 f   LIBCMT:crt0msg.obj
 0001:00091e82       __initp_heap_handler       30092e82 f   LIBCMT:handler.obj
 0001:00091e91       __callnewh                 30092e91 f   LIBCMT:handler.obj
 0001:00091eb9       ??0exception@std@@QAE@ABQBDH@Z 30092eb9 f   LIBCMT:stdexcpt.obj
 0001:00091ed6       ?what@exception@std@@UBEPBDXZ 30092ed6 f   LIBCMT:stdexcpt.obj
 0001:00091ee3       ?_Copy_str@exception@std@@AAEXPBD@Z 30092ee3 f   LIBCMT:stdexcpt.obj
 0001:00091f23       ?_Tidy@exception@std@@AAEXXZ 30092f23 f   LIBCMT:stdexcpt.obj
 0001:00091f41       ??4exception@std@@QAEAAV01@ABV01@@Z 30092f41 f   LIBCMT:stdexcpt.obj
 0001:00091f76       ??1exception@std@@UAE@XZ   30092f76 f   LIBCMT:stdexcpt.obj
 0001:00091f81       ??_Gexception@std@@UAEPAXI@Z 30092f81 f i LIBCMT:stdexcpt.obj
 0001:00091f81       ??_Eexception@std@@UAEPAXI@Z 30092f81 f i LIBCMT:stdexcpt.obj
 0001:00091fa8       ??0exception@std@@QAE@ABV01@@Z 30092fa8 f   LIBCMT:stdexcpt.obj
 0001:00091fcd       ??1type_info@@UAE@XZ       30092fcd f   LIBCMT:typinfo.obj
 0001:00091fdd       ??_Gtype_info@@UAEPAXI@Z   30092fdd f i LIBCMT:typinfo.obj
 0001:00091fdd       ??_Etype_info@@UAEPAXI@Z   30092fdd f i LIBCMT:typinfo.obj
 0001:000920b4       ___onexitinit              300930b4 f   LIBCMT:onexit.obj
 0001:000920e5       __onexit                   300930e5 f   LIBCMT:onexit.obj
 0001:00092121       _atexit                    30093121 f   LIBCMT:onexit.obj
 0001:00092138       __CxxThrowException@8      30093138 f   LIBCMT:throw.obj
 0001:00092190       _strrchr                   30093190 f   LIBCMT:strrchr.obj
 0001:000921bd       __isdigit_l                300931bd f i LIBCMT:_ctype.obj
 0001:0009220e       _isdigit                   3009320e f i LIBCMT:_ctype.obj
 0001:0009223c       __isxdigit_l               3009323c f i LIBCMT:_ctype.obj
 0001:00092292       _isxdigit                  30093292 f i LIBCMT:_ctype.obj
 0001:000922c2       __isspace_l                300932c2 f i LIBCMT:_ctype.obj
 0001:00092313       _isspace                   30093313 f i LIBCMT:_ctype.obj
 0001:00092341       __atodbl_l                 30093341 f   LIBCMT:atodbl.obj
 0001:000923e9       __atoflt_l                 300933e9 f   LIBCMT:atodbl.obj
 0001:00092491       _strcpy_s                  30093491 f   LIBCMT:strcpy_s.obj
 0001:000924f0       __fptostr                  300934f0 f   LIBCMT:_fptostr.obj
 0001:000925a3       ___dtold                   300935a3 f   LIBCMT:_cfout_.obj
 0001:00092656       __fltout2                  30093656 f   LIBCMT:_cfout_.obj
 0001:000926f0       __alldvrm                  300936f0 f   LIBCMT:lldvrm.obj
 0001:000927d0       __aullshr                  300937d0 f   LIBCMT:ullshr.obj
 0001:000927ef       __fptrap                   300937ef f   LIBCMT:crt0fp.obj
 0001:000927f8       __controlfp_s              300937f8 f   LIBCMT:_contrlfp_.obj
 0001:0009293e       ___crtGetStringTypeA       3009393e f   LIBCMT:a_str.obj
 0001:0009297e       ___free_lc_time            3009397e f   LIBCMT:inittime.obj
 0001:00092cf5       ___free_lconv_num          30093cf5 f   LIBCMT:initnum.obj
 0001:00092d5e       ___free_lconv_mon          30093d5e f   LIBCMT:initmon.obj
 0001:00092e5c       __ld12tod                  30093e5c f   LIBCMT:_intrncvt_.obj
 0001:000933ad       __ld12tof                  300943ad f   LIBCMT:_intrncvt_.obj
 0001:000938fe       __crt_debugger_hook        300948fe f   LIBCMT:dbghook.obj
 0001:00093906       ___mtold12                 30094906 f   LIBCMT:_mantold_.obj
 0001:00093af0       __aulldvrm                 30094af0 f   LIBCMT:ulldvrm.obj
 0001:00093b85       __ungetc_nolock            30094b85 f   LIBCMT:ungetc.obj
 0001:00093c68       __mbtowc_l                 30094c68 f   LIBCMT:mbtowc.obj
 0001:00093d7e       _mbtowc                    30094d7e f   LIBCMT:mbtowc.obj
 0001:00093d98       __87except                 30094d98 f   LIBCMT:_87except_.obj
 0001:00093ed7       __matherr                  30094ed7 f   LIBCMT:_matherr_.obj
 0001:00093eda       __raise_exc_ex             30094eda f   LIBCMT:_fpexcept_.obj
 0001:000941b6       __raise_exc                300951b6 f   LIBCMT:_fpexcept_.obj
 0001:000941d9       __handle_exc               300951d9 f   LIBCMT:_fpexcept_.obj
 0001:000943bd       __set_errno_from_matherr   300953bd f   LIBCMT:_fpexcept_.obj
 0001:000943ea       __errcode                  300953ea f   LIBCMT:_fpexcept_.obj
 0001:0009441e       __umatherr                 3009541e f   LIBCMT:_fpexcept_.obj
 0001:000944be       __handle_qnan1             300954be f   LIBCMT:_fpexcept_.obj
 0001:00094513       __except1                  30095513 f   LIBCMT:_fpexcept_.obj
 0001:000945dd       __frnd                     300955dd f   LIBCMT:_frnd_.obj
 0001:000945f1       __set_exp                  300955f1 f   LIBCMT:_util_.obj
 0001:0009461e       __sptype                   3009561e f   LIBCMT:_util_.obj
 0001:00094684       __decomp                   30095684 f   LIBCMT:_util_.obj
 0001:00094747       __statfp                   30095747 f   LIBCMT:_fpctrl_.obj
 0001:00094757       __clrfp                    30095757 f   LIBCMT:_fpctrl_.obj
 0001:00094768       __ctrlfp                   30095768 f   LIBCMT:_fpctrl_.obj
 0001:00094793       __set_statfp               30095793 f   LIBCMT:_fpctrl_.obj
 0001:000947eb       ___set_fpsr_sse2           300957eb f   LIBCMT:_fpctrl_.obj
 0001:0009485d       __set_osfhnd               3009585d f   LIBCMT:osfinfo.obj
 0001:000948de       __free_osfhnd              300958de f   LIBCMT:osfinfo.obj
 0001:00094964       __get_osfhandle            30095964 f   LIBCMT:osfinfo.obj
 0001:000949cd       ___lock_fhandle            300959cd f   LIBCMT:osfinfo.obj
 0001:00094a6c       __unlock_fhandle           30095a6c f   LIBCMT:osfinfo.obj
 0001:00094a93       __alloc_osfhnd             30095a93 f   LIBCMT:osfinfo.obj
 0001:00094c30       __ValidateImageBase        30095c30 f   LIBCMT:pesect.obj
 0001:00094c70       __FindPESection            30095c70 f   LIBCMT:pesect.obj
 0001:00094cc0       __IsNonwritableInCurrentImage 30095cc0 f   LIBCMT:pesect.obj
 0001:000954b0       __sopen_helper             300964b0 f   LIBCMT:open.obj
 0001:00095574       __sopen_s                  30096574 f   LIBCMT:open.obj
 0001:00095594       __mbsnbicmp_l              30096594 f   LIBCMT:mbsnbicm.obj
 0001:00095798       __mbsnbicmp                30096798 f   LIBCMT:mbsnbicm.obj
 0001:000957b2       __mbsnbcmp_l               300967b2 f   LIBCMT:mbsnbcmp.obj
 0001:000958fe       __mbsnbcmp                 300968fe f   LIBCMT:mbsnbcmp.obj
 0001:00095918       __lseeki64_nolock          30096918 f   LIBCMT:lseeki64.obj
 0001:0009599d       __lseeki64                 3009699d f   LIBCMT:lseeki64.obj
 0001:00095a87       __getbuf                   30096a87 f   LIBCMT:_getbuf.obj
 0001:00095ad0       __isatty                   30096ad0 f   LIBCMT:isatty.obj
 0001:00095b26       __putwch_nolock            30096b26 f   LIBCMT:putwch.obj
 0001:00095b68       __get_printf_count_output  30096b68 f   LIBCMT:printf.obj
 0001:00095b7e       __wctomb_s_l               30096b7e f   LIBCMT:wctomb.obj
 0001:00095cd3       _wctomb_s                  30096cd3 f   LIBCMT:wctomb.obj
 0001:00095cf0       __fpclass                  30096cf0 f   LIBCMT:_ieeemisc_.obj
 0001:00095d90       __alloca_probe_16          30096d90 f   LIBCMT:alloca16.obj
 0001:00095da6       __alloca_probe_8           30096da6     LIBCMT:alloca16.obj
 0001:00095dc0       _strcspn                   30096dc0 f   LIBCMT:strcspn.obj
 0001:00095e10       _strcmp                    30096e10 f   LIBCMT:strcmp.obj
 0001:00095ea0       _strpbrk                   30096ea0 f   LIBCMT:strpbrk.obj
 0001:00095ee0       __calloc_impl              30096ee0 f   LIBCMT:calloc_impl.obj
 0001:00095f62       _realloc                   30096f62 f   LIBCMT:realloc.obj
 0001:0009600f       __recalloc                 3009700f f   LIBCMT:recalloc.obj
 0001:0009607d       ?terminate@@YAXXZ          3009707d f   LIBCMT:hooks.obj
 0001:000960b6       __initp_eh_hooks           300970b6 f   LIBCMT:hooks.obj
 0001:000960c7       __initp_misc_rand_s        300970c7 f   LIBCMT:rand_s.obj
 0001:000960d6       __initp_misc_purevirt      300970d6 f   LIBCMT:inithelp.obj
 0001:00096138       __ismbblead                30097138 f   LIBCMT:ismbbyte.obj
 0001:00096150       ___crtMessageBoxW          30097150 f   LIBCMT:crtmboxw.obj
 0001:000962bc       _wcscat_s                  300972bc f   LIBCMT:wcscat_s.obj
 0001:00096331       _wcsncpy_s                 30097331 f   LIBCMT:wcsncpy_s.obj
 0001:000963fe       _wcslen                    300973fe f   LIBCMT:wcslen.obj
 0001:00096419       _wcscpy_s                  30097419 f   LIBCMT:wcscpy_s.obj
 0001:0009647c       __set_error_mode           3009747c f   LIBCMT:errmode.obj
 0001:000964bb       ?_Type_info_dtor@type_info@@CAXPAV1@@Z 300974bb f   LIBCMT:typname.obj
 0001:0009652b       __msize                    3009752b f   LIBCMT:msize.obj
 0001:0009655e       _$I10_OUTPUT               3009755e f   LIBCMT:_x10fout_.obj
 0001:00096f84       __control87                30097f84 f i LIBCMT:_ieee87_.obj
 0001:00097296       __chsize_nolock            30098296 f   LIBCMT:chsize.obj
 0001:0009744c       __setmode_nolock           3009844c f   LIBCMT:setmode.obj
 0001:00097507       __get_fmode                30098507 f   LIBCMT:setmode.obj
 0001:00097534       __strnicmp_l               30098534 f   LIBCMT:strnicmp.obj
 0001:00097616       __strnicmp                 30098616 f   LIBCMT:strnicmp.obj
 0001:00097669       ___initconout              30098669 f   LIBCMT:initcon.obj
 0001:00097688       ___termconout              30098688 f   LIBCMT:initcon.obj
 0001:0009769f       ___ascii_stricmp           3009869f f   LIBCMT:stricmp.obj
 0001:000976d8       __stricmp_l                300986d8 f   LIBCMT:stricmp.obj
 0001:00097798       _stricmp                   30098798 f   LIBCMT:stricmp.obj
 0001:00097798       __stricmp                  30098798 f   LIBCMT:stricmp.obj
 0001:000977e0       ___ascii_strnicmp          300987e0 f   LIBCMT:_strnicm.obj
 0001:00097842       _RtlUnwind@16              30098842 f   kernel32:KERNEL32.dll
 0002:00000000       __imp__IsDebuggerPresent@0 30099000     kernel32:KERNEL32.dll
 0002:00000004       __imp__GetProcessHeap@0    30099004     kernel32:KERNEL32.dll
 0002:00000008       __imp__SetEndOfFile@4      30099008     kernel32:KERNEL32.dll
 0002:0000000c       __imp__HeapSize@12         3009900c     kernel32:KERNEL32.dll
 0002:00000010       __imp__LoadLibraryW@4      30099010     kernel32:KERNEL32.dll
 0002:00000014       __imp__GetCurrentThread@0  30099014     kernel32:KERNEL32.dll
 0002:00000018       __imp__GetThreadContext@8  30099018     kernel32:KERNEL32.dll
 0002:0000001c       __imp__SetThreadContext@8  3009901c     kernel32:KERNEL32.dll
 0002:00000020       __imp__VirtualQuery@12     30099020     kernel32:KERNEL32.dll
 0002:00000024       __imp__GetCurrentProcess@0 30099024     kernel32:KERNEL32.dll
 0002:00000028       __imp__InterlockedCompareExchange@12 30099028     kernel32:KERNEL32.dll
 0002:0000002c       __imp__FlushInstructionCache@12 3009902c     kernel32:KERNEL32.dll
 0002:00000030       __imp__GetLastError@0      30099030     kernel32:KERNEL32.dll
 0002:00000034       __imp__VirtualAlloc@16     30099034     kernel32:KERNEL32.dll
 0002:00000038       __imp__VirtualProtect@16   30099038     kernel32:KERNEL32.dll
 0002:0000003c       __imp__GetCurrentThreadId@0 3009903c     kernel32:KERNEL32.dll
 0002:00000040       __imp__SuspendThread@4     30099040     kernel32:KERNEL32.dll
 0002:00000044       __imp__ResumeThread@4      30099044     kernel32:KERNEL32.dll
 0002:00000048       __imp__SetLastError@4      30099048     kernel32:KERNEL32.dll
 0002:0000004c       __imp__GetProcAddress@8    3009904c     kernel32:KERNEL32.dll
 0002:00000050       __imp__GetModuleHandleA@4  30099050     kernel32:KERNEL32.dll
 0002:00000054       __imp__DisableThreadLibraryCalls@4 30099054     kernel32:KERNEL32.dll
 0002:00000058       __imp__CreateDirectoryA@8  30099058     kernel32:KERNEL32.dll
 0002:0000005c       __imp__DecodePointer@4     3009905c     kernel32:KERNEL32.dll
 0002:00000060       __imp__GetCommandLineA@0   30099060     kernel32:KERNEL32.dll
 0002:00000064       __imp__RtlUnwind@16        30099064     kernel32:KERNEL32.dll
 0002:00000068       __imp__EnterCriticalSection@4 30099068     kernel32:KERNEL32.dll
 0002:0000006c       __imp__LeaveCriticalSection@4 3009906c     kernel32:KERNEL32.dll
 0002:00000070       __imp__HeapAlloc@12        30099070     kernel32:KERNEL32.dll
 0002:00000074       __imp__HeapFree@12         30099074     kernel32:KERNEL32.dll
 0002:00000078       __imp__EncodePointer@4     30099078     kernel32:KERNEL32.dll
 0002:0000007c       __imp__IsProcessorFeaturePresent@4 3009907c     kernel32:KERNEL32.dll
 0002:00000080       __imp__GetCPInfo@8         30099080     kernel32:KERNEL32.dll
 0002:00000084       __imp__InterlockedIncrement@4 30099084     kernel32:KERNEL32.dll
 0002:00000088       __imp__InterlockedDecrement@4 30099088     kernel32:KERNEL32.dll
 0002:0000008c       __imp__GetACP@0            3009908c     kernel32:KERNEL32.dll
 0002:00000090       __imp__GetOEMCP@0          30099090     kernel32:KERNEL32.dll
 0002:00000094       __imp__IsValidCodePage@4   30099094     kernel32:KERNEL32.dll
 0002:00000098       __imp__TlsAlloc@0          30099098     kernel32:KERNEL32.dll
 0002:0000009c       __imp__TlsGetValue@4       3009909c     kernel32:KERNEL32.dll
 0002:000000a0       __imp__TlsSetValue@8       300990a0     kernel32:KERNEL32.dll
 0002:000000a4       __imp__TlsFree@4           300990a4     kernel32:KERNEL32.dll
 0002:000000a8       __imp__GetModuleHandleW@4  300990a8     kernel32:KERNEL32.dll
 0002:000000ac       __imp__UnhandledExceptionFilter@4 300990ac     kernel32:KERNEL32.dll
 0002:000000b0       __imp__SetUnhandledExceptionFilter@4 300990b0     kernel32:KERNEL32.dll
 0002:000000b4       __imp__CreateFileW@28      300990b4     kernel32:KERNEL32.dll
 0002:000000b8       __imp__TerminateProcess@8  300990b8     kernel32:KERNEL32.dll
 0002:000000bc       __imp__CloseHandle@4       300990bc     kernel32:KERNEL32.dll
 0002:000000c0       __imp__InitializeCriticalSectionAndSpinCount@8 300990c0     kernel32:KERNEL32.dll
 0002:000000c4       __imp__WriteFile@20        300990c4     kernel32:KERNEL32.dll
 0002:000000c8       __imp__WideCharToMultiByte@32 300990c8     kernel32:KERNEL32.dll
 0002:000000cc       __imp__GetConsoleCP@0      300990cc     kernel32:KERNEL32.dll
 0002:000000d0       __imp__GetConsoleMode@8    300990d0     kernel32:KERNEL32.dll
 0002:000000d4       __imp__MultiByteToWideChar@24 300990d4     kernel32:KERNEL32.dll
 0002:000000d8       __imp__ReadFile@20         300990d8     kernel32:KERNEL32.dll
 0002:000000dc       __imp__SetFilePointer@16   300990dc     kernel32:KERNEL32.dll
 0002:000000e0       __imp__SetHandleCount@4    300990e0     kernel32:KERNEL32.dll
 0002:000000e4       __imp__GetStdHandle@4      300990e4     kernel32:KERNEL32.dll
 0002:000000e8       __imp__GetFileType@4       300990e8     kernel32:KERNEL32.dll
 0002:000000ec       __imp__GetStartupInfoW@4   300990ec     kernel32:KERNEL32.dll
 0002:000000f0       __imp__DeleteCriticalSection@4 300990f0     kernel32:KERNEL32.dll
 0002:000000f4       __imp__LCMapStringW@24     300990f4     kernel32:KERNEL32.dll
 0002:000000f8       __imp__Sleep@4             300990f8     kernel32:KERNEL32.dll
 0002:000000fc       __imp__ExitProcess@4       300990fc     kernel32:KERNEL32.dll
 0002:00000100       __imp__GetModuleFileNameA@12 30099100     kernel32:KERNEL32.dll
 0002:00000104       __imp__FreeEnvironmentStringsW@4 30099104     kernel32:KERNEL32.dll
 0002:00000108       __imp__GetEnvironmentStringsW@0 30099108     kernel32:KERNEL32.dll
 0002:0000010c       __imp__HeapCreate@12       3009910c     kernel32:KERNEL32.dll
 0002:00000110       __imp__HeapDestroy@4       30099110     kernel32:KERNEL32.dll
 0002:00000114       __imp__QueryPerformanceCounter@4 30099114     kernel32:KERNEL32.dll
 0002:00000118       __imp__GetTickCount@0      30099118     kernel32:KERNEL32.dll
 0002:0000011c       __imp__GetCurrentProcessId@0 3009911c     kernel32:KERNEL32.dll
 0002:00000120       __imp__GetSystemTimeAsFileTime@4 30099120     kernel32:KERNEL32.dll
 0002:00000124       __imp__FlushFileBuffers@4  30099124     kernel32:KERNEL32.dll
 0002:00000128       __imp__GetModuleFileNameW@12 30099128     kernel32:KERNEL32.dll
 0002:0000012c       __imp__RaiseException@16   3009912c     kernel32:KERNEL32.dll
 0002:00000130       __imp__GetStringTypeW@16   30099130     kernel32:KERNEL32.dll
 0002:00000134       __imp__SetStdHandle@8      30099134     kernel32:KERNEL32.dll
 0002:00000138       __imp__CreateFileA@28      30099138     kernel32:KERNEL32.dll
 0002:0000013c       __imp__WriteConsoleW@20    3009913c     kernel32:KERNEL32.dll
 0002:00000140       __imp__HeapReAlloc@16      30099140     kernel32:KERNEL32.dll
 0002:00000144       \177KERNEL32_NULL_THUNK_DATA 30099144     kernel32:KERNEL32.dll
 0002:00000148       __imp__glFrustum@48        30099148     opengl32:OPENGL32.dll
 0002:0000014c       __imp__glMatrixMode@4      3009914c     opengl32:OPENGL32.dll
 0002:00000150       __imp__glLoadMatrixf@4     30099150     opengl32:OPENGL32.dll
 0002:00000154       __imp__glReadPixels@28     30099154     opengl32:OPENGL32.dll
 0002:00000158       __imp__glDepthRange@16     30099158     opengl32:OPENGL32.dll
 0002:0000015c       \177OPENGL32_NULL_THUNK_DATA 3009915c     opengl32:OPENGL32.dll
 0002:00000160       ___xc_a                    30099160     LIBCMT:crt0init.obj
 0002:00000164       ___xc_z                    30099164     LIBCMT:crt0init.obj
 0002:00000168       ___xi_a                    30099168     LIBCMT:crt0init.obj
 0002:00000180       ___xi_z                    30099180     LIBCMT:crt0init.obj
 0002:00000184       ___xp_a                    30099184     LIBCMT:crt0init.obj
 0002:00000190       ___xp_z                    30099190     LIBCMT:crt0init.obj
 0002:00000194       ___xt_a                    30099194     LIBCMT:crt0init.obj
 0002:00000198       ___xt_z                    30099198     LIBCMT:crt0init.obj
 0002:000001a0       __real@3fd19999a0000000    300991a0     AnimalNPC.obj
 0002:000001a8       __real@00000000            300991a8     AnimalNPC.obj
 0002:000001b0       __real@3fc99999a0000000    300991b0     AnimalNPC.obj
 0002:000001b8       __real@4010000000000000    300991b8     AnimalNPC.obj
 0002:000001c0       ??_C@_07BNEEMBEL@?$CKr_hand?$AA@ 300991c0     bg_g2_utils.obj
 0002:000001c8       ??_C@_08MCJJKOHJ@jaw_bone?$AA@ 300991c8     bg_g2_utils.obj
 0002:000001d4       ??_C@_04DJCABLIL@?$CFs?$CFc?$AA@ 300991d4     bg_g2_utils.obj
 0002:000001dc       ??_C@_08GBKLDCBE@EV_TAUNT?$AA@ 300991dc     bg_misc.obj
 0002:000001e8       ??_C@_0BF@EAHNFOOG@EV_STARTLOOPINGSOUND?$AA@ 300991e8     bg_misc.obj
 0002:00000200       ??_C@_0BE@OHJHDFJH@EV_STOPLOOPINGSOUND?$AA@ 30099200     bg_misc.obj
 0002:00000214       ??_C@_0M@LDAKOPJP@EV_TESTLINE?$AA@ 30099214     bg_misc.obj
 0002:00000220       ??_C@_0O@PBPAKHP@EV_DEBUG_LINE?$AA@ 30099220     bg_misc.obj
 0002:00000230       ??_C@_0O@CBLOOGHB@EV_SHIELD_HIT?$AA@ 30099230     bg_misc.obj
 0002:00000240       ??_C@_0BF@LLJHJACN@EV_WEAPON_CHARGE_ALT?$AA@ 30099240     bg_misc.obj
 0002:00000258       ??_C@_0BB@HAHOHAKJ@EV_WEAPON_CHARGE?$AA@ 30099258     bg_misc.obj
 0002:0000026c       ??_C@_0BF@KFICFFCM@EV_SET_FORCE_DISABLE?$AA@ 3009926c     bg_misc.obj
 0002:00000284       ??_C@_0BC@DDJADHAK@EV_SET_FREE_SABER?$AA@ 30099284     bg_misc.obj
 0002:00000298       ??_C@_0BB@JIHOLMBD@EV_GIVE_NEW_RANK?$AA@ 30099298     bg_misc.obj
 0002:000002ac       ??_C@_0BI@CEGPCIEH@EV_DESTROY_WEAPON_MODEL?$AA@ 300992ac     bg_misc.obj
 0002:000002c4       ??_C@_0BL@DNICLAEN@EV_DESTROY_GHOUL2_INSTANCE?$AA@ 300992c4     bg_misc.obj
 0002:000002e0       ??_C@_0BL@CGBBFEIE@EV_SIEGE_OBJECTIVECOMPLETE?$AA@ 300992e0     bg_misc.obj
 0002:000002fc       ??_C@_0BD@LACADBAO@EV_SIEGE_ROUNDOVER?$AA@ 300992fc     bg_misc.obj
 0002:00000310       ??_C@_0M@GBGEMMKK@EV_BODYFADE?$AA@ 30099310     bg_misc.obj
 0002:0000031c       ??_C@_0O@NEHCEMNJ@EV_CTFMESSAGE?$AA@ 3009931c     bg_misc.obj
 0002:0000032c       ??_C@_0N@GAJBP@EV_SCOREPLUM?$AA@ 3009932c     bg_misc.obj
 0002:0000033c       ??_C@_0O@JLGFLKBE@EV_GIB_PLAYER?$AA@ 3009933c     bg_misc.obj
 0002:0000034c       ??_C@_0BB@KGMADNKO@EV_FORCE_DRAINED?$AA@ 3009934c     bg_misc.obj
 0002:00000360       ??_C@_0BG@CHAMNADK@EV_POWERUP_BATTLESUIT?$AA@ 30099360     bg_misc.obj
 0002:00000378       ??_C@_0BA@HLHGHIIE@EV_POWERUP_QUAD?$AA@ 30099378     bg_misc.obj
 0002:00000388       ??_C@_0M@PPLCDPP@EV_OBITUARY?$AA@ 30099388     bg_misc.obj
 0002:00000394       ??_C@_09KNGHBIAK@EV_DEATH3?$AA@ 30099394     bg_misc.obj
 0002:000003a0       ??_C@_09LEHMCJEL@EV_DEATH2?$AA@ 300993a0     bg_misc.obj
 0002:000003ac       ??_C@_09JPFBHKII@EV_DEATH1?$AA@ 300993ac     bg_misc.obj
 0002:000003b8       ??_C@_07EMHHKOOH@EV_PAIN?$AA@ 300993b8     bg_misc.obj
 0002:000003c0       ??_C@_09ICDIPKFJ@EV_BULLET?$AA@ 300993c0     bg_misc.obj
 0002:000003cc       ??_C@_0BG@LPAHEABB@EV_MISSILE_MISS_METAL?$AA@ 300993cc     bg_misc.obj
 0002:000003e4       ??_C@_0BA@CAHALNAE@EV_MISSILE_MISS?$AA@ 300993e4     bg_misc.obj
 0002:000003f4       ??_C@_0P@JFMFNBMO@EV_MISSILE_HIT?$AA@ 300993f4     bg_misc.obj
 0002:00000404       ??_C@_0BD@PIOAMKHB@EV_CONC_ALT_IMPACT?$AA@ 30099404     bg_misc.obj
 0002:00000418       ??_C@_0BC@MLGOBNCG@EV_MISC_MODEL_EXP?$AA@ 30099418     bg_misc.obj
 0002:0000042c       ??_C@_09KLJDDMJG@EV_DEBRIS?$AA@ 3009942c     bg_misc.obj
 0002:00000438       ??_C@_0BB@HHFJBAND@EV_GLASS_SHATTER?$AA@ 30099438     bg_misc.obj
 0002:0000044c       ??_C@_0N@BEKJCCJE@EV_PLAY_ROFF?$AA@ 3009944c     bg_misc.obj
 0002:0000045c       ??_C@_0BA@LLJGBFCE@EV_ENTITY_SOUND?$AA@ 3009945c     bg_misc.obj
 0002:0000046c       ??_C@_0BF@DDOIKLHD@EV_GLOBAL_TEAM_SOUND?$AA@ 3009946c     bg_misc.obj
 0002:00000484       ??_C@_0BA@JAMKLOPJ@EV_GLOBAL_SOUND?$AA@ 30099484     bg_misc.obj
 0002:00000494       ??_C@_0BB@LJGGMAII@EV_GENERAL_SOUND?$AA@ 30099494     bg_misc.obj
 0002:000004a8       ??_C@_0BC@GMNGJAOD@EV_VOICECMD_SOUND?$AA@ 300994a8     bg_misc.obj
 0002:000004bc       ??_C@_0O@JHBKAOKG@EV_MUTE_SOUND?$AA@ 300994bc     bg_misc.obj
 0002:000004cc       ??_C@_0BA@EGLCGAMO@EV_BMODEL_SOUND?$AA@ 300994cc     bg_misc.obj
 0002:000004dc       ??_C@_0BF@BLAPJAMF@EV_PLAYDOORLOOPSOUND?$AA@ 300994dc     bg_misc.obj
 0002:000004f4       ??_C@_0BB@OGNONJKP@EV_PLAYDOORSOUND?$AA@ 300994f4     bg_misc.obj
 0002:00000508       ??_C@_0BJ@CGDHKBCK@EV_PLAY_PORTAL_EFFECT_ID?$AA@ 30099508     bg_misc.obj
 0002:00000524       ??_C@_0BC@LCOMFDPL@EV_PLAY_EFFECT_ID?$AA@ 30099524     bg_misc.obj
 0002:00000538       ??_C@_0P@PLIFONPM@EV_PLAY_EFFECT?$AA@ 30099538     bg_misc.obj
 0002:00000548       ??_C@_0BB@JGOOAGDJ@EV_MISSILE_STICK?$AA@ 30099548     bg_misc.obj
 0002:0000055c       ??_C@_0BC@ECIIAFLJ@EV_GRENADE_BOUNCE?$AA@ 3009955c     bg_misc.obj
 0002:00000570       ??_C@_0BH@FNNILPIN@EV_PLAYER_TELEPORT_OUT?$AA@ 30099570     bg_misc.obj
 0002:00000588       ??_C@_0BG@HBBJKNDP@EV_PLAYER_TELEPORT_IN?$AA@ 30099588     bg_misc.obj
 0002:000005a0       ??_C@_0M@ECGFPIMP@EV_ITEM_POP?$AA@ 300995a0     bg_misc.obj
 0002:000005ac       ??_C@_0BA@GJNCODNG@EV_ITEM_RESPAWN?$AA@ 300995ac     bg_misc.obj
 0002:000005bc       ??_C@_0P@JFHCOBFC@EV_ITEMUSEFAIL?$AA@ 300995bc     bg_misc.obj
 0002:000005cc       ??_C@_0O@HHGOLJPJ@EV_USE_ITEM15?$AA@ 300995cc     bg_misc.obj
 0002:000005dc       ??_C@_0O@GOHFIILI@EV_USE_ITEM14?$AA@ 300995dc     bg_misc.obj
 0002:000005ec       ??_C@_0O@CBDEBOHP@EV_USE_ITEM13?$AA@ 300995ec     bg_misc.obj
 0002:000005fc       ??_C@_0O@DICPCPDO@EV_USE_ITEM12?$AA@ 300995fc     bg_misc.obj
 0002:0000060c       ??_C@_0O@BDACHMPN@EV_USE_ITEM11?$AA@ 3009960c     bg_misc.obj
 0002:0000061c       ??_C@_0O@KBJENLM@EV_USE_ITEM10?$AA@ 3009961c     bg_misc.obj
 0002:0000062c       ??_C@_0N@PHODCBCK@EV_USE_ITEM9?$AA@ 3009962c     bg_misc.obj
 0002:0000063c       ??_C@_0N@OOPIBAGL@EV_USE_ITEM8?$AA@ 3009963c     bg_misc.obj
 0002:0000064c       ??_C@_0N@GJGAAMKE@EV_USE_ITEM7?$AA@ 3009964c     bg_misc.obj
 0002:0000065c       ??_C@_0N@HAHLDNOF@EV_USE_ITEM6?$AA@ 3009965c     bg_misc.obj
 0002:0000066c       ??_C@_0N@FLFGGOCG@EV_USE_ITEM5?$AA@ 3009966c     bg_misc.obj
 0002:0000067c       ??_C@_0N@ECENFPGH@EV_USE_ITEM4?$AA@ 3009967c     bg_misc.obj
 0002:0000068c       ??_C@_0N@NAMMJKA@EV_USE_ITEM3?$AA@ 3009968c     bg_misc.obj
 0002:0000069c       ??_C@_0N@BEBHPIOB@EV_USE_ITEM2?$AA@ 3009969c     bg_misc.obj
 0002:000006ac       ??_C@_0N@DPDKKLCC@EV_USE_ITEM1?$AA@ 300996ac     bg_misc.obj
 0002:000006bc       ??_C@_0N@CGCBJKGD@EV_USE_ITEM0?$AA@ 300996bc     bg_misc.obj
 0002:000006cc       ??_C@_06LBDBNJG@EV_USE?$AA@ 300996cc     bg_misc.obj
 0002:000006d4       ??_C@_0O@GLOAIHAI@EV_LOCALTIMER?$AA@ 300996d4     bg_misc.obj
 0002:000006e4       ??_C@_0P@EIHBPBOL@EV_SCREENSHAKE?$AA@ 300996e4     bg_misc.obj
 0002:000006f4       ??_C@_0O@GMONIJJI@EV_TEAM_POWER?$AA@ 300996f4     bg_misc.obj
 0002:00000704       ??_C@_0P@MDPKBHNH@EV_PREDEFSOUND?$AA@ 30099704     bg_misc.obj
 0002:00000714       ??_C@_0BH@GCPNKPAL@EV_DISRUPTOR_ZOOMSOUND?$AA@ 30099714     bg_misc.obj
 0002:0000072c       ??_C@_0BB@JNGCFFFI@EV_DISRUPTOR_HIT?$AA@ 3009972c     bg_misc.obj
 0002:00000740       ??_C@_0BJ@POMLOPMI@EV_DISRUPTOR_SNIPER_MISS?$AA@ 30099740     bg_misc.obj
 0002:0000075c       ??_C@_0BJ@MDNKGNJN@EV_DISRUPTOR_SNIPER_SHOT?$AA@ 3009975c     bg_misc.obj
 0002:00000778       ??_C@_0BH@KDGLLAMO@EV_DISRUPTOR_MAIN_SHOT?$AA@ 30099778     bg_misc.obj
 0002:00000790       ??_C@_0BF@MBILLJJH@EV_BECOME_JEDIMASTER?$AA@ 30099790     bg_misc.obj
 0002:000007a8       ??_C@_0BD@FFJMPGGA@EV_SABER_UNHOLSTER?$AA@ 300997a8     bg_misc.obj
 0002:000007bc       ??_C@_0BE@HNEOPGEL@EV_SABER_CLASHFLARE?$AA@ 300997bc     bg_misc.obj
 0002:000007d0       ??_C@_0P@MNCBBKHB@EV_SABER_BLOCK?$AA@ 300997d0     bg_misc.obj
 0002:000007e0       ??_C@_0N@IKFBFHKB@EV_SABER_HIT?$AA@ 300997e0     bg_misc.obj
 0002:000007f0       ??_C@_0BA@FJAFFDLF@EV_SABER_ATTACK?$AA@ 300997f0     bg_misc.obj
 0002:00000800       ??_C@_0M@LKPOHPHC@EV_ALT_FIRE?$AA@ 30099800     bg_misc.obj
 0002:0000080c       ??_C@_0P@PFJPAFGH@EV_FIRE_WEAPON?$AA@ 3009980c     bg_misc.obj
 0002:0000081c       ??_C@_0BB@ENKPHJLP@EV_CHANGE_WEAPON?$AA@ 3009981c     bg_misc.obj
 0002:00000830       ??_C@_09NMIICG@EV_NOAMMO?$AA@ 30099830     bg_misc.obj
 0002:0000083c       ??_C@_0M@MNGOLNFL@EV_VEH_FIRE?$AA@ 3009983c     bg_misc.obj
 0002:00000848       ??_C@_0BG@KFILGAMN@EV_GLOBAL_ITEM_PICKUP?$AA@ 30099848     bg_misc.obj
 0002:00000860       ??_C@_0P@BGIOEPCB@EV_ITEM_PICKUP?$AA@ 30099860     bg_misc.obj
 0002:00000870       ??_C@_0P@NIPCJOBG@EV_WATER_CLEAR?$AA@ 30099870     bg_misc.obj
 0002:00000880       ??_C@_0P@MIAIODEJ@EV_WATER_UNDER?$AA@ 30099880     bg_misc.obj
 0002:00000890       ??_C@_0P@LHDMOIIG@EV_WATER_LEAVE?$AA@ 30099890     bg_misc.obj
 0002:000008a0       ??_C@_0P@GCDBKPMP@EV_WATER_TOUCH?$AA@ 300998a0     bg_misc.obj
 0002:000008b0       ??_C@_07OCJFCKNN@EV_ROLL?$AA@ 300998b0     bg_misc.obj
 0002:000008b8       ??_C@_07GKBEHGAP@EV_JUMP?$AA@ 300998b8     bg_misc.obj
 0002:000008c0       ??_C@_0BA@NCAJLGNF@EV_PRIVATE_DUEL?$AA@ 300998c0     bg_misc.obj
 0002:000008d0       ??_C@_0P@MHGGNABN@EV_GLOBAL_DUEL?$AA@ 300998d0     bg_misc.obj
 0002:000008e0       ??_C@_0P@BMAPLDAL@EV_GHOUL2_MARK?$AA@ 300998e0     bg_misc.obj
 0002:000008f0       ??_C@_0M@BPNFGBOJ@EV_JUMP_PAD?$AA@ 300998f0     bg_misc.obj
 0002:000008fc       ??_C@_07JHCKGMKM@EV_FALL?$AA@ 300998fc     bg_misc.obj
 0002:00000904       ??_C@_0L@HOOIOPKF@EV_STEP_16?$AA@ 30099904     bg_misc.obj
 0002:00000910       ??_C@_0L@BKIECKKB@EV_STEP_12?$AA@ 30099910     bg_misc.obj
 0002:0000091c       ??_C@_09EHOLDGNN@EV_STEP_8?$AA@ 3009991c     bg_misc.obj
 0002:00000928       ??_C@_09OLFOHJNB@EV_STEP_4?$AA@ 30099928     bg_misc.obj
 0002:00000934       ??_C@_07FFIIIPLH@EV_SWIM?$AA@ 30099934     bg_misc.obj
 0002:0000093c       ??_C@_0M@NPJBGELA@EV_FOOTWADE?$AA@ 3009993c     bg_misc.obj
 0002:00000948       ??_C@_0O@HLJHKIDH@EV_FOOTSPLASH?$AA@ 30099948     bg_misc.obj
 0002:00000958       ??_C@_0BC@DIJMAMMI@EV_FOOTSTEP_METAL?$AA@ 30099958     bg_misc.obj
 0002:0000096c       ??_C@_0M@HLKBOJPO@EV_FOOTSTEP?$AA@ 3009996c     bg_misc.obj
 0002:00000978       ??_C@_0O@JHBAELOC@EV_CLIENTJOIN?$AA@ 30099978     bg_misc.obj
 0002:00000988       ??_C@_07JFMDDPHJ@EV_NONE?$AA@ 30099988     bg_misc.obj
 0002:00000990       ??_C@_0BB@JKNLMJAB@icons?1iconh_borb?$AA@ 30099990     bg_misc.obj
 0002:000009a4       ??_C@_0BO@CMJEFEFK@models?1powerups?1orb?1b_orb?4md3?$AA@ 300999a4     bg_misc.obj
 0002:000009c4       ??_C@_0O@NHDOFNIN@item_bluecube?$AA@ 300999c4     bg_misc.obj
 0002:000009d4       ??_C@_0BB@PKDLFOID@icons?1iconh_rorb?$AA@ 300999d4     bg_misc.obj
 0002:000009e8       ??_C@_0BO@LDKNFLC@models?1powerups?1orb?1r_orb?4md3?$AA@ 300999e8     bg_misc.obj
 0002:00000a08       ??_C@_0N@IDOEINCB@item_redcube?$AA@ 30099a08     bg_misc.obj
 0002:00000a18       ??_C@_0BF@OGGGKBMJ@icons?1iconf_neutral1?$AA@ 30099a18     bg_misc.obj
 0002:00000a30       ??_C@_0BI@FAJILPEC@models?1flags?1n_flag?4md3?$AA@ 30099a30     bg_misc.obj
 0002:00000a48       ??_C@_0BF@NFGOPKAE@team_CTF_neutralflag?$AA@ 30099a48     bg_misc.obj
 0002:00000a60       ??_C@_0BC@JDBDOHJA@gfx?1hud?1mpi_bflag?$AA@ 30099a60     bg_misc.obj
 0002:00000a74       ??_C@_0BN@NABGHIBA@models?1flags?1b_flag_ysal?4md3?$AA@ 30099a74     bg_misc.obj
 0002:00000a94       ??_C@_0BI@FKICCNIF@models?1flags?1b_flag?4md3?$AA@ 30099a94     bg_misc.obj
 0002:00000aac       ??_C@_0BC@NLKCOFAB@team_CTF_blueflag?$AA@ 30099aac     bg_misc.obj
 0002:00000ac0       ??_C@_0BC@JAMFOFAL@gfx?1hud?1mpi_rflag?$AA@ 30099ac0     bg_misc.obj
 0002:00000ad4       ??_C@_0BN@DGDBEGIO@models?1flags?1r_flag_ysal?4md3?$AA@ 30099ad4     bg_misc.obj
 0002:00000af4       ??_C@_0BI@PEHEOJEO@models?1flags?1r_flag?4md3?$AA@ 30099af4     bg_misc.obj
 0002:00000b0c       ??_C@_0BB@JNMMCIHG@team_CTF_redflag?$AA@ 30099b0c     bg_misc.obj
 0002:00000b20       ??_C@_0BJ@DIDDNCPE@models?1items?1battery?4md3?$AA@ 30099b20     bg_misc.obj
 0002:00000b3c       ??_C@_08LLJPIFOF@ammo_all?$AA@ 30099b3c     bg_misc.obj
 0002:00000b48       ??_C@_0BE@IIEBFJHN@gfx?1mp?1ammo_rockets?$AA@ 30099b48     bg_misc.obj
 0002:00000b5c       ??_C@_0BJ@BCBNBFGD@models?1items?1rockets?4md3?$AA@ 30099b5c     bg_misc.obj
 0002:00000b78       ??_C@_0N@CLEPKBOE@ammo_rockets?$AA@ 30099b78     bg_misc.obj
 0002:00000b88       ??_C@_0BL@IPLJCMOM@gfx?1mp?1ammo_metallic_bolts?$AA@ 30099b88     bg_misc.obj
 0002:00000ba4       ??_C@_0CA@POKDMLNN@models?1items?1metallic_bolts?4md3?$AA@ 30099ba4     bg_misc.obj
 0002:00000bc4       ??_C@_0BE@OMMGIMPN@ammo_metallic_bolts?$AA@ 30099bc4     bg_misc.obj
 0002:00000bd8       ??_C@_0BH@KBMOAFPH@gfx?1mp?1ammo_power_cell?$AA@ 30099bd8     bg_misc.obj
 0002:00000bf0       ??_C@_0BM@GDMBBHDI@models?1items?1power_cell?4md3?$AA@ 30099bf0     bg_misc.obj
 0002:00000c0c       ??_C@_0P@GBMHNHF@ammo_powercell?$AA@ 30099c0c     bg_misc.obj
 0002:00000c1c       ??_C@_0BH@MFDMPLPM@gfx?1hud?1i_icon_battery?$AA@ 30099c1c     bg_misc.obj
 0002:00000c34       ??_C@_0N@JHBODPOG@ammo_blaster?$AA@ 30099c34     bg_misc.obj
 0002:00000c44       ??_C@_0BN@BKBHFNLE@models?1items?1energy_cell?4md3?$AA@ 30099c44     bg_misc.obj
 0002:00000c64       ??_C@_0BO@EBHMDMMM@sound?1player?1pickupenergy?4wav?$AA@ 30099c64     bg_misc.obj
 0002:00000c84       ??_C@_0L@GKDELMG@ammo_force?$AA@ 30099c84     bg_misc.obj
 0002:00000c90       ??_C@_0BA@EENDCNMH@weapon_turretwp?$AA@ 30099c90     bg_misc.obj
 0002:00000ca0       ??_C@_0BA@PHDHEKAE@weapon_emplaced?$AA@ 30099ca0     bg_misc.obj
 0002:00000cb0       ??_C@_0BA@DBJEACCG@weapon_det_pack?$AA@ 30099cb0     bg_misc.obj
 0002:00000cc0       ??_C@_0BB@KBIODFKP@weapon_trip_mine?$AA@ 30099cc0     bg_misc.obj
 0002:00000cd4       ??_C@_0P@OJLAIIJD@weapon_thermal?$AA@ 30099cd4     bg_misc.obj
 0002:00000ce4       ??_C@_0BM@MOLHJNKH@?$EAMENUS_A_DETONATION_PACK_IS?$AA@ 30099ce4     bg_misc.obj
 0002:00000d00       ??_C@_0BH@EBPPNJFB@gfx?1hud?1w_icon_detpack?$AA@ 30099d00     bg_misc.obj
 0002:00000d18       ??_C@_0CF@NONMEFGL@models?1weapons2?1detpack?1det_pack@ 30099d18     bg_misc.obj
 0002:00000d40       ??_C@_0CH@KPFPNMHO@models?1weapons2?1detpack?1det_pack@ 30099d40     bg_misc.obj
 0002:00000d68       ??_C@_0CK@CDFEGPDE@models?1weapons2?1detpack?1det_pack@ 30099d68     bg_misc.obj
 0002:00000d94       ??_C@_0CI@CBJMGLP@models?1weapons2?1detpack?1det_pack@ 30099d94     bg_misc.obj
 0002:00000dbc       ??_C@_0N@CIBIOIEN@ammo_detpack?$AA@ 30099dbc     bg_misc.obj
 0002:00000dcc       ??_C@_0BN@CMMDBNGF@?$EAMENUS_TRIP_MINES_CONSIST_OF?$AA@ 30099dcc     bg_misc.obj
 0002:00000dec       ??_C@_0BI@HEJGEJJK@gfx?1hud?1w_icon_tripmine?$AA@ 30099dec     bg_misc.obj
 0002:00000e04       ??_C@_0CK@BPCANEAG@models?1weapons2?1laser_trap?1laser@ 30099e04     bg_misc.obj
 0002:00000e30       ??_C@_0CM@PIAEKLLK@models?1weapons2?1laser_trap?1laser@ 30099e30     bg_misc.obj
 0002:00000e5c       ??_C@_0CN@JOEHJLGB@models?1weapons2?1laser_trap?1laser@ 30099e5c     bg_misc.obj
 0002:00000e8c       ??_C@_0O@GAPOPCOE@ammo_tripmine?$AA@ 30099e8c     bg_misc.obj
 0002:00000e9c       ??_C@_0BN@FMFLLCGL@?$EAMENUS_THE_THERMAL_DETONATOR?$AA@ 30099e9c     bg_misc.obj
 0002:00000ebc       ??_C@_0BH@OIMKPGPF@gfx?1hud?1w_icon_thermal?$AA@ 30099ebc     bg_misc.obj
 0002:00000ed4       ??_C@_0CE@PJGNCPEG@models?1weapons2?1thermal?1thermal?4@ 30099ed4     bg_misc.obj
 0002:00000ef8       ??_C@_0CG@CCBCCJGG@models?1weapons2?1thermal?1thermal_@ 30099ef8     bg_misc.obj
 0002:00000f20       ??_C@_0CH@BBPIBDBM@models?1weapons2?1thermal?1thermal_@ 30099f20     bg_misc.obj
 0002:00000f48       ??_C@_0N@IBCNMHOJ@ammo_thermal?$AA@ 30099f48     bg_misc.obj
 0002:00000f58       ??_C@_0CC@EJOKBHDJ@?$EAMENUS_THE_PLX_2M_IS_AN_EXTREMEL@ 30099f58     bg_misc.obj
 0002:00000f7c       ??_C@_0BI@DDNFEDEJ@gfx?1hud?1w_icon_merrsonn?$AA@ 30099f7c     bg_misc.obj
 0002:00000f94       ??_C@_0CI@CPIMDKHH@models?1weapons2?1merr_sonn?1merr_s@ 30099f94     bg_misc.obj
 0002:00000fbc       ??_C@_0CK@IJJCBMNO@models?1weapons2?1merr_sonn?1merr_s@ 30099fbc     bg_misc.obj
 0002:00000fe8       ??_C@_0BH@CFPMIEJH@weapon_rocket_launcher?$AA@ 30099fe8     bg_misc.obj
 0002:00001000       ??_C@_0CE@HHDMNMLP@?$EAMENUS_WIDELY_USED_BY_THE_CORPOR@ 3009a000     bg_misc.obj
 0002:00001024       ??_C@_0BJ@PJJJCKNF@gfx?1hud?1w_icon_flechette?$AA@ 3009a024     bg_misc.obj
 0002:00001040       ??_C@_0CK@CNAHGKMH@models?1weapons2?1golan_arms?1golan@ 3009a040     bg_misc.obj
 0002:0000106c       ??_C@_0CM@GDMOBBJ@models?1weapons2?1golan_arms?1golan@ 3009a06c     bg_misc.obj
 0002:00001098       ??_C@_0BB@HNIDLLLF@weapon_flechette?$AA@ 3009a098     bg_misc.obj
 0002:000010ac       ??_C@_0BM@BCDPDFEB@?$EAMENUS_COMMONLY_REFERRED_TO?$AA@ 3009a0ac     bg_misc.obj
 0002:000010c8       ??_C@_0BF@BPEBOIFE@gfx?1hud?1w_icon_demp2?$AA@ 3009a0c8     bg_misc.obj
 0002:000010e0       ??_C@_0CA@PKACJAPI@models?1weapons2?1demp2?1demp2?4md3?$AA@ 3009a0e0     bg_misc.obj
 0002:00001100       ??_C@_0CC@DIKAHCC@models?1weapons2?1demp2?1demp2_w?4gl@ 3009a100     bg_misc.obj
 0002:00001124       ??_C@_0N@MBLCNHPF@weapon_demp2?$AA@ 3009a124     bg_misc.obj
 0002:00001134       ??_C@_0CD@FCKGGFFG@?$EAMENUS_THIS_DESTRUCTIVE_PROJECTI@ 3009a134     bg_misc.obj
 0002:00001158       ??_C@_0BI@LOPKELCD@gfx?1hud?1w_icon_repeater?$AA@ 3009a158     bg_misc.obj
 0002:00001170       ??_C@_0DC@FAHGABEB@models?1weapons2?1heavy_repeater?1h@ 3009a170     bg_misc.obj
 0002:000011a4       ??_C@_0DE@LBIFBLHF@models?1weapons2?1heavy_repeater?1h@ 3009a1a4     bg_misc.obj
 0002:000011d8       ??_C@_0BA@BKCKPFDA@weapon_repeater?$AA@ 3009a1d8     bg_misc.obj
 0002:000011e8       ??_C@_0BM@MHHBLDA@?$EAMENUS_THIS_ARCHAIC_LOOKING?$AA@ 3009a1e8     bg_misc.obj
 0002:00001204       ??_C@_0BJ@CHKJPOAH@gfx?1hud?1w_icon_bowcaster?$AA@ 3009a204     bg_misc.obj
 0002:00001220       ??_C@_0CI@MANABGJH@models?1weapons2?1bowcaster?1bowcas@ 3009a220     bg_misc.obj
 0002:00001248       ??_C@_0CK@OFDEGMIN@models?1weapons2?1bowcaster?1bowcas@ 3009a248     bg_misc.obj
 0002:00001274       ??_C@_0BB@KDLDGPGH@weapon_bowcaster?$AA@ 3009a274     bg_misc.obj
 0002:00001288       ??_C@_0BN@PDALGMFE@?$EAMENUS_THIS_NEFARIOUS_WEAPON?$AA@ 3009a288     bg_misc.obj
 0002:000012a8       ??_C@_0BJ@MODONBMB@gfx?1hud?1w_icon_disruptor?$AA@ 3009a2a8     bg_misc.obj
 0002:000012c4       ??_C@_0CI@KNAINLEF@models?1weapons2?1disruptor?1disrup@ 3009a2c4     bg_misc.obj
 0002:000012ec       ??_C@_0CK@LDOPBIMF@models?1weapons2?1disruptor?1disrup@ 3009a2ec     bg_misc.obj
 0002:00001318       ??_C@_0BB@EKCEEAKB@weapon_disruptor?$AA@ 3009a318     bg_misc.obj
 0002:0000132c       ??_C@_0BN@KLDCJACF@?$EAMENUS_THE_PRIMARY_WEAPON_OF?$AA@ 3009a32c     bg_misc.obj
 0002:0000134c       ??_C@_0BH@POPJAOPK@gfx?1hud?1w_icon_blaster?$AA@ 3009a34c     bg_misc.obj
 0002:00001364       ??_C@_0CG@IJILPHPH@models?1weapons2?1blaster_r?1blaste@ 3009a364     bg_misc.obj
 0002:0000138c       ??_C@_0CI@FHMEJMJP@models?1weapons2?1blaster_r?1blaste@ 3009a38c     bg_misc.obj
 0002:000013b4       ??_C@_0P@PPIDHAJM@weapon_blaster?$AA@ 3009a3b4     bg_misc.obj
 0002:000013c4       ??_C@_0BK@JHPMONHL@?$EASP_INGAME_BLASTER_PISTOL?$AA@ 3009a3c4     bg_misc.obj
 0002:000013e0       ??_C@_0BF@HJCHFBMO@gfx?1hud?1w_icon_briar?$AA@ 3009a3e0     bg_misc.obj
 0002:000013f8       ??_C@_0CO@LMBDAEMJ@models?1weapons2?1briar_pistol?1bri@ 3009a3f8     bg_misc.obj
 0002:00001428       ??_C@_0DA@DCLFBBNM@models?1weapons2?1briar_pistol?1bri@ 3009a428     bg_misc.obj
 0002:00001458       ??_C@_0BE@NCEGAEHJ@weapon_bryar_pistol?$AA@ 3009a458     bg_misc.obj
 0002:0000146c       ??_C@_0BH@OEFKMKID@?$EAMENUS_CONC_RIFLE_DESC?$AA@ 3009a46c     bg_misc.obj
 0002:00001484       ??_C@_0BH@PEIIGOLA@gfx?1hud?1w_icon_c_rifle?$AA@ 3009a484     bg_misc.obj
 0002:0000149c       ??_C@_0CH@PIBGBJPN@models?1weapons2?1concussion?1c_rif@ 3009a49c     bg_misc.obj
 0002:000014c4       ??_C@_0CJ@OKJJMKPH@models?1weapons2?1concussion?1c_rif@ 3009a4c4     bg_misc.obj
 0002:000014f0       ??_C@_0BI@JFLEEDJH@weapon_concussion_rifle?$AA@ 3009a4f0     bg_misc.obj
 0002:00001508       ??_C@_0BL@EJPJHBLO@?$EAMENUS_BLASTER_PISTOL_DESC?$AA@ 3009a508     bg_misc.obj
 0002:00001524       ??_C@_0BO@EGOADNOO@gfx?1hud?1w_icon_blaster_pistol?$AA@ 3009a524     bg_misc.obj
 0002:00001544       ??_C@_0DC@EGNBDNKO@models?1weapons2?1blaster_pistol?1b@ 3009a544     bg_misc.obj
 0002:00001578       ??_C@_0DE@EHAMJOHG@models?1weapons2?1blaster_pistol?1b@ 3009a578     bg_misc.obj
 0002:000015ac       ??_C@_0BG@JEHALHIL@weapon_blaster_pistol?$AA@ 3009a5ac     bg_misc.obj
 0002:000015c4       ??_C@_0BN@GPMHMMHO@?$EAMENUS_AN_ELEGANT_WEAPON_FOR?$AA@ 3009a5c4     bg_misc.obj
 0002:000015e4       ??_C@_0BK@DENAAEJI@gfx?1hud?1w_icon_lightsaber?$AA@ 3009a5e4     bg_misc.obj
 0002:00001600       ??_C@_0CC@LELHOPDH@models?1weapons2?1saber?1saber_w?4md@ 3009a600     bg_misc.obj
 0002:00001624       ??_C@_0CC@PBCBCODB@models?1weapons2?1saber?1saber_w?4gl@ 3009a624     bg_misc.obj
 0002:00001648       ??_C@_0N@JIBGHNNO@weapon_saber?$AA@ 3009a648     bg_misc.obj
 0002:00001658       ??_C@_0BC@CEFBGLCB@?$EAMENUS_MELEE_DESC?$AA@ 3009a658     bg_misc.obj
 0002:0000166c       ??_C@_0BF@GPOFHEPB@gfx?1hud?1w_icon_melee?$AA@ 3009a66c     bg_misc.obj
 0002:00001684       ??_C@_0N@LBBGELFA@weapon_melee?$AA@ 3009a684     bg_misc.obj
 0002:00001694       ??_C@_0BJ@JFPGMAAH@gfx?1hud?1w_icon_stunbaton?$AA@ 3009a694     bg_misc.obj
 0002:000016b0       ??_C@_0CF@INEBKGM@models?1weapons2?1stun_baton?1baton@ 3009a6b0     bg_misc.obj
 0002:000016d8       ??_C@_0CH@BLMKNANE@models?1weapons2?1stun_baton?1baton@ 3009a6d8     bg_misc.obj
 0002:00001700       ??_C@_0BC@EJEDEKOE@weapon_stun_baton?$AA@ 3009a700     bg_misc.obj
 0002:00001714       ??_C@_0BE@OEFHDNBF@gfx?1hud?1mpi_ysamari?$AA@ 3009a714     bg_misc.obj
 0002:00001728       ??_C@_0CE@KCIGBHIN@models?1map_objects?1mp?1ysalimari?4@ 3009a728     bg_misc.obj
 0002:0000174c       ??_C@_0BL@LEFKKCEP@sound?1player?1ysalimari?4wav?$AA@ 3009a74c     bg_misc.obj
 0002:00001768       ??_C@_0P@BMGIHJKN@item_ysalimari?$AA@ 3009a768     bg_misc.obj
 0002:00001778       ??_C@_0BC@DEOLDKOL@gfx?1hud?1mpi_fboon?$AA@ 3009a778     bg_misc.obj
 0002:0000178c       ??_C@_0CF@JPDLAKMB@models?1map_objects?1mp?1force_boon@ 3009a78c     bg_misc.obj
 0002:000017b4       ??_C@_0BG@GFIPDGIH@sound?1player?1boon?4wav?$AA@ 3009a7b4     bg_misc.obj
 0002:000017cc       ??_C@_0BA@HALIIJIE@item_force_boon?$AA@ 3009a7cc     bg_misc.obj
 0002:000017dc       ??_C@_0BE@NFHAGLDO@gfx?1hud?1mpi_dklight?$AA@ 3009a7dc     bg_misc.obj
 0002:000017f0       ??_C@_0CL@IJLGBCPL@models?1map_objects?1mp?1dk_enlight@ 3009a7f0     bg_misc.obj
 0002:0000181c       ??_C@_0BK@JFKBFAGB@item_force_enlighten_dark?$AA@ 3009a81c     bg_misc.obj
 0002:00001838       ??_C@_0BD@MPGMMGMB@gfx?1hud?1mpi_jlight?$AA@ 3009a838     bg_misc.obj
 0002:0000184c       ??_C@_0CN@DIMKCGKC@models?1map_objects?1mp?1jedi_enlig@ 3009a84c     bg_misc.obj
 0002:0000187c       ??_C@_0BP@GFNNPIJO@sound?1player?1enlightenment?4wav?$AA@ 3009a87c     bg_misc.obj
 0002:0000189c       ??_C@_0BL@MINBJMDE@item_force_enlighten_light?$AA@ 3009a89c     bg_misc.obj
 0002:000018b8       ??_C@_0BC@GHMKCCIP@?$EAMENUS_CLOAK_DESC?$AA@ 3009a8b8     bg_misc.obj
 0002:000018cc       ??_C@_0BF@JNCBPHCG@gfx?1hud?1i_icon_cloak?$AA@ 3009a8cc     bg_misc.obj
 0002:000018e4       ??_C@_0L@LGDPDIAF@item_cloak?$AA@ 3009a8e4     bg_misc.obj
 0002:000018f0       ??_C@_0BB@BOLMLFOH@?$EAMENUS_EWEB_DESC?$AA@ 3009a8f0     bg_misc.obj
 0002:00001904       ??_C@_0BE@HACMCHO@gfx?1hud?1i_icon_eweb?$AA@ 3009a904     bg_misc.obj
 0002:00001918       ??_C@_0CH@FJBCGPDI@models?1map_objects?1hoth?1eweb_mod@ 3009a918     bg_misc.obj
 0002:00001940       ??_C@_0CA@PCDIFNM@sound?1interface?1shieldcon_empty?$AA@ 3009a940     bg_misc.obj
 0002:00001960       ??_C@_0BD@FNDPGFNF@item_eweb_holdable?$AA@ 3009a960     bg_misc.obj
 0002:00001974       ??_C@_0BI@NJGLIFAN@gfx?1hud?1i_icon_ammodisp?$AA@ 3009a974     bg_misc.obj
 0002:0000198c       ??_C@_0O@FFANILHN@item_ammodisp?$AA@ 3009a98c     bg_misc.obj
 0002:0000199c       ??_C@_0BK@CIGOJBM@gfx?1hud?1i_icon_healthdisp?$AA@ 3009a99c     bg_misc.obj
 0002:000019b8       ??_C@_0BA@MKABDBIL@item_healthdisp?$AA@ 3009a9b8     bg_misc.obj
 0002:000019c8       ??_C@_0BE@JOMGFMAF@?$EAMENUS_JETPACK_DESC?$AA@ 3009a9c8     bg_misc.obj
 0002:000019e0       ??_C@_0FD@EDGCAKBF@sound?1chars?1boba?1JETON?4wav?5sound@ 3009a9e0     bg_misc.obj
 0002:00001a34       ??_C@_0BF@CHFBNMLA@effects?1boba?1jet?4efx?$AA@ 3009aa34     bg_misc.obj
 0002:00001a4c       ??_C@_0BH@PNGEEMFJ@gfx?1hud?1i_icon_jetpack?$AA@ 3009aa4c     bg_misc.obj
 0002:00001a64       ??_C@_0N@EIBGMPAH@item_jetpack?$AA@ 3009aa64     bg_misc.obj
 0002:00001a74       ??_C@_0BN@MFHKBDDJ@?$EAMENUS_THIS_DEADLY_WEAPON_IS?$AA@ 3009aa74     bg_misc.obj
 0002:00001a94       ??_C@_0BJ@JKBMBJCM@gfx?1hud?1i_icon_sentrygun?$AA@ 3009aa94     bg_misc.obj
 0002:00001ab0       ??_C@_0BH@PFALJFOC@models?1items?1psgun?4glm?$AA@ 3009aab0     bg_misc.obj
 0002:00001ac8       ??_C@_0BA@HKIJMOIG@item_sentry_gun?$AA@ 3009aac8     bg_misc.obj
 0002:00001ad8       ??_C@_0BL@PADDACKM@?$EASP_INGAME_LA_GOGGLES_DESC?$AA@ 3009aad8     bg_misc.obj
 0002:00001af4       ??_C@_0BE@PKBACEEE@gfx?1hud?1i_icon_zoom?$AA@ 3009aaf4     bg_misc.obj
 0002:00001b08       ??_C@_0BM@HNHCIOH@models?1items?1binoculars?4md3?$AA@ 3009ab08     bg_misc.obj
 0002:00001b24       ??_C@_0BA@KBLOKIGM@item_binoculars?$AA@ 3009ab24     bg_misc.obj
 0002:00001b34       ??_C@_0BJ@DMMPEJNE@gfx?1hud?1i_icon_big_bacta?$AA@ 3009ab34     bg_misc.obj
 0002:00001b50       ??_C@_0BL@HEJMELJJ@models?1items?1big_bacta?4md3?$AA@ 3009ab50     bg_misc.obj
 0002:00001b6c       ??_C@_0BA@JADGBDOO@item_medpac_big?$AA@ 3009ab6c     bg_misc.obj
 0002:00001b7c       ??_C@_0BG@BFJBNBGL@?$EASP_INGAME_BACTA_DESC?$AA@ 3009ab7c     bg_misc.obj
 0002:00001b94       ??_C@_0BF@EDJNGJL@gfx?1hud?1i_icon_bacta?$AA@ 3009ab94     bg_misc.obj
 0002:00001bac       ??_C@_0CA@COCFAODK@models?1map_objects?1mp?1bacta?4md3?$AA@ 3009abac     bg_misc.obj
 0002:00001bcc       ??_C@_0M@NLNOFNHL@item_medpac?$AA@ 3009abcc     bg_misc.obj
 0002:00001bd8       ??_C@_0BO@HHEDFEHB@?$EAMENUS_THIS_STATIONARY_ENERGY?$AA@ 3009abd8     bg_misc.obj
 0002:00001bf8       ??_C@_0KM@PHBHELNF@sound?1weapons?1detpack?1stick?4wav?5@ 3009abf8     bg_misc.obj
 0002:00001ca4       ??_C@_0BK@OODCPGGP@gfx?1hud?1i_icon_shieldwall?$AA@ 3009aca4     bg_misc.obj
 0002:00001cc0       ??_C@_0CB@EAKHAPIK@models?1map_objects?1mp?1shield?4md3@ 3009acc0     bg_misc.obj
 0002:00001ce4       ??_C@_0M@IIGPMPLO@item_shield?$AA@ 3009ace4     bg_misc.obj
 0002:00001cf0       ??_C@_0BP@JJMOPAPI@?$EAMENUS_AN_ATTACK_DRONE_SIMILAR?$AA@ 3009acf0     bg_misc.obj
 0002:00001d10       ??_C@_0BG@KANLKHLH@gfx?1hud?1i_icon_seeker?$AA@ 3009ad10     bg_misc.obj
 0002:00001d28       ??_C@_0BI@PEKMFNBP@models?1items?1remote?4md3?$AA@ 3009ad28     bg_misc.obj
 0002:00001d40       ??_C@_0BJ@IBMECGJM@sound?1weapons?1w_pkup?4wav?$AA@ 3009ad40     bg_misc.obj
 0002:00001d5c       ??_C@_0M@CJHMIAK@item_seeker?$AA@ 3009ad5c     bg_misc.obj
 0002:00001d68       ??_C@_0BG@PFBKDHHG@gfx?1hud?1i_icon_medkit?$AA@ 3009ad68     bg_misc.obj
 0002:00001d80       ??_C@_0CB@PABPOCJH@models?1map_objects?1mp?1medpac?4md3@ 3009ad80     bg_misc.obj
 0002:00001da4       ??_C@_0BO@NIGJKPEE@sound?1player?1pickuphealth?4wav?$AA@ 3009ada4     bg_misc.obj
 0002:00001dc4       ??_C@_0BE@MEFMIHAD@item_medpak_instant?$AA@ 3009adc4     bg_misc.obj
 0002:00001dd8       ??_C@_0BE@JKBNBKPH@gfx?1mp?1large_shield?$AA@ 3009add8     bg_misc.obj
 0002:00001dec       ??_C@_0BO@JPJCNECL@models?1map_objects?1mp?1psd?4md3?$AA@ 3009adec     bg_misc.obj
 0002:00001e0c       ??_C@_0BI@HGJKGJEB@item_shield_lrg_instant?$AA@ 3009ae0c     bg_misc.obj
 0002:00001e24       ??_C@_0BE@GPDHMLPP@gfx?1mp?1small_shield?$AA@ 3009ae24     bg_misc.obj
 0002:00001e38       ??_C@_0CB@FFNAAGJJ@models?1map_objects?1mp?1psd_sm?4md3@ 3009ae38     bg_misc.obj
 0002:00001e5c       ??_C@_0BO@CHCEMMJK@sound?1player?1pickupshield?4wav?$AA@ 3009ae5c     bg_misc.obj
 0002:00001e7c       ??_C@_0BH@DINJFPKN@item_shield_sm_instant?$AA@ 3009ae7c     bg_misc.obj
 0002:00001e93       ??_C@_00CNPNBAHC@?$AA@     3009ae93     bg_misc.obj
 0002:00001e94       ??_C@_08FEEDNBKC@MASTERY7?$AA@ 3009ae94     bg_misc.obj
 0002:00001ea0       ??_C@_08ENFIOAOD@MASTERY6?$AA@ 3009aea0     bg_misc.obj
 0002:00001eac       ??_C@_08GGHFLDCA@MASTERY5?$AA@ 3009aeac     bg_misc.obj
 0002:00001eb8       ??_C@_08HPGOICGB@MASTERY4?$AA@ 3009aeb8     bg_misc.obj
 0002:00001ec4       ??_C@_08DACPBEKG@MASTERY3?$AA@ 3009aec4     bg_misc.obj
 0002:00001ed0       ??_C@_08CJDECFOH@MASTERY2?$AA@ 3009aed0     bg_misc.obj
 0002:00001edc       ??_C@_08CBJHGCE@MASTERY1?$AA@ 3009aedc     bg_misc.obj
 0002:00001ee8       ??_C@_08BLACEHGF@MASTERY0?$AA@ 3009aee8     bg_misc.obj
 0002:00001ef4       ??_C@_0O@GKPNHIOC@?$CKtac_together?$AA@ 3009aef4     bg_misc.obj
 0002:00001f04       ??_C@_0L@MGMJIMAF@?$CKtac_split?$AA@ 3009af04     bg_misc.obj
 0002:00001f10       ??_C@_09DINJJNAI@?$CKtac_hold?$AA@ 3009af10     bg_misc.obj
 0002:00001f1c       ??_C@_0M@PABJGNLG@?$CKtac_follow?$AA@ 3009af1c     bg_misc.obj
 0002:00001f28       ??_C@_0O@NFGMPNBH@?$CKtac_fallback?$AA@ 3009af28     bg_misc.obj
 0002:00001f38       ??_C@_0L@EHELGHNE@?$CKtac_cover?$AA@ 3009af38     bg_misc.obj
 0002:00001f44       ??_C@_0N@KDPAKEEJ@?$CKspot_troops?$AA@ 3009af44     bg_misc.obj
 0002:00001f54       ??_C@_0N@JGIPLKJE@?$CKspot_sniper?$AA@ 3009af54     bg_misc.obj
 0002:00001f64       ??_C@_0P@LLDGJFLE@?$CKspot_emplaced?$AA@ 3009af64     bg_misc.obj
 0002:00001f74       ??_C@_0P@ILGDCGKG@?$CKspot_defenses?$AA@ 3009af74     bg_misc.obj
 0002:00001f84       ??_C@_09KPOPDKGM@?$CKspot_air?$AA@ 3009af84     bg_misc.obj
 0002:00001f90       ??_C@_09FCIMPFEJ@?$CKreq_tech?$AA@ 3009af90     bg_misc.obj
 0002:00001f9c       ??_C@_08EHGAEMIC@?$CKreq_sup?$AA@ 3009af9c     bg_misc.obj
 0002:00001fa8       ??_C@_0L@PJEOEMHI@?$CKreq_medic?$AA@ 3009afa8     bg_misc.obj
 0002:00001fb4       ??_C@_08BDPMJJAM@?$CKreq_hvy?$AA@ 3009afb4     bg_misc.obj
 0002:00001fc0       ??_C@_09HHLDNJAG@?$CKreq_demo?$AA@ 3009afc0     bg_misc.obj
 0002:00001fcc       ??_C@_0M@MJLNGIKA@?$CKreq_assist?$AA@ 3009afcc     bg_misc.obj
 0002:00001fd8       ??_C@_0L@DOBCHHPE@?$CKreply_yes?$AA@ 3009afd8     bg_misc.obj
 0002:00001fe4       ??_C@_0M@PJKELJII@?$CKreply_stay?$AA@ 3009afe4     bg_misc.obj
 0002:00001ff0       ??_C@_09FGIKFCBO@?$CKreply_no?$AA@ 3009aff0     bg_misc.obj
 0002:00001ffc       ??_C@_09FJFLGJJB@?$CKreply_go?$AA@ 3009affc     bg_misc.obj
 0002:00002008       ??_C@_0O@LCDECPIN@?$CKreply_coming?$AA@ 3009b008     bg_misc.obj
 0002:00002018       ??_C@_0M@HJCGMPNN@?$CKdef_second?$AA@ 3009b018     bg_misc.obj
 0002:00002024       ??_C@_0N@LBIDFACI@?$CKdef_primary?$AA@ 3009b024     bg_misc.obj
 0002:00002034       ??_C@_0O@EGEINPEB@?$CKdef_position?$AA@ 3009b034     bg_misc.obj
 0002:00002044       ??_C@_09PJJIIOPG@?$CKdef_guns?$AA@ 3009b044     bg_misc.obj
 0002:00002050       ??_C@_0M@ECCLODLO@?$CKatt_second?$AA@ 3009b050     bg_misc.obj
 0002:0000205c       ??_C@_0N@GFADGNOG@?$CKatt_primary?$AA@ 3009b05c     bg_misc.obj
 0002:0000206c       ??_C@_0M@MHLPAMFK@?$CKatt_attack?$AA@ 3009b06c     bg_misc.obj
 0002:00002078       ??_C@_0BI@KPCBHBOL@head_light_blaster_cann?$AA@ 3009b078     bg_misc.obj
 0002:00002090       ??_C@_0BI@FPANAMDK@head_concussion_charger?$AA@ 3009b090     bg_misc.obj
 0002:000020a8       ??_C@_04NEODDMOL@head?$AA@ 3009b0a8     bg_misc.obj
 0002:000020b0       ??_C@_06BCDCLMEB@helmet?$AA@ 3009b0b0     bg_misc.obj
 0002:000020b8       ??_C@_06INLMLPMC@r_hand?$AA@ 3009b0b8     bg_misc.obj
 0002:000020c0       ??_C@_06LKFNFIFB@l_hand?$AA@ 3009b0c0     bg_misc.obj
 0002:000020c8       ??_C@_05DAKMKCAJ@blah5?$AA@ 3009b0c8     bg_misc.obj
 0002:000020d0       ??_C@_05CJLHJDEI@blah4?$AA@ 3009b0d0     bg_misc.obj
 0002:000020d8       ??_C@_04DCKHGPHA@nose?$AA@ 3009b0d8     bg_misc.obj
 0002:000020e0       ??_C@_06KAKLKKDN@l_gear?$AA@ 3009b0e0     bg_misc.obj
 0002:000020e8       ??_C@_06JHEKENKO@r_gear?$AA@ 3009b0e8     bg_misc.obj
 0002:000020f0       ??_C@_07DBBACNJN@l_wing2?$AA@ 3009b0f0     bg_misc.obj
 0002:000020f8       ??_C@_07BKDNHOFO@l_wing1?$AA@ 3009b0f8     bg_misc.obj
 0002:00002100       ??_C@_07FICBAOIE@r_wing2?$AA@ 3009b100     bg_misc.obj
 0002:00002108       ??_C@_07HDAMFNEH@r_wing1?$AA@ 3009b108     bg_misc.obj
 0002:00002110       ??_C@_0N@FODOKFMD@torso_collar?$AA@ 3009b110     bg_misc.obj
 0002:00002120       ??_C@_0BB@FPOHHKLE@torso_galaktorso?$AA@ 3009b120     bg_misc.obj
 0002:00002134       ??_C@_0N@IFENOPML@torso_shield?$AA@ 3009b134     bg_misc.obj
 0002:00002144       ??_C@_05IPPEPANF@l_arm?$AA@ 3009b144     bg_misc.obj
 0002:0000214c       ??_C@_05LGCIJDDO@r_arm?$AA@ 3009b14c     bg_misc.obj
 0002:00002154       ??_C@_0M@HACAOHEH@torso_tube6?$AA@ 3009b154     bg_misc.obj
 0002:00002160       ??_C@_0M@FLANLEIE@torso_tube5?$AA@ 3009b160     bg_misc.obj
 0002:0000216c       ??_C@_0M@ECBGIFMF@torso_tube4?$AA@ 3009b16c     bg_misc.obj
 0002:00002178       ??_C@_0M@NFHBDAC@torso_tube3?$AA@ 3009b178     bg_misc.obj
 0002:00002184       ??_C@_0M@BEEMCCED@torso_tube2?$AA@ 3009b184     bg_misc.obj
 0002:00002190       ??_C@_0M@DPGBHBIA@torso_tube1?$AA@ 3009b190     bg_misc.obj
 0002:0000219c       ??_C@_0BA@DHJPAGAH@torso_canister3?$AA@ 3009b19c     bg_misc.obj
 0002:000021ac       ??_C@_0BA@COIEDHEG@torso_canister2?$AA@ 3009b1ac     bg_misc.obj
 0002:000021bc       ??_C@_0BA@FKJGEIF@torso_canister1?$AA@ 3009b1bc     bg_misc.obj
 0002:000021cc       ??_C@_09EPBMGDBP@l_arm_key?$AA@ 3009b1cc     bg_misc.obj
 0002:000021d8       _bgToggleableSurfaceDebris 3009b1d8     bg_misc.obj
 0002:00002254       ??_C@_08OEKJENGB@?$CFf?5?$CFf?5?$CFf?$AA@ 3009b254     bg_misc.obj
 0002:00002260       ??_C@_02IKAHHCAI@?$CFi?$AA@ 3009b260     bg_misc.obj
 0002:00002264       __real@43870000            3009b264     bg_misc.obj
 0002:00002268       __real@42b40000            3009b268     bg_misc.obj
 0002:00002270       __real@4076800000000000    3009b270     bg_misc.obj
 0002:00002278       __real@400921fb60000000    3009b278     bg_misc.obj
 0002:00002280       __real@4066800000000000    3009b280     bg_misc.obj
 0002:00002288       ??_C@_0BH@MFGKJDLM@HoldableItem?5not?5found?$AA@ 3009b288     bg_misc.obj
 0002:000022a0       ??_C@_0CB@DEACFJO@Couldn?8t?5find?5item?5for?5weapon?5?$CFi@ 3009b2a0     bg_misc.obj
 0002:000022c4       ??_C@_0BM@NECGLAIF@BG_CanItemBeGrabbed?3?5IT_BAD?$AA@ 3009b2c4     bg_misc.obj
 0002:000022e0       ??_C@_0CI@MFONMA@BG_CanItemBeGrabbed?3?5index?5out?5o@ 3009b2e0     bg_misc.obj
 0002:00002308       ??_C@_0DM@PPIGHFEL@BG_EvaluateTrajectory?3?5?$FLCLIENTGA@ 3009b308     bg_misc.obj
 0002:00002348       __real@4079000000000000    3009b348     bg_misc.obj
 0002:00002350       __real@3f50624de0000000    3009b350     bg_misc.obj
 0002:00002358       __real@4056800000000000    3009b358     bg_misc.obj
 0002:00002360       __real@3f50624dd2f1a9fc    3009b360     bg_misc.obj
 0002:00002368       ??_C@_0CP@MCFPOIMF@BG_EvaluateTrajectoryDelta?3?5unkn@ 3009b368     bg_misc.obj
 0002:00002398       __real@4089000000000000    3009b398     bg_misc.obj
 0002:000023a0       __real@3fe0000000000000    3009b3a0     bg_misc.obj
 0002:000023a8       __real@bf800000            3009b3a8     bg_misc.obj
 0002:000023ac       ??_C@_05LKGOKJFG@fpls3?$AA@ 3009b3ac     bg_misc.obj
 0002:000023b4       ??_C@_05KDHFJIBH@fpls2?$AA@ 3009b3b4     bg_misc.obj
 0002:000023bc       ??_C@_04BEPDCOC@fpls?$AA@  3009b3bc     bg_misc.obj
 0002:000023c4       ??_C@_04JIEPAMAO@kyle?$AA@ 3009b3c4     bg_misc.obj
 0002:000023cc       ??_C@_04EEIGNHLG@menu?$AA@ 3009b3cc     bg_misc.obj
 0002:000023d4       ??_C@_05GLFHLNLB@_blue?$AA@ 3009b3d4     bg_misc.obj
 0002:000023dc       ??_C@_0CA@ODGGEHPP@models?1players?1?$CFs?1model_?$CFs?4skin?$AA@ 3009b3dc     bg_misc.obj
 0002:000023fc       ??_C@_04NCFJPIH@_red?$AA@  3009b3fc     bg_misc.obj
 0002:00002404       ??_C@_07DLHCIBDH@default?$AA@ 3009b404     bg_misc.obj
 0002:0000240c       ??_C@_04OBGPFBCN@blue?$AA@ 3009b40c     bg_misc.obj
 0002:00002414       ??_C@_03FAAAOPJM@red?$AA@  3009b414     bg_misc.obj
 0002:00002418       ??_C@_05HIOBFLDN@jedi_?$AA@ 3009b418     bg_misc.obj
 0002:00002420       ??_C@_0CJ@BDGLLNGN@BG_Alloc?3?5buffer?5exceeded?5tail?5?$CI@ 3009b420     bg_misc.obj
 0002:0000244c       ??_C@_0CN@JLGNNLBK@BG_TempAlloc?3?5buffer?5exceeded?5he@ 3009b44c     bg_misc.obj
 0002:0000247c       ??_C@_0CO@IIHBNEDD@BG_TempFree?3?5tail?5greater?5than?5s@ 3009b47c     bg_misc.obj
 0002:000024b0       __real@c042000000000000    3009b4b0     bg_misc.obj
 0002:000024b8       __real@4042000000000000    3009b4b8     bg_misc.obj
 0002:000024c0       __real@c049000000000000    3009b4c0     bg_misc.obj
 0002:000024c8       __real@4046000000000000    3009b4c8     bg_misc.obj
 0002:000024d0       ??_C@_0BB@OGMKHPBO@FOOTSTEP_HEAVY_L?$AA@ 3009b4d0     bg_panimate.obj
 0002:000024e4       ??_C@_0BB@DCILEAMB@FOOTSTEP_HEAVY_R?$AA@ 3009b4e4     bg_panimate.obj
 0002:000024f8       ??_C@_0L@PAGDPIKM@FOOTSTEP_L?$AA@ 3009b4f8     bg_panimate.obj
 0002:00002504       ??_C@_0L@CECCMHHD@FOOTSTEP_R?$AA@ 3009b504     bg_panimate.obj
 0002:00002510       ??_C@_0P@JEBGPELC@AEV_SABER_SPIN?$AA@ 3009b510     bg_panimate.obj
 0002:00002520       ??_C@_0BA@CIODMBIG@AEV_SABER_SWING?$AA@ 3009b520     bg_panimate.obj
 0002:00002530       ??_C@_0O@PKDCPJFP@AEV_SOUNDCHAN?$AA@ 3009b530     bg_panimate.obj
 0002:00002540       ??_C@_08IKJEGLOC@AEV_MOVE?$AA@ 3009b540     bg_panimate.obj
 0002:0000254c       ??_C@_08NPCGKNPD@AEV_FIRE?$AA@ 3009b54c     bg_panimate.obj
 0002:00002558       ??_C@_0L@GOCDIAMO@AEV_EFFECT?$AA@ 3009b558     bg_panimate.obj
 0002:00002564       ??_C@_0N@GPBLCBDN@AEV_FOOTSTEP?$AA@ 3009b564     bg_panimate.obj
 0002:00002574       ??_C@_09PNKHLONK@AEV_SOUND?$AA@ 3009b574     bg_panimate.obj
 0002:00002580       ??_C@_0M@JAIOEHIF@BOTH_CIN_50?$AA@ 3009b580     bg_panimate.obj
 0002:0000258c       ??_C@_0M@EAIOJGPL@BOTH_CIN_49?$AA@ 3009b58c     bg_panimate.obj
 0002:00002598       ??_C@_0M@FJJFKHLK@BOTH_CIN_48?$AA@ 3009b598     bg_panimate.obj
 0002:000025a4       ??_C@_0M@NOANLLHF@BOTH_CIN_47?$AA@ 3009b5a4     bg_panimate.obj
 0002:000025b0       ??_C@_0M@MHBGIKDE@BOTH_CIN_46?$AA@ 3009b5b0     bg_panimate.obj
 0002:000025bc       ??_C@_0M@OMDLNJPH@BOTH_CIN_45?$AA@ 3009b5bc     bg_panimate.obj
 0002:000025c8       ??_C@_0M@PFCAOILG@BOTH_CIN_44?$AA@ 3009b5c8     bg_panimate.obj
 0002:000025d4       ??_C@_0M@LKGBHOHB@BOTH_CIN_43?$AA@ 3009b5d4     bg_panimate.obj
 0002:000025e0       ??_C@_0M@KDHKEPDA@BOTH_CIN_42?$AA@ 3009b5e0     bg_panimate.obj
 0002:000025ec       ??_C@_0M@IIFHBMPD@BOTH_CIN_41?$AA@ 3009b5ec     bg_panimate.obj
 0002:000025f8       ??_C@_0M@JBEMCNLC@BOTH_CIN_40?$AA@ 3009b5f8     bg_panimate.obj
 0002:00002604       ??_C@_0M@EFMBIAHO@BOTH_CIN_39?$AA@ 3009b604     bg_panimate.obj
 0002:00002610       ??_C@_0M@FMNKLBDP@BOTH_CIN_38?$AA@ 3009b610     bg_panimate.obj
 0002:0000261c       ??_C@_0M@NLECKNPA@BOTH_CIN_37?$AA@ 3009b61c     bg_panimate.obj
 0002:00002628       ??_C@_0M@MCFJJMLB@BOTH_CIN_36?$AA@ 3009b628     bg_panimate.obj
 0002:00002634       ??_C@_0M@OJHEMPHC@BOTH_CIN_35?$AA@ 3009b634     bg_panimate.obj
 0002:00002640       ??_C@_0M@PAGPPODD@BOTH_CIN_34?$AA@ 3009b640     bg_panimate.obj
 0002:0000264c       ??_C@_0M@LPCOGIPE@BOTH_CIN_33?$AA@ 3009b64c     bg_panimate.obj
 0002:00002658       ??_C@_0M@KGDFFJLF@BOTH_CIN_32?$AA@ 3009b658     bg_panimate.obj
 0002:00002664       ??_C@_0M@INBIAKHG@BOTH_CIN_31?$AA@ 3009b664     bg_panimate.obj
 0002:00002670       ??_C@_0M@JEADDLDH@BOTH_CIN_30?$AA@ 3009b670     bg_panimate.obj
 0002:0000267c       ??_C@_0M@EEADOKEJ@BOTH_CIN_29?$AA@ 3009b67c     bg_panimate.obj
 0002:00002688       ??_C@_0M@FNBINLAI@BOTH_CIN_28?$AA@ 3009b688     bg_panimate.obj
 0002:00002694       ??_C@_0M@NKIAMHMH@BOTH_CIN_27?$AA@ 3009b694     bg_panimate.obj
 0002:000026a0       ??_C@_0M@MDJLPGIG@BOTH_CIN_26?$AA@ 3009b6a0     bg_panimate.obj
 0002:000026ac       ??_C@_0M@OILGKFEF@BOTH_CIN_25?$AA@ 3009b6ac     bg_panimate.obj
 0002:000026b8       ??_C@_0M@PBKNJEAE@BOTH_CIN_24?$AA@ 3009b6b8     bg_panimate.obj
 0002:000026c4       ??_C@_0M@LOOMACMD@BOTH_CIN_23?$AA@ 3009b6c4     bg_panimate.obj
 0002:000026d0       ??_C@_0M@KHPHDDIC@BOTH_CIN_22?$AA@ 3009b6d0     bg_panimate.obj
 0002:000026dc       ??_C@_0M@IMNKGAEB@BOTH_CIN_21?$AA@ 3009b6dc     bg_panimate.obj
 0002:000026e8       ??_C@_0M@JFMBFBAA@BOTH_CIN_20?$AA@ 3009b6e8     bg_panimate.obj
 0002:000026f4       ??_C@_0M@EGEFFEBA@BOTH_CIN_19?$AA@ 3009b6f4     bg_panimate.obj
 0002:00002700       ??_C@_0M@FPFOGFFB@BOTH_CIN_18?$AA@ 3009b700     bg_panimate.obj
 0002:0000270c       ??_C@_0M@NIMGHJJO@BOTH_CIN_17?$AA@ 3009b70c     bg_panimate.obj
 0002:00002718       ??_C@_0M@MBNNEINP@BOTH_CIN_16?$AA@ 3009b718     bg_panimate.obj
 0002:00002724       ??_C@_0M@OKPABLBM@BOTH_CIN_15?$AA@ 3009b724     bg_panimate.obj
 0002:00002730       ??_C@_0M@PDOLCKFN@BOTH_CIN_14?$AA@ 3009b730     bg_panimate.obj
 0002:0000273c       ??_C@_0M@LMKKLMJK@BOTH_CIN_13?$AA@ 3009b73c     bg_panimate.obj
 0002:00002748       ??_C@_0M@KFLBINNL@BOTH_CIN_12?$AA@ 3009b748     bg_panimate.obj
 0002:00002754       ??_C@_0M@IOJMNOBI@BOTH_CIN_11?$AA@ 3009b754     bg_panimate.obj
 0002:00002760       ??_C@_0M@JHIHOPFJ@BOTH_CIN_10?$AA@ 3009b760     bg_panimate.obj
 0002:0000276c       ??_C@_0L@LLDGGLKP@BOTH_CIN_9?$AA@ 3009b76c     bg_panimate.obj
 0002:00002778       ??_C@_0L@KCCNFKOO@BOTH_CIN_8?$AA@ 3009b778     bg_panimate.obj
 0002:00002784       ??_C@_0L@CFLFEGCB@BOTH_CIN_7?$AA@ 3009b784     bg_panimate.obj
 0002:00002790       ??_C@_0L@DMKOHHGA@BOTH_CIN_6?$AA@ 3009b790     bg_panimate.obj
 0002:0000279c       ??_C@_0L@BHIDCEKD@BOTH_CIN_5?$AA@ 3009b79c     bg_panimate.obj
 0002:000027a8       ??_C@_0L@OJIBFOC@BOTH_CIN_4?$AA@ 3009b7a8     bg_panimate.obj
 0002:000027b4       ??_C@_0L@EBNJIDCF@BOTH_CIN_3?$AA@ 3009b7b4     bg_panimate.obj
 0002:000027c0       ??_C@_0L@FIMCLCGE@BOTH_CIN_2?$AA@ 3009b7c0     bg_panimate.obj
 0002:000027cc       ??_C@_0L@HDOPOBKH@BOTH_CIN_1?$AA@ 3009b7cc     bg_panimate.obj
 0002:000027d8       ??_C@_0N@MEGKIHKK@LEGS_TURN180?$AA@ 3009b7d8     bg_panimate.obj
 0002:000027e8       ??_C@_0N@EEPPLEKL@LEGS_S7_RUP5?$AA@ 3009b7e8     bg_panimate.obj
 0002:000027f8       ??_C@_0N@FNOEIFOK@LEGS_S7_RUP4?$AA@ 3009b7f8     bg_panimate.obj
 0002:00002808       ??_C@_0N@BCKFBDCN@LEGS_S7_RUP3?$AA@ 3009b808     bg_panimate.obj
 0002:00002818       ??_C@_0N@LLOCCGM@LEGS_S7_RUP2?$AA@ 3009b818     bg_panimate.obj
 0002:00002828       ??_C@_0N@CAJDHBKP@LEGS_S7_RUP1?$AA@ 3009b828     bg_panimate.obj
 0002:00002838       ??_C@_0N@JLCPJNEI@LEGS_S7_LUP5?$AA@ 3009b838     bg_panimate.obj
 0002:00002848       ??_C@_0N@ICDEKMAJ@LEGS_S7_LUP4?$AA@ 3009b848     bg_panimate.obj
 0002:00002858       ??_C@_0N@MNHFDKMO@LEGS_S7_LUP3?$AA@ 3009b858     bg_panimate.obj
 0002:00002868       ??_C@_0N@NEGOALIP@LEGS_S7_LUP2?$AA@ 3009b868     bg_panimate.obj
 0002:00002878       ??_C@_0N@PPEDFIEM@LEGS_S7_LUP1?$AA@ 3009b878     bg_panimate.obj
 0002:00002888       ??_C@_0N@OCIILPBP@LEGS_S6_RUP5?$AA@ 3009b888     bg_panimate.obj
 0002:00002898       ??_C@_0N@PLJDIOFO@LEGS_S6_RUP4?$AA@ 3009b898     bg_panimate.obj
 0002:000028a8       ??_C@_0N@LENCBIJJ@LEGS_S6_RUP3?$AA@ 3009b8a8     bg_panimate.obj
 0002:000028b8       ??_C@_0N@KNMJCJNI@LEGS_S6_RUP2?$AA@ 3009b8b8     bg_panimate.obj
 0002:000028c8       ??_C@_0N@IGOEHKBL@LEGS_S6_RUP1?$AA@ 3009b8c8     bg_panimate.obj
 0002:000028d8       ??_C@_0N@DNFIJGPM@LEGS_S6_LUP5?$AA@ 3009b8d8     bg_panimate.obj
 0002:000028e8       ??_C@_0N@CEEDKHLN@LEGS_S6_LUP4?$AA@ 3009b8e8     bg_panimate.obj
 0002:000028f8       ??_C@_0N@GLACDBHK@LEGS_S6_LUP3?$AA@ 3009b8f8     bg_panimate.obj
 0002:00002908       ??_C@_0N@HCBJAADL@LEGS_S6_LUP2?$AA@ 3009b908     bg_panimate.obj
 0002:00002918       ??_C@_0N@FJDEFDPI@LEGS_S6_LUP1?$AA@ 3009b918     bg_panimate.obj
 0002:00002928       ??_C@_0N@NDGAKFIC@LEGS_S5_RUP5?$AA@ 3009b928     bg_panimate.obj
 0002:00002938       ??_C@_0N@MKHLJEMD@LEGS_S5_RUP4?$AA@ 3009b938     bg_panimate.obj
 0002:00002948       ??_C@_0N@IFDKACAE@LEGS_S5_RUP3?$AA@ 3009b948     bg_panimate.obj
 0002:00002958       ??_C@_0N@JMCBDDEF@LEGS_S5_RUP2?$AA@ 3009b958     bg_panimate.obj
 0002:00002968       ??_C@_0N@LHAMGAIG@LEGS_S5_RUP1?$AA@ 3009b968     bg_panimate.obj
 0002:00002978       ??_C@_0N@MLAIMGB@LEGS_S5_LUP5?$AA@ 3009b978     bg_panimate.obj
 0002:00002988       ??_C@_0N@BFKLLNCA@LEGS_S5_LUP4?$AA@ 3009b988     bg_panimate.obj
 0002:00002998       ??_C@_0N@FKOKCLOH@LEGS_S5_LUP3?$AA@ 3009b998     bg_panimate.obj
 0002:000029a8       ??_C@_0N@EDPBBKKG@LEGS_S5_LUP2?$AA@ 3009b9a8     bg_panimate.obj
 0002:000029b8       ??_C@_0N@GINMEJGF@LEGS_S5_LUP1?$AA@ 3009b9b8     bg_panimate.obj
 0002:000029c8       ??_C@_0N@HFBHKODG@LEGS_S4_RUP5?$AA@ 3009b9c8     bg_panimate.obj
 0002:000029d8       ??_C@_0N@GMAMJPHH@LEGS_S4_RUP4?$AA@ 3009b9d8     bg_panimate.obj
 0002:000029e8       ??_C@_0N@CDENAJLA@LEGS_S4_RUP3?$AA@ 3009b9e8     bg_panimate.obj
 0002:000029f8       ??_C@_0N@DKFGDIPB@LEGS_S4_RUP2?$AA@ 3009b9f8     bg_panimate.obj
 0002:00002a08       ??_C@_0N@BBHLGLDC@LEGS_S4_RUP1?$AA@ 3009ba08     bg_panimate.obj
 0002:00002a18       ??_C@_0N@KKMHIHNF@LEGS_S4_LUP5?$AA@ 3009ba18     bg_panimate.obj
 0002:00002a28       ??_C@_0N@LDNMLGJE@LEGS_S4_LUP4?$AA@ 3009ba28     bg_panimate.obj
 0002:00002a38       ??_C@_0N@PMJNCAFD@LEGS_S4_LUP3?$AA@ 3009ba38     bg_panimate.obj
 0002:00002a48       ??_C@_0N@OFIGBBBC@LEGS_S4_LUP2?$AA@ 3009ba48     bg_panimate.obj
 0002:00002a58       ??_C@_0N@MOKLECNB@LEGS_S4_LUP1?$AA@ 3009ba58     bg_panimate.obj
 0002:00002a68       ??_C@_0N@LALAJALI@LEGS_S3_RUP5?$AA@ 3009ba68     bg_panimate.obj
 0002:00002a78       ??_C@_0N@KJKLKBPJ@LEGS_S3_RUP4?$AA@ 3009ba78     bg_panimate.obj
 0002:00002a88       ??_C@_0N@OGOKDHDO@LEGS_S3_RUP3?$AA@ 3009ba88     bg_panimate.obj
 0002:00002a98       ??_C@_0N@PPPBAGHP@LEGS_S3_RUP2?$AA@ 3009ba98     bg_panimate.obj
 0002:00002aa8       ??_C@_0N@NENMFFLM@LEGS_S3_RUP1?$AA@ 3009baa8     bg_panimate.obj
 0002:00002ab8       ??_C@_0N@GPGALJFL@LEGS_S3_LUP5?$AA@ 3009bab8     bg_panimate.obj
 0002:00002ac8       ??_C@_0N@HGHLIIBK@LEGS_S3_LUP4?$AA@ 3009bac8     bg_panimate.obj
 0002:00002ad8       ??_C@_0N@DJDKBONN@LEGS_S3_LUP3?$AA@ 3009bad8     bg_panimate.obj
 0002:00002ae8       ??_C@_0N@CACBCPJM@LEGS_S3_LUP2?$AA@ 3009bae8     bg_panimate.obj
 0002:00002af8       ??_C@_0N@LAMHMFP@LEGS_S3_LUP1?$AA@ 3009baf8     bg_panimate.obj
 0002:00002b08       ??_C@_0N@CHCPIBJB@LEGS_S1_RUP5?$AA@ 3009bb08     bg_panimate.obj
 0002:00002b18       ??_C@_0N@DODELANA@LEGS_S1_RUP4?$AA@ 3009bb18     bg_panimate.obj
 0002:00002b28       ??_C@_0N@HBHFCGBH@LEGS_S1_RUP3?$AA@ 3009bb28     bg_panimate.obj
 0002:00002b38       ??_C@_0N@GIGOBHFG@LEGS_S1_RUP2?$AA@ 3009bb38     bg_panimate.obj
 0002:00002b48       ??_C@_0N@EDEDEEJF@LEGS_S1_RUP1?$AA@ 3009bb48     bg_panimate.obj
 0002:00002b58       ??_C@_0N@PIPPKIHC@LEGS_S1_LUP5?$AA@ 3009bb58     bg_panimate.obj
 0002:00002b68       ??_C@_0N@OBOEJJDD@LEGS_S1_LUP4?$AA@ 3009bb68     bg_panimate.obj
 0002:00002b78       ??_C@_0N@KOKFAPPE@LEGS_S1_LUP3?$AA@ 3009bb78     bg_panimate.obj
 0002:00002b88       ??_C@_0N@LHLODOLF@LEGS_S1_LUP2?$AA@ 3009bb88     bg_panimate.obj
 0002:00002b98       ??_C@_0N@JMJDGNHG@LEGS_S1_LUP1?$AA@ 3009bb98     bg_panimate.obj
 0002:00002ba8       ??_C@_0O@PPAOPDJO@LEGS_RIGHTUP5?$AA@ 3009bba8     bg_panimate.obj
 0002:00002bb8       ??_C@_0O@OGBFMCNP@LEGS_RIGHTUP4?$AA@ 3009bbb8     bg_panimate.obj
 0002:00002bc8       ??_C@_0O@KJFEFEBI@LEGS_RIGHTUP3?$AA@ 3009bbc8     bg_panimate.obj
 0002:00002bd8       ??_C@_0O@LAEPGFFJ@LEGS_RIGHTUP2?$AA@ 3009bbd8     bg_panimate.obj
 0002:00002be8       ??_C@_0O@JLGCDGJK@LEGS_RIGHTUP1?$AA@ 3009bbe8     bg_panimate.obj
 0002:00002bf8       ??_C@_0N@DBAKPANN@LEGS_LEFTUP5?$AA@ 3009bbf8     bg_panimate.obj
 0002:00002c08       ??_C@_0N@CIBBMBJM@LEGS_LEFTUP4?$AA@ 3009bc08     bg_panimate.obj
 0002:00002c18       ??_C@_0N@GHFAFHFL@LEGS_LEFTUP3?$AA@ 3009bc18     bg_panimate.obj
 0002:00002c28       ??_C@_0N@HOELGGBK@LEGS_LEFTUP2?$AA@ 3009bc28     bg_panimate.obj
 0002:00002c38       ??_C@_0N@FFGGDFNJ@LEGS_LEFTUP1?$AA@ 3009bc38     bg_panimate.obj
 0002:00002c48       ??_C@_0O@FPAJGKKH@LEGS_CHOKING1?$AA@ 3009bc48     bg_panimate.obj
 0002:00002c58       ??_C@_0BB@HCNNJMLM@LEGS_LEAN_RIGHT1?$AA@ 3009bc58     bg_panimate.obj
 0002:00002c6c       ??_C@_0BA@MCADBFIF@LEGS_LEAN_LEFT1?$AA@ 3009bc6c     bg_panimate.obj
 0002:00002c7c       ??_C@_0L@BFOCDDKC@LEGS_TURN2?$AA@ 3009bc7c     bg_panimate.obj
 0002:00002c88       ??_C@_0L@DOMPGAGB@LEGS_TURN1?$AA@ 3009bc88     bg_panimate.obj
 0002:00002c94       ??_C@_0BC@FAHFKMOC@TORSO_HANDSIGNAL5?$AA@ 3009bc94     bg_panimate.obj
 0002:00002ca8       ??_C@_0BC@EJGOJNKD@TORSO_HANDSIGNAL4?$AA@ 3009bca8     bg_panimate.obj
 0002:00002cbc       ??_C@_0BC@GCPALGE@TORSO_HANDSIGNAL3?$AA@ 3009bcbc     bg_panimate.obj
 0002:00002cd0       ??_C@_0BC@BPDEDKCF@TORSO_HANDSIGNAL2?$AA@ 3009bcd0     bg_panimate.obj
 0002:00002ce4       ??_C@_0BC@DEBJGJOG@TORSO_HANDSIGNAL1?$AA@ 3009bce4     bg_panimate.obj
 0002:00002cf8       ??_C@_0P@EDGDJEAA@TORSO_CHOKING1?$AA@ 3009bcf8     bg_panimate.obj
 0002:00002d08       ??_C@_0BF@CAMHOBIG@TORSO_SURRENDER_STOP?$AA@ 3009bd08     bg_panimate.obj
 0002:00002d20       ??_C@_0BG@DJHHNKPJ@TORSO_SURRENDER_START?$AA@ 3009bd20     bg_panimate.obj
 0002:00002d38       ??_C@_0BD@IPNKJOGP@TORSO_WEAPONIDLE10?$AA@ 3009bd38     bg_panimate.obj
 0002:00002d4c       ??_C@_0BC@OEKOFEDF@TORSO_WEAPONIDLE4?$AA@ 3009bd4c     bg_panimate.obj
 0002:00002d60       ??_C@_0BC@KLOPMCPC@TORSO_WEAPONIDLE3?$AA@ 3009bd60     bg_panimate.obj
 0002:00002d74       ??_C@_0BC@LCPEPDLD@TORSO_WEAPONIDLE2?$AA@ 3009bd74     bg_panimate.obj
 0002:00002d88       ??_C@_0BE@PLMMDJNI@TORSO_WEAPONREADY10?$AA@ 3009bd88     bg_panimate.obj
 0002:00002d9c       ??_C@_0BD@EDNLHJLG@TORSO_WEAPONREADY4?$AA@ 3009bd9c     bg_panimate.obj
 0002:00002db0       ??_C@_0BD@MJKOPHB@TORSO_WEAPONREADY3?$AA@ 3009bdb0     bg_panimate.obj
 0002:00002dc4       ??_C@_0BD@BFIBNODA@TORSO_WEAPONREADY2?$AA@ 3009bdc4     bg_panimate.obj
 0002:00002dd8       ??_C@_0BD@DOKMINPD@TORSO_WEAPONREADY1?$AA@ 3009bdd8     bg_panimate.obj
 0002:00002dec       ??_C@_0BB@JNFLGAHH@TORSO_RAISEWEAP4?$AA@ 3009bdec     bg_panimate.obj
 0002:00002e00       ??_C@_0BB@OACMJEDC@TORSO_RAISEWEAP1?$AA@ 3009be00     bg_panimate.obj
 0002:00002e14       ??_C@_0BA@CHPACHPA@TORSO_DROPWEAP4?$AA@ 3009be14     bg_panimate.obj
 0002:00002e24       ??_C@_0BA@FKIHNDLF@TORSO_DROPWEAP1?$AA@ 3009be24     bg_panimate.obj
 0002:00002e34       ??_C@_09LOFMHEDG@BOTH_SIT7?$AA@ 3009be34     bg_panimate.obj
 0002:00002e40       ??_C@_09KHEHEFHH@BOTH_SIT6?$AA@ 3009be40     bg_panimate.obj
 0002:00002e4c       ??_C@_0BA@KMDIIEBA@BOTH_SIT5_TALK3?$AA@ 3009be4c     bg_panimate.obj
 0002:00002e5c       ??_C@_0BA@LFCDLFFB@BOTH_SIT5_TALK2?$AA@ 3009be5c     bg_panimate.obj
 0002:00002e6c       ??_C@_0BA@JOAOOGJC@BOTH_SIT5_TALK1?$AA@ 3009be6c     bg_panimate.obj
 0002:00002e7c       ??_C@_09IMGKBGLE@BOTH_SIT5?$AA@ 3009be7c     bg_panimate.obj
 0002:00002e88       ??_C@_09JFHBCHPF@BOTH_SIT4?$AA@ 3009be88     bg_panimate.obj
 0002:00002e94       ??_C@_0BC@HMBKLJMI@BOTH_STAND1_TALK3?$AA@ 3009be94     bg_panimate.obj
 0002:00002ea8       ??_C@_0BC@GFABIIIJ@BOTH_STAND1_TALK2?$AA@ 3009bea8     bg_panimate.obj
 0002:00002ebc       ??_C@_0BC@EOCMNLEK@BOTH_STAND1_TALK1?$AA@ 3009bebc     bg_panimate.obj
 0002:00002ed0       ??_C@_0BF@EILOIEKG@BOTH_STAND10TOSTAND1?$AA@ 3009bed0     bg_panimate.obj
 0002:00002ee8       ??_C@_0BD@BPMBLEGP@BOTH_STAND10_TALK2?$AA@ 3009bee8     bg_panimate.obj
 0002:00002efc       ??_C@_0BD@DEOMOHKM@BOTH_STAND10_TALK1?$AA@ 3009befc     bg_panimate.obj
 0002:00002f10       ??_C@_0N@EGCBKCBH@BOTH_STAND10?$AA@ 3009bf10     bg_panimate.obj
 0002:00002f20       ??_C@_0BD@KFKLMKIP@BOTH_SONICPAIN_END?$AA@ 3009bf20     bg_panimate.obj
 0002:00002f34       ??_C@_0BE@KHIIENBG@BOTH_SONICPAIN_HOLD?$AA@ 3009bf34     bg_panimate.obj
 0002:00002f48       ??_C@_0BF@LOEEPGJI@BOTH_SONICPAIN_START?$AA@ 3009bf48     bg_panimate.obj
 0002:00002f60       ??_C@_0BB@JEOPOJAL@BOTH_COWER1_STOP?$AA@ 3009bf60     bg_panimate.obj
 0002:00002f74       ??_C@_0M@EAAAAKHE@BOTH_COWER1?$AA@ 3009bf74     bg_panimate.obj
 0002:00002f80       ??_C@_0BC@KKMKANGM@BOTH_COWER1_START?$AA@ 3009bf80     bg_panimate.obj
 0002:00002f94       ??_C@_0BC@KDENGKBK@BOTH_TUSKENTAUNT1?$AA@ 3009bf94     bg_panimate.obj
 0002:00002fa8       ??_C@_0BC@BIOHNIGA@BOTH_TUSKENLUNGE1?$AA@ 3009bfa8     bg_panimate.obj
 0002:00002fbc       ??_C@_0BD@NFLDJLNC@BOTH_TUSKENATTACK3?$AA@ 3009bfbc     bg_panimate.obj
 0002:00002fd0       ??_C@_0BD@MMKIKKJD@BOTH_TUSKENATTACK2?$AA@ 3009bfd0     bg_panimate.obj
 0002:00002fe4       ??_C@_0BD@OHIFPJFA@BOTH_TUSKENATTACK1?$AA@ 3009bfe4     bg_panimate.obj
 0002:00002ff8       ??_C@_0BE@OBEECCKH@BOTH_KNEEL_TO_STAND?$AA@ 3009bff8     bg_panimate.obj
 0002:0000300c       ??_C@_0BE@FLPJEFCO@BOTH_STAND_TO_KNEEL?$AA@ 3009c00c     bg_panimate.obj
 0002:00003020       ??_C@_09FOHPNOGF@BOTH_WIND?$AA@ 3009c020     bg_panimate.obj
 0002:0000302c       ??_C@_0BI@GLAHPFBH@BOTH_FORCE_PROTECT_FAST?$AA@ 3009c02c     bg_panimate.obj
 0002:00003044       ??_C@_0BD@FFPOEFNG@BOTH_FORCE_PROTECT?$AA@ 3009c044     bg_panimate.obj
 0002:00003058       ??_C@_0BG@CBNCOJEH@BOTH_FORCE_ABSORB_END?$AA@ 3009c058     bg_panimate.obj
 0002:00003070       ??_C@_0BI@BPAAFONF@BOTH_FORCE_ABSORB_START?$AA@ 3009c070     bg_panimate.obj
 0002:00003088       ??_C@_0BC@HHGANHBC@BOTH_FORCE_ABSORB?$AA@ 3009c088     bg_panimate.obj
 0002:0000309c       ??_C@_0BJ@GKPDEPNJ@BOTH_FORCE_DRAIN_GRABBED?$AA@ 3009c09c     bg_panimate.obj
 0002:000030b8       ??_C@_0BK@POJHMFNL@BOTH_FORCE_DRAIN_GRAB_END?$AA@ 3009c0b8     bg_panimate.obj
 0002:000030d4       ??_C@_0BL@MLNFOEPE@BOTH_FORCE_DRAIN_GRAB_HOLD?$AA@ 3009c0d4     bg_panimate.obj
 0002:000030f0       ??_C@_0BM@PACMCIGF@BOTH_FORCE_DRAIN_GRAB_START?$AA@ 3009c0f0     bg_panimate.obj
 0002:0000310c       ??_C@_0BJ@OBGKFMHF@BOTH_FORCE_DRAIN_RELEASE?$AA@ 3009c10c     bg_panimate.obj
 0002:00003128       ??_C@_0BG@JCLNDPPK@BOTH_FORCE_DRAIN_HOLD?$AA@ 3009c128     bg_panimate.obj
 0002:00003140       ??_C@_0BH@BHMNGNLJ@BOTH_FORCE_DRAIN_START?$AA@ 3009c140     bg_panimate.obj
 0002:00003158       ??_C@_0BB@NHPCBMHH@BOTH_FORCE_DRAIN?$AA@ 3009c158     bg_panimate.obj
 0002:0000316c       ??_C@_0CE@NFLNPDNI@BOTH_FORCE_2HANDEDLIGHTNING_RELE@ 3009c16c     bg_panimate.obj
 0002:00003190       ??_C@_0CB@MNKHBDGA@BOTH_FORCE_2HANDEDLIGHTNING_HOLD@ 3009c190     bg_panimate.obj
 0002:000031b4       ??_C@_0CC@HEIANMP@BOTH_FORCE_2HANDEDLIGHTNING_STAR@ 3009c1b4     bg_panimate.obj
 0002:000031d8       ??_C@_0BM@OPHDEJED@BOTH_FORCE_2HANDEDLIGHTNING?$AA@ 3009c1d8     bg_panimate.obj
 0002:000031f4       ??_C@_0BA@GLJOFMJL@BOTH_FORCE_RAGE?$AA@ 3009c1f4     bg_panimate.obj
 0002:00003204       ??_C@_0L@GCDIADMB@BOTH_TOSS2?$AA@ 3009c204     bg_panimate.obj
 0002:00003210       ??_C@_0L@EJBFFAAC@BOTH_TOSS1?$AA@ 3009c210     bg_panimate.obj
 0002:0000321c       ??_C@_0BH@JFCMGCAP@BOTH_FORCEGRIP_RELEASE?$AA@ 3009c21c     bg_panimate.obj
 0002:00003234       ??_C@_0BE@JLIMFCGH@BOTH_FORCEGRIP_HOLD?$AA@ 3009c234     bg_panimate.obj
 0002:00003248       ??_C@_0BF@BAAGEEBG@BOTH_FORCEGRIP3THROW?$AA@ 3009c248     bg_panimate.obj
 0002:00003260       ??_C@_0BA@CBKDJPAH@BOTH_FORCEGRIP3?$AA@ 3009c260     bg_panimate.obj
 0002:00003270       ??_C@_0BA@BDJFPNIF@BOTH_FORCEGRIP1?$AA@ 3009c270     bg_panimate.obj
 0002:00003280       ??_C@_0P@PONJILD@BOTH_SABERPULL?$AA@ 3009c280     bg_panimate.obj
 0002:00003290       ??_C@_0BF@DKJODMIL@BOTH_FORCEHEAL_QUICK?$AA@ 3009c290     bg_panimate.obj
 0002:000032a8       ??_C@_0BE@GNHNNEFM@BOTH_FORCEHEAL_STOP?$AA@ 3009c2a8     bg_panimate.obj
 0002:000032bc       ??_C@_0BF@FPDMFLAG@BOTH_FORCEHEAL_START?$AA@ 3009c2bc     bg_panimate.obj
 0002:000032d4       ??_C@_0BM@GCBAKCPL@BOTH_FORCELIGHTNING_RELEASE?$AA@ 3009c2d4     bg_panimate.obj
 0002:000032f0       ??_C@_0BJ@KCFBGHIB@BOTH_FORCELIGHTNING_HOLD?$AA@ 3009c2f0     bg_panimate.obj
 0002:0000330c       ??_C@_0BK@NACKCJFF@BOTH_FORCELIGHTNING_START?$AA@ 3009c30c     bg_panimate.obj
 0002:00003328       ??_C@_0BE@OEAHGILF@BOTH_FORCELIGHTNING?$AA@ 3009c328     bg_panimate.obj
 0002:0000333c       ??_C@_0BA@KMPKOPAN@BOTH_MINDTRICK2?$AA@ 3009c33c     bg_panimate.obj
 0002:0000334c       ??_C@_0BA@IHNHLMMO@BOTH_MINDTRICK1?$AA@ 3009c34c     bg_panimate.obj
 0002:0000335c       ??_C@_0P@HBADPLP@BOTH_FORCEPULL?$AA@ 3009c35c     bg_panimate.obj
 0002:0000336c       ??_C@_0P@HEAGBOPG@BOTH_FORCEPUSH?$AA@ 3009c36c     bg_panimate.obj
 0002:0000337c       ??_C@_0BA@IBNLMMOO@BOTH_RESISTPUSH?$AA@ 3009c37c     bg_panimate.obj
 0002:0000338c       ??_C@_0BE@BFLOBGOL@BOTH_BUTTON_RELEASE?$AA@ 3009c38c     bg_panimate.obj
 0002:000033a0       ??_C@_0BB@FCMBEPCD@BOTH_BUTTON_HOLD?$AA@ 3009c3a0     bg_panimate.obj
 0002:000033b4       ??_C@_0N@JDJGEOPD@BOTH_BUTTON2?$AA@ 3009c3b4     bg_panimate.obj
 0002:000033c4       ??_C@_0N@LILLBNDA@BOTH_BUTTON1?$AA@ 3009c3c4     bg_panimate.obj
 0002:000033d4       ??_C@_0N@JAALPHCL@BOTH_TURNOFF?$AA@ 3009c3d4     bg_panimate.obj
 0002:000033e4       ??_C@_0M@ODIMNEKC@BOTH_TURNON?$AA@ 3009c3e4     bg_panimate.obj
 0002:000033f0       ??_C@_0O@CAGOCCAO@BOTH_POWERUP1?$AA@ 3009c3f0     bg_panimate.obj
 0002:00003400       ??_C@_0M@MGBFEGML@BOTH_CHOKE3?$AA@ 3009c400     bg_panimate.obj
 0002:0000340c       ??_C@_0M@NPAOHHIK@BOTH_CHOKE2?$AA@ 3009c40c     bg_panimate.obj
 0002:00003418       ??_C@_0M@PECDCEEJ@BOTH_CHOKE1?$AA@ 3009c418     bg_panimate.obj
 0002:00003424       ??_C@_0BF@ICMFFJIF@BOTH_CHOKE1STARTHOLD?$AA@ 3009c424     bg_panimate.obj
 0002:0000343c       ??_C@_0BB@OFKGJANF@BOTH_CHOKE1START?$AA@ 3009c43c     bg_panimate.obj
 0002:00003450       ??_C@_0BC@NPNJMHGC@BOTH_SLEEP1GETUP2?$AA@ 3009c450     bg_panimate.obj
 0002:00003464       ??_C@_0BB@HBPPPACM@BOTH_SLEEP1GETUP?$AA@ 3009c464     bg_panimate.obj
 0002:00003478       ??_C@_0BA@CINKHNGE@BOTH_SLEEP6STOP?$AA@ 3009c478     bg_panimate.obj
 0002:00003488       ??_C@_0BB@HHHLEEDB@BOTH_SLEEP6START?$AA@ 3009c488     bg_panimate.obj
 0002:0000349c       ??_C@_0M@LIOOPEJI@BOTH_SLEEP1?$AA@ 3009c49c     bg_panimate.obj
 0002:000034a8       ??_C@_0BC@LJIHFCKB@BOTH_SWIMBACKWARD?$AA@ 3009c4a8     bg_panimate.obj
 0002:000034bc       ??_C@_0BB@FOFCFDFI@BOTH_SWIMFORWARD?$AA@ 3009c4bc     bg_panimate.obj
 0002:000034d0       ??_C@_0BA@PIGFMLPF@BOTH_SWIM_IDLE1?$AA@ 3009c4d0     bg_panimate.obj
 0002:000034e0       ??_C@_0BC@ODIBALPH@BOTH_FLY_SHIELDED?$AA@ 3009c4e0     bg_panimate.obj
 0002:000034f4       ??_C@_0BB@OMHFJNGP@BOTH_LADDER_IDLE?$AA@ 3009c4f4     bg_panimate.obj
 0002:00003508       ??_C@_0BB@BOJOMJDD@BOTH_LADDER_DWN1?$AA@ 3009c508     bg_panimate.obj
 0002:0000351c       ??_C@_0BA@ILKIBIOO@BOTH_LADDER_UP1?$AA@ 3009c51c     bg_panimate.obj
 0002:0000352c       ??_C@_09PPDGHFCD@BOTH_HIT1?$AA@ 3009c52c     bg_panimate.obj
 0002:00003538       ??_C@_0P@EHILJFLF@BOTH_HANG_PAIN?$AA@ 3009c538     bg_panimate.obj
 0002:00003548       ??_C@_0BB@CKCHJINN@BOTH_HANG_ATTACK?$AA@ 3009c548     bg_panimate.obj
 0002:0000355c       ??_C@_0P@PIJKILFE@BOTH_HANG_IDLE?$AA@ 3009c55c     bg_panimate.obj
 0002:0000356c       ??_C@_0O@LAAPIANC@BOTH_RELEASED?$AA@ 3009c56c     bg_panimate.obj
 0002:0000357c       ??_C@_0N@CFDAGGFP@BOTH_GRABBED?$AA@ 3009c57c     bg_panimate.obj
 0002:0000358c       ??_C@_0P@PLIENJJJ@BOTH_HOLD_DROP?$AA@ 3009c58c     bg_panimate.obj
 0002:0000359c       ??_C@_0BA@KJAIIPAE@BOTH_HOLD_SNIFF?$AA@ 3009c59c     bg_panimate.obj
 0002:000035ac       ??_C@_0BB@EFCJFPCD@BOTH_HOLD_ATTACK?$AA@ 3009c5ac     bg_panimate.obj
 0002:000035c0       ??_C@_0O@HFIKEJBB@BOTH_HOLD_END?$AA@ 3009c5c0     bg_panimate.obj
 0002:000035d0       ??_C@_0P@EDJFENCG@BOTH_HOLD_IDLE?$AA@ 3009c5d0     bg_panimate.obj
 0002:000035e0       ??_C@_0P@EPJNGCKB@BOTH_HOLD_MISS?$AA@ 3009c5e0     bg_panimate.obj
 0002:000035f0       ??_C@_0BA@CFDHFDLH@BOTH_HOLD_START?$AA@ 3009c5f0     bg_panimate.obj
 0002:00003600       ??_C@_0BA@NKEMKFLI@BOTH_BUCK_RIDER?$AA@ 3009c600     bg_panimate.obj
 0002:00003610       ??_C@_0BF@HCPCIHAG@BOTH_PLAYER_PA_3_FLY?$AA@ 3009c610     bg_panimate.obj
 0002:00003628       ??_C@_0BB@KIHONIOP@BOTH_PLAYER_PA_3?$AA@ 3009c628     bg_panimate.obj
 0002:0000363c       ??_C@_0P@OMCEAAPC@BOTH_KYLE_PA_3?$AA@ 3009c63c     bg_panimate.obj
 0002:0000364c       ??_C@_0BD@BPPGNPKM@BOTH_PLAYER_PA_FLY?$AA@ 3009c64c     bg_panimate.obj
 0002:00003660       ??_C@_0BB@LBGFOJKO@BOTH_PLAYER_PA_2?$AA@ 3009c660     bg_panimate.obj
 0002:00003674       ??_C@_0P@PFDPDBLD@BOTH_KYLE_PA_2?$AA@ 3009c674     bg_panimate.obj
 0002:00003684       ??_C@_0BB@JKEILKGN@BOTH_PLAYER_PA_1?$AA@ 3009c684     bg_panimate.obj
 0002:00003698       ??_C@_0P@NOBCGCHA@BOTH_KYLE_PA_1?$AA@ 3009c698     bg_panimate.obj
 0002:000036a8       ??_C@_0P@NNAHOJON@BOTH_KYLE_MISS?$AA@ 3009c6a8     bg_panimate.obj
 0002:000036b8       ??_C@_0P@FMNEHFNM@BOTH_KYLE_GRAB?$AA@ 3009c6b8     bg_panimate.obj
 0002:000036c8       ??_C@_0BC@MELKBIFA@BOTH_SCEPTER_STOP?$AA@ 3009c6c8     bg_panimate.obj
 0002:000036dc       ??_C@_0BC@HIHKAHFB@BOTH_SCEPTER_HOLD?$AA@ 3009c6dc     bg_panimate.obj
 0002:000036f0       ??_C@_0BD@FGCDNAOB@BOTH_SCEPTER_START?$AA@ 3009c6f0     bg_panimate.obj
 0002:00003704       ??_C@_0BH@HFIAAKKL@BOTH_TAVION_SWORDPOWER?$AA@ 3009c704     bg_panimate.obj
 0002:0000371c       ??_C@_0BK@NBGHMOBL@BOTH_TAVION_SCEPTERGROUND?$AA@ 3009c71c     bg_panimate.obj
 0002:00003738       ??_C@_0P@ENOEHDDL@BOTH_ROSH_HEAL?$AA@ 3009c738     bg_panimate.obj
 0002:00003748       ??_C@_0P@KODDALBF@BOTH_ROSH_PAIN?$AA@ 3009c748     bg_panimate.obj
 0002:00003758       ??_C@_0BB@JJKGACDG@BOTH_ALORA_TAUNT?$AA@ 3009c758     bg_panimate.obj
 0002:0000376c       ??_C@_0BG@DCFBCKEL@BOTH_ALORA_SPIN_SLASH?$AA@ 3009c76c     bg_panimate.obj
 0002:00003784       ??_C@_0BG@EABOBAMI@BOTH_ALORA_SPIN_THROW?$AA@ 3009c784     bg_panimate.obj
 0002:0000379c       ??_C@_0BC@FIDADFOL@BOTH_ALORA_FLIP_B?$AA@ 3009c79c     bg_panimate.obj
 0002:000037b0       ??_C@_0BC@GOBEHNFM@BOTH_ALORA_FLIP_3?$AA@ 3009c7b0     bg_panimate.obj
 0002:000037c4       ??_C@_0BC@HHAPEMBN@BOTH_ALORA_FLIP_2?$AA@ 3009c7c4     bg_panimate.obj
 0002:000037d8       ??_C@_0BC@FMCCBPNO@BOTH_ALORA_FLIP_1?$AA@ 3009c7d8     bg_panimate.obj
 0002:000037ec       ??_C@_0BA@IMOMKPBA@BOTH_ALORA_SPIN?$AA@ 3009c7ec     bg_panimate.obj
 0002:000037fc       ??_C@_0N@NLKPNJAP@BOTH_A7_HILT?$AA@ 3009c7fc     bg_panimate.obj
 0002:0000380c       ??_C@_0L@PNLACCAF@BOTH_A6_LR?$AA@ 3009c80c     bg_panimate.obj
 0002:00003818       ??_C@_0L@LKOFLFIC@BOTH_A6_FB?$AA@ 3009c818     bg_panimate.obj
 0002:00003824       ??_C@_0BA@ECEJJOCF@BOTH_DUAL_TAUNT?$AA@ 3009c824     bg_panimate.obj
 0002:00003834       ??_C@_0BB@IIJAHOAM@BOTH_STAFF_TAUNT?$AA@ 3009c834     bg_panimate.obj
 0002:00003848       ??_C@_0BA@NPLLAIGE@BOTH_LOSE_SABER?$AA@ 3009c848     bg_panimate.obj
 0002:00003858       ??_C@_0BC@BJEPANJA@BOTH_BACK_FLIP_UP?$AA@ 3009c858     bg_panimate.obj
 0002:0000386c       ??_C@_0BD@HFLMOBFH@BOTH_BUTTERFLY_FL1?$AA@ 3009c86c     bg_panimate.obj
 0002:00003880       ??_C@_0BD@GDAEGPCN@BOTH_BUTTERFLY_FR1?$AA@ 3009c880     bg_panimate.obj
 0002:00003894       ??_C@_0O@HINNODAG@BOTH_ARIAL_F1?$AA@ 3009c894     bg_panimate.obj
 0002:000038a4       ??_C@_0N@PBBFIKGE@BOTH_BASHED1?$AA@ 3009c8a4     bg_panimate.obj
 0002:000038b4       ??_C@_0BM@ELFFAKLF@BOTH_DEFLECTSLASH__R__L_FIN?$AA@ 3009c8b4     bg_panimate.obj
 0002:000038d0       ??_C@_0BJ@PHBNOEEM@BOTH_RIGHTHANDCHOPPEDOFF?$AA@ 3009c8d0     bg_panimate.obj
 0002:000038ec       ??_C@_0BA@CDEAMOMG@BOTH_FJSS_TL_BR?$AA@ 3009c8ec     bg_panimate.obj
 0002:000038fc       ??_C@_0BA@CINBNIPK@BOTH_FJSS_TR_BL?$AA@ 3009c8fc     bg_panimate.obj
 0002:0000390c       ??_C@_0BC@GKKAPGJM@BOTH_CEILING_DROP?$AA@ 3009c90c     bg_panimate.obj
 0002:00003920       ??_C@_0BD@LHONGOKG@BOTH_CEILING_CLING?$AA@ 3009c920     bg_panimate.obj
 0002:00003934       ??_C@_0L@JNPKOHDB@BOTH_SPIN1?$AA@ 3009c934     bg_panimate.obj
 0002:00003940       ??_C@_0BF@ECAKIGBB@BOTH_WALL_FLIP_BACK2?$AA@ 3009c940     bg_panimate.obj
 0002:00003958       ??_C@_0BF@GJCHNFNC@BOTH_WALL_FLIP_BACK1?$AA@ 3009c958     bg_panimate.obj
 0002:00003970       ??_C@_0BD@EOHNHFLF@BOTH_GETUP_FROLL_R?$AA@ 3009c970     bg_panimate.obj
 0002:00003984       ??_C@_0BD@JKDMEKGK@BOTH_GETUP_FROLL_L?$AA@ 3009c984     bg_panimate.obj
 0002:00003998       ??_C@_0BD@GANDKCOA@BOTH_GETUP_FROLL_F?$AA@ 3009c998     bg_panimate.obj
 0002:000039ac       ??_C@_0BD@ELPGHOE@BOTH_GETUP_FROLL_B?$AA@ 3009c9ac     bg_panimate.obj
 0002:000039c0       ??_C@_0BD@MKDHHLEP@BOTH_GETUP_BROLL_R?$AA@ 3009c9c0     bg_panimate.obj
 0002:000039d4       ??_C@_0BD@BOHGEEJA@BOTH_GETUP_BROLL_L?$AA@ 3009c9d4     bg_panimate.obj
 0002:000039e8       ??_C@_0BD@OEJJKMBK@BOTH_GETUP_BROLL_F?$AA@ 3009c9e8     bg_panimate.obj
 0002:000039fc       ??_C@_0BD@IAPFGJBO@BOTH_GETUP_BROLL_B?$AA@ 3009c9fc     bg_panimate.obj
 0002:00003a10       ??_C@_0BE@FMMHDLNN@BOTH_FORCE_GETUP_B6?$AA@ 3009ca10     bg_panimate.obj
 0002:00003a24       ??_C@_0BE@HHOKGIBO@BOTH_FORCE_GETUP_B5?$AA@ 3009ca24     bg_panimate.obj
 0002:00003a38       ??_C@_0BE@GOPBFJFP@BOTH_FORCE_GETUP_B4?$AA@ 3009ca38     bg_panimate.obj
 0002:00003a4c       ??_C@_0BE@CBLAMPJI@BOTH_FORCE_GETUP_B3?$AA@ 3009ca4c     bg_panimate.obj
 0002:00003a60       ??_C@_0BE@DIKLPONJ@BOTH_FORCE_GETUP_B2?$AA@ 3009ca60     bg_panimate.obj
 0002:00003a74       ??_C@_0BE@BDIGKNBK@BOTH_FORCE_GETUP_B1?$AA@ 3009ca74     bg_panimate.obj
 0002:00003a88       ??_C@_0BE@DPKCFGAF@BOTH_FORCE_GETUP_F2?$AA@ 3009ca88     bg_panimate.obj
 0002:00003a9c       ??_C@_0BE@BEIPAFMG@BOTH_FORCE_GETUP_F1?$AA@ 3009ca9c     bg_panimate.obj
 0002:00003ab0       ??_C@_0BF@MJANPMOM@BOTH_GETUP_CROUCH_B1?$AA@ 3009cab0     bg_panimate.obj
 0002:00003ac8       ??_C@_0BF@MOAEFEDA@BOTH_GETUP_CROUCH_F1?$AA@ 3009cac8     bg_panimate.obj
 0002:00003ae0       ??_C@_0M@GFIFDBCE@BOTH_GETUP5?$AA@ 3009cae0     bg_panimate.obj
 0002:00003aec       ??_C@_0M@HMJOAAGF@BOTH_GETUP4?$AA@ 3009caec     bg_panimate.obj
 0002:00003af8       ??_C@_0M@DDNPJGKC@BOTH_GETUP3?$AA@ 3009caf8     bg_panimate.obj
 0002:00003b04       ??_C@_0M@CKMEKHOD@BOTH_GETUP2?$AA@ 3009cb04     bg_panimate.obj
 0002:00003b10       ??_C@_0M@BOJPECA@BOTH_GETUP1?$AA@ 3009cb10     bg_panimate.obj
 0002:00003b1c       ??_C@_0BA@OGIFEPII@BOTH_KNOCKDOWN5?$AA@ 3009cb1c     bg_panimate.obj
 0002:00003b2c       ??_C@_0BA@PPJOHOMJ@BOTH_KNOCKDOWN4?$AA@ 3009cb2c     bg_panimate.obj
 0002:00003b3c       ??_C@_0BA@LANPOIAO@BOTH_KNOCKDOWN3?$AA@ 3009cb3c     bg_panimate.obj
 0002:00003b4c       ??_C@_0BA@KJMENJEP@BOTH_KNOCKDOWN2?$AA@ 3009cb4c     bg_panimate.obj
 0002:00003b5c       ??_C@_0BA@ICOJIKIM@BOTH_KNOCKDOWN1?$AA@ 3009cb5c     bg_panimate.obj
 0002:00003b6c       ??_C@_0BE@ILAKMJOK@BOTH_WALL_FLIP_LEFT?$AA@ 3009cb6c     bg_panimate.obj
 0002:00003b80       ??_C@_0BF@MPCPCKGE@BOTH_WALL_FLIP_RIGHT?$AA@ 3009cb80     bg_panimate.obj
 0002:00003b98       ??_C@_0BI@ICEHPAIN@BOTH_WALL_RUN_LEFT_STOP?$AA@ 3009cb98     bg_panimate.obj
 0002:00003bb0       ??_C@_0BI@LLGHOLLN@BOTH_WALL_RUN_LEFT_FLIP?$AA@ 3009cbb0     bg_panimate.obj
 0002:00003bc8       ??_C@_0BD@FOKEEMMD@BOTH_WALL_RUN_LEFT?$AA@ 3009cbc8     bg_panimate.obj
 0002:00003bdc       ??_C@_0BJ@KEGEKGBP@BOTH_WALL_RUN_RIGHT_STOP?$AA@ 3009cbdc     bg_panimate.obj
 0002:00003bf8       ??_C@_0BJ@JNEELNCP@BOTH_WALL_RUN_RIGHT_FLIP?$AA@ 3009cbf8     bg_panimate.obj
 0002:00003c14       ??_C@_0BE@INEIBMIN@BOTH_WALL_RUN_RIGHT?$AA@ 3009cc14     bg_panimate.obj
 0002:00003c28       ??_C@_0BF@JMFKBIFE@BOTH_BUTTERFLY_RIGHT?$AA@ 3009cc28     bg_panimate.obj
 0002:00003c40       ??_C@_0BE@ENKLMJBI@BOTH_BUTTERFLY_LEFT?$AA@ 3009cc40     bg_panimate.obj
 0002:00003c54       ??_C@_0BA@NNNINNPE@BOTH_FLIP_BACK3?$AA@ 3009cc54     bg_panimate.obj
 0002:00003c64       ??_C@_0BA@MEMDOMLF@BOTH_FLIP_BACK2?$AA@ 3009cc64     bg_panimate.obj
 0002:00003c74       ??_C@_0BA@OPOOLPHG@BOTH_FLIP_BACK1?$AA@ 3009cc74     bg_panimate.obj
 0002:00003c84       ??_C@_0P@JBLCLJDK@BOTH_FLIP_LEFT?$AA@ 3009cc84     bg_panimate.obj
 0002:00003c94       ??_C@_0BF@NLFLOFGE@BOTH_CARTWHEEL_RIGHT?$AA@ 3009cc94     bg_panimate.obj
 0002:00003cac       ??_C@_0BE@POJJIGPG@BOTH_CARTWHEEL_LEFT?$AA@ 3009ccac     bg_panimate.obj
 0002:00003cc0       ??_C@_0BB@HOMELNKD@BOTH_ARIAL_RIGHT?$AA@ 3009ccc0     bg_panimate.obj
 0002:00003cd4       ??_C@_0BA@GLHECKNB@BOTH_ARIAL_LEFT?$AA@ 3009ccd4     bg_panimate.obj
 0002:00003ce4       ??_C@_0BD@JOGFDMEG@BOTH_VICTORY_STAFF?$AA@ 3009cce4     bg_panimate.obj
 0002:00003cf8       ??_C@_0BC@OIFMFNP@BOTH_VICTORY_DUAL?$AA@ 3009ccf8     bg_panimate.obj
 0002:00003d0c       ??_C@_0BE@HEECKLDL@BOTH_VICTORY_STRONG?$AA@ 3009cd0c     bg_panimate.obj
 0002:00003d20       ??_C@_0BE@KLHOAEHD@BOTH_VICTORY_MEDIUM?$AA@ 3009cd20     bg_panimate.obj
 0002:00003d34       ??_C@_0BC@DGIHLJDA@BOTH_VICTORY_FAST?$AA@ 3009cd34     bg_panimate.obj
 0002:00003d48       ??_C@_0BD@PAPJANE@BOTH_SHOWOFF_STAFF?$AA@ 3009cd48     bg_panimate.obj
 0002:00003d5c       ??_C@_0BC@EFMAJB@BOTH_SHOWOFF_DUAL?$AA@ 3009cd5c     bg_panimate.obj
 0002:00003d70       ??_C@_0BE@GKNCDDPP@BOTH_SHOWOFF_STRONG?$AA@ 3009cd70     bg_panimate.obj
 0002:00003d84       ??_C@_0BE@LFOOJMLH@BOTH_SHOWOFF_MEDIUM?$AA@ 3009cd84     bg_panimate.obj
 0002:00003d98       ??_C@_0BC@DIEHLMHO@BOTH_SHOWOFF_FAST?$AA@ 3009cd98     bg_panimate.obj
 0002:00003dac       ??_C@_0BC@DILNBIJM@BOTH_MEDITATE_END?$AA@ 3009cdac     bg_panimate.obj
 0002:00003dc0       ??_C@_0O@NBLEPMIO@BOTH_MEDITATE?$AA@ 3009cdc0     bg_panimate.obj
 0002:00003dd0       ??_C@_08CINMJMPG@BOTH_BOW?$AA@ 3009cdd0     bg_panimate.obj
 0002:00003ddc       ??_C@_0BB@EBJHHEMP@BOTH_ENGAGETAUNT?$AA@ 3009cddc     bg_panimate.obj
 0002:00003df0       ??_C@_0BC@GDJJMPG@BOTH_DODGE_HOLD_R?$AA@ 3009cdf0     bg_panimate.obj
 0002:00003e04       ??_C@_0BC@NCHIKDCJ@BOTH_DODGE_HOLD_L?$AA@ 3009ce04     bg_panimate.obj
 0002:00003e18       ??_C@_0BD@MAHDPCBD@BOTH_DODGE_HOLD_BR?$AA@ 3009ce18     bg_panimate.obj
 0002:00003e2c       ??_C@_0BD@BEDCMNMM@BOTH_DODGE_HOLD_BL?$AA@ 3009ce2c     bg_panimate.obj
 0002:00003e40       ??_C@_0BD@MHHKFKMP@BOTH_DODGE_HOLD_FR?$AA@ 3009ce40     bg_panimate.obj
 0002:00003e54       ??_C@_0BD@BDDLGFBA@BOTH_DODGE_HOLD_FL?$AA@ 3009ce54     bg_panimate.obj
 0002:00003e68       ??_C@_0N@KFGFCJLJ@BOTH_DODGE_R?$AA@ 3009ce68     bg_panimate.obj
 0002:00003e78       ??_C@_0N@HBCEBGGG@BOTH_DODGE_L?$AA@ 3009ce78     bg_panimate.obj
 0002:00003e88       ??_C@_0O@CGLDPCKH@BOTH_DODGE_BR?$AA@ 3009ce88     bg_panimate.obj
 0002:00003e98       ??_C@_0O@PCPCMNHI@BOTH_DODGE_BL?$AA@ 3009ce98     bg_panimate.obj
 0002:00003ea8       ??_C@_0O@CBLKFKHL@BOTH_DODGE_FR?$AA@ 3009cea8     bg_panimate.obj
 0002:00003eb8       ??_C@_0O@PFPLGFKE@BOTH_DODGE_FL?$AA@ 3009ceb8     bg_panimate.obj
 0002:00003ec8       ??_C@_0L@GIHOPMAM@BOTH_HOP_R?$AA@ 3009cec8     bg_panimate.obj
 0002:00003ed4       ??_C@_0L@LMDPMDND@BOTH_HOP_L?$AA@ 3009ced4     bg_panimate.obj
 0002:00003ee0       ??_C@_0L@CCLMOOFN@BOTH_HOP_B?$AA@ 3009cee0     bg_panimate.obj
 0002:00003eec       ??_C@_0L@EGNACLFJ@BOTH_HOP_F?$AA@ 3009ceec     bg_panimate.obj
 0002:00003ef8       ??_C@_0M@KNJJNPCA@BOTH_ROLL_R?$AA@ 3009cef8     bg_panimate.obj
 0002:00003f04       ??_C@_0M@HJNIOAPP@BOTH_ROLL_L?$AA@ 3009cf04     bg_panimate.obj
 0002:00003f10       ??_C@_0M@OHFLMNHB@BOTH_ROLL_B?$AA@ 3009cf10     bg_panimate.obj
 0002:00003f1c       ??_C@_0M@IDDHAIHF@BOTH_ROLL_F?$AA@ 3009cf1c     bg_panimate.obj
 0002:00003f28       ??_C@_0M@GKLDHCAE@BOTH_FLIP_R?$AA@ 3009cf28     bg_panimate.obj
 0002:00003f34       ??_C@_0M@LOPCENNL@BOTH_FLIP_L?$AA@ 3009cf34     bg_panimate.obj
 0002:00003f40       ??_C@_0M@CAHBGAFF@BOTH_FLIP_B?$AA@ 3009cf40     bg_panimate.obj
 0002:00003f4c       ??_C@_0M@EEBNKFFB@BOTH_FLIP_F?$AA@ 3009cf4c     bg_panimate.obj
 0002:00003f58       ??_C@_0BF@GPIHFNCP@BOTH_FORCELANDRIGHT1?$AA@ 3009cf58     bg_panimate.obj
 0002:00003f70       ??_C@_0BG@OPKMFNMD@BOTH_FORCEINAIRRIGHT1?$AA@ 3009cf70     bg_panimate.obj
 0002:00003f88       ??_C@_0BF@GIALLFOK@BOTH_FORCEJUMPRIGHT1?$AA@ 3009cf88     bg_panimate.obj
 0002:00003fa0       ??_C@_0BE@CPNCOCJF@BOTH_FORCELANDLEFT1?$AA@ 3009cfa0     bg_panimate.obj
 0002:00003fb4       ??_C@_0BF@GBLFMFAA@BOTH_FORCEINAIRLEFT1?$AA@ 3009cfb4     bg_panimate.obj
 0002:00003fcc       ??_C@_0BE@MOPODOJB@BOTH_FORCEJUMPLEFT1?$AA@ 3009cfcc     bg_panimate.obj
 0002:00003fe0       ??_C@_0BE@MAPMDBFK@BOTH_FORCELANDBACK1?$AA@ 3009cfe0     bg_panimate.obj
 0002:00003ff4       ??_C@_0BF@IOJLBGMP@BOTH_FORCEINAIRBACK1?$AA@ 3009cff4     bg_panimate.obj
 0002:0000400c       ??_C@_0BE@CBNAONFO@BOTH_FORCEJUMPBACK1?$AA@ 3009d00c     bg_panimate.obj
 0002:00004020       ??_C@_0BA@NIOKNDAB@BOTH_FORCELAND1?$AA@ 3009d020     bg_panimate.obj
 0002:00004030       ??_C@_0BB@CIEHHKPA@BOTH_FORCEINAIR1?$AA@ 3009d030     bg_panimate.obj
 0002:00004044       ??_C@_0BA@JCEJKFBM@BOTH_FORCEJUMP1?$AA@ 3009d044     bg_panimate.obj
 0002:00004054       ??_C@_0BA@CAAEDJLF@BOTH_LANDRIGHT1?$AA@ 3009d054     bg_panimate.obj
 0002:00004064       ??_C@_0BB@PPDJKEPN@BOTH_INAIRRIGHT1?$AA@ 3009d064     bg_panimate.obj
 0002:00004078       ??_C@_0BA@CHIINBHA@BOTH_JUMPRIGHT1?$AA@ 3009d078     bg_panimate.obj
 0002:00004088       ??_C@_0P@HDEECKDG@BOTH_LANDLEFT1?$AA@ 3009d088     bg_panimate.obj
 0002:00004098       ??_C@_0BA@CODGKBJK@BOTH_INAIRLEFT1?$AA@ 3009d098     bg_panimate.obj
 0002:000040a8       ??_C@_0P@JCGIPGDC@BOTH_JUMPLEFT1?$AA@ 3009d0a8     bg_panimate.obj
 0002:000040b8       ??_C@_0P@JMGKPJPJ@BOTH_LANDBACK1?$AA@ 3009d0b8     bg_panimate.obj
 0002:000040c8       ??_C@_0BA@MBBIHCFF@BOTH_INAIRBACK1?$AA@ 3009d0c8     bg_panimate.obj
 0002:000040d8       ??_C@_0P@HNEGCFPN@BOTH_JUMPBACK1?$AA@ 3009d0d8     bg_panimate.obj
 0002:000040e8       ??_C@_0L@IJJHAHOB@BOTH_LAND2?$AA@ 3009d0e8     bg_panimate.obj
 0002:000040f4       ??_C@_0L@KCLKFECC@BOTH_LAND1?$AA@ 3009d0f4     bg_panimate.obj
 0002:00004100       ??_C@_0M@IKFKFLAF@BOTH_INAIR1?$AA@ 3009d100     bg_panimate.obj
 0002:0000410c       ??_C@_0L@OIBJCCDP@BOTH_JUMP1?$AA@ 3009d10c     bg_panimate.obj
 0002:00004118       ??_C@_0O@GFMMDEIN@BOTH_RUNBACK2?$AA@ 3009d118     bg_panimate.obj
 0002:00004128       ??_C@_0O@EOOBGHEO@BOTH_RUNBACK1?$AA@ 3009d128     bg_panimate.obj
 0002:00004138       ??_C@_0P@NMGEKHLB@BOTH_WALKBACK2?$AA@ 3009d138     bg_panimate.obj
 0002:00004148       ??_C@_0P@PHEJPEHC@BOTH_WALKBACK1?$AA@ 3009d148     bg_panimate.obj
 0002:00004158       ??_C@_0BB@PGPEJHBN@BOTH_TURNCROUCH1?$AA@ 3009d158     bg_panimate.obj
 0002:0000416c       ??_C@_0BA@KBOEGPN@BOTH_TURNSTAND5?$AA@ 3009d16c     bg_panimate.obj
 0002:0000417c       ??_C@_0BA@BDAFHHLM@BOTH_TURNSTAND4?$AA@ 3009d17c     bg_panimate.obj
 0002:0000418c       ??_C@_0BA@FMEEOBHL@BOTH_TURNSTAND3?$AA@ 3009d18c     bg_panimate.obj
 0002:0000419c       ??_C@_0BA@EFFPNADK@BOTH_TURNSTAND2?$AA@ 3009d19c     bg_panimate.obj
 0002:000041ac       ??_C@_0BA@GOHCIDPJ@BOTH_TURNSTAND1?$AA@ 3009d1ac     bg_panimate.obj
 0002:000041bc       ??_C@_0BB@NDKEEJJD@BOTH_TURN_RIGHT1?$AA@ 3009d1bc     bg_panimate.obj
 0002:000041d0       ??_C@_0BA@GKEFEECE@BOTH_TURN_LEFT1?$AA@ 3009d1d0     bg_panimate.obj
 0002:000041e0       ??_C@_0BG@OGEKFCND@BOTH_RUNSTRAFE_RIGHT1?$AA@ 3009d1e0     bg_panimate.obj
 0002:000041f8       ??_C@_0BF@DBPGPOAM@BOTH_RUNSTRAFE_LEFT1?$AA@ 3009d1f8     bg_panimate.obj
 0002:00004210       ??_C@_0BD@LFCECKKK@BOTH_STRAFE_RIGHT1?$AA@ 3009d210     bg_panimate.obj
 0002:00004224       ??_C@_0BC@OMBNLHPO@BOTH_STRAFE_LEFT1?$AA@ 3009d224     bg_panimate.obj
 0002:00004238       ??_C@_0BC@KOJINEFM@BOTH_RUNBACK_DUAL?$AA@ 3009d238     bg_panimate.obj
 0002:0000424c       ??_C@_0O@NLDNHDFF@BOTH_RUN_DUAL?$AA@ 3009d24c     bg_panimate.obj
 0002:0000425c       ??_C@_0BD@OKHEPDMN@BOTH_RUNBACK_STAFF?$AA@ 3009d25c     bg_panimate.obj
 0002:00004270       ??_C@_0P@JDNNOOMO@BOTH_RUN_STAFF?$AA@ 3009d270     bg_panimate.obj
 0002:00004280       ??_C@_09KDGPMAME@BOTH_RUN4?$AA@ 3009d280     bg_panimate.obj
 0002:0000428c       ??_C@_0BA@DGLFAIMM@BOTH_RUN2TORUN1?$AA@ 3009d28c     bg_panimate.obj
 0002:0000429c       ??_C@_0BA@JDBHFMOM@BOTH_RUN1TORUN2?$AA@ 3009d29c     bg_panimate.obj
 0002:000042ac       ??_C@_09PFDFGHEC@BOTH_RUN2?$AA@ 3009d2ac     bg_panimate.obj
 0002:000042b8       ??_C@_0O@GPFGEBNP@BOTH_RUN1STOP?$AA@ 3009d2b8     bg_panimate.obj
 0002:000042c8       ??_C@_0P@CLIPKCAJ@BOTH_RUN1START?$AA@ 3009d2c8     bg_panimate.obj
 0002:000042d8       ??_C@_09NOBIDEIB@BOTH_RUN1?$AA@ 3009d2d8     bg_panimate.obj
 0002:000042e4       ??_C@_0L@DMKEIOEK@BOTH_WALK7?$AA@ 3009d2e4     bg_panimate.obj
 0002:000042f0       ??_C@_0L@CFLPLPAL@BOTH_WALK6?$AA@ 3009d2f0     bg_panimate.obj
 0002:000042fc       ??_C@_0L@OJCOMMI@BOTH_WALK5?$AA@ 3009d2fc     bg_panimate.obj
 0002:00004308       ??_C@_0BD@DPFDKICF@BOTH_WALKBACK_DUAL?$AA@ 3009d308     bg_panimate.obj
 0002:0000431c       ??_C@_0P@GCJFOAGJ@BOTH_WALK_DUAL?$AA@ 3009d31c     bg_panimate.obj
 0002:0000432c       ??_C@_0BE@MDDMPBCJ@BOTH_WALKBACK_STAFF?$AA@ 3009d32c     bg_panimate.obj
 0002:00004340       ??_C@_0BA@LMALDKNK@BOTH_WALK_STAFF?$AA@ 3009d340     bg_panimate.obj
 0002:00004350       ??_C@_0L@EBNDHKAP@BOTH_WALK2?$AA@ 3009d350     bg_panimate.obj
 0002:0000435c       ??_C@_0L@GKPOCJMM@BOTH_WALK1?$AA@ 3009d35c     bg_panimate.obj
 0002:00004368       ??_C@_0P@OGCNLGGI@BOTH_KNEES2TO1?$AA@ 3009d368     bg_panimate.obj
 0002:00004378       ??_C@_0M@IIHMGKKA@BOTH_KNEES2?$AA@ 3009d378     bg_panimate.obj
 0002:00004384       ??_C@_0M@KDFBDJGD@BOTH_KNEES1?$AA@ 3009d384     bg_panimate.obj
 0002:00004390       ??_C@_0BD@FOKLKMPB@BOTH_DEATH14_SITUP?$AA@ 3009d390     bg_panimate.obj
 0002:000043a4       ??_C@_0BE@KHOKHMOE@BOTH_DEATH14_UNGRIP?$AA@ 3009d3a4     bg_panimate.obj
 0002:000043b8       ??_C@_0BB@KCBPOOGE@BOTH_WINGS_CLOSE?$AA@ 3009d3b8     bg_panimate.obj
 0002:000043cc       ??_C@_0BA@FDONEPNA@BOTH_WINGS_OPEN?$AA@ 3009d3cc     bg_panimate.obj
 0002:000043dc       ??_C@_0BB@LDEBMNOM@BOTH_GEARS_CLOSE?$AA@ 3009d3dc     bg_panimate.obj
 0002:000043f0       ??_C@_0BA@MMFJLAL@BOTH_GEARS_OPEN?$AA@ 3009d3f0     bg_panimate.obj
 0002:00004400       ??_C@_0O@GFAOOOBE@BOTH_VT_ATF_G?$AA@ 3009d400     bg_panimate.obj
 0002:00004410       ??_C@_0O@KLDAOHA@BOTH_VT_ATL_G?$AA@ 3009d410     bg_panimate.obj
 0002:00004420       ??_C@_0O@LKHFCONM@BOTH_VT_ATR_G?$AA@ 3009d420     bg_panimate.obj
 0002:00004430       ??_C@_0BD@KBPDPJPM@BOTH_VT_ATL_TO_R_S?$AA@ 3009d430     bg_panimate.obj
 0002:00004444       ??_C@_0BD@HFDHEALD@BOTH_VT_ATR_TO_L_S?$AA@ 3009d444     bg_panimate.obj
 0002:00004458       ??_C@_0O@JENLPJIJ@BOTH_VT_ATR_S?$AA@ 3009d458     bg_panimate.obj
 0002:00004468       ??_C@_0O@CEBNNJCF@BOTH_VT_ATL_S?$AA@ 3009d468     bg_panimate.obj
 0002:00004478       ??_C@_0P@JDHAFDKN@BOTH_VT_IDLE_T?$AA@ 3009d478     bg_panimate.obj
 0002:00004488       ??_C@_0P@PCJPBCDP@BOTH_VT_IDLE_G?$AA@ 3009d488     bg_panimate.obj
 0002:00004498       ??_C@_0P@NMDBMFGK@BOTH_VT_IDLE_S?$AA@ 3009d498     bg_panimate.obj
 0002:000044a8       ??_C@_0O@OONEODEJ@BOTH_VT_IDLE1?$AA@ 3009d4a8     bg_panimate.obj
 0002:000044b8       ??_C@_0N@ILFMGFDI@BOTH_VT_IDLE?$AA@ 3009d4b8     bg_panimate.obj
 0002:000044c8       ??_C@_0BA@CFDGIGFF@BOTH_VT_IDLE_SR?$AA@ 3009d4c8     bg_panimate.obj
 0002:000044d8       ??_C@_0BA@PBHHLJIK@BOTH_VT_IDLE_SL?$AA@ 3009d4d8     bg_panimate.obj
 0002:000044e8       ??_C@_0O@ICJCOGP@BOTH_VT_TURBO?$AA@ 3009d4e8     bg_panimate.obj
 0002:000044f8       ??_C@_0N@GOPNPPFF@BOTH_VT_LAND?$AA@ 3009d4f8     bg_panimate.obj
 0002:00004508       ??_C@_0N@IBPGAOGA@BOTH_VT_BUCK?$AA@ 3009d508     bg_panimate.obj
 0002:00004518       ??_C@_0O@IAAOOPLJ@BOTH_VT_STAND?$AA@ 3009d518     bg_panimate.obj
 0002:00004528       ??_C@_0P@CICNDPJE@BOTH_VT_DEATH1?$AA@ 3009d528     bg_panimate.obj
 0002:00004538       ??_C@_0O@DJGGCALJ@BOTH_VT_PAIN1?$AA@ 3009d538     bg_panimate.obj
 0002:00004548       ??_C@_0M@KDHKMBFE@BOTH_VT_ATB?$AA@ 3009d548     bg_panimate.obj
 0002:00004554       ??_C@_0M@PNEGODCG@BOTH_VT_AIR?$AA@ 3009d554     bg_panimate.obj
 0002:00004560       ??_C@_0P@KFJEKMCA@BOTH_VT_SLIDEF?$AA@ 3009d560     bg_panimate.obj
 0002:00004570       ??_C@_0BC@GNCPOJGJ@BOTH_VT_RUN_FWD_R?$AA@ 3009d570     bg_panimate.obj
 0002:00004584       ??_C@_0BC@LJGONGLG@BOTH_VT_RUN_FWD_L?$AA@ 3009d584     bg_panimate.obj
 0002:00004598       ??_C@_0BA@CMHLNAGB@BOTH_VT_RUN_REV?$AA@ 3009d598     bg_panimate.obj
 0002:000045a8       ??_C@_0BA@JEFGBHGE@BOTH_VT_RUN_FWD?$AA@ 3009d5a8     bg_panimate.obj
 0002:000045b8       ??_C@_0BD@KHNHPFPI@BOTH_VT_WALK_FWD_R?$AA@ 3009d5b8     bg_panimate.obj
 0002:000045cc       ??_C@_0BD@HDJGMKCH@BOTH_VT_WALK_FWD_L?$AA@ 3009d5cc     bg_panimate.obj
 0002:000045e0       ??_C@_0BB@EAPIENEI@BOTH_VT_WALK_REV?$AA@ 3009d5e0     bg_panimate.obj
 0002:000045f4       ??_C@_0BB@PINFIKEN@BOTH_VT_WALK_FWD?$AA@ 3009d5f4     bg_panimate.obj
 0002:00004608       ??_C@_0BD@OJHHNNHG@BOTH_VT_DISMOUNT_R?$AA@ 3009d608     bg_panimate.obj
 0002:0000461c       ??_C@_0BD@DNDGOCKJ@BOTH_VT_DISMOUNT_L?$AA@ 3009d61c     bg_panimate.obj
 0002:00004630       ??_C@_0BB@ICMLAFCL@BOTH_VT_DISMOUNT?$AA@ 3009d630     bg_panimate.obj
 0002:00004644       ??_C@_0BA@GEKLNCCD@BOTH_VT_MOUNT_B?$AA@ 3009d644     bg_panimate.obj
 0002:00004654       ??_C@_0BA@COGJMAHC@BOTH_VT_MOUNT_R?$AA@ 3009d654     bg_panimate.obj
 0002:00004664       ??_C@_0BA@PKCIPPKN@BOTH_VT_MOUNT_L?$AA@ 3009d664     bg_panimate.obj
 0002:00004674       ??_C@_0O@DDKDCJKA@BOTH_VS_PAIN1?$AA@ 3009d674     bg_panimate.obj
 0002:00004684       ??_C@_0O@GPMLOHAN@BOTH_VS_ATF_G?$AA@ 3009d684     bg_panimate.obj
 0002:00004694       ??_C@_0O@HGAHGJ@BOTH_VS_ATL_G?$AA@ 3009d694     bg_panimate.obj
 0002:000046a4       ??_C@_0O@LALACHMF@BOTH_VS_ATR_G?$AA@ 3009d6a4     bg_panimate.obj
 0002:000046b4       ??_C@_0BD@NMIAPPKE@BOTH_VS_ATL_TO_R_S?$AA@ 3009d6b4     bg_panimate.obj
 0002:000046c8       ??_C@_0BD@IEEEGOL@BOTH_VS_ATR_TO_L_S?$AA@ 3009d6c8     bg_panimate.obj
 0002:000046dc       ??_C@_0O@JOBOPAJA@BOTH_VS_ATR_S?$AA@ 3009d6dc     bg_panimate.obj
 0002:000046ec       ??_C@_0O@CONINADM@BOTH_VS_ATL_S?$AA@ 3009d6ec     bg_panimate.obj
 0002:000046fc       ??_C@_0BB@IEDLHMEE@BOTH_VS_LEANR_SR?$AA@ 3009d6fc     bg_panimate.obj
 0002:00004710       ??_C@_0BB@FAHKEDJL@BOTH_VS_LEANR_SL?$AA@ 3009d710     bg_panimate.obj
 0002:00004724       ??_C@_0BA@COPGHNJO@BOTH_VS_LEANR_G?$AA@ 3009d724     bg_panimate.obj
 0002:00004734       ??_C@_0O@DJFDFNAL@BOTH_VS_LEANR?$AA@ 3009d734     bg_panimate.obj
 0002:00004744       ??_C@_0BB@FLOLFFKH@BOTH_VS_LEANL_SR?$AA@ 3009d744     bg_panimate.obj
 0002:00004758       ??_C@_0BB@IPKKGKHI@BOTH_VS_LEANL_SL?$AA@ 3009d758     bg_panimate.obj
 0002:0000476c       ??_C@_0BA@JODAFNDC@BOTH_VS_LEANL_G?$AA@ 3009d76c     bg_panimate.obj
 0002:0000477c       ??_C@_0O@ONBCGCNE@BOTH_VS_LEANL?$AA@ 3009d77c     bg_panimate.obj
 0002:0000478c       ??_C@_0BA@MHOKJNCM@BOTH_VS_IDLE_SR?$AA@ 3009d78c     bg_panimate.obj
 0002:0000479c       ??_C@_0BA@BDKLKCPD@BOTH_VS_IDLE_SL?$AA@ 3009d79c     bg_panimate.obj
 0002:000047ac       ??_C@_0P@JGPOHPPG@BOTH_VS_IDLE_G?$AA@ 3009d7ac     bg_panimate.obj
 0002:000047bc       ??_C@_0N@EOPLFLLG@BOTH_VS_IDLE?$AA@ 3009d7bc     bg_panimate.obj
 0002:000047cc       ??_C@_0BA@KNJKDEFE@BOTH_VS_LAND_SR?$AA@ 3009d7cc     bg_panimate.obj
 0002:000047dc       ??_C@_0BA@HJNLALIL@BOTH_VS_LAND_SL?$AA@ 3009d7dc     bg_panimate.obj
 0002:000047ec       ??_C@_0P@FGHHPFOH@BOTH_VS_LAND_G?$AA@ 3009d7ec     bg_panimate.obj
 0002:000047fc       ??_C@_0N@KLFKMBNL@BOTH_VS_LAND?$AA@ 3009d7fc     bg_panimate.obj
 0002:0000480c       ??_C@_0P@MHFEKDCH@BOTH_VS_AIR_SR?$AA@ 3009d80c     bg_panimate.obj
 0002:0000481c       ??_C@_0P@BDBFJMPI@BOTH_VS_AIR_SL?$AA@ 3009d81c     bg_panimate.obj
 0002:0000482c       ??_C@_0O@CIMAHEPG@BOTH_VS_AIR_G?$AA@ 3009d82c     bg_panimate.obj
 0002:0000483c       ??_C@_0M@OAEDNDJO@BOTH_VS_AIR?$AA@ 3009d83c     bg_panimate.obj
 0002:00004848       ??_C@_0M@MPJJBHIP@BOTH_VS_REV?$AA@ 3009d848     bg_panimate.obj
 0002:00004854       ??_C@_0O@COMCHHG@BOTH_VS_TURBO?$AA@ 3009d854     bg_panimate.obj
 0002:00004864       ??_C@_0BC@FMBEBFOC@BOTH_VS_LOOKRIGHT?$AA@ 3009d864     bg_panimate.obj
 0002:00004878       ??_C@_0BB@LJMKNCGH@BOTH_VS_LOOKLEFT?$AA@ 3009d878     bg_panimate.obj
 0002:0000488c       ??_C@_0BF@IKPLNBPC@BOTH_VS_MOUNTTHROWEE?$AA@ 3009d88c     bg_panimate.obj
 0002:000048a4       ??_C@_0BF@JOMJHDMC@BOTH_VS_MOUNTTHROW_R?$AA@ 3009d8a4     bg_panimate.obj
 0002:000048bc       ??_C@_0BF@EKIIEMBN@BOTH_VS_MOUNTTHROW_L?$AA@ 3009d8bc     bg_panimate.obj
 0002:000048d4       ??_C@_0BD@HKDNANFN@BOTH_VS_MOUNTTHROW?$AA@ 3009d8d4     bg_panimate.obj
 0002:000048e8       ??_C@_0BE@CFBMPALJ@BOTH_VS_MOUNTJUMP_L?$AA@ 3009d8e8     bg_panimate.obj
 0002:000048fc       ??_C@_0BD@JEAENLCO@BOTH_VS_DISMOUNT_R?$AA@ 3009d8fc     bg_panimate.obj
 0002:00004910       ??_C@_0BA@MMLFNLAL@BOTH_VS_MOUNT_R?$AA@ 3009d910     bg_panimate.obj
 0002:00004920       ??_C@_0BD@EAEFOEPB@BOTH_VS_DISMOUNT_L?$AA@ 3009d920     bg_panimate.obj
 0002:00004934       ??_C@_0BA@BIPEOENE@BOTH_VS_MOUNT_L?$AA@ 3009d934     bg_panimate.obj
 0002:00004944       ??_C@_0N@NEOMJHMD@BOTH_GUNSIT1?$AA@ 3009d944     bg_panimate.obj
 0002:00004954       ??_C@_0P@FBKMEIKP@BOTH_UNCROUCH4?$AA@ 3009d954     bg_panimate.obj
 0002:00004964       ??_C@_0N@NGOLMPIH@BOTH_CROUCH4?$AA@ 3009d964     bg_panimate.obj
 0002:00004974       ??_C@_0P@BOONNOGI@BOTH_UNCROUCH3?$AA@ 3009d974     bg_panimate.obj
 0002:00004984       ??_C@_0N@JJKKFJEA@BOTH_CROUCH3?$AA@ 3009d984     bg_panimate.obj
 0002:00004994       ??_C@_0BF@OBDEHHPH@BOTH_CROUCH2TOSTAND1?$AA@ 3009d994     bg_panimate.obj
 0002:000049ac       ??_C@_0P@CMNLLMOK@BOTH_UNCROUCH1?$AA@ 3009d9ac     bg_panimate.obj
 0002:000049bc       ??_C@_0BF@IKEOFDBF@BOTH_CROUCH1WALKBACK?$AA@ 3009d9bc     bg_panimate.obj
 0002:000049d4       ??_C@_0BB@KLBMFNGD@BOTH_CROUCH1WALK?$AA@ 3009d9d4     bg_panimate.obj
 0002:000049e8       ??_C@_0BB@NNJBKJDM@BOTH_CROUCH1IDLE?$AA@ 3009d9e8     bg_panimate.obj
 0002:000049fc       ??_C@_0N@KLJMDLMC@BOTH_CROUCH1?$AA@ 3009d9fc     bg_panimate.obj
 0002:00004a0c       ??_C@_0BC@BHAOLAOM@BOTH_SIT3TOSTAND5?$AA@ 3009da0c     bg_panimate.obj
 0002:00004a20       ??_C@_0BA@LICOGNPB@BOTH_SIT2TOSIT4?$AA@ 3009da20     bg_panimate.obj
 0002:00004a30       ??_C@_0BC@LANJPAEM@BOTH_STAND5TOSIT2?$AA@ 3009da30     bg_panimate.obj
 0002:00004a44       ??_C@_0BC@PIMMNLNC@BOTH_SIT2TOSTAND5?$AA@ 3009da44     bg_panimate.obj
 0002:00004a58       ??_C@_09NKDALBDC@BOTH_SIT3?$AA@ 3009da58     bg_panimate.obj
 0002:00004a64       ??_C@_09MDCLIAHD@BOTH_SIT2?$AA@ 3009da64     bg_panimate.obj
 0002:00004a70       ??_C@_09OIAGNDLA@BOTH_SIT1?$AA@ 3009da70     bg_panimate.obj
 0002:00004a7c       ??_C@_0BF@IPAEPPNA@BOTH_SABERTHROW2STOP?$AA@ 3009da7c     bg_panimate.obj
 0002:00004a94       ??_C@_0BG@LLNAONCG@BOTH_SABERTHROW2START?$AA@ 3009da94     bg_panimate.obj
 0002:00004aac       ??_C@_0BF@JJAINHO@BOTH_SABERTHROW1STOP?$AA@ 3009daac     bg_panimate.obj
 0002:00004ac4       ??_C@_0BG@IKDIPHLL@BOTH_SABERTHROW1START?$AA@ 3009dac4     bg_panimate.obj
 0002:00004adc       ??_C@_0BB@OHEDMGHA@BOTH_HUGGEESTOP1?$AA@ 3009dadc     bg_panimate.obj
 0002:00004af0       ??_C@_0N@OIJBJDBK@BOTH_HUGGEE1?$AA@ 3009daf0     bg_panimate.obj
 0002:00004b00       ??_C@_0BB@EFDKGEDA@BOTH_HUGGERSTOP1?$AA@ 3009db00     bg_panimate.obj
 0002:00004b14       ??_C@_0N@PBPICGOP@BOTH_HUGGER1?$AA@ 3009db14     bg_panimate.obj
 0002:00004b24       ??_C@_0BC@DNFCOFMA@BOTH_SABERKILLEE1?$AA@ 3009db24     bg_panimate.obj
 0002:00004b38       ??_C@_0BC@CEDLFADF@BOTH_SABERKILLER1?$AA@ 3009db38     bg_panimate.obj
 0002:00004b4c       ??_C@_0BE@LPKJJENM@BOTH_REACHFORSABER1?$AA@ 3009db4c     bg_panimate.obj
 0002:00004b60       ??_C@_0BF@HGBIDKLM@BOTH_SILENCEGESTURE1?$AA@ 3009db60     bg_panimate.obj
 0002:00004b78       ??_C@_0BE@EEMNDGPF@BOTH_STEADYSELF1END?$AA@ 3009db78     bg_panimate.obj
 0002:00004b8c       ??_C@_0BB@BHOCMBMP@BOTH_STEADYSELF1?$AA@ 3009db8c     bg_panimate.obj
 0002:00004ba0       ??_C@_0O@KHABGCAK@BOTH_COME_ON1?$AA@ 3009dba0     bg_panimate.obj
 0002:00004bb0       ??_C@_0BA@MHPGDDPE@BOTH_REACH1STOP?$AA@ 3009dbb0     bg_panimate.obj
 0002:00004bc0       ??_C@_0BB@IHJLPLDL@BOTH_REACH1START?$AA@ 3009dbc0     bg_panimate.obj
 0002:00004bd4       ??_C@_0BH@KHIEGBCO@BOTH_SIT2HEADTILTLSTOP?$AA@ 3009dbd4     bg_panimate.obj
 0002:00004bec       ??_C@_0BI@OBPNLCKD@BOTH_SIT2HEADTILTLSTART?$AA@ 3009dbec     bg_panimate.obj
 0002:00004c04       ??_C@_0P@DFINNNBF@BOTH_HEADSHAKE?$AA@ 3009dc04     bg_panimate.obj
 0002:00004c14       ??_C@_0N@JGGIBJHN@BOTH_HEADNOD?$AA@ 3009dc14     bg_panimate.obj
 0002:00004c24       ??_C@_0BD@CBEOFNED@BOTH_HEADTILTRSTOP?$AA@ 3009dc24     bg_panimate.obj
 0002:00004c38       ??_C@_0BE@NCHIGFHK@BOTH_HEADTILTRSTART?$AA@ 3009dc38     bg_panimate.obj
 0002:00004c4c       ??_C@_0BD@BIJCDOKI@BOTH_HEADTILTLSTOP?$AA@ 3009dc4c     bg_panimate.obj
 0002:00004c60       ??_C@_0BE@OFJJICOJ@BOTH_HEADTILTLSTART?$AA@ 3009dc60     bg_panimate.obj
 0002:00004c74       ??_C@_0BC@HDFGDEIC@BOTH_TALKGESTURE1?$AA@ 3009dc74     bg_panimate.obj
 0002:00004c88       ??_C@_0BD@KGADCINA@BOTH_TALKCOMM1STOP?$AA@ 3009dc88     bg_panimate.obj
 0002:00004c9c       ??_C@_0P@IMEACJDE@BOTH_TALKCOMM1?$AA@ 3009dc9c     bg_panimate.obj
 0002:00004cac       ??_C@_0BE@LLPJOKPB@BOTH_TALKCOMM1START?$AA@ 3009dcac     bg_panimate.obj
 0002:00004cc0       ??_C@_0L@MHEHAIKB@BOTH_TALK2?$AA@ 3009dcc0     bg_panimate.obj
 0002:00004ccc       ??_C@_0L@OMGKFLGC@BOTH_TALK1?$AA@ 3009dccc     bg_panimate.obj
 0002:00004cd8       ??_C@_0BE@OAMCANFF@BOTH_WALK1TALKCOMM1?$AA@ 3009dcd8     bg_panimate.obj
 0002:00004cec       ??_C@_0O@FLPNDCKC@BOTH_GESTURE2?$AA@ 3009dcec     bg_panimate.obj
 0002:00004cfc       ??_C@_0O@HANAGBGB@BOTH_GESTURE1?$AA@ 3009dcfc     bg_panimate.obj
 0002:00004d0c       ??_C@_0BB@LLGPJFGM@BOTH_GUARD_IDLE1?$AA@ 3009dd0c     bg_panimate.obj
 0002:00004d20       ??_C@_0BH@IIALJNIM@BOTH_GUARD_LOOKAROUND1?$AA@ 3009dd20     bg_panimate.obj
 0002:00004d38       ??_C@_0BJ@PHBEHMKF@BOTH_CONSOLE2HOLDCOMSTOP?$AA@ 3009dd38     bg_panimate.obj
 0002:00004d54       ??_C@_0BK@JLMHHIBG@BOTH_CONSOLE2HOLDCOMSTART?$AA@ 3009dd54     bg_panimate.obj
 0002:00004d70       ??_C@_0BC@JKGILGAP@BOTH_CONSOLE2STOP?$AA@ 3009dd70     bg_panimate.obj
 0002:00004d84       ??_C@_0O@BGELBNFP@BOTH_CONSOLE2?$AA@ 3009dd84     bg_panimate.obj
 0002:00004d94       ??_C@_0BD@KNKJEOCK@BOTH_CONSOLE2START?$AA@ 3009dd94     bg_panimate.obj
 0002:00004da8       ??_C@_0BC@BMPMMEKB@BOTH_CONSOLE1STOP?$AA@ 3009dda8     bg_panimate.obj
 0002:00004dbc       ??_C@_0O@DNGGEOJM@BOTH_CONSOLE1?$AA@ 3009ddbc     bg_panimate.obj
 0002:00004dcc       ??_C@_0BD@JMEBFELH@BOTH_CONSOLE1START?$AA@ 3009ddcc     bg_panimate.obj
 0002:00004de0       ??_C@_0BL@HDGAEFLK@BOTH_STAND5LOOK180LEFTSTOP?$AA@ 3009dde0     bg_panimate.obj
 0002:00004dfc       ??_C@_0BM@BGELABNK@BOTH_STAND5LOOK180LEFTSTART?$AA@ 3009ddfc     bg_panimate.obj
 0002:00004e18       ??_C@_0BJ@HFICOBLF@BOTH_STAND5TURNRIGHTSTOP?$AA@ 3009de18     bg_panimate.obj
 0002:00004e34       ??_C@_0BK@IGPCPOOP@BOTH_STAND5TURNRIGHTSTART?$AA@ 3009de34     bg_panimate.obj
 0002:00004e50       ??_C@_0BI@JADJJLGI@BOTH_STAND5TURNLEFTSTOP?$AA@ 3009de50     bg_panimate.obj
 0002:00004e68       ??_C@_0BJ@HOHFOLPM@BOTH_STAND5TURNLEFTSTART?$AA@ 3009de68     bg_panimate.obj
 0002:00004e84       ??_C@_0BL@EHCDGJJ@BOTH_STAND5SHIFTWEIGHTSTOP?$AA@ 3009de84     bg_panimate.obj
 0002:00004ea0       ??_C@_0BM@LEFLGCNL@BOTH_STAND5SHIFTWEIGHTSTART?$AA@ 3009dea0     bg_panimate.obj
 0002:00004ebc       ??_C@_0BH@LKALMHBN@BOTH_STAND5SHIFTWEIGHT?$AA@ 3009debc     bg_panimate.obj
 0002:00004ed4       ??_C@_0BB@NHGNFEJF@BOTH_STAND9IDLE1?$AA@ 3009ded4     bg_panimate.obj
 0002:00004ee8       ??_C@_0M@KGBMNEAL@BOTH_STAND9?$AA@ 3009dee8     bg_panimate.obj
 0002:00004ef4       ??_C@_0BE@PHIMDIEF@BOTH_STAND8TOSTAND5?$AA@ 3009def4     bg_panimate.obj
 0002:00004f08       ??_C@_0BE@LDCJBNIF@BOTH_STAND7TOSTAND8?$AA@ 3009df08     bg_panimate.obj
 0002:00004f1c       ??_C@_0BE@LHNMMNLI@BOTH_STAND5TOSTAND8?$AA@ 3009df1c     bg_panimate.obj
 0002:00004f30       ??_C@_0BO@JCPBABCF@BOTH_STARTLEDLOOKLEFTTOSTAND5?$AA@ 3009df30     bg_panimate.obj
 0002:00004f50       ??_C@_0BM@LKMKNIB@BOTH_STAND5STARTLEDLOOKLEFT?$AA@ 3009df50     bg_panimate.obj
 0002:00004f6c       ??_C@_0BB@KAKPAJPG@BOTH_STAND5TOAIM?$AA@ 3009df6c     bg_panimate.obj
 0002:00004f80       ??_C@_0BE@GGBOHGPB@BOTH_STAND5TOSTAND1?$AA@ 3009df80     bg_panimate.obj
 0002:00004f94       ??_C@_0BE@LJJBDIP@BOTH_STAND1TOSTAND5?$AA@ 3009df94     bg_panimate.obj
 0002:00004fa8       ??_C@_0BC@KJMCMBAN@BOTH_STAND5TOSIT3?$AA@ 3009dfa8     bg_panimate.obj
 0002:00004fbc       ??_C@_0O@JCHGFLGA@BOTH_STANDUP2?$AA@ 3009dfbc     bg_panimate.obj
 0002:00004fcc       ??_C@_0BF@MNEGLANN@BOTH_STAND4TOATTACK2?$AA@ 3009dfcc     bg_panimate.obj
 0002:00004fe4       ??_C@_0P@NHEJHBNL@BOTH_STAND4TO2?$AA@ 3009dfe4     bg_panimate.obj
 0002:00004ff4       ??_C@_0P@OFDCDPN@BOTH_STAND2TO4?$AA@ 3009dff4     bg_panimate.obj
 0002:00005004       ??_C@_0P@HDCENHLI@BOTH_STAND2TO1?$AA@ 3009e004     bg_panimate.obj
 0002:00005014       ??_C@_0P@BPKJPOKL@BOTH_STAND1TO2?$AA@ 3009e014     bg_panimate.obj
 0002:00005024       ??_C@_0M@LPAHOFEK@BOTH_STAND8?$AA@ 3009e024     bg_panimate.obj
 0002:00005030       ??_C@_0M@CBIEMIME@BOTH_STAND6?$AA@ 3009e030     bg_panimate.obj
 0002:0000503c       ??_C@_0BB@BAMNDOOB@BOTH_STAND5IDLE1?$AA@ 3009e03c     bg_panimate.obj
 0002:00005050       ??_C@_0M@KKJJLAH@BOTH_STAND5?$AA@ 3009e050     bg_panimate.obj
 0002:0000505c       ??_C@_0M@BDLCKKEG@BOTH_STAND4?$AA@ 3009e05c     bg_panimate.obj
 0002:00005068       ??_C@_0BB@HDBNALNL@BOTH_STAND3IDLE1?$AA@ 3009e068     bg_panimate.obj
 0002:0000507c       ??_C@_0M@FMPDDMIB@BOTH_STAND3?$AA@ 3009e07c     bg_panimate.obj
 0002:00005088       ??_C@_0BB@POEHFDKM@BOTH_STAND2IDLE2?$AA@ 3009e088     bg_panimate.obj
 0002:0000509c       ??_C@_0BB@NFGKAAGP@BOTH_STAND2IDLE1?$AA@ 3009e09c     bg_panimate.obj
 0002:000050b0       ??_C@_0M@EFOIANMA@BOTH_STAND2?$AA@ 3009e0b0     bg_panimate.obj
 0002:000050bc       ??_C@_0BB@OEICBKPC@BOTH_STAND1IDLE1?$AA@ 3009e0bc     bg_panimate.obj
 0002:000050d0       ??_C@_0M@GOMFFOAD@BOTH_STAND1?$AA@ 3009e0d0     bg_panimate.obj
 0002:000050dc       ??_C@_0P@HNCGMPEI@BOTH_ROLL_STAB?$AA@ 3009e0dc     bg_panimate.obj
 0002:000050ec       ??_C@_0BA@PJPEDJMA@BOTH_A3_SPECIAL?$AA@ 3009e0ec     bg_panimate.obj
 0002:000050fc       ??_C@_0BA@BGDGFCPO@BOTH_A2_SPECIAL?$AA@ 3009e0fc     bg_panimate.obj
 0002:0000510c       ??_C@_0BA@PNABOJPN@BOTH_A1_SPECIAL?$AA@ 3009e10c     bg_panimate.obj
 0002:0000511c       ??_C@_0BA@IPLCAALD@BOTH_A7_SOULCAL?$AA@ 3009e11c     bg_panimate.obj
 0002:0000512c       ??_C@_0BF@JKDHMCK@BOTH_A6_SABERPROTECT?$AA@ 3009e12c     bg_panimate.obj
 0002:00005144       ??_C@_0BD@FCALGDP@BOTH_STABDOWN_DUAL?$AA@ 3009e144     bg_panimate.obj
 0002:00005158       ??_C@_0BE@DOGEHLEN@BOTH_STABDOWN_STAFF?$AA@ 3009e158     bg_panimate.obj
 0002:0000516c       ??_C@_0O@FMNFAMJP@BOTH_STABDOWN?$AA@ 3009e16c     bg_panimate.obj
 0002:0000517c       ??_C@_0BE@NCOEMLED@BOTH_PULLED_INAIR_F?$AA@ 3009e17c     bg_panimate.obj
 0002:00005190       ??_C@_0BE@LGIIAOEH@BOTH_PULLED_INAIR_B?$AA@ 3009e190     bg_panimate.obj
 0002:000051a4       ??_C@_0BH@ENKMMKI@BOTH_PULL_IMPALE_SWING?$AA@ 3009e1a4     bg_panimate.obj
 0002:000051bc       ??_C@_0BG@FJEBNIOP@BOTH_PULL_IMPALE_STAB?$AA@ 3009e1bc     bg_panimate.obj
 0002:000051d4       ??_C@_0P@FKABGNIE@BOTH_FLIP_LAND?$AA@ 3009e1d4     bg_panimate.obj
 0002:000051e4       ??_C@_0BA@PECANCJM@BOTH_FLIP_HOLD7?$AA@ 3009e1e4     bg_panimate.obj
 0002:000051f4       ??_C@_0BC@OAEPKLIJ@BOTH_FLIP_ATTACK7?$AA@ 3009e1f4     bg_panimate.obj
 0002:00005208       ??_C@_0BD@MBINELLK@BOTH_A7_KICK_L_AIR?$AA@ 3009e208     bg_panimate.obj
 0002:0000521c       ??_C@_0BD@PIFBCIFB@BOTH_A7_KICK_R_AIR?$AA@ 3009e21c     bg_panimate.obj
 0002:00005230       ??_C@_0BD@PLIHCKMK@BOTH_A7_KICK_B_AIR?$AA@ 3009e230     bg_panimate.obj
 0002:00005244       ??_C@_0BD@GABGGINM@BOTH_A7_KICK_F_AIR?$AA@ 3009e244     bg_panimate.obj
 0002:00005258       ??_C@_0BA@CADMNHIP@BOTH_A7_KICK_RL?$AA@ 3009e258     bg_panimate.obj
 0002:00005268       ??_C@_0BF@OPHCPADF@BOTH_A7_KICK_BF_STOP?$AA@ 3009e268     bg_panimate.obj
 0002:00005280       ??_C@_0BA@MGPFJMHF@BOTH_A7_KICK_BF?$AA@ 3009e280     bg_panimate.obj
 0002:00005290       ??_C@_0P@DFCDAAIP@BOTH_A7_KICK_S?$AA@ 3009e290     bg_panimate.obj
 0002:000052a0       ??_C@_0P@PIHJAOBB@BOTH_A7_KICK_L?$AA@ 3009e2a0     bg_panimate.obj
 0002:000052b0       ??_C@_0P@CMDIDBMO@BOTH_A7_KICK_R?$AA@ 3009e2b0     bg_panimate.obj
 0002:000052c0       ??_C@_0P@GGPKCDJP@BOTH_A7_KICK_B?$AA@ 3009e2c0     bg_panimate.obj
 0002:000052d0       ??_C@_0P@CJGOGJL@BOTH_A7_KICK_F?$AA@ 3009e2d0     bg_panimate.obj
 0002:000052e0       ??_C@_0BM@OHENEONK@BOTH_FORCEWALLRELEASE_RIGHT?$AA@ 3009e2e0     bg_panimate.obj
 0002:000052fc       ??_C@_0BL@BABFAMJB@BOTH_FORCEWALLRELEASE_BACK?$AA@ 3009e2fc     bg_panimate.obj
 0002:00005318       ??_C@_0BL@OLNGOJNC@BOTH_FORCEWALLRELEASE_LEFT?$AA@ 3009e318     bg_panimate.obj
 0002:00005334       ??_C@_0BO@FMNDOIKN@BOTH_FORCEWALLRELEASE_FORWARD?$AA@ 3009e334     bg_panimate.obj
 0002:00005354       ??_C@_0BJ@CCJINKMK@BOTH_FORCEWALLHOLD_RIGHT?$AA@ 3009e354     bg_panimate.obj
 0002:00005370       ??_C@_0BI@HPLKKCCJ@BOTH_FORCEWALLHOLD_BACK?$AA@ 3009e370     bg_panimate.obj
 0002:00005388       ??_C@_0BI@IEHJEHGK@BOTH_FORCEWALLHOLD_LEFT?$AA@ 3009e388     bg_panimate.obj
 0002:000053a0       ??_C@_0BL@OBHDGIHE@BOTH_FORCEWALLHOLD_FORWARD?$AA@ 3009e3a0     bg_panimate.obj
 0002:000053bc       ??_C@_0BM@FDLDEBGK@BOTH_FORCEWALLREBOUND_RIGHT?$AA@ 3009e3bc     bg_panimate.obj
 0002:000053d8       ??_C@_0BL@OFKEILGN@BOTH_FORCEWALLREBOUND_BACK?$AA@ 3009e3d8     bg_panimate.obj
 0002:000053f4       ??_C@_0BL@BOGHGOCO@BOTH_FORCEWALLREBOUND_LEFT?$AA@ 3009e3f4     bg_panimate.obj
 0002:00005410       ??_C@_0BO@CIKJOPHK@BOTH_FORCEWALLREBOUND_FORWARD?$AA@ 3009e410     bg_panimate.obj
 0002:00005430       ??_C@_0BK@KJKIIGOD@BOTH_FORCEWALLRUNFLIP_ALT?$AA@ 3009e430     bg_panimate.obj
 0002:0000544c       ??_C@_0BK@GPIMNHIL@BOTH_FORCEWALLRUNFLIP_END?$AA@ 3009e44c     bg_panimate.obj
 0002:00005468       ??_C@_0BM@LJCOJFGC@BOTH_FORCEWALLRUNFLIP_START?$AA@ 3009e468     bg_panimate.obj
 0002:00005484       ??_C@_0BI@MHONAGNG@BOTH_FORCELONGLEAP_LAND?$AA@ 3009e484     bg_panimate.obj
 0002:0000549c       ??_C@_0BK@HABCCIOP@BOTH_FORCELONGLEAP_ATTACK?$AA@ 3009e49c     bg_panimate.obj
 0002:000054b8       ??_C@_0BJ@KLOIGFJP@BOTH_FORCELONGLEAP_START?$AA@ 3009e4b8     bg_panimate.obj
 0002:000054d4       ??_C@_0L@NHGEHEAM@BOTH_S7_S1?$AA@ 3009e4d4     bg_panimate.obj
 0002:000054e0       ??_C@_0L@OHOCGCK@BOTH_S1_S7?$AA@ 3009e4e0     bg_panimate.obj
 0002:000054ec       ??_C@_0L@OKAEFNLM@BOTH_S6_S1?$AA@ 3009e4ec     bg_panimate.obj
 0002:000054f8       ??_C@_0L@BHGFBHGL@BOTH_S1_S6?$AA@ 3009e4f8     bg_panimate.obj
 0002:00005504       ??_C@_0BB@KFONEAEN@BOTH_SPINATTACK7?$AA@ 3009e504     bg_panimate.obj
 0002:00005518       ??_C@_0BB@LMPGHBAM@BOTH_SPINATTACK6?$AA@ 3009e518     bg_panimate.obj
 0002:0000552c       ??_C@_0BB@CIOCACPL@BOTH_JUMPATTACK7?$AA@ 3009e52c     bg_panimate.obj
 0002:00005540       ??_C@_0BB@DBPJDDLK@BOTH_JUMPATTACK6?$AA@ 3009e540     bg_panimate.obj
 0002:00005554       ??_C@_0BH@INLIBEMO@BOTH_CROUCHATTACKBACK1?$AA@ 3009e554     bg_panimate.obj
 0002:0000556c       ??_C@_0BC@BEBALKBG@BOTH_LUNGE2_B__T_?$AA@ 3009e56c     bg_panimate.obj
 0002:00005580       ??_C@_0BG@CELCKDAN@BOTH_FORCELEAP2_T__B_?$AA@ 3009e580     bg_panimate.obj
 0002:00005598       ??_C@_0BG@BFMBDODP@BOTH_JUMPFLIPSTABDOWN?$AA@ 3009e598     bg_panimate.obj
 0002:000055b0       ??_C@_0BI@HBGICLGG@BOTH_JUMPFLIPSLASHDOWN1?$AA@ 3009e5b0     bg_panimate.obj
 0002:000055c8       ??_C@_0BB@CBLKELKF@BOTH_ATTACK_BACK?$AA@ 3009e5c8     bg_panimate.obj
 0002:000055dc       ??_C@_0BC@PILNDLJJ@BOTH_A2_STABBACK1?$AA@ 3009e5dc     bg_panimate.obj
 0002:000055f0       ??_C@_0BH@BDCLHPPP@BOTH_SABERSTAFF_STANCE?$AA@ 3009e5f0     bg_panimate.obj
 0002:00005608       ??_C@_0BG@HKMBABJH@BOTH_SABERDUAL_STANCE?$AA@ 3009e608     bg_panimate.obj
 0002:00005620       ??_C@_0BG@OHKGBDLF@BOTH_SABERSLOW_STANCE?$AA@ 3009e620     bg_panimate.obj
 0002:00005638       ??_C@_0BG@LMJGJJPN@BOTH_SABERFAST_STANCE?$AA@ 3009e638     bg_panimate.obj
 0002:00005650       ??_C@_0BD@KOAOCCAN@BOTH_CCWCIRCLELOCK?$AA@ 3009e650     bg_panimate.obj
 0002:00005664       ??_C@_0BC@KJPAFMDI@BOTH_CWCIRCLELOCK?$AA@ 3009e664     bg_panimate.obj
 0002:00005678       ??_C@_0BE@OHBEAMBI@BOTH_CCWCIRCLEBREAK?$AA@ 3009e678     bg_panimate.obj
 0002:0000568c       ??_C@_0BD@LBKADGEF@BOTH_CWCIRCLEBREAK?$AA@ 3009e68c     bg_panimate.obj
 0002:000056a0       ??_C@_0BI@CIMIIHDK@BOTH_CCWCIRCLE_A2__R__L?$AA@ 3009e6a0     bg_panimate.obj
 0002:000056b8       ??_C@_0BH@DBGDLJEC@BOTH_CWCIRCLE_A2__L__R?$AA@ 3009e6b8     bg_panimate.obj
 0002:000056d0       ??_C@_0BI@PBNOCOLC@BOTH_CCWCIRCLE_R2__L_S1?$AA@ 3009e6d0     bg_panimate.obj
 0002:000056e8       ??_C@_0BH@DMDECPBF@BOTH_CWCIRCLE_R2__R_S1?$AA@ 3009e6e8     bg_panimate.obj
 0002:00005700       ??_C@_0N@DLCMNLOG@BOTH_BF1LOCK?$AA@ 3009e700     bg_panimate.obj
 0002:00005710       ??_C@_0O@NAFJBFBB@BOTH_BF1BREAK?$AA@ 3009e710     bg_panimate.obj
 0002:00005720       ??_C@_0P@OMJLFDIE@BOTH_BF1RETURN?$AA@ 3009e720     bg_panimate.obj
 0002:00005730       ??_C@_0N@LNLIKJEI@BOTH_BF2LOCK?$AA@ 3009e730     bg_panimate.obj
 0002:00005740       ??_C@_0O@OBLBAPIM@BOTH_BF2BREAK?$AA@ 3009e740     bg_panimate.obj
 0002:00005750       ??_C@_0P@GCBEFEGH@BOTH_BF2RETURN?$AA@ 3009e750     bg_panimate.obj
 0002:00005760       ??_C@_0BE@DOCAGAEJ@BOTH_LK_ST_ST_T_L_2?$AA@ 3009e760     bg_panimate.obj
 0002:00005774       ??_C@_0BE@CDCFFAPB@BOTH_LK_ST_ST_S_L_2?$AA@ 3009e774     bg_panimate.obj
 0002:00005788       ??_C@_0BE@DFGKEEJC@BOTH_LK_DL_DL_T_L_2?$AA@ 3009e788     bg_panimate.obj
 0002:0000579c       ??_C@_0BE@CIGPHECK@BOTH_LK_DL_DL_S_L_2?$AA@ 3009e79c     bg_panimate.obj
 0002:000057b0       ??_C@_0BC@NOIODFFL@BOTH_LK_S_S_T_L_2?$AA@ 3009e7b0     bg_panimate.obj
 0002:000057c4       ??_C@_0BC@MDILAFOD@BOTH_LK_S_S_S_L_2?$AA@ 3009e7c4     bg_panimate.obj
 0002:000057d8       ??_C@_0BG@DGNDNELM@BOTH_LK_ST_S_T_SB_1_W?$AA@ 3009e7d8     bg_panimate.obj
 0002:000057f0       ??_C@_0BG@JPOFBPCG@BOTH_LK_ST_S_T_SB_1_L?$AA@ 3009e7f0     bg_panimate.obj
 0002:00005808       ??_C@_0BD@DOGCPFDO@BOTH_LK_ST_S_T_L_1?$AA@ 3009e808     bg_panimate.obj
 0002:0000581c       ??_C@_0BF@CEACOAOC@BOTH_LK_ST_S_T_B_1_W?$AA@ 3009e81c     bg_panimate.obj
 0002:00005834       ??_C@_0BF@INDECLHI@BOTH_LK_ST_S_T_B_1_L?$AA@ 3009e834     bg_panimate.obj
 0002:0000584c       ??_C@_0BG@FCLCLJHF@BOTH_LK_ST_S_S_SB_1_W?$AA@ 3009e84c     bg_panimate.obj
 0002:00005864       ??_C@_0BG@PLIEHCOP@BOTH_LK_ST_S_S_SB_1_L?$AA@ 3009e864     bg_panimate.obj
 0002:0000587c       ??_C@_0BD@CDGHMFIG@BOTH_LK_ST_S_S_L_1?$AA@ 3009e87c     bg_panimate.obj
 0002:00005890       ??_C@_0BF@COMHOJPL@BOTH_LK_ST_S_S_B_1_W?$AA@ 3009e890     bg_panimate.obj
 0002:000058a8       ??_C@_0BF@IHPBCCGB@BOTH_LK_ST_S_S_B_1_L?$AA@ 3009e8a8     bg_panimate.obj
 0002:000058c0       ??_C@_0BH@LECJIOFK@BOTH_LK_ST_ST_T_SB_1_W?$AA@ 3009e8c0     bg_panimate.obj
 0002:000058d8       ??_C@_0BH@BNBPEFMA@BOTH_LK_ST_ST_T_SB_1_L?$AA@ 3009e8d8     bg_panimate.obj
 0002:000058f0       ??_C@_0BE@BFANDDIK@BOTH_LK_ST_ST_T_L_1?$AA@ 3009e8f0     bg_panimate.obj
 0002:00005904       ??_C@_0BG@NGKMMHLE@BOTH_LK_ST_ST_T_B_1_W?$AA@ 3009e904     bg_panimate.obj
 0002:0000591c       ??_C@_0BG@HPJKAMCO@BOTH_LK_ST_ST_T_B_1_L?$AA@ 3009e91c     bg_panimate.obj
 0002:00005934       ??_C@_0BH@NAEIODJD@BOTH_LK_ST_ST_S_SB_1_W?$AA@ 3009e934     bg_panimate.obj
 0002:0000594c       ??_C@_0BH@HJHOCIAJ@BOTH_LK_ST_ST_S_SB_1_L?$AA@ 3009e94c     bg_panimate.obj
 0002:00005964       ??_C@_0BE@IAIADDC@BOTH_LK_ST_ST_S_L_1?$AA@ 3009e964     bg_panimate.obj
 0002:00005978       ??_C@_0BG@NMGJMOKN@BOTH_LK_ST_ST_S_B_1_W?$AA@ 3009e978     bg_panimate.obj
 0002:00005990       ??_C@_0BG@HFFPAFDH@BOTH_LK_ST_ST_S_B_1_L?$AA@ 3009e990     bg_panimate.obj
 0002:000059a8       ??_C@_0BH@NIJMKPKH@BOTH_LK_ST_DL_T_SB_1_W?$AA@ 3009e9a8     bg_panimate.obj
 0002:000059c0       ??_C@_0BH@HBKKGEDN@BOTH_LK_ST_DL_T_SB_1_L?$AA@ 3009e9c0     bg_panimate.obj
 0002:000059d8       ??_C@_0BE@HCPCDGKM@BOTH_LK_ST_DL_T_L_1?$AA@ 3009e9d8     bg_panimate.obj
 0002:000059ec       ??_C@_0BG@GFBINHOA@BOTH_LK_ST_DL_T_B_1_W?$AA@ 3009e9ec     bg_panimate.obj
 0002:00005a04       ??_C@_0BG@MMCOBMHK@BOTH_LK_ST_DL_T_B_1_L?$AA@ 3009ea04     bg_panimate.obj
 0002:00005a1c       ??_C@_0BH@LMPNMCGO@BOTH_LK_ST_DL_S_SB_1_W?$AA@ 3009ea1c     bg_panimate.obj
 0002:00005a34       ??_C@_0BH@BFMLAJPE@BOTH_LK_ST_DL_S_SB_1_L?$AA@ 3009ea34     bg_panimate.obj
 0002:00005a4c       ??_C@_0BE@GPPHAGBE@BOTH_LK_ST_DL_S_L_1?$AA@ 3009ea4c     bg_panimate.obj
 0002:00005a60       ??_C@_0BG@GPNNNOPJ@BOTH_LK_ST_DL_S_B_1_W?$AA@ 3009ea60     bg_panimate.obj
 0002:00005a78       ??_C@_0BG@MGOLBFGD@BOTH_LK_ST_DL_S_B_1_L?$AA@ 3009ea78     bg_panimate.obj
 0002:00005a90       ??_C@_0BG@NLKIDHKH@BOTH_LK_DL_S_T_SB_1_W?$AA@ 3009ea90     bg_panimate.obj
 0002:00005aa8       ??_C@_0BG@HCJOPMDN@BOTH_LK_DL_S_T_SB_1_L?$AA@ 3009eaa8     bg_panimate.obj
 0002:00005ac0       ??_C@_0BD@INNGOFGK@BOTH_LK_DL_S_T_L_1?$AA@ 3009eac0     bg_panimate.obj
 0002:00005ad4       ??_C@_0BF@OHGCNLGC@BOTH_LK_DL_S_T_B_1_W?$AA@ 3009ead4     bg_panimate.obj
 0002:00005aec       ??_C@_0BF@EOFEBAPI@BOTH_LK_DL_S_T_B_1_L?$AA@ 3009eaec     bg_panimate.obj
 0002:00005b04       ??_C@_0BG@LPMJFKGO@BOTH_LK_DL_S_S_SB_1_W?$AA@ 3009eb04     bg_panimate.obj
 0002:00005b1c       ??_C@_0BG@BGPPJBPE@BOTH_LK_DL_S_S_SB_1_L?$AA@ 3009eb1c     bg_panimate.obj
 0002:00005b34       ??_C@_0BD@JANDNFNC@BOTH_LK_DL_S_S_L_1?$AA@ 3009eb34     bg_panimate.obj
 0002:00005b48       ??_C@_0BF@ONKHNCHL@BOTH_LK_DL_S_S_B_1_W?$AA@ 3009eb48     bg_panimate.obj
 0002:00005b60       ??_C@_0BF@EEJBBJOB@BOTH_LK_DL_S_S_B_1_L?$AA@ 3009eb60     bg_panimate.obj
 0002:00005b78       ??_C@_0BH@DOKBDMFF@BOTH_LK_DL_ST_T_SB_1_W?$AA@ 3009eb78     bg_panimate.obj
 0002:00005b90       ??_C@_0BH@JHJHPHMP@BOTH_LK_DL_ST_T_SB_1_L?$AA@ 3009eb90     bg_panimate.obj
 0002:00005ba8       ??_C@_0BE@HJLIBCHH@BOTH_LK_DL_ST_T_L_1?$AA@ 3009eba8     bg_panimate.obj
 0002:00005bbc       ??_C@_0BG@DLNHCEKP@BOTH_LK_DL_ST_T_B_1_W?$AA@ 3009ebbc     bg_panimate.obj
 0002:00005bd4       ??_C@_0BG@JCOBOPDF@BOTH_LK_DL_ST_T_B_1_L?$AA@ 3009ebd4     bg_panimate.obj
 0002:00005bec       ??_C@_0BH@FKMAFBJM@BOTH_LK_DL_ST_S_SB_1_W?$AA@ 3009ebec     bg_panimate.obj
 0002:00005c04       ??_C@_0BH@PDPGJKAG@BOTH_LK_DL_ST_S_SB_1_L?$AA@ 3009ec04     bg_panimate.obj
 0002:00005c1c       ??_C@_0BE@GELNCCMP@BOTH_LK_DL_ST_S_L_1?$AA@ 3009ec1c     bg_panimate.obj
 0002:00005c30       ??_C@_0BG@DBBCCNLG@BOTH_LK_DL_ST_S_B_1_W?$AA@ 3009ec30     bg_panimate.obj
 0002:00005c48       ??_C@_0BG@JICEOGCM@BOTH_LK_DL_ST_S_B_1_L?$AA@ 3009ec48     bg_panimate.obj
 0002:00005c60       ??_C@_0BH@FCBEBNKI@BOTH_LK_DL_DL_T_SB_1_W?$AA@ 3009ec60     bg_panimate.obj
 0002:00005c78       ??_C@_0BH@PLCCNGDC@BOTH_LK_DL_DL_T_SB_1_L?$AA@ 3009ec78     bg_panimate.obj
 0002:00005c90       ??_C@_0BE@BOEHBHFB@BOTH_LK_DL_DL_T_L_1?$AA@ 3009ec90     bg_panimate.obj
 0002:00005ca4       ??_C@_0BG@IIGDDEPL@BOTH_LK_DL_DL_T_B_1_W?$AA@ 3009eca4     bg_panimate.obj
 0002:00005cbc       ??_C@_0BG@CBFFPPGB@BOTH_LK_DL_DL_T_B_1_L?$AA@ 3009ecbc     bg_panimate.obj
 0002:00005cd4       ??_C@_0BH@DGHFHAGB@BOTH_LK_DL_DL_S_SB_1_W?$AA@ 3009ecd4     bg_panimate.obj
 0002:00005cec       ??_C@_0BH@JPEDLLPL@BOTH_LK_DL_DL_S_SB_1_L?$AA@ 3009ecec     bg_panimate.obj
 0002:00005d04       ??_C@_0BE@DECCHOJ@BOTH_LK_DL_DL_S_L_1?$AA@ 3009ed04     bg_panimate.obj
 0002:00005d18       ??_C@_0BG@ICKGDNOC@BOTH_LK_DL_DL_S_B_1_W?$AA@ 3009ed18     bg_panimate.obj
 0002:00005d30       ??_C@_0BG@CLJAPGHI@BOTH_LK_DL_DL_S_B_1_L?$AA@ 3009ed30     bg_panimate.obj
 0002:00005d48       ??_C@_0BF@FNCJNOFK@BOTH_LK_S_S_T_SB_1_W?$AA@ 3009ed48     bg_panimate.obj
 0002:00005d60       ??_C@_0BF@PEBPBFMA@BOTH_LK_S_S_T_SB_1_L?$AA@ 3009ed60     bg_panimate.obj
 0002:00005d78       ??_C@_0BC@PFKDGGJI@BOTH_LK_S_S_T_L_1?$AA@ 3009ed78     bg_panimate.obj
 0002:00005d8c       ??_C@_0BE@LFFJPCLC@BOTH_LK_S_S_T_B_1_W?$AA@ 3009ed8c     bg_panimate.obj
 0002:00005da0       ??_C@_0BE@BMGPDJCI@BOTH_LK_S_S_T_B_1_L?$AA@ 3009eda0     bg_panimate.obj
 0002:00005db4       ??_C@_0BF@DJEILDJD@BOTH_LK_S_S_S_SB_1_W?$AA@ 3009edb4     bg_panimate.obj
 0002:00005dcc       ??_C@_0BF@JAHOHIAJ@BOTH_LK_S_S_S_SB_1_L?$AA@ 3009edcc     bg_panimate.obj
 0002:00005de4       ??_C@_0BC@OIKGFGCA@BOTH_LK_S_S_S_L_1?$AA@ 3009ede4     bg_panimate.obj
 0002:00005df8       ??_C@_0BE@LPJMPLKL@BOTH_LK_S_S_S_B_1_W?$AA@ 3009edf8     bg_panimate.obj
 0002:00005e0c       ??_C@_0BE@BGKKDADB@BOTH_LK_S_S_S_B_1_L?$AA@ 3009ee0c     bg_panimate.obj
 0002:00005e20       ??_C@_0BG@PNCLDDBN@BOTH_LK_S_ST_T_SB_1_W?$AA@ 3009ee20     bg_panimate.obj
 0002:00005e38       ??_C@_0BG@FEBNPIIH@BOTH_LK_S_ST_T_SB_1_L?$AA@ 3009ee38     bg_panimate.obj
 0002:00005e50       ??_C@_0BD@CKHDPEME@BOTH_LK_S_ST_T_L_1?$AA@ 3009ee50     bg_panimate.obj
 0002:00005e64       ??_C@_0BF@LNFGMNFC@BOTH_LK_S_ST_T_B_1_W?$AA@ 3009ee64     bg_panimate.obj
 0002:00005e7c       ??_C@_0BF@BEGAAGMI@BOTH_LK_S_ST_T_B_1_L?$AA@ 3009ee7c     bg_panimate.obj
 0002:00005e94       ??_C@_0BG@JJEKFONE@BOTH_LK_S_ST_S_SB_1_W?$AA@ 3009ee94     bg_panimate.obj
 0002:00005eac       ??_C@_0BG@DAHMJFEO@BOTH_LK_S_ST_S_SB_1_L?$AA@ 3009eeac     bg_panimate.obj
 0002:00005ec4       ??_C@_0BD@DHHGMEHM@BOTH_LK_S_ST_S_L_1?$AA@ 3009eec4     bg_panimate.obj
 0002:00005ed8       ??_C@_0BF@LHJDMEEL@BOTH_LK_S_ST_S_B_1_W?$AA@ 3009eed8     bg_panimate.obj
 0002:00005ef0       ??_C@_0BF@BOKFAPNB@BOTH_LK_S_ST_S_B_1_L?$AA@ 3009eef0     bg_panimate.obj
 0002:00005f08       ??_C@_0BG@JBJOBCOA@BOTH_LK_S_DL_T_SB_1_W?$AA@ 3009ef08     bg_panimate.obj
 0002:00005f20       ??_C@_0BG@DIKINJHK@BOTH_LK_S_DL_T_SB_1_L?$AA@ 3009ef20     bg_panimate.obj
 0002:00005f38       ??_C@_0BD@ENIMPBOC@BOTH_LK_S_DL_T_L_1?$AA@ 3009ef38     bg_panimate.obj
 0002:00005f4c       ??_C@_0BF@OOCNNAG@BOTH_LK_S_DL_T_B_1_W?$AA@ 3009ef4c     bg_panimate.obj
 0002:00005f64       ??_C@_0BF@KHNEBGJM@BOTH_LK_S_DL_T_B_1_L?$AA@ 3009ef64     bg_panimate.obj
 0002:00005f7c       ??_C@_0BG@PFPPHPCJ@BOTH_LK_S_DL_S_SB_1_W?$AA@ 3009ef7c     bg_panimate.obj
 0002:00005f94       ??_C@_0BG@FMMJLELD@BOTH_LK_S_DL_S_SB_1_L?$AA@ 3009ef94     bg_panimate.obj
 0002:00005fac       ??_C@_0BD@FAIJMBFK@BOTH_LK_S_DL_S_L_1?$AA@ 3009efac     bg_panimate.obj
 0002:00005fc0       ??_C@_0BF@ECHNEBP@BOTH_LK_S_DL_S_B_1_W?$AA@ 3009efc0     bg_panimate.obj
 0002:00005fd8       ??_C@_0BF@KNBBBPIF@BOTH_LK_S_DL_S_B_1_L?$AA@ 3009efd8     bg_panimate.obj
 0002:00005ff0       ??_C@_0O@MBLOLAIA@BOTH_H7_S7_BR?$AA@ 3009eff0     bg_panimate.obj
 0002:00006000       ??_C@_0O@HEBAMOMN@BOTH_H7_S7_B_?$AA@ 3009f000     bg_panimate.obj
 0002:00006010       ??_C@_0O@BFPPIPFP@BOTH_H7_S7_BL?$AA@ 3009f010     bg_panimate.obj
 0002:00006020       ??_C@_0O@NFEFAJN@BOTH_H7_S7_TL?$AA@ 3009f020     bg_panimate.obj
 0002:00006030       ??_C@_0O@NJBFGPEC@BOTH_H7_S7_TR?$AA@ 3009f030     bg_panimate.obj
 0002:00006040       ??_C@_0O@GMLLBBAP@BOTH_H7_S7_T_?$AA@ 3009f040     bg_panimate.obj
 0002:00006050       ??_C@_0O@MBBKJCHE@BOTH_V7_B__S7?$AA@ 3009f050     bg_panimate.obj
 0002:00006060       ??_C@_0O@OGFKHPCG@BOTH_V7_BL_S7?$AA@ 3009f060     bg_panimate.obj
 0002:00006070       ??_C@_0O@FJBCGOGD@BOTH_V7__L_S7?$AA@ 3009f070     bg_panimate.obj
 0002:00006080       ??_C@_0O@DDNFJOKA@BOTH_V7_TL_S7?$AA@ 3009f080     bg_panimate.obj
 0002:00006090       ??_C@_0O@BEJFHDPC@BOTH_V7_T__S7?$AA@ 3009f090     bg_panimate.obj
 0002:000060a0       ??_C@_0O@OMAFLHED@BOTH_V7_TR_S7?$AA@ 3009f0a0     bg_panimate.obj
 0002:000060b0       ??_C@_0O@IGMCEHIA@BOTH_V7__R_S7?$AA@ 3009f0b0     bg_panimate.obj
 0002:000060c0       ??_C@_0O@DJIKFGMF@BOTH_V7_BR_S7?$AA@ 3009f0c0     bg_panimate.obj
 0002:000060d0       ??_C@_0O@PIDDIMEF@BOTH_K7_S7_BR?$AA@ 3009f0d0     bg_panimate.obj
 0002:000060e0       ??_C@_0O@ENJNPCAI@BOTH_K7_S7_B_?$AA@ 3009f0e0     bg_panimate.obj
 0002:000060f0       ??_C@_0O@CMHCLDJK@BOTH_K7_S7_BL?$AA@ 3009f0f0     bg_panimate.obj
 0002:00006100       ??_C@_0O@DENJGMFI@BOTH_K7_S7_TL?$AA@ 3009f100     bg_panimate.obj
 0002:00006110       ??_C@_0O@OAJIFDIH@BOTH_K7_S7_TR?$AA@ 3009f110     bg_panimate.obj
 0002:00006120       ??_C@_0O@FFDGCNMK@BOTH_K7_S7_T_?$AA@ 3009f120     bg_panimate.obj
 0002:00006130       ??_C@_0O@NGKGFAOJ@BOTH_P7_S7_BR?$AA@ 3009f130     bg_panimate.obj
 0002:00006140       ??_C@_0O@COHGPDG@BOTH_P7_S7_BL?$AA@ 3009f140     bg_panimate.obj
 0002:00006150       ??_C@_0O@BKEMLAPE@BOTH_P7_S7_TL?$AA@ 3009f150     bg_panimate.obj
 0002:00006160       ??_C@_0O@MOANIPCL@BOTH_P7_S7_TR?$AA@ 3009f160     bg_panimate.obj
 0002:00006170       ??_C@_0O@HLKDPBGG@BOTH_P7_S7_T_?$AA@ 3009f170     bg_panimate.obj
 0002:00006180       ??_C@_0O@DAHEJJKO@BOTH_H6_S6_BR?$AA@ 3009f180     bg_panimate.obj
 0002:00006190       ??_C@_0O@IFNKOHOD@BOTH_H6_S6_B_?$AA@ 3009f190     bg_panimate.obj
 0002:000061a0       ??_C@_0O@OEDFKGHB@BOTH_H6_S6_BL?$AA@ 3009f1a0     bg_panimate.obj
 0002:000061b0       ??_C@_0O@PMJOHJLD@BOTH_H6_S6_TL?$AA@ 3009f1b0     bg_panimate.obj
 0002:000061c0       ??_C@_0O@CINPEGGM@BOTH_H6_S6_TR?$AA@ 3009f1c0     bg_panimate.obj
 0002:000061d0       ??_C@_0O@JNHBDICB@BOTH_H6_S6_T_?$AA@ 3009f1d0     bg_panimate.obj
 0002:000061e0       ??_C@_0O@BEKLKDKL@BOTH_V6_B__S6?$AA@ 3009f1e0     bg_panimate.obj
 0002:000061f0       ??_C@_0O@DDOLEOPJ@BOTH_V6_BL_S6?$AA@ 3009f1f0     bg_panimate.obj
 0002:00006200       ??_C@_0O@IMKDFPLM@BOTH_V6__L_S6?$AA@ 3009f200     bg_panimate.obj
 0002:00006210       ??_C@_0O@OGGEKPHP@BOTH_V6_TL_S6?$AA@ 3009f210     bg_panimate.obj
 0002:00006220       ??_C@_0O@MBCEECCN@BOTH_V6_T__S6?$AA@ 3009f220     bg_panimate.obj
 0002:00006230       ??_C@_0O@DJLEIGJM@BOTH_V6_TR_S6?$AA@ 3009f230     bg_panimate.obj
 0002:00006240       ??_C@_0O@FDHDHGFP@BOTH_V6__R_S6?$AA@ 3009f240     bg_panimate.obj
 0002:00006250       ??_C@_0O@OMDLGHBK@BOTH_V6_BR_S6?$AA@ 3009f250     bg_panimate.obj
 0002:00006260       ??_C@_0O@JPJKFGL@BOTH_K6_S6_BR?$AA@ 3009f260     bg_panimate.obj
 0002:00006270       ??_C@_0O@LMFHNLCG@BOTH_K6_S6_B_?$AA@ 3009f270     bg_panimate.obj
 0002:00006280       ??_C@_0O@NNLIJKLE@BOTH_K6_S6_BL?$AA@ 3009f280     bg_panimate.obj
 0002:00006290       ??_C@_0O@MFBDEFHG@BOTH_K6_S6_TL?$AA@ 3009f290     bg_panimate.obj
 0002:000062a0       ??_C@_0O@BBFCHKKJ@BOTH_K6_S6_TR?$AA@ 3009f2a0     bg_panimate.obj
 0002:000062b0       ??_C@_0O@KEPMAEOE@BOTH_K6_S6_T_?$AA@ 3009f2b0     bg_panimate.obj
 0002:000062c0       ??_C@_0O@CHGMHJMH@BOTH_P6_S6_BR?$AA@ 3009f2c0     bg_panimate.obj
 0002:000062d0       ??_C@_0O@PDCNEGBI@BOTH_P6_S6_BL?$AA@ 3009f2d0     bg_panimate.obj
 0002:000062e0       ??_C@_0O@OLIGJJNK@BOTH_P6_S6_TL?$AA@ 3009f2e0     bg_panimate.obj
 0002:000062f0       ??_C@_0O@DPMHKGAF@BOTH_P6_S6_TR?$AA@ 3009f2f0     bg_panimate.obj
 0002:00006300       ??_C@_0O@IKGJNIEI@BOTH_P6_S6_T_?$AA@ 3009f300     bg_panimate.obj
 0002:00006310       ??_C@_0O@IIJBEMKH@BOTH_H1_S1_BR?$AA@ 3009f310     bg_panimate.obj
 0002:00006320       ??_C@_0O@DNDPDCOK@BOTH_H1_S1_B_?$AA@ 3009f320     bg_panimate.obj
 0002:00006330       ??_C@_0O@FMNAHDHI@BOTH_H1_S1_BL?$AA@ 3009f330     bg_panimate.obj
 0002:00006340       ??_C@_0O@EEHLKMLK@BOTH_H1_S1_TL?$AA@ 3009f340     bg_panimate.obj
 0002:00006350       ??_C@_0O@JADKJDGF@BOTH_H1_S1_TR?$AA@ 3009f350     bg_panimate.obj
 0002:00006360       ??_C@_0O@CFJEONCI@BOTH_H1_S1_T_?$AA@ 3009f360     bg_panimate.obj
 0002:00006370       ??_C@_0O@FBCPDMHF@BOTH_V1_B__S1?$AA@ 3009f370     bg_panimate.obj
 0002:00006380       ??_C@_0O@HGGPNBCH@BOTH_V1_BL_S1?$AA@ 3009f380     bg_panimate.obj
 0002:00006390       ??_C@_0O@MJCHMAGC@BOTH_V1__L_S1?$AA@ 3009f390     bg_panimate.obj
 0002:000063a0       ??_C@_0O@KDOADAKB@BOTH_V1_TL_S1?$AA@ 3009f3a0     bg_panimate.obj
 0002:000063b0       ??_C@_0O@IEKANNPD@BOTH_V1_T__S1?$AA@ 3009f3b0     bg_panimate.obj
 0002:000063c0       ??_C@_0O@HMDABJEC@BOTH_V1_TR_S1?$AA@ 3009f3c0     bg_panimate.obj
 0002:000063d0       ??_C@_0O@BGPHOJIB@BOTH_V1__R_S1?$AA@ 3009f3d0     bg_panimate.obj
 0002:000063e0       ??_C@_0O@KJLPPIME@BOTH_V1_BR_S1?$AA@ 3009f3e0     bg_panimate.obj
 0002:000063f0       ??_C@_0O@LBBMHAGC@BOTH_K1_S1_BR?$AA@ 3009f3f0     bg_panimate.obj
 0002:00006400       ??_C@_0O@ELCAOCP@BOTH_K1_S1_B_?$AA@ 3009f400     bg_panimate.obj
 0002:00006410       ??_C@_0O@GFFNEPLN@BOTH_K1_S1_BL?$AA@ 3009f410     bg_panimate.obj
 0002:00006420       ??_C@_0O@HNPGJAHP@BOTH_K1_S1_TL?$AA@ 3009f420     bg_panimate.obj
 0002:00006430       ??_C@_0O@KJLHKPKA@BOTH_K1_S1_TR?$AA@ 3009f430     bg_panimate.obj
 0002:00006440       ??_C@_0O@BMBJNBON@BOTH_K1_S1_T_?$AA@ 3009f440     bg_panimate.obj
 0002:00006450       ??_C@_0O@JPIJKMMO@BOTH_P1_S1_BR?$AA@ 3009f450     bg_panimate.obj
 0002:00006460       ??_C@_0O@ELMIJDBB@BOTH_P1_S1_BL?$AA@ 3009f460     bg_panimate.obj
 0002:00006470       ??_C@_0O@FDGDEMND@BOTH_P1_S1_TL?$AA@ 3009f470     bg_panimate.obj
 0002:00006480       ??_C@_0O@IHCCHDAM@BOTH_P1_S1_TR?$AA@ 3009f480     bg_panimate.obj
 0002:00006490       ??_C@_0O@DCIMANEB@BOTH_P1_S1_T_?$AA@ 3009f490     bg_panimate.obj
 0002:000064a0       ??_C@_0O@OHBCOAEI@BOTH_D7_B____?$AA@ 3009f4a0     bg_panimate.obj
 0002:000064b0       ??_C@_0O@MAFCANBK@BOTH_D7_BL___?$AA@ 3009f4b0     bg_panimate.obj
 0002:000064c0       ??_C@_0O@HPBKBMFP@BOTH_D7__L___?$AA@ 3009f4c0     bg_panimate.obj
 0002:000064d0       ??_C@_0O@BFNNOMJM@BOTH_D7_TL___?$AA@ 3009f4d0     bg_panimate.obj
 0002:000064e0       ??_C@_0O@MKANMFHP@BOTH_D7_TR___?$AA@ 3009f4e0     bg_panimate.obj
 0002:000064f0       ??_C@_0O@KAMKDFLM@BOTH_D7__R___?$AA@ 3009f4f0     bg_panimate.obj
 0002:00006500       ??_C@_0O@BPICCEPJ@BOTH_D7_BR___?$AA@ 3009f500     bg_panimate.obj
 0002:00006510       ??_C@_0O@LDEIHEJA@BOTH_B7_BL___?$AA@ 3009f510     bg_panimate.obj
 0002:00006520       ??_C@_0O@MAAGFNF@BOTH_B7__L___?$AA@ 3009f520     bg_panimate.obj
 0002:00006530       ??_C@_0O@GGMHJFBG@BOTH_B7_TL___?$AA@ 3009f530     bg_panimate.obj
 0002:00006540       ??_C@_0O@EBIHHIEE@BOTH_B7_T____?$AA@ 3009f540     bg_panimate.obj
 0002:00006550       ??_C@_0O@LJBHLMPF@BOTH_B7_TR___?$AA@ 3009f550     bg_panimate.obj
 0002:00006560       ??_C@_0O@NDNAEMDG@BOTH_B7__R___?$AA@ 3009f560     bg_panimate.obj
 0002:00006570       ??_C@_0O@GMJIFNHD@BOTH_B7_BR___?$AA@ 3009f570     bg_panimate.obj
 0002:00006580       ??_C@_0O@LBOJOGEP@BOTH_R7_TR_S7?$AA@ 3009f580     bg_panimate.obj
 0002:00006590       ??_C@_0O@LLLGCOCK@BOTH_R7_BL_S7?$AA@ 3009f590     bg_panimate.obj
 0002:000065a0       ??_C@_0O@GEGGAHMJ@BOTH_R7_BR_S7?$AA@ 3009f5a0     bg_panimate.obj
 0002:000065b0       ??_C@_0O@GODJMPKM@BOTH_R7_TL_S7?$AA@ 3009f5b0     bg_panimate.obj
 0002:000065c0       ??_C@_0O@NLCOBGIM@BOTH_R7__R_S7?$AA@ 3009f5c0     bg_panimate.obj
 0002:000065d0       ??_C@_0O@EPODPGP@BOTH_R7__L_S7?$AA@ 3009f5d0     bg_panimate.obj
 0002:000065e0       ??_C@_0O@JMPGMDHI@BOTH_R7_B__S7?$AA@ 3009f5e0     bg_panimate.obj
 0002:000065f0       ??_C@_0O@PHIALDOO@BOTH_S7_S7_TR?$AA@ 3009f5f0     bg_panimate.obj
 0002:00006600       ??_C@_0O@DLGKFDPD@BOTH_S7_S7_BL?$AA@ 3009f600     bg_panimate.obj
 0002:00006610       ??_C@_0O@OPCLGMCM@BOTH_S7_S7_BR?$AA@ 3009f610     bg_panimate.obj
 0002:00006620       ??_C@_0O@CDMBIMDB@BOTH_S7_S7_TL?$AA@ 3009f620     bg_panimate.obj
 0002:00006630       ??_C@_0O@PLNFFMAP@BOTH_S7_S7__R?$AA@ 3009f630     bg_panimate.obj
 0002:00006640       ??_C@_0O@CPJEGDNA@BOTH_S7_S7__L?$AA@ 3009f640     bg_panimate.obj
 0002:00006650       ??_C@_0O@ECCOMNKD@BOTH_S7_S7_T_?$AA@ 3009f650     bg_panimate.obj
 0002:00006660       ??_C@_0O@BCIOBBI@BOTH_T7_BL_TL?$AA@ 3009f660     bg_panimate.obj
 0002:00006670       ??_C@_0O@GAMHKAIK@BOTH_T7_BL_T_?$AA@ 3009f670     bg_panimate.obj
 0002:00006680       ??_C@_0O@KGMLCPJP@BOTH_T7__L_BL?$AA@ 3009f680     bg_panimate.obj
 0002:00006690       ??_C@_0O@NPIPLBMP@BOTH_T7__L_T_?$AA@ 3009f690     bg_panimate.obj
 0002:000066a0       ??_C@_0O@GKCBMPIC@BOTH_T7__L_TR?$AA@ 3009f6a0     bg_panimate.obj
 0002:000066b0       ??_C@_0O@NIPCOPHP@BOTH_T7_TL__L?$AA@ 3009f6b0     bg_panimate.obj
 0002:000066c0       ??_C@_0O@LFEIEBAM@BOTH_T7_TL_T_?$AA@ 3009f6c0     bg_panimate.obj
 0002:000066d0       ??_C@_0O@OGDPEB@BOTH_T7_TL_TR?$AA@ 3009f6d0     bg_panimate.obj
 0002:000066e0       ??_C@_0O@MLDNAKA@BOTH_T7_TL__R?$AA@ 3009f6e0     bg_panimate.obj
 0002:000066f0       ??_C@_0O@GKJIGIOP@BOTH_T7_TR_T_?$AA@ 3009f6f0     bg_panimate.obj
 0002:00006700       ??_C@_0O@NDGDPJED@BOTH_T7_TR__R?$AA@ 3009f700     bg_panimate.obj
 0002:00006710       ??_C@_0O@FPJICM@BOTH_T7__R_T_?$AA@ 3009f710     bg_panimate.obj
 0002:00006720       ??_C@_0O@KNFKDJKD@BOTH_T7__R_BR?$AA@ 3009f720     bg_panimate.obj
 0002:00006730       ??_C@_0O@LPBHIJGJ@BOTH_T7_BR_T_?$AA@ 3009f730     bg_panimate.obj
 0002:00006740       ??_C@_0O@KLJPHCE@BOTH_T7_BR_TR?$AA@ 3009f740     bg_panimate.obj
 0002:00006750       ??_C@_0O@NHNAOPJ@BOTH_T7_BL__L?$AA@ 3009f750     bg_panimate.obj
 0002:00006760       ??_C@_0O@NFGJNOMH@BOTH_T7_BL_TR?$AA@ 3009f760     bg_panimate.obj
 0002:00006770       ??_C@_0O@NJDMDBCG@BOTH_T7_BL__R?$AA@ 3009f770     bg_panimate.obj
 0002:00006780       ??_C@_0O@MNMCABAF@BOTH_T7_BL_BR?$AA@ 3009f780     bg_panimate.obj
 0002:00006790       ??_C@_0O@LOGAPAFN@BOTH_T7__L_TL?$AA@ 3009f790     bg_panimate.obj
 0002:000067a0       ??_C@_0O@GGHECAGD@BOTH_T7__L__R?$AA@ 3009f7a0     bg_panimate.obj
 0002:000067b0       ??_C@_0O@HCIKBAEA@BOTH_T7__L_BR?$AA@ 3009f7b0     bg_panimate.obj
 0002:000067c0       ??_C@_0O@MMAMNPFM@BOTH_T7_TL_BL?$AA@ 3009f7c0     bg_panimate.obj
 0002:000067d0       ??_C@_0O@BIENOAID@BOTH_T7_TL_BR?$AA@ 3009f7d0     bg_panimate.obj
 0002:000067e0       ??_C@_0O@OLEMDCAO@BOTH_T7_T__BL?$AA@ 3009f7e0     bg_panimate.obj
 0002:000067f0       ??_C@_0O@PPLCACCN@BOTH_T7_T___L?$AA@ 3009f7f0     bg_panimate.obj
 0002:00006800       ??_C@_0O@PDOHONMM@BOTH_T7_T__TL?$AA@ 3009f800     bg_panimate.obj
 0002:00006810       ??_C@_0O@CHKGNCBD@BOTH_T7_T__TR?$AA@ 3009f810     bg_panimate.obj
 0002:00006820       ??_C@_0O@CLPDDNPC@BOTH_T7_T___R?$AA@ 3009f820     bg_panimate.obj
 0002:00006830       ??_C@_0O@DPANANNB@BOTH_T7_T__BR?$AA@ 3009f830     bg_panimate.obj
 0002:00006840       ??_C@_0O@BDNMPGLP@BOTH_T7_TR_BL?$AA@ 3009f840     bg_panimate.obj
 0002:00006850       ??_C@_0O@HCCMGJM@BOTH_T7_TR__L?$AA@ 3009f850     bg_panimate.obj
 0002:00006860       ??_C@_0O@LHHCJHN@BOTH_T7_TR_TL?$AA@ 3009f860     bg_panimate.obj
 0002:00006870       ??_C@_0O@MHJNMJGA@BOTH_T7_TR_BR?$AA@ 3009f870     bg_panimate.obj
 0002:00006880       ??_C@_0O@HJBLAGHM@BOTH_T7__R_BL?$AA@ 3009f880     bg_panimate.obj
 0002:00006890       ??_C@_0O@GNOFDGFP@BOTH_T7__R__L?$AA@ 3009f890     bg_panimate.obj
 0002:000068a0       ??_C@_0O@GBLANJLO@BOTH_T7__R_TL?$AA@ 3009f8a0     bg_panimate.obj
 0002:000068b0       ??_C@_0O@LFPBOGGB@BOTH_T7__R_TR?$AA@ 3009f8b0     bg_panimate.obj
 0002:000068c0       ??_C@_0O@MGFDBHDJ@BOTH_T7_BR_BL?$AA@ 3009f8c0     bg_panimate.obj
 0002:000068d0       ??_C@_0O@NCKNCHBK@BOTH_T7_BR__L?$AA@ 3009f8d0     bg_panimate.obj
 0002:000068e0       ??_C@_0O@NOPIMIPL@BOTH_T7_BR_TL?$AA@ 3009f8e0     bg_panimate.obj
 0002:000068f0       ??_C@_0O@GOMBIMF@BOTH_T7_BR__R?$AA@ 3009f8f0     bg_panimate.obj
 0002:00006900       ??_C@_0O@PFILPBIB@BOTH_A7_TR_BL?$AA@ 3009f900     bg_panimate.obj
 0002:00006910       ??_C@_0O@DDDONJPJ@BOTH_A7_BL_TR?$AA@ 3009f910     bg_panimate.obj
 0002:00006920       ??_C@_0O@DIKPMPMF@BOTH_A7_BR_TL?$AA@ 3009f920     bg_panimate.obj
 0002:00006930       ??_C@_0O@POBKOHLN@BOTH_A7_TL_BR?$AA@ 3009f930     bg_panimate.obj
 0002:00006940       ??_C@_0O@ILLCDBGB@BOTH_A7__R__L?$AA@ 3009f940     bg_panimate.obj
 0002:00006950       ??_C@_0O@IACDCHFN@BOTH_A7__L__R?$AA@ 3009f950     bg_panimate.obj
 0002:00006960       ??_C@_0O@GMPEHEKC@BOTH_A7_T__B_?$AA@ 3009f960     bg_panimate.obj
 0002:00006970       ??_C@_0O@CLLIOANG@BOTH_D6_B____?$AA@ 3009f970     bg_panimate.obj
 0002:00006980       ??_C@_0O@MPIANIE@BOTH_D6_BL___?$AA@ 3009f980     bg_panimate.obj
 0002:00006990       ??_C@_0O@LDLABMMB@BOTH_D6__L___?$AA@ 3009f990     bg_panimate.obj
 0002:000069a0       ??_C@_0O@NJHHOMAC@BOTH_D6_TL___?$AA@ 3009f9a0     bg_panimate.obj
 0002:000069b0       ??_C@_0O@GKHMFOB@BOTH_D6_TR___?$AA@ 3009f9b0     bg_panimate.obj
 0002:000069c0       ??_C@_0O@GMGADFCC@BOTH_D6__R___?$AA@ 3009f9c0     bg_panimate.obj
 0002:000069d0       ??_C@_0O@NDCICEGH@BOTH_D6_BR___?$AA@ 3009f9d0     bg_panimate.obj
 0002:000069e0       ??_C@_0O@HPOCHEAO@BOTH_B6_BL___?$AA@ 3009f9e0     bg_panimate.obj
 0002:000069f0       ??_C@_0O@MAKKGFEL@BOTH_B6__L___?$AA@ 3009f9f0     bg_panimate.obj
 0002:00006a00       ??_C@_0O@KKGNJFII@BOTH_B6_TL___?$AA@ 3009fa00     bg_panimate.obj
 0002:00006a10       ??_C@_0O@INCNHINK@BOTH_B6_T____?$AA@ 3009fa10     bg_panimate.obj
 0002:00006a20       ??_C@_0O@HFLNLMGL@BOTH_B6_TR___?$AA@ 3009fa20     bg_panimate.obj
 0002:00006a30       ??_C@_0O@BPHKEMKI@BOTH_B6__R___?$AA@ 3009fa30     bg_panimate.obj
 0002:00006a40       ??_C@_0O@KADCFNON@BOTH_B6_BR___?$AA@ 3009fa40     bg_panimate.obj
 0002:00006a50       ??_C@_0O@GEFINHJA@BOTH_R6_TR_S6?$AA@ 3009fa50     bg_panimate.obj
 0002:00006a60       ??_C@_0O@GOAHBPPF@BOTH_R6_BL_S6?$AA@ 3009fa60     bg_panimate.obj
 0002:00006a70       ??_C@_0O@LBNHDGBG@BOTH_R6_BR_S6?$AA@ 3009fa70     bg_panimate.obj
 0002:00006a80       ??_C@_0O@LLIIPOHD@BOTH_R6_TL_S6?$AA@ 3009fa80     bg_panimate.obj
 0002:00006a90       ??_C@_0O@OJPCHFD@BOTH_R6__R_S6?$AA@ 3009fa90     bg_panimate.obj
 0002:00006aa0       ??_C@_0O@NBEPAOLA@BOTH_R6__L_S6?$AA@ 3009faa0     bg_panimate.obj
 0002:00006ab0       ??_C@_0O@EJEHPCKH@BOTH_R6_B__S6?$AA@ 3009fab0     bg_panimate.obj
 0002:00006ac0       ??_C@_0O@GEKJKMA@BOTH_S6_S6_TR?$AA@ 3009fac0     bg_panimate.obj
 0002:00006ad0       ??_C@_0O@MKKAHKNN@BOTH_S6_S6_BL?$AA@ 3009fad0     bg_panimate.obj
 0002:00006ae0       ??_C@_0O@BOOBEFAC@BOTH_S6_S6_BR?$AA@ 3009fae0     bg_panimate.obj
 0002:00006af0       ??_C@_0O@NCALKFBP@BOTH_S6_S6_TL?$AA@ 3009faf0     bg_panimate.obj
 0002:00006b00       ??_C@_0O@KBPHFCB@BOTH_S6_S6__R?$AA@ 3009fb00     bg_panimate.obj
 0002:00006b10       ??_C@_0O@NOFOEKPO@BOTH_S6_S6__L?$AA@ 3009fb10     bg_panimate.obj
 0002:00006b20       ??_C@_0O@LDOEOEIN@BOTH_S6_S6_T_?$AA@ 3009fb20     bg_panimate.obj
 0002:00006b30       ??_C@_0O@MNICOBIG@BOTH_T6_BL_TL?$AA@ 3009fb30     bg_panimate.obj
 0002:00006b40       ??_C@_0O@KMGNKABE@BOTH_T6_BL_T_?$AA@ 3009fb40     bg_panimate.obj
 0002:00006b50       ??_C@_0O@GKGBCPAB@BOTH_T6__L_BL?$AA@ 3009fb50     bg_panimate.obj
 0002:00006b60       ??_C@_0O@BDCFLBFB@BOTH_T6__L_T_?$AA@ 3009fb60     bg_panimate.obj
 0002:00006b70       ??_C@_0O@KGILMPBM@BOTH_T6__L_TR?$AA@ 3009fb70     bg_panimate.obj
 0002:00006b80       ??_C@_0O@BEFIOPOB@BOTH_T6_TL__L?$AA@ 3009fb80     bg_panimate.obj
 0002:00006b90       ??_C@_0O@HJOCEBJC@BOTH_T6_TL_T_?$AA@ 3009fb90     bg_panimate.obj
 0002:00006ba0       ??_C@_0O@MMEMDPNP@BOTH_T6_TL_TR?$AA@ 3009fba0     bg_panimate.obj
 0002:00006bb0       ??_C@_0O@MABJNADO@BOTH_T6_TL__R?$AA@ 3009fbb0     bg_panimate.obj
 0002:00006bc0       ??_C@_0O@KGDCGIHB@BOTH_T6_TR_T_?$AA@ 3009fbc0     bg_panimate.obj
 0002:00006bd0       ??_C@_0O@BPMJPJNN@BOTH_T6_TR__R?$AA@ 3009fbd0     bg_panimate.obj
 0002:00006be0       ??_C@_0O@MMPFJILC@BOTH_T6__R_T_?$AA@ 3009fbe0     bg_panimate.obj
 0002:00006bf0       ??_C@_0O@GBPADJDN@BOTH_T6__R_BR?$AA@ 3009fbf0     bg_panimate.obj
 0002:00006c00       ??_C@_0O@HDLNIJPH@BOTH_T6_BR_T_?$AA@ 3009fc00     bg_panimate.obj
 0002:00006c10       ??_C@_0O@MGBDPHLK@BOTH_T6_BR_TR?$AA@ 3009fc10     bg_panimate.obj
 0002:00006c20       ??_C@_0O@MBNHAOGH@BOTH_T6_BL__L?$AA@ 3009fc20     bg_panimate.obj
 0002:00006c30       ??_C@_0O@BJMDNOFJ@BOTH_T6_BL_TR?$AA@ 3009fc30     bg_panimate.obj
 0002:00006c40       ??_C@_0O@BFJGDBLI@BOTH_T6_BL__R?$AA@ 3009fc40     bg_panimate.obj
 0002:00006c50       ??_C@_0O@BGIABJL@BOTH_T6_BL_BR?$AA@ 3009fc50     bg_panimate.obj
 0002:00006c60       ??_C@_0O@HCMKPAMD@BOTH_T6__L_TL?$AA@ 3009fc60     bg_panimate.obj
 0002:00006c70       ??_C@_0O@KKNOCAPN@BOTH_T6__L__R?$AA@ 3009fc70     bg_panimate.obj
 0002:00006c80       ??_C@_0O@LOCABANO@BOTH_T6__L_BR?$AA@ 3009fc80     bg_panimate.obj
 0002:00006c90       ??_C@_0O@KGNPMC@BOTH_T6_TL_BL?$AA@ 3009fc90     bg_panimate.obj
 0002:00006ca0       ??_C@_0O@NEOHOABN@BOTH_T6_TL_BR?$AA@ 3009fca0     bg_panimate.obj
 0002:00006cb0       ??_C@_0O@CHOGDCJA@BOTH_T6_T__BL?$AA@ 3009fcb0     bg_panimate.obj
 0002:00006cc0       ??_C@_0O@DDBIACLD@BOTH_T6_T___L?$AA@ 3009fcc0     bg_panimate.obj
 0002:00006cd0       ??_C@_0O@DPENONFC@BOTH_T6_T__TL?$AA@ 3009fcd0     bg_panimate.obj
 0002:00006ce0       ??_C@_0O@OLAMNCIN@BOTH_T6_T__TR?$AA@ 3009fce0     bg_panimate.obj
 0002:00006cf0       ??_C@_0O@OHFJDNGM@BOTH_T6_T___R?$AA@ 3009fcf0     bg_panimate.obj
 0002:00006d00       ??_C@_0O@PDKHANEP@BOTH_T6_T__BR?$AA@ 3009fd00     bg_panimate.obj
 0002:00006d10       ??_C@_0O@NPHGPGCB@BOTH_T6_TR_BL?$AA@ 3009fd10     bg_panimate.obj
 0002:00006d20       ??_C@_0O@MLIIMGAC@BOTH_T6_TR__L?$AA@ 3009fd20     bg_panimate.obj
 0002:00006d30       ??_C@_0O@MHNNCJOD@BOTH_T6_TR_TL?$AA@ 3009fd30     bg_panimate.obj
 0002:00006d40       ??_C@_0O@LDHMJPO@BOTH_T6_TR_BR?$AA@ 3009fd40     bg_panimate.obj
 0002:00006d50       ??_C@_0O@LFLBAGOC@BOTH_T6__R_BL?$AA@ 3009fd50     bg_panimate.obj
 0002:00006d60       ??_C@_0O@KBEPDGMB@BOTH_T6__R__L?$AA@ 3009fd60     bg_panimate.obj
 0002:00006d70       ??_C@_0O@KNBKNJCA@BOTH_T6__R_TL?$AA@ 3009fd70     bg_panimate.obj
 0002:00006d80       ??_C@_0O@HJFLOGPP@BOTH_T6__R_TR?$AA@ 3009fd80     bg_panimate.obj
 0002:00006d90       ??_C@_0O@KPJBHKH@BOTH_T6_BR_BL?$AA@ 3009fd90     bg_panimate.obj
 0002:00006da0       ??_C@_0O@BOAHCHIE@BOTH_T6_BR__L?$AA@ 3009fda0     bg_panimate.obj
 0002:00006db0       ??_C@_0O@BCFCMIGF@BOTH_T6_BR_TL?$AA@ 3009fdb0     bg_panimate.obj
 0002:00006dc0       ??_C@_0O@MKEGBIFL@BOTH_T6_BR__R?$AA@ 3009fdc0     bg_panimate.obj
 0002:00006dd0       ??_C@_0O@DJCBPBBP@BOTH_A6_TR_BL?$AA@ 3009fdd0     bg_panimate.obj
 0002:00006de0       ??_C@_0O@PPJENJGH@BOTH_A6_BL_TR?$AA@ 3009fde0     bg_panimate.obj
 0002:00006df0       ??_C@_0O@PEAFMPFL@BOTH_A6_BR_TL?$AA@ 3009fdf0     bg_panimate.obj
 0002:00006e00       ??_C@_0O@DCLAOHCD@BOTH_A6_TL_BR?$AA@ 3009fe00     bg_panimate.obj
 0002:00006e10       ??_C@_0O@EHBIDBPP@BOTH_A6__R__L?$AA@ 3009fe10     bg_panimate.obj
 0002:00006e20       ??_C@_0O@EMIJCHMD@BOTH_A6__L__R?$AA@ 3009fe20     bg_panimate.obj
 0002:00006e30       ??_C@_0O@KAFOHEDM@BOTH_A6_T__B_?$AA@ 3009fe30     bg_panimate.obj
 0002:00006e40       ??_C@_0O@KFDHOHDF@BOTH_D5_B____?$AA@ 3009fe40     bg_panimate.obj
 0002:00006e50       ??_C@_0O@ICHHAKGH@BOTH_D5_BL___?$AA@ 3009fe50     bg_panimate.obj
 0002:00006e60       ??_C@_0O@DNDPBLCC@BOTH_D5__L___?$AA@ 3009fe60     bg_panimate.obj
 0002:00006e70       ??_C@_0O@FHPIOLOB@BOTH_D5_TL___?$AA@ 3009fe70     bg_panimate.obj
 0002:00006e80       ??_C@_0O@IICIMCAC@BOTH_D5_TR___?$AA@ 3009fe80     bg_panimate.obj
 0002:00006e90       ??_C@_0O@OCOPDCMB@BOTH_D5__R___?$AA@ 3009fe90     bg_panimate.obj
 0002:00006ea0       ??_C@_0O@FNKHCDIE@BOTH_D5_BR___?$AA@ 3009fea0     bg_panimate.obj
 0002:00006eb0       ??_C@_0O@PBGNHDON@BOTH_B5_BL___?$AA@ 3009feb0     bg_panimate.obj
 0002:00006ec0       ??_C@_0O@EOCFGCKI@BOTH_B5__L___?$AA@ 3009fec0     bg_panimate.obj
 0002:00006ed0       ??_C@_0O@CEOCJCGL@BOTH_B5_TL___?$AA@ 3009fed0     bg_panimate.obj
 0002:00006ee0       ??_C@_0O@DKCHPDJ@BOTH_B5_T____?$AA@ 3009fee0     bg_panimate.obj
 0002:00006ef0       ??_C@_0O@PLDCLLII@BOTH_B5_TR___?$AA@ 3009fef0     bg_panimate.obj
 0002:00006f00       ??_C@_0O@JBPFELEL@BOTH_B5__R___?$AA@ 3009ff00     bg_panimate.obj
 0002:00006f10       ??_C@_0O@COLNFKAO@BOTH_B5_BR___?$AA@ 3009ff10     bg_panimate.obj
 0002:00006f20       ??_C@_0O@KFJGEGLE@BOTH_R5_TR_S1?$AA@ 3009ff20     bg_panimate.obj
 0002:00006f30       ??_C@_0O@KPMJIONB@BOTH_R5_BL_S1?$AA@ 3009ff30     bg_panimate.obj
 0002:00006f40       ??_C@_0O@HABJKHDC@BOTH_R5_BR_S1?$AA@ 3009ff40     bg_panimate.obj
 0002:00006f50       ??_C@_0O@HKEGGPFH@BOTH_R5_TL_S1?$AA@ 3009ff50     bg_panimate.obj
 0002:00006f60       ??_C@_0O@MPFBLGHH@BOTH_R5__R_S1?$AA@ 3009ff60     bg_panimate.obj
 0002:00006f70       ??_C@_0O@BAIBJPJE@BOTH_R5__L_S1?$AA@ 3009ff70     bg_panimate.obj
 0002:00006f80       ??_C@_0O@IIIJGDID@BOTH_R5_B__S1?$AA@ 3009ff80     bg_panimate.obj
 0002:00006f90       ??_C@_0O@DKOFEBDD@BOTH_S5_S1_TR?$AA@ 3009ff90     bg_panimate.obj
 0002:00006fa0       ??_C@_0O@PGAPKBCO@BOTH_S5_S1_BL?$AA@ 3009ffa0     bg_panimate.obj
 0002:00006fb0       ??_C@_0O@CCEOJOPB@BOTH_S5_S1_BR?$AA@ 3009ffb0     bg_panimate.obj
 0002:00006fc0       ??_C@_0O@OOKEHOOM@BOTH_S5_S1_TL?$AA@ 3009ffc0     bg_panimate.obj
 0002:00006fd0       ??_C@_0O@DGLAKONC@BOTH_S5_S1__R?$AA@ 3009ffd0     bg_panimate.obj
 0002:00006fe0       ??_C@_0O@OCPBJBAN@BOTH_S5_S1__L?$AA@ 3009ffe0     bg_panimate.obj
 0002:00006ff0       ??_C@_0O@IPELDPHO@BOTH_S5_S1_T_?$AA@ 3009fff0     bg_panimate.obj
 0002:00007000       ??_C@_0O@EDANOGGF@BOTH_T5_BL_TL?$AA@ 300a0000     bg_panimate.obj
 0002:00007010       ??_C@_0O@CCOCKHPH@BOTH_T5_BL_T_?$AA@ 300a0010     bg_panimate.obj
 0002:00007020       ??_C@_0O@OEOOCIOC@BOTH_T5__L_BL?$AA@ 300a0020     bg_panimate.obj
 0002:00007030       ??_C@_0O@JNKKLGLC@BOTH_T5__L_T_?$AA@ 300a0030     bg_panimate.obj
 0002:00007040       ??_C@_0O@CIAEMIPP@BOTH_T5__L_TR?$AA@ 300a0040     bg_panimate.obj
 0002:00007050       ??_C@_0O@JKNHOIAC@BOTH_T5_TL__L?$AA@ 300a0050     bg_panimate.obj
 0002:00007060       ??_C@_0O@PHGNEGHB@BOTH_T5_TL_T_?$AA@ 300a0060     bg_panimate.obj
 0002:00007070       ??_C@_0O@ECMDDIDM@BOTH_T5_TL_TR?$AA@ 300a0070     bg_panimate.obj
 0002:00007080       ??_C@_0O@EOJGNHNN@BOTH_T5_TL__R?$AA@ 300a0080     bg_panimate.obj
 0002:00007090       ??_C@_0O@CILNGPJC@BOTH_T5_TR_T_?$AA@ 300a0090     bg_panimate.obj
 0002:000070a0       ??_C@_0O@JBEGPODO@BOTH_T5_TR__R?$AA@ 300a00a0     bg_panimate.obj
 0002:000070b0       ??_C@_0O@ECHKJPFB@BOTH_T5__R_T_?$AA@ 300a00b0     bg_panimate.obj
 0002:000070c0       ??_C@_0O@OPHPDONO@BOTH_T5__R_BR?$AA@ 300a00c0     bg_panimate.obj
 0002:000070d0       ??_C@_0O@PNDCIOBE@BOTH_T5_BR_T_?$AA@ 300a00d0     bg_panimate.obj
 0002:000070e0       ??_C@_0O@EIJMPAFJ@BOTH_T5_BR_TR?$AA@ 300a00e0     bg_panimate.obj
 0002:000070f0       ??_C@_0O@EPFIAJIE@BOTH_T5_BL__L?$AA@ 300a00f0     bg_panimate.obj
 0002:00007100       ??_C@_0O@JHEMNJLK@BOTH_T5_BL_TR?$AA@ 300a0100     bg_panimate.obj
 0002:00007110       ??_C@_0O@JLBJDGFL@BOTH_T5_BL__R?$AA@ 300a0110     bg_panimate.obj
 0002:00007120       ??_C@_0O@IPOHAGHI@BOTH_T5_BL_BR?$AA@ 300a0120     bg_panimate.obj
 0002:00007130       ??_C@_0O@PMEFPHCA@BOTH_T5__L_TL?$AA@ 300a0130     bg_panimate.obj
 0002:00007140       ??_C@_0O@CEFBCHBO@BOTH_T5__L__R?$AA@ 300a0140     bg_panimate.obj
 0002:00007150       ??_C@_0O@DAKPBHDN@BOTH_T5__L_BR?$AA@ 300a0150     bg_panimate.obj
 0002:00007160       ??_C@_0O@IOCJNICB@BOTH_T5_TL_BL?$AA@ 300a0160     bg_panimate.obj
 0002:00007170       ??_C@_0O@FKGIOHPO@BOTH_T5_TL_BR?$AA@ 300a0170     bg_panimate.obj
 0002:00007180       ??_C@_0O@KJGJDFHD@BOTH_T5_T__BL?$AA@ 300a0180     bg_panimate.obj
 0002:00007190       ??_C@_0O@LNJHAFFA@BOTH_T5_T___L?$AA@ 300a0190     bg_panimate.obj
 0002:000071a0       ??_C@_0O@LBMCOKLB@BOTH_T5_T__TL?$AA@ 300a01a0     bg_panimate.obj
 0002:000071b0       ??_C@_0O@GFIDNFGO@BOTH_T5_T__TR?$AA@ 300a01b0     bg_panimate.obj
 0002:000071c0       ??_C@_0O@GJNGDKIP@BOTH_T5_T___R?$AA@ 300a01c0     bg_panimate.obj
 0002:000071d0       ??_C@_0O@HNCIAKKM@BOTH_T5_T__BR?$AA@ 300a01d0     bg_panimate.obj
 0002:000071e0       ??_C@_0O@FBPJPBMC@BOTH_T5_TR_BL?$AA@ 300a01e0     bg_panimate.obj
 0002:000071f0       ??_C@_0O@EFAHMBOB@BOTH_T5_TR__L?$AA@ 300a01f0     bg_panimate.obj
 0002:00007200       ??_C@_0O@EJFCCOAA@BOTH_T5_TR_TL?$AA@ 300a0200     bg_panimate.obj
 0002:00007210       ??_C@_0O@IFLIMOBN@BOTH_T5_TR_BR?$AA@ 300a0210     bg_panimate.obj
 0002:00007220       ??_C@_0O@DLDOABAB@BOTH_T5__R_BL?$AA@ 300a0220     bg_panimate.obj
 0002:00007230       ??_C@_0O@CPMADBCC@BOTH_T5__R__L?$AA@ 300a0230     bg_panimate.obj
 0002:00007240       ??_C@_0O@CDJFNOMD@BOTH_T5__R_TL?$AA@ 300a0240     bg_panimate.obj
 0002:00007250       ??_C@_0O@PHNEOBBM@BOTH_T5__R_TR?$AA@ 300a0250     bg_panimate.obj
 0002:00007260       ??_C@_0O@IEHGBAEE@BOTH_T5_BR_BL?$AA@ 300a0260     bg_panimate.obj
 0002:00007270       ??_C@_0O@JAIICAGH@BOTH_T5_BR__L?$AA@ 300a0270     bg_panimate.obj
 0002:00007280       ??_C@_0O@JMNNMPIG@BOTH_T5_BR_TL?$AA@ 300a0280     bg_panimate.obj
 0002:00007290       ??_C@_0O@EEMJBPLI@BOTH_T5_BR__R?$AA@ 300a0290     bg_panimate.obj
 0002:000072a0       ??_C@_0O@LHKOPGPM@BOTH_A5_TR_BL?$AA@ 300a02a0     bg_panimate.obj
 0002:000072b0       ??_C@_0O@HBBLNOIE@BOTH_A5_BL_TR?$AA@ 300a02b0     bg_panimate.obj
 0002:000072c0       ??_C@_0O@HKIKMILI@BOTH_A5_BR_TL?$AA@ 300a02c0     bg_panimate.obj
 0002:000072d0       ??_C@_0O@LMDPOAMA@BOTH_A5_TL_BR?$AA@ 300a02d0     bg_panimate.obj
 0002:000072e0       ??_C@_0O@MJJHDGBM@BOTH_A5__R__L?$AA@ 300a02e0     bg_panimate.obj
 0002:000072f0       ??_C@_0O@MCAGCACA@BOTH_A5__L__R?$AA@ 300a02f0     bg_panimate.obj
 0002:00007300       ??_C@_0O@CONBHDNP@BOTH_A5_T__B_?$AA@ 300a0300     bg_panimate.obj
 0002:00007310       ??_C@_0O@GJJNOHKL@BOTH_D4_B____?$AA@ 300a0310     bg_panimate.obj
 0002:00007320       ??_C@_0O@EONNAKPJ@BOTH_D4_BL___?$AA@ 300a0320     bg_panimate.obj
 0002:00007330       ??_C@_0O@PBJFBLLM@BOTH_D4__L___?$AA@ 300a0330     bg_panimate.obj
 0002:00007340       ??_C@_0O@JLFCOLHP@BOTH_D4_TL___?$AA@ 300a0340     bg_panimate.obj
 0002:00007350       ??_C@_0O@EEICMCJM@BOTH_D4_TR___?$AA@ 300a0350     bg_panimate.obj
 0002:00007360       ??_C@_0O@COEFDCFP@BOTH_D4__R___?$AA@ 300a0360     bg_panimate.obj
 0002:00007370       ??_C@_0O@JBANCDBK@BOTH_D4_BR___?$AA@ 300a0370     bg_panimate.obj
 0002:00007380       ??_C@_0O@DNMHHDHD@BOTH_B4_BL___?$AA@ 300a0380     bg_panimate.obj
 0002:00007390       ??_C@_0O@ICIPGCDG@BOTH_B4__L___?$AA@ 300a0390     bg_panimate.obj
 0002:000073a0       ??_C@_0O@OIEIJCPF@BOTH_B4_TL___?$AA@ 300a03a0     bg_panimate.obj
 0002:000073b0       ??_C@_0O@MPAIHPKH@BOTH_B4_T____?$AA@ 300a03b0     bg_panimate.obj
 0002:000073c0       ??_C@_0O@DHJILLBG@BOTH_B4_TR___?$AA@ 300a03c0     bg_panimate.obj
 0002:000073d0       ??_C@_0O@FNFPELNF@BOTH_B4__R___?$AA@ 300a03d0     bg_panimate.obj
 0002:000073e0       ??_C@_0O@OCBHFKJA@BOTH_B4_BR___?$AA@ 300a03e0     bg_panimate.obj
 0002:000073f0       ??_C@_0O@GJDMEGCK@BOTH_R4_TR_S1?$AA@ 300a03f0     bg_panimate.obj
 0002:00007400       ??_C@_0O@GDGDIOEP@BOTH_R4_BL_S1?$AA@ 300a0400     bg_panimate.obj
 0002:00007410       ??_C@_0O@LMLDKHKM@BOTH_R4_BR_S1?$AA@ 300a0410     bg_panimate.obj
 0002:00007420       ??_C@_0O@LGOMGPMJ@BOTH_R4_TL_S1?$AA@ 300a0420     bg_panimate.obj
 0002:00007430       ??_C@_0O@DPLLGOJ@BOTH_R4__R_S1?$AA@ 300a0430     bg_panimate.obj
 0002:00007440       ??_C@_0O@NMCLJPAK@BOTH_R4__L_S1?$AA@ 300a0440     bg_panimate.obj
 0002:00007450       ??_C@_0O@EECDGDBN@BOTH_R4_B__S1?$AA@ 300a0450     bg_panimate.obj
 0002:00007460       ??_C@_0O@PGEPEBKN@BOTH_S4_S1_TR?$AA@ 300a0460     bg_panimate.obj
 0002:00007470       ??_C@_0O@DKKFKBLA@BOTH_S4_S1_BL?$AA@ 300a0470     bg_panimate.obj
 0002:00007480       ??_C@_0O@OOOEJOGP@BOTH_S4_S1_BR?$AA@ 300a0480     bg_panimate.obj
 0002:00007490       ??_C@_0O@CCAOHOHC@BOTH_S4_S1_TL?$AA@ 300a0490     bg_panimate.obj
 0002:000074a0       ??_C@_0O@PKBKKOEM@BOTH_S4_S1__R?$AA@ 300a04a0     bg_panimate.obj
 0002:000074b0       ??_C@_0O@COFLJBJD@BOTH_S4_S1__L?$AA@ 300a04b0     bg_panimate.obj
 0002:000074c0       ??_C@_0O@EDOBDPOA@BOTH_S4_S1_T_?$AA@ 300a04c0     bg_panimate.obj
 0002:000074d0       ??_C@_0O@IPKHOGPL@BOTH_T4_BL_TL?$AA@ 300a04d0     bg_panimate.obj
 0002:000074e0       ??_C@_0O@OOEIKHGJ@BOTH_T4_BL_T_?$AA@ 300a04e0     bg_panimate.obj
 0002:000074f0       ??_C@_0O@CIEECIHM@BOTH_T4__L_BL?$AA@ 300a04f0     bg_panimate.obj
 0002:00007500       ??_C@_0O@FBAALGCM@BOTH_T4__L_T_?$AA@ 300a0500     bg_panimate.obj
 0002:00007510       ??_C@_0O@OEKOMIGB@BOTH_T4__L_TR?$AA@ 300a0510     bg_panimate.obj
 0002:00007520       ??_C@_0O@FGHNOIJM@BOTH_T4_TL__L?$AA@ 300a0520     bg_panimate.obj
 0002:00007530       ??_C@_0O@DLMHEGOP@BOTH_T4_TL_T_?$AA@ 300a0530     bg_panimate.obj
 0002:00007540       ??_C@_0O@IOGJDIKC@BOTH_T4_TL_TR?$AA@ 300a0540     bg_panimate.obj
 0002:00007550       ??_C@_0O@ICDMNHED@BOTH_T4_TL__R?$AA@ 300a0550     bg_panimate.obj
 0002:00007560       ??_C@_0O@OEBHGPAM@BOTH_T4_TR_T_?$AA@ 300a0560     bg_panimate.obj
 0002:00007570       ??_C@_0O@FNOMPOKA@BOTH_T4_TR__R?$AA@ 300a0570     bg_panimate.obj
 0002:00007580       ??_C@_0O@IONAJPMP@BOTH_T4__R_T_?$AA@ 300a0580     bg_panimate.obj
 0002:00007590       ??_C@_0O@CDNFDOEA@BOTH_T4__R_BR?$AA@ 300a0590     bg_panimate.obj
 0002:000075a0       ??_C@_0O@DBJIIOIK@BOTH_T4_BR_T_?$AA@ 300a05a0     bg_panimate.obj
 0002:000075b0       ??_C@_0O@IEDGPAMH@BOTH_T4_BR_TR?$AA@ 300a05b0     bg_panimate.obj
 0002:000075c0       ??_C@_0O@IDPCAJBK@BOTH_T4_BL__L?$AA@ 300a05c0     bg_panimate.obj
 0002:000075d0       ??_C@_0O@FLOGNJCE@BOTH_T4_BL_TR?$AA@ 300a05d0     bg_panimate.obj
 0002:000075e0       ??_C@_0O@FHLDDGMF@BOTH_T4_BL__R?$AA@ 300a05e0     bg_panimate.obj
 0002:000075f0       ??_C@_0O@EDENAGOG@BOTH_T4_BL_BR?$AA@ 300a05f0     bg_panimate.obj
 0002:00007600       ??_C@_0O@DAOPPHLO@BOTH_T4__L_TL?$AA@ 300a0600     bg_panimate.obj
 0002:00007610       ??_C@_0O@OIPLCHIA@BOTH_T4__L__R?$AA@ 300a0610     bg_panimate.obj
 0002:00007620       ??_C@_0O@PMAFBHKD@BOTH_T4__L_BR?$AA@ 300a0620     bg_panimate.obj
 0002:00007630       ??_C@_0O@ECIDNILP@BOTH_T4_TL_BL?$AA@ 300a0630     bg_panimate.obj
 0002:00007640       ??_C@_0O@JGMCOHGA@BOTH_T4_TL_BR?$AA@ 300a0640     bg_panimate.obj
 0002:00007650       ??_C@_0O@GFMDDFON@BOTH_T4_T__BL?$AA@ 300a0650     bg_panimate.obj
 0002:00007660       ??_C@_0O@HBDNAFMO@BOTH_T4_T___L?$AA@ 300a0660     bg_panimate.obj
 0002:00007670       ??_C@_0O@HNGIOKCP@BOTH_T4_T__TL?$AA@ 300a0670     bg_panimate.obj
 0002:00007680       ??_C@_0O@KJCJNFPA@BOTH_T4_T__TR?$AA@ 300a0680     bg_panimate.obj
 0002:00007690       ??_C@_0O@KFHMDKBB@BOTH_T4_T___R?$AA@ 300a0690     bg_panimate.obj
 0002:000076a0       ??_C@_0O@LBICAKDC@BOTH_T4_T__BR?$AA@ 300a06a0     bg_panimate.obj
 0002:000076b0       ??_C@_0O@JNFDPBFM@BOTH_T4_TR_BL?$AA@ 300a06b0     bg_panimate.obj
 0002:000076c0       ??_C@_0O@IJKNMBHP@BOTH_T4_TR__L?$AA@ 300a06c0     bg_panimate.obj
 0002:000076d0       ??_C@_0O@IFPICOJO@BOTH_T4_TR_TL?$AA@ 300a06d0     bg_panimate.obj
 0002:000076e0       ??_C@_0O@EJBCMOID@BOTH_T4_TR_BR?$AA@ 300a06e0     bg_panimate.obj
 0002:000076f0       ??_C@_0O@PHJEABJP@BOTH_T4__R_BL?$AA@ 300a06f0     bg_panimate.obj
 0002:00007700       ??_C@_0O@ODGKDBLM@BOTH_T4__R__L?$AA@ 300a0700     bg_panimate.obj
 0002:00007710       ??_C@_0O@OPDPNOFN@BOTH_T4__R_TL?$AA@ 300a0710     bg_panimate.obj
 0002:00007720       ??_C@_0O@DLHOOBIC@BOTH_T4__R_TR?$AA@ 300a0720     bg_panimate.obj
 0002:00007730       ??_C@_0O@EINMBANK@BOTH_T4_BR_BL?$AA@ 300a0730     bg_panimate.obj
 0002:00007740       ??_C@_0O@FMCCCAPJ@BOTH_T4_BR__L?$AA@ 300a0740     bg_panimate.obj
 0002:00007750       ??_C@_0O@FAHHMPBI@BOTH_T4_BR_TL?$AA@ 300a0750     bg_panimate.obj
 0002:00007760       ??_C@_0O@IIGDBPCG@BOTH_T4_BR__R?$AA@ 300a0760     bg_panimate.obj
 0002:00007770       ??_C@_0O@HLAEPGGC@BOTH_A4_TR_BL?$AA@ 300a0770     bg_panimate.obj
 0002:00007780       ??_C@_0O@LNLBNOBK@BOTH_A4_BL_TR?$AA@ 300a0780     bg_panimate.obj
 0002:00007790       ??_C@_0O@LGCAMICG@BOTH_A4_BR_TL?$AA@ 300a0790     bg_panimate.obj
 0002:000077a0       ??_C@_0O@HAJFOAFO@BOTH_A4_TL_BR?$AA@ 300a07a0     bg_panimate.obj
 0002:000077b0       ??_C@_0O@FDNDGIC@BOTH_A4__R__L?$AA@ 300a07b0     bg_panimate.obj
 0002:000077c0       ??_C@_0O@OKMCALO@BOTH_A4__L__R?$AA@ 300a07c0     bg_panimate.obj
 0002:000077d0       ??_C@_0O@OCHLHDEB@BOTH_A4_T__B_?$AA@ 300a07d0     bg_panimate.obj
 0002:000077e0       ??_C@_0O@GDFIOOLC@BOTH_D3_B____?$AA@ 300a07e0     bg_panimate.obj
 0002:000077f0       ??_C@_0O@EEBIADOA@BOTH_D3_BL___?$AA@ 300a07f0     bg_panimate.obj
 0002:00007800       ??_C@_0O@PLFABCKF@BOTH_D3__L___?$AA@ 300a0800     bg_panimate.obj
 0002:00007810       ??_C@_0O@JBJHOCGG@BOTH_D3_TL___?$AA@ 300a0810     bg_panimate.obj
 0002:00007820       ??_C@_0O@EOEHMLIF@BOTH_D3_TR___?$AA@ 300a0820     bg_panimate.obj
 0002:00007830       ??_C@_0O@CEIADLEG@BOTH_D3__R___?$AA@ 300a0830     bg_panimate.obj
 0002:00007840       ??_C@_0O@JLMICKAD@BOTH_D3_BR___?$AA@ 300a0840     bg_panimate.obj
 0002:00007850       ??_C@_0O@DHACHKGK@BOTH_B3_BL___?$AA@ 300a0850     bg_panimate.obj
 0002:00007860       ??_C@_0O@IIEKGLCP@BOTH_B3__L___?$AA@ 300a0860     bg_panimate.obj
 0002:00007870       ??_C@_0O@OCINJLOM@BOTH_B3_TL___?$AA@ 300a0870     bg_panimate.obj
 0002:00007880       ??_C@_0O@MFMNHGLO@BOTH_B3_T____?$AA@ 300a0880     bg_panimate.obj
 0002:00007890       ??_C@_0O@DNFNLCAP@BOTH_B3_TR___?$AA@ 300a0890     bg_panimate.obj
 0002:000078a0       ??_C@_0O@FHJKECMM@BOTH_B3__R___?$AA@ 300a08a0     bg_panimate.obj
 0002:000078b0       ??_C@_0O@OINCFDIJ@BOTH_B3_BR___?$AA@ 300a08b0     bg_panimate.obj
 0002:000078c0       ??_C@_0O@GDPJEPDD@BOTH_R3_TR_S1?$AA@ 300a08c0     bg_panimate.obj
 0002:000078d0       ??_C@_0O@GJKGIHFG@BOTH_R3_BL_S1?$AA@ 300a08d0     bg_panimate.obj
 0002:000078e0       ??_C@_0O@LGHGKOLF@BOTH_R3_BR_S1?$AA@ 300a08e0     bg_panimate.obj
 0002:000078f0       ??_C@_0O@LMCJGGNA@BOTH_R3_TL_S1?$AA@ 300a08f0     bg_panimate.obj
 0002:00007900       ??_C@_0O@JDOLPPA@BOTH_R3__R_S1?$AA@ 300a0900     bg_panimate.obj
 0002:00007910       ??_C@_0O@NGOOJGBD@BOTH_R3__L_S1?$AA@ 300a0910     bg_panimate.obj
 0002:00007920       ??_C@_0O@EOOGGKAE@BOTH_R3_B__S1?$AA@ 300a0920     bg_panimate.obj
 0002:00007930       ??_C@_0O@PMIKEILE@BOTH_S3_S1_TR?$AA@ 300a0930     bg_panimate.obj
 0002:00007940       ??_C@_0O@DAGAKIKJ@BOTH_S3_S1_BL?$AA@ 300a0940     bg_panimate.obj
 0002:00007950       ??_C@_0O@OECBJHHG@BOTH_S3_S1_BR?$AA@ 300a0950     bg_panimate.obj
 0002:00007960       ??_C@_0O@CIMLHHGL@BOTH_S3_S1_TL?$AA@ 300a0960     bg_panimate.obj
 0002:00007970       ??_C@_0O@PANPKHFF@BOTH_S3_S1__R?$AA@ 300a0970     bg_panimate.obj
 0002:00007980       ??_C@_0O@CEJOJIIK@BOTH_S3_S1__L?$AA@ 300a0980     bg_panimate.obj
 0002:00007990       ??_C@_0O@EJCEDGPJ@BOTH_S3_S1_T_?$AA@ 300a0990     bg_panimate.obj
 0002:000079a0       ??_C@_0O@IFGCOPOC@BOTH_T3_BL_TL?$AA@ 300a09a0     bg_panimate.obj
 0002:000079b0       ??_C@_0O@OEINKOHA@BOTH_T3_BL_T_?$AA@ 300a09b0     bg_panimate.obj
 0002:000079c0       ??_C@_0O@CCIBCBGF@BOTH_T3__L_BL?$AA@ 300a09c0     bg_panimate.obj
 0002:000079d0       ??_C@_0O@FLMFLPDF@BOTH_T3__L_T_?$AA@ 300a09d0     bg_panimate.obj
 0002:000079e0       ??_C@_0O@OOGLMBHI@BOTH_T3__L_TR?$AA@ 300a09e0     bg_panimate.obj
 0002:000079f0       ??_C@_0O@FMLIOBIF@BOTH_T3_TL__L?$AA@ 300a09f0     bg_panimate.obj
 0002:00007a00       ??_C@_0O@DBACEPPG@BOTH_T3_TL_T_?$AA@ 300a0a00     bg_panimate.obj
 0002:00007a10       ??_C@_0O@IEKMDBLL@BOTH_T3_TL_TR?$AA@ 300a0a10     bg_panimate.obj
 0002:00007a20       ??_C@_0O@IIPJNOFK@BOTH_T3_TL__R?$AA@ 300a0a20     bg_panimate.obj
 0002:00007a30       ??_C@_0O@OONCGGBF@BOTH_T3_TR_T_?$AA@ 300a0a30     bg_panimate.obj
 0002:00007a40       ??_C@_0O@FHCJPHLJ@BOTH_T3_TR__R?$AA@ 300a0a40     bg_panimate.obj
 0002:00007a50       ??_C@_0O@IEBFJGNG@BOTH_T3__R_T_?$AA@ 300a0a50     bg_panimate.obj
 0002:00007a60       ??_C@_0O@CJBADHFJ@BOTH_T3__R_BR?$AA@ 300a0a60     bg_panimate.obj
 0002:00007a70       ??_C@_0O@DLFNIHJD@BOTH_T3_BR_T_?$AA@ 300a0a70     bg_panimate.obj
 0002:00007a80       ??_C@_0O@IOPDPJNO@BOTH_T3_BR_TR?$AA@ 300a0a80     bg_panimate.obj
 0002:00007a90       ??_C@_0O@IJDHAAAD@BOTH_T3_BL__L?$AA@ 300a0a90     bg_panimate.obj
 0002:00007aa0       ??_C@_0O@FBCDNADN@BOTH_T3_BL_TR?$AA@ 300a0aa0     bg_panimate.obj
 0002:00007ab0       ??_C@_0O@FNHGDPNM@BOTH_T3_BL__R?$AA@ 300a0ab0     bg_panimate.obj
 0002:00007ac0       ??_C@_0O@EJIIAPPP@BOTH_T3_BL_BR?$AA@ 300a0ac0     bg_panimate.obj
 0002:00007ad0       ??_C@_0O@DKCKPOKH@BOTH_T3__L_TL?$AA@ 300a0ad0     bg_panimate.obj
 0002:00007ae0       ??_C@_0O@OCDOCOJJ@BOTH_T3__L__R?$AA@ 300a0ae0     bg_panimate.obj
 0002:00007af0       ??_C@_0O@PGMABOLK@BOTH_T3__L_BR?$AA@ 300a0af0     bg_panimate.obj
 0002:00007b00       ??_C@_0O@EIEGNBKG@BOTH_T3_TL_BL?$AA@ 300a0b00     bg_panimate.obj
 0002:00007b10       ??_C@_0O@JMAHOOHJ@BOTH_T3_TL_BR?$AA@ 300a0b10     bg_panimate.obj
 0002:00007b20       ??_C@_0O@GPAGDMPE@BOTH_T3_T__BL?$AA@ 300a0b20     bg_panimate.obj
 0002:00007b30       ??_C@_0O@HLPIAMNH@BOTH_T3_T___L?$AA@ 300a0b30     bg_panimate.obj
 0002:00007b40       ??_C@_0O@HHKNODDG@BOTH_T3_T__TL?$AA@ 300a0b40     bg_panimate.obj
 0002:00007b50       ??_C@_0O@KDOMNMOJ@BOTH_T3_T__TR?$AA@ 300a0b50     bg_panimate.obj
 0002:00007b60       ??_C@_0O@KPLJDDAI@BOTH_T3_T___R?$AA@ 300a0b60     bg_panimate.obj
 0002:00007b70       ??_C@_0O@LLEHADCL@BOTH_T3_T__BR?$AA@ 300a0b70     bg_panimate.obj
 0002:00007b80       ??_C@_0O@JHJGPIEF@BOTH_T3_TR_BL?$AA@ 300a0b80     bg_panimate.obj
 0002:00007b90       ??_C@_0O@IDGIMIGG@BOTH_T3_TR__L?$AA@ 300a0b90     bg_panimate.obj
 0002:00007ba0       ??_C@_0O@IPDNCHIH@BOTH_T3_TR_TL?$AA@ 300a0ba0     bg_panimate.obj
 0002:00007bb0       ??_C@_0O@EDNHMHJK@BOTH_T3_TR_BR?$AA@ 300a0bb0     bg_panimate.obj
 0002:00007bc0       ??_C@_0O@PNFBAIIG@BOTH_T3__R_BL?$AA@ 300a0bc0     bg_panimate.obj
 0002:00007bd0       ??_C@_0O@OJKPDIKF@BOTH_T3__R__L?$AA@ 300a0bd0     bg_panimate.obj
 0002:00007be0       ??_C@_0O@OFPKNHEE@BOTH_T3__R_TL?$AA@ 300a0be0     bg_panimate.obj
 0002:00007bf0       ??_C@_0O@DBLLOIJL@BOTH_T3__R_TR?$AA@ 300a0bf0     bg_panimate.obj
 0002:00007c00       ??_C@_0O@ECBJBJMD@BOTH_T3_BR_BL?$AA@ 300a0c00     bg_panimate.obj
 0002:00007c10       ??_C@_0O@FGOHCJOA@BOTH_T3_BR__L?$AA@ 300a0c10     bg_panimate.obj
 0002:00007c20       ??_C@_0O@FKLCMGAB@BOTH_T3_BR_TL?$AA@ 300a0c20     bg_panimate.obj
 0002:00007c30       ??_C@_0O@ICKGBGDP@BOTH_T3_BR__R?$AA@ 300a0c30     bg_panimate.obj
 0002:00007c40       ??_C@_0O@HBMBPPHL@BOTH_A3_TR_BL?$AA@ 300a0c40     bg_panimate.obj
 0002:00007c50       ??_C@_0O@LHHENHAD@BOTH_A3_BL_TR?$AA@ 300a0c50     bg_panimate.obj
 0002:00007c60       ??_C@_0O@LMOFMBDP@BOTH_A3_BR_TL?$AA@ 300a0c60     bg_panimate.obj
 0002:00007c70       ??_C@_0O@HKFAOJEH@BOTH_A3_TL_BR?$AA@ 300a0c70     bg_panimate.obj
 0002:00007c80       ??_C@_0O@PPIDPJL@BOTH_A3__R__L?$AA@ 300a0c80     bg_panimate.obj
 0002:00007c90       ??_C@_0O@EGJCJKH@BOTH_A3__L__R?$AA@ 300a0c90     bg_panimate.obj
 0002:00007ca0       ??_C@_0O@OILOHKFI@BOTH_A3_T__B_?$AA@ 300a0ca0     bg_panimate.obj
 0002:00007cb0       ??_C@_0O@KPPCOOCM@BOTH_D2_B____?$AA@ 300a0cb0     bg_panimate.obj
 0002:00007cc0       ??_C@_0O@IILCADHO@BOTH_D2_BL___?$AA@ 300a0cc0     bg_panimate.obj
 0002:00007cd0       ??_C@_0O@DHPKBCDL@BOTH_D2__L___?$AA@ 300a0cd0     bg_panimate.obj
 0002:00007ce0       ??_C@_0O@FNDNOCPI@BOTH_D2_TL___?$AA@ 300a0ce0     bg_panimate.obj
 0002:00007cf0       ??_C@_0O@ICONMLBL@BOTH_D2_TR___?$AA@ 300a0cf0     bg_panimate.obj
 0002:00007d00       ??_C@_0O@OICKDLNI@BOTH_D2__R___?$AA@ 300a0d00     bg_panimate.obj
 0002:00007d10       ??_C@_0O@FHGCCKJN@BOTH_D2_BR___?$AA@ 300a0d10     bg_panimate.obj
 0002:00007d20       ??_C@_0O@PLKIHKPE@BOTH_B2_BL___?$AA@ 300a0d20     bg_panimate.obj
 0002:00007d30       ??_C@_0O@EEOAGLLB@BOTH_B2__L___?$AA@ 300a0d30     bg_panimate.obj
 0002:00007d40       ??_C@_0O@COCHJLHC@BOTH_B2_TL___?$AA@ 300a0d40     bg_panimate.obj
 0002:00007d50       ??_C@_0O@JGHHGCA@BOTH_B2_T____?$AA@ 300a0d50     bg_panimate.obj
 0002:00007d60       ??_C@_0O@PBPHLCJB@BOTH_B2_TR___?$AA@ 300a0d60     bg_panimate.obj
 0002:00007d70       ??_C@_0O@JLDAECFC@BOTH_B2__R___?$AA@ 300a0d70     bg_panimate.obj
 0002:00007d80       ??_C@_0O@CEHIFDBH@BOTH_B2_BR___?$AA@ 300a0d80     bg_panimate.obj
 0002:00007d90       ??_C@_0O@KPFDEPKN@BOTH_R2_TR_S1?$AA@ 300a0d90     bg_panimate.obj
 0002:00007da0       ??_C@_0O@KFAMIHMI@BOTH_R2_BL_S1?$AA@ 300a0da0     bg_panimate.obj
 0002:00007db0       ??_C@_0O@HKNMKOCL@BOTH_R2_BR_S1?$AA@ 300a0db0     bg_panimate.obj
 0002:00007dc0       ??_C@_0O@HAIDGGEO@BOTH_R2_TL_S1?$AA@ 300a0dc0     bg_panimate.obj
 0002:00007dd0       ??_C@_0O@MFJELPGO@BOTH_R2__R_S1?$AA@ 300a0dd0     bg_panimate.obj
 0002:00007de0       ??_C@_0O@BKEEJGIN@BOTH_R2__L_S1?$AA@ 300a0de0     bg_panimate.obj
 0002:00007df0       ??_C@_0O@ICEMGKJK@BOTH_R2_B__S1?$AA@ 300a0df0     bg_panimate.obj
 0002:00007e00       ??_C@_0O@DACAEICK@BOTH_S2_S1_TR?$AA@ 300a0e00     bg_panimate.obj
 0002:00007e10       ??_C@_0O@PMMKKIDH@BOTH_S2_S1_BL?$AA@ 300a0e10     bg_panimate.obj
 0002:00007e20       ??_C@_0O@CIILJHOI@BOTH_S2_S1_BR?$AA@ 300a0e20     bg_panimate.obj
 0002:00007e30       ??_C@_0O@OEGBHHPF@BOTH_S2_S1_TL?$AA@ 300a0e30     bg_panimate.obj
 0002:00007e40       ??_C@_0O@DMHFKHML@BOTH_S2_S1__R?$AA@ 300a0e40     bg_panimate.obj
 0002:00007e50       ??_C@_0O@OIDEJIBE@BOTH_S2_S1__L?$AA@ 300a0e50     bg_panimate.obj
 0002:00007e60       ??_C@_0O@IFIODGGH@BOTH_S2_S1_T_?$AA@ 300a0e60     bg_panimate.obj
 0002:00007e70       ??_C@_0O@EJMIOPHM@BOTH_T2_BL_TL?$AA@ 300a0e70     bg_panimate.obj
 0002:00007e80       ??_C@_0O@CICHKOOO@BOTH_T2_BL_T_?$AA@ 300a0e80     bg_panimate.obj
 0002:00007e90       ??_C@_0O@OOCLCBPL@BOTH_T2__L_BL?$AA@ 300a0e90     bg_panimate.obj
 0002:00007ea0       ??_C@_0O@JHGPLPKL@BOTH_T2__L_T_?$AA@ 300a0ea0     bg_panimate.obj
 0002:00007eb0       ??_C@_0O@CCMBMBOG@BOTH_T2__L_TR?$AA@ 300a0eb0     bg_panimate.obj
 0002:00007ec0       ??_C@_0O@JABCOBBL@BOTH_T2_TL__L?$AA@ 300a0ec0     bg_panimate.obj
 0002:00007ed0       ??_C@_0O@PNKIEPGI@BOTH_T2_TL_T_?$AA@ 300a0ed0     bg_panimate.obj
 0002:00007ee0       ??_C@_0O@EIAGDBCF@BOTH_T2_TL_TR?$AA@ 300a0ee0     bg_panimate.obj
 0002:00007ef0       ??_C@_0O@EEFDNOME@BOTH_T2_TL__R?$AA@ 300a0ef0     bg_panimate.obj
 0002:00007f00       ??_C@_0O@CCHIGGIL@BOTH_T2_TR_T_?$AA@ 300a0f00     bg_panimate.obj
 0002:00007f10       ??_C@_0O@JLIDPHCH@BOTH_T2_TR__R?$AA@ 300a0f10     bg_panimate.obj
 0002:00007f20       ??_C@_0O@EILPJGEI@BOTH_T2__R_T_?$AA@ 300a0f20     bg_panimate.obj
 0002:00007f30       ??_C@_0O@OFLKDHMH@BOTH_T2__R_BR?$AA@ 300a0f30     bg_panimate.obj
 0002:00007f40       ??_C@_0O@PHPHIHAN@BOTH_T2_BR_T_?$AA@ 300a0f40     bg_panimate.obj
 0002:00007f50       ??_C@_0O@ECFJPJEA@BOTH_T2_BR_TR?$AA@ 300a0f50     bg_panimate.obj
 0002:00007f60       ??_C@_0O@EFJNAAJN@BOTH_T2_BL__L?$AA@ 300a0f60     bg_panimate.obj
 0002:00007f70       ??_C@_0O@JNIJNAKD@BOTH_T2_BL_TR?$AA@ 300a0f70     bg_panimate.obj
 0002:00007f80       ??_C@_0O@JBNMDPEC@BOTH_T2_BL__R?$AA@ 300a0f80     bg_panimate.obj
 0002:00007f90       ??_C@_0O@IFCCAPGB@BOTH_T2_BL_BR?$AA@ 300a0f90     bg_panimate.obj
 0002:00007fa0       ??_C@_0O@PGIAPODJ@BOTH_T2__L_TL?$AA@ 300a0fa0     bg_panimate.obj
 0002:00007fb0       ??_C@_0O@COJECOAH@BOTH_T2__L__R?$AA@ 300a0fb0     bg_panimate.obj
 0002:00007fc0       ??_C@_0O@DKGKBOCE@BOTH_T2__L_BR?$AA@ 300a0fc0     bg_panimate.obj
 0002:00007fd0       ??_C@_0O@IEOMNBDI@BOTH_T2_TL_BL?$AA@ 300a0fd0     bg_panimate.obj
 0002:00007fe0       ??_C@_0O@FAKNOOOH@BOTH_T2_TL_BR?$AA@ 300a0fe0     bg_panimate.obj
 0002:00007ff0       ??_C@_0O@KDKMDMGK@BOTH_T2_T__BL?$AA@ 300a0ff0     bg_panimate.obj
 0002:00008000       ??_C@_0O@LHFCAMEJ@BOTH_T2_T___L?$AA@ 300a1000     bg_panimate.obj
 0002:00008010       ??_C@_0O@LLAHODKI@BOTH_T2_T__TL?$AA@ 300a1010     bg_panimate.obj
 0002:00008020       ??_C@_0O@GPEGNMHH@BOTH_T2_T__TR?$AA@ 300a1020     bg_panimate.obj
 0002:00008030       ??_C@_0O@GDBDDDJG@BOTH_T2_T___R?$AA@ 300a1030     bg_panimate.obj
 0002:00008040       ??_C@_0O@HHONADLF@BOTH_T2_T__BR?$AA@ 300a1040     bg_panimate.obj
 0002:00008050       ??_C@_0O@FLDMPINL@BOTH_T2_TR_BL?$AA@ 300a1050     bg_panimate.obj
 0002:00008060       ??_C@_0O@EPMCMIPI@BOTH_T2_TR__L?$AA@ 300a1060     bg_panimate.obj
 0002:00008070       ??_C@_0O@EDJHCHBJ@BOTH_T2_TR_TL?$AA@ 300a1070     bg_panimate.obj
 0002:00008080       ??_C@_0O@IPHNMHAE@BOTH_T2_TR_BR?$AA@ 300a1080     bg_panimate.obj
 0002:00008090       ??_C@_0O@DBPLAIBI@BOTH_T2__R_BL?$AA@ 300a1090     bg_panimate.obj
 0002:000080a0       ??_C@_0O@CFAFDIDL@BOTH_T2__R__L?$AA@ 300a10a0     bg_panimate.obj
 0002:000080b0       ??_C@_0O@CJFANHNK@BOTH_T2__R_TL?$AA@ 300a10b0     bg_panimate.obj
 0002:000080c0       ??_C@_0O@PNBBOIAF@BOTH_T2__R_TR?$AA@ 300a10c0     bg_panimate.obj
 0002:000080d0       ??_C@_0O@IOLDBJFN@BOTH_T2_BR_BL?$AA@ 300a10d0     bg_panimate.obj
 0002:000080e0       ??_C@_0O@JKENCJHO@BOTH_T2_BR__L?$AA@ 300a10e0     bg_panimate.obj
 0002:000080f0       ??_C@_0O@JGBIMGJP@BOTH_T2_BR_TL?$AA@ 300a10f0     bg_panimate.obj
 0002:00008100       ??_C@_0O@EOAMBGKB@BOTH_T2_BR__R?$AA@ 300a1100     bg_panimate.obj
 0002:00008110       ??_C@_0O@LNGLPPOF@BOTH_A2_TR_BL?$AA@ 300a1110     bg_panimate.obj
 0002:00008120       ??_C@_0O@HLNONHJN@BOTH_A2_BL_TR?$AA@ 300a1120     bg_panimate.obj
 0002:00008130       ??_C@_0O@HAEPMBKB@BOTH_A2_BR_TL?$AA@ 300a1130     bg_panimate.obj
 0002:00008140       ??_C@_0O@LGPKOJNJ@BOTH_A2_TL_BR?$AA@ 300a1140     bg_panimate.obj
 0002:00008150       ??_C@_0O@MDFCDPAF@BOTH_A2__R__L?$AA@ 300a1150     bg_panimate.obj
 0002:00008160       ??_C@_0O@MIMDCJDJ@BOTH_A2__L__R?$AA@ 300a1160     bg_panimate.obj
 0002:00008170       ??_C@_0O@CEBEHKMG@BOTH_A2_T__B_?$AA@ 300a1170     bg_panimate.obj
 0002:00008180       ??_C@_0O@CBHNOJMP@BOTH_D1_B____?$AA@ 300a1180     bg_panimate.obj
 0002:00008190       ??_C@_0O@GDNAEJN@BOTH_D1_BL___?$AA@ 300a1190     bg_panimate.obj
 0002:000081a0       ??_C@_0O@LJHFBFNI@BOTH_D1__L___?$AA@ 300a11a0     bg_panimate.obj
 0002:000081b0       ??_C@_0O@NDLCOFBL@BOTH_D1_TL___?$AA@ 300a11b0     bg_panimate.obj
 0002:000081c0       ??_C@_0O@MGCMMPI@BOTH_D1_TR___?$AA@ 300a11c0     bg_panimate.obj
 0002:000081d0       ??_C@_0O@GGKFDMDL@BOTH_D1__R___?$AA@ 300a11d0     bg_panimate.obj
 0002:000081e0       ??_C@_0O@NJONCNHO@BOTH_D1_BR___?$AA@ 300a11e0     bg_panimate.obj
 0002:000081f0       ??_C@_0O@HFCHHNBH@BOTH_B1_BL___?$AA@ 300a11f0     bg_panimate.obj
 0002:00008200       ??_C@_0O@MKGPGMFC@BOTH_B1__L___?$AA@ 300a1200     bg_panimate.obj
 0002:00008210       ??_C@_0O@KAKIJMJB@BOTH_B1_TL___?$AA@ 300a1210     bg_panimate.obj
 0002:00008220       ??_C@_0O@IHOIHBMD@BOTH_B1_T____?$AA@ 300a1220     bg_panimate.obj
 0002:00008230       ??_C@_0O@HPHILFHC@BOTH_B1_TR___?$AA@ 300a1230     bg_panimate.obj
 0002:00008240       ??_C@_0O@BFLPEFLB@BOTH_B1__R___?$AA@ 300a1240     bg_panimate.obj
 0002:00008250       ??_C@_0O@KKPHFEPE@BOTH_B1_BR___?$AA@ 300a1250     bg_panimate.obj
 0002:00008260       ??_C@_0O@CBNMEIEO@BOTH_R1_TR_S1?$AA@ 300a1260     bg_panimate.obj
 0002:00008270       ??_C@_0O@CLIDIACL@BOTH_R1_BL_S1?$AA@ 300a1270     bg_panimate.obj
 0002:00008280       ??_C@_0O@PEFDKJMI@BOTH_R1_BR_S1?$AA@ 300a1280     bg_panimate.obj
 0002:00008290       ??_C@_0O@POAMGBKN@BOTH_R1_TL_S1?$AA@ 300a1290     bg_panimate.obj
 0002:000082a0       ??_C@_0O@ELBLLIIN@BOTH_R1__R_S1?$AA@ 300a12a0     bg_panimate.obj
 0002:000082b0       ??_C@_0O@JEMLJBGO@BOTH_R1__L_S1?$AA@ 300a12b0     bg_panimate.obj
 0002:000082c0       ??_C@_0O@MMDGNHJ@BOTH_R1_B__S1?$AA@ 300a12c0     bg_panimate.obj
 0002:000082d0       ??_C@_0O@LOKPEPMJ@BOTH_S1_S1_TR?$AA@ 300a12d0     bg_panimate.obj
 0002:000082e0       ??_C@_0O@HCEFKPNE@BOTH_S1_S1_BL?$AA@ 300a12e0     bg_panimate.obj
 0002:000082f0       ??_C@_0O@KGAEJAAL@BOTH_S1_S1_BR?$AA@ 300a12f0     bg_panimate.obj
 0002:00008300       ??_C@_0O@GKOOHABG@BOTH_S1_S1_TL?$AA@ 300a1300     bg_panimate.obj
 0002:00008310       ??_C@_0O@LCPKKACI@BOTH_S1_S1__R?$AA@ 300a1310     bg_panimate.obj
 0002:00008320       ??_C@_0O@GGLLJPPH@BOTH_S1_S1__L?$AA@ 300a1320     bg_panimate.obj
 0002:00008330       ??_C@_0O@LABDBIE@BOTH_S1_S1_T_?$AA@ 300a1330     bg_panimate.obj
 0002:00008340       ??_C@_0O@MHEHOIJP@BOTH_T1_BL_TL?$AA@ 300a1340     bg_panimate.obj
 0002:00008350       ??_C@_0O@KGKIKJAN@BOTH_T1_BL_T_?$AA@ 300a1350     bg_panimate.obj
 0002:00008360       ??_C@_0O@GAKECGBI@BOTH_T1__L_BL?$AA@ 300a1360     bg_panimate.obj
 0002:00008370       ??_C@_0O@BJOALIEI@BOTH_T1__L_T_?$AA@ 300a1370     bg_panimate.obj
 0002:00008380       ??_C@_0O@KMEOMGAF@BOTH_T1__L_TR?$AA@ 300a1380     bg_panimate.obj
 0002:00008390       ??_C@_0O@BOJNOGPI@BOTH_T1_TL__L?$AA@ 300a1390     bg_panimate.obj
 0002:000083a0       ??_C@_0O@HDCHEIIL@BOTH_T1_TL_T_?$AA@ 300a13a0     bg_panimate.obj
 0002:000083b0       ??_C@_0O@MGIJDGMG@BOTH_T1_TL_TR?$AA@ 300a13b0     bg_panimate.obj
 0002:000083c0       ??_C@_0O@MKNMNJCH@BOTH_T1_TL__R?$AA@ 300a13c0     bg_panimate.obj
 0002:000083d0       ??_C@_0O@KMPHGBGI@BOTH_T1_TR_T_?$AA@ 300a13d0     bg_panimate.obj
 0002:000083e0       ??_C@_0O@BFAMPAME@BOTH_T1_TR__R?$AA@ 300a13e0     bg_panimate.obj
 0002:000083f0       ??_C@_0O@MGDAJBKL@BOTH_T1__R_T_?$AA@ 300a13f0     bg_panimate.obj
 0002:00008400       ??_C@_0O@GLDFDACE@BOTH_T1__R_BR?$AA@ 300a1400     bg_panimate.obj
 0002:00008410       ??_C@_0O@HJHIIAOO@BOTH_T1_BR_T_?$AA@ 300a1410     bg_panimate.obj
 0002:00008420       ??_C@_0O@MMNGPOKD@BOTH_T1_BR_TR?$AA@ 300a1420     bg_panimate.obj
 0002:00008430       ??_C@_0O@MLBCAHHO@BOTH_T1_BL__L?$AA@ 300a1430     bg_panimate.obj
 0002:00008440       ??_C@_0O@BDAGNHEA@BOTH_T1_BL_TR?$AA@ 300a1440     bg_panimate.obj
 0002:00008450       ??_C@_0O@BPFDDIKB@BOTH_T1_BL__R?$AA@ 300a1450     bg_panimate.obj
 0002:00008460       ??_C@_0O@LKNAIIC@BOTH_T1_BL_BR?$AA@ 300a1460     bg_panimate.obj
 0002:00008470       ??_C@_0O@HIAPPJNK@BOTH_T1__L_TL?$AA@ 300a1470     bg_panimate.obj
 0002:00008480       ??_C@_0O@KABLCJOE@BOTH_T1__L__R?$AA@ 300a1480     bg_panimate.obj
 0002:00008490       ??_C@_0O@LEOFBJMH@BOTH_T1__L_BR?$AA@ 300a1490     bg_panimate.obj
 0002:000084a0       ??_C@_0O@KGDNGNL@BOTH_T1_TL_BL?$AA@ 300a14a0     bg_panimate.obj
 0002:000084b0       ??_C@_0O@NOCCOJAE@BOTH_T1_TL_BR?$AA@ 300a14b0     bg_panimate.obj
 0002:000084c0       ??_C@_0O@CNCDDLIJ@BOTH_T1_T__BL?$AA@ 300a14c0     bg_panimate.obj
 0002:000084d0       ??_C@_0O@DJNNALKK@BOTH_T1_T___L?$AA@ 300a14d0     bg_panimate.obj
 0002:000084e0       ??_C@_0O@DFIIOEEL@BOTH_T1_T__TL?$AA@ 300a14e0     bg_panimate.obj
 0002:000084f0       ??_C@_0O@OBMJNLJE@BOTH_T1_T__TR?$AA@ 300a14f0     bg_panimate.obj
 0002:00008500       ??_C@_0O@ONJMDEHF@BOTH_T1_T___R?$AA@ 300a1500     bg_panimate.obj
 0002:00008510       ??_C@_0O@PJGCAEFG@BOTH_T1_T__BR?$AA@ 300a1510     bg_panimate.obj
 0002:00008520       ??_C@_0O@NFLDPPDI@BOTH_T1_TR_BL?$AA@ 300a1520     bg_panimate.obj
 0002:00008530       ??_C@_0O@MBENMPBL@BOTH_T1_TR__L?$AA@ 300a1530     bg_panimate.obj
 0002:00008540       ??_C@_0O@MNBICAPK@BOTH_T1_TR_TL?$AA@ 300a1540     bg_panimate.obj
 0002:00008550       ??_C@_0O@BPCMAOH@BOTH_T1_TR_BR?$AA@ 300a1550     bg_panimate.obj
 0002:00008560       ??_C@_0O@LPHEAPPL@BOTH_T1__R_BL?$AA@ 300a1560     bg_panimate.obj
 0002:00008570       ??_C@_0O@KLIKDPNI@BOTH_T1__R__L?$AA@ 300a1570     bg_panimate.obj
 0002:00008580       ??_C@_0O@KHNPNADJ@BOTH_T1__R_TL?$AA@ 300a1580     bg_panimate.obj
 0002:00008590       ??_C@_0O@HDJOOPOG@BOTH_T1__R_TR?$AA@ 300a1590     bg_panimate.obj
 0002:000085a0       ??_C@_0O@DMBOLO@BOTH_T1_BR_BL?$AA@ 300a15a0     bg_panimate.obj
 0002:000085b0       ??_C@_0O@BEMCCOJN@BOTH_T1_BR__L?$AA@ 300a15b0     bg_panimate.obj
 0002:000085c0       ??_C@_0O@BIJHMBHM@BOTH_T1_BR_TL?$AA@ 300a15c0     bg_panimate.obj
 0002:000085d0       ??_C@_0O@MAIDBBEC@BOTH_T1_BR__R?$AA@ 300a15d0     bg_panimate.obj
 0002:000085e0       ??_C@_0O@DDOEPIAG@BOTH_A1_TR_BL?$AA@ 300a15e0     bg_panimate.obj
 0002:000085f0       ??_C@_0O@PFFBNAHO@BOTH_A1_BL_TR?$AA@ 300a15f0     bg_panimate.obj
 0002:00008600       ??_C@_0O@POMAMGEC@BOTH_A1_BR_TL?$AA@ 300a1600     bg_panimate.obj
 0002:00008610       ??_C@_0O@DIHFOODK@BOTH_A1_TL_BR?$AA@ 300a1610     bg_panimate.obj
 0002:00008620       ??_C@_0O@ENNNDIOG@BOTH_A1__R__L?$AA@ 300a1620     bg_panimate.obj
 0002:00008630       ??_C@_0O@EGEMCONK@BOTH_A1__L__R?$AA@ 300a1630     bg_panimate.obj
 0002:00008640       ??_C@_0O@KKJLHNCF@BOTH_A1_T__B_?$AA@ 300a1640     bg_panimate.obj
 0002:00008650       ??_C@_0BD@KGEHHFNO@BOTH_THERMAL_THROW?$AA@ 300a1650     bg_panimate.obj
 0002:00008664       ??_C@_0BD@FIPEGIGM@BOTH_THERMAL_READY?$AA@ 300a1664     bg_panimate.obj
 0002:00008678       ??_C@_0M@JENABCOK@BOTH_MELEE2?$AA@ 300a1678     bg_panimate.obj
 0002:00008684       ??_C@_0M@LPPNEBCJ@BOTH_MELEE1?$AA@ 300a1684     bg_panimate.obj
 0002:00008690       ??_C@_0O@LECODOED@BOTH_ATTACK11?$AA@ 300a1690     bg_panimate.obj
 0002:000086a0       ??_C@_0O@KNDFAPAC@BOTH_ATTACK10?$AA@ 300a16a0     bg_panimate.obj
 0002:000086b0       ??_C@_0N@CCAENDEA@BOTH_ATTACK7?$AA@ 300a16b0     bg_panimate.obj
 0002:000086c0       ??_C@_0N@DLBPOCAB@BOTH_ATTACK6?$AA@ 300a16c0     bg_panimate.obj
 0002:000086d0       ??_C@_0N@BADCLBMC@BOTH_ATTACK5?$AA@ 300a16d0     bg_panimate.obj
 0002:000086e0       ??_C@_0N@JCJIAID@BOTH_ATTACK4?$AA@ 300a16e0     bg_panimate.obj
 0002:000086f0       ??_C@_0N@EGGIBGEE@BOTH_ATTACK3?$AA@ 300a16f0     bg_panimate.obj
 0002:00008700       ??_C@_0N@FPHDCHAF@BOTH_ATTACK2?$AA@ 300a1700     bg_panimate.obj
 0002:00008710       ??_C@_0N@HEFOHEMG@BOTH_ATTACK1?$AA@ 300a1710     bg_panimate.obj
 0002:00008720       ??_C@_0M@LPLOINIF@BOTH_PAIN18?$AA@ 300a1720     bg_panimate.obj
 0002:0000872c       ??_C@_0M@DICGJBEK@BOTH_PAIN17?$AA@ 300a172c     bg_panimate.obj
 0002:00008738       ??_C@_0M@CBDNKAAL@BOTH_PAIN16?$AA@ 300a1738     bg_panimate.obj
 0002:00008744       ??_C@_0M@KBAPDMI@BOTH_PAIN15?$AA@ 300a1744     bg_panimate.obj
 0002:00008750       ??_C@_0M@BDALMCIJ@BOTH_PAIN14?$AA@ 300a1750     bg_panimate.obj
 0002:0000875c       ??_C@_0M@FMEKFEEO@BOTH_PAIN13?$AA@ 300a175c     bg_panimate.obj
 0002:00008768       ??_C@_0M@EFFBGFAP@BOTH_PAIN12?$AA@ 300a1768     bg_panimate.obj
 0002:00008774       ??_C@_0M@GOHMDGMM@BOTH_PAIN11?$AA@ 300a1774     bg_panimate.obj
 0002:00008780       ??_C@_0M@HHGHAHIN@BOTH_PAIN10?$AA@ 300a1780     bg_panimate.obj
 0002:0000878c       ??_C@_0L@IODHKBKF@BOTH_PAIN9?$AA@ 300a178c     bg_panimate.obj
 0002:00008798       ??_C@_0L@JHCMJAOE@BOTH_PAIN8?$AA@ 300a1798     bg_panimate.obj
 0002:000087a4       ??_C@_0L@BALEIMCL@BOTH_PAIN7?$AA@ 300a17a4     bg_panimate.obj
 0002:000087b0       ??_C@_0L@JKPLNGK@BOTH_PAIN6?$AA@ 300a17b0     bg_panimate.obj
 0002:000087bc       ??_C@_0L@CCICOOKJ@BOTH_PAIN5?$AA@ 300a17bc     bg_panimate.obj
 0002:000087c8       ??_C@_0L@DLJJNPOI@BOTH_PAIN4?$AA@ 300a17c8     bg_panimate.obj
 0002:000087d4       ??_C@_0L@HENIEJCP@BOTH_PAIN3?$AA@ 300a17d4     bg_panimate.obj
 0002:000087e0       ??_C@_0L@GNMDHIGO@BOTH_PAIN2?$AA@ 300a17e0     bg_panimate.obj
 0002:000087ec       ??_C@_0L@EGOOCLKN@BOTH_PAIN1?$AA@ 300a17ec     bg_panimate.obj
 0002:000087f8       ??_C@_0BE@FGJIJAMF@BOTH_DISMEMBER_LARM?$AA@ 300a17f8     bg_panimate.obj
 0002:0000880c       ??_C@_0BE@IJEILJCG@BOTH_DISMEMBER_RARM?$AA@ 300a180c     bg_panimate.obj
 0002:00008820       ??_C@_0BE@JIKEDMIE@BOTH_DISMEMBER_RLEG?$AA@ 300a1820     bg_panimate.obj
 0002:00008834       ??_C@_0BE@EHHEBFGH@BOTH_DISMEMBER_LLEG?$AA@ 300a1834     bg_panimate.obj
 0002:00008848       ??_C@_0BG@CFOELION@BOTH_DISMEMBER_TORSO1?$AA@ 300a1848     bg_panimate.obj
 0002:00008860       ??_C@_0BF@OGJIODF@BOTH_DISMEMBER_HEAD1?$AA@ 300a1860     bg_panimate.obj
 0002:00008878       ??_C@_0P@BJPINMOA@BOTH_DEADFLOP2?$AA@ 300a1878     bg_panimate.obj
 0002:00008888       ??_C@_0P@DCNFIPCD@BOTH_DEADFLOP1?$AA@ 300a1888     bg_panimate.obj
 0002:00008898       ??_C@_0BD@BHDKBOHF@BOTH_FALLDEAD1LAND?$AA@ 300a1898     bg_panimate.obj
 0002:000088ac       ??_C@_0BC@DDLFNCPA@BOTH_STUMBLEDEAD1?$AA@ 300a18ac     bg_panimate.obj
 0002:000088c0       ??_C@_0BA@HDEKJGIF@BOTH_LYINGDEAD1?$AA@ 300a18c0     bg_panimate.obj
 0002:000088d0       ??_C@_0BD@OGHNINBL@BOTH_DEADBACKWARD2?$AA@ 300a18d0     bg_panimate.obj
 0002:000088e4       ??_C@_0BD@MNFANONI@BOTH_DEADBACKWARD1?$AA@ 300a18e4     bg_panimate.obj
 0002:000088f8       ??_C@_0BC@OHBPMGIK@BOTH_DEADFORWARD2?$AA@ 300a18f8     bg_panimate.obj
 0002:0000890c       ??_C@_0BC@MMDCJFEJ@BOTH_DEADFORWARD1?$AA@ 300a190c     bg_panimate.obj
 0002:00008920       ??_C@_0M@FPJLBMPP@BOTH_DEAD25?$AA@ 300a1920     bg_panimate.obj
 0002:0000892c       ??_C@_0M@EGIACNLO@BOTH_DEAD24?$AA@ 300a192c     bg_panimate.obj
 0002:00008938       ??_C@_0M@JMBLLHJ@BOTH_DEAD23?$AA@ 300a1938     bg_panimate.obj
 0002:00008944       ??_C@_0M@BANKIKDI@BOTH_DEAD22?$AA@ 300a1944     bg_panimate.obj
 0002:00008950       ??_C@_0M@DLPHNJPL@BOTH_DEAD21?$AA@ 300a1950     bg_panimate.obj
 0002:0000895c       ??_C@_0M@CCOMOILK@BOTH_DEAD20?$AA@ 300a195c     bg_panimate.obj
 0002:00008968       ??_C@_0M@PBGIONKK@BOTH_DEAD19?$AA@ 300a1968     bg_panimate.obj
 0002:00008974       ??_C@_0M@OIHDNMOL@BOTH_DEAD18?$AA@ 300a1974     bg_panimate.obj
 0002:00008980       ??_C@_0M@GPOLMACE@BOTH_DEAD17?$AA@ 300a1980     bg_panimate.obj
 0002:0000898c       ??_C@_0M@HGPAPBGF@BOTH_DEAD16?$AA@ 300a198c     bg_panimate.obj
 0002:00008998       ??_C@_0M@FNNNKCKG@BOTH_DEAD15?$AA@ 300a1998     bg_panimate.obj
 0002:000089a4       ??_C@_0M@EEMGJDOH@BOTH_DEAD14?$AA@ 300a19a4     bg_panimate.obj
 0002:000089b0       ??_C@_0M@LIHAFCA@BOTH_DEAD13?$AA@ 300a19b0     bg_panimate.obj
 0002:000089bc       ??_C@_0M@BCJMDEGB@BOTH_DEAD12?$AA@ 300a19bc     bg_panimate.obj
 0002:000089c8       ??_C@_0M@DJLBGHKC@BOTH_DEAD11?$AA@ 300a19c8     bg_panimate.obj
 0002:000089d4       ??_C@_0M@CAKKFGOD@BOTH_DEAD10?$AA@ 300a19d4     bg_panimate.obj
 0002:000089e0       ??_C@_0L@CLNDOKNB@BOTH_DEAD9?$AA@ 300a19e0     bg_panimate.obj
 0002:000089ec       ??_C@_0L@DCMINLJA@BOTH_DEAD8?$AA@ 300a19ec     bg_panimate.obj
 0002:000089f8       ??_C@_0L@LFFAMHFP@BOTH_DEAD7?$AA@ 300a19f8     bg_panimate.obj
 0002:00008a04       ??_C@_0L@KMELPGBO@BOTH_DEAD6?$AA@ 300a1a04     bg_panimate.obj
 0002:00008a10       ??_C@_0L@IHGGKFNN@BOTH_DEAD5?$AA@ 300a1a10     bg_panimate.obj
 0002:00008a1c       ??_C@_0L@JOHNJEJM@BOTH_DEAD4?$AA@ 300a1a1c     bg_panimate.obj
 0002:00008a28       ??_C@_0L@NBDMACFL@BOTH_DEAD3?$AA@ 300a1a28     bg_panimate.obj
 0002:00008a34       ??_C@_0L@MICHDDBK@BOTH_DEAD2?$AA@ 300a1a34     bg_panimate.obj
 0002:00008a40       ??_C@_0L@ODAKGANJ@BOTH_DEAD1?$AA@ 300a1a40     bg_panimate.obj
 0002:00008a4c       ??_C@_0BE@CACMPNDI@BOTH_DEATH_CROUCHED?$AA@ 300a1a4c     bg_panimate.obj
 0002:00008a60       ??_C@_0BG@GMBJBMLI@BOTH_DEATH_FALLING_UP?$AA@ 300a1a60     bg_panimate.obj
 0002:00008a78       ??_C@_0BG@KFLMOKCA@BOTH_DEATH_FALLING_DN?$AA@ 300a1a78     bg_panimate.obj
 0002:00008a90       ??_C@_0BE@GLFNKCIG@BOTH_DEATH_LYING_DN?$AA@ 300a1a90     bg_panimate.obj
 0002:00008aa4       ??_C@_0BE@KCPIFEBO@BOTH_DEATH_LYING_UP?$AA@ 300a1aa4     bg_panimate.obj
 0002:00008ab8       ??_C@_0BE@GAFFKNDC@BOTH_DEATH_SPIN_180?$AA@ 300a1ab8     bg_panimate.obj
 0002:00008acc       ??_C@_0BF@CCDEOLBH@BOTH_DEATH_SPIN_90_L?$AA@ 300a1acc     bg_panimate.obj
 0002:00008ae4       ??_C@_0BF@PGHFNEMI@BOTH_DEATH_SPIN_90_R?$AA@ 300a1ae4     bg_panimate.obj
 0002:00008afc       ??_C@_0BA@PMBFHAFE@BOTH_DEATH_FLIP?$AA@ 300a1afc     bg_panimate.obj
 0002:00008b0c       ??_C@_0BA@JLHMHBEO@BOTH_DEATH_ROLL?$AA@ 300a1b0c     bg_panimate.obj
 0002:00008b1c       ??_C@_0BE@KLPONOFB@BOTH_FALLDEATH1LAND?$AA@ 300a1b1c     bg_panimate.obj
 0002:00008b30       ??_C@_0BF@BGGMCFAN@BOTH_FALLDEATH1INAIR?$AA@ 300a1b30     bg_panimate.obj
 0002:00008b48       ??_C@_0BA@MMMHHMBO@BOTH_FALLDEATH1?$AA@ 300a1b48     bg_panimate.obj
 0002:00008b58       ??_C@_0BD@HAOKEEDM@BOTH_STUMBLEDEATH1?$AA@ 300a1b58     bg_panimate.obj
 0002:00008b6c       ??_C@_0BB@FAMFDOML@BOTH_LYINGDEATH1?$AA@ 300a1b6c     bg_panimate.obj
 0002:00008b80       ??_C@_0BA@LIHBIFLP@BOTH_DEATH1IDLE?$AA@ 300a1b80     bg_panimate.obj
 0002:00008b90       ??_C@_0BE@OINPDLJH@BOTH_DEATHBACKWARD2?$AA@ 300a1b90     bg_panimate.obj
 0002:00008ba4       ??_C@_0BE@MDPCGIFE@BOTH_DEATHBACKWARD1?$AA@ 300a1ba4     bg_panimate.obj
 0002:00008bb8       ??_C@_0BD@IHDKEJMD@BOTH_DEATHFORWARD3?$AA@ 300a1bb8     bg_panimate.obj
 0002:00008bcc       ??_C@_0BD@JOCBHIIC@BOTH_DEATHFORWARD2?$AA@ 300a1bcc     bg_panimate.obj
 0002:00008be0       ??_C@_0BD@LFAMCLEB@BOTH_DEATHFORWARD1?$AA@ 300a1be0     bg_panimate.obj
 0002:00008bf4       ??_C@_0N@OOEBHHNI@BOTH_DEATH25?$AA@ 300a1bf4     bg_panimate.obj
 0002:00008c04       ??_C@_0N@PHFKEGJJ@BOTH_DEATH24?$AA@ 300a1c04     bg_panimate.obj
 0002:00008c14       ??_C@_0N@LIBLNAFO@BOTH_DEATH23?$AA@ 300a1c14     bg_panimate.obj
 0002:00008c24       ??_C@_0N@KBAAOBBP@BOTH_DEATH22?$AA@ 300a1c24     bg_panimate.obj
 0002:00008c34       ??_C@_0N@IKCNLCNM@BOTH_DEATH21?$AA@ 300a1c34     bg_panimate.obj
 0002:00008c44       ??_C@_0N@JDDGIDJN@BOTH_DEATH20?$AA@ 300a1c44     bg_panimate.obj
 0002:00008c54       ??_C@_0N@EALCIGIN@BOTH_DEATH19?$AA@ 300a1c54     bg_panimate.obj
 0002:00008c64       ??_C@_0N@FJKJLHMM@BOTH_DEATH18?$AA@ 300a1c64     bg_panimate.obj
 0002:00008c74       ??_C@_0N@NODBKLAD@BOTH_DEATH17?$AA@ 300a1c74     bg_panimate.obj
 0002:00008c84       ??_C@_0N@MHCKJKEC@BOTH_DEATH16?$AA@ 300a1c84     bg_panimate.obj
 0002:00008c94       ??_C@_0N@OMAHMJIB@BOTH_DEATH15?$AA@ 300a1c94     bg_panimate.obj
 0002:00008ca4       ??_C@_0N@PFBMPIMA@BOTH_DEATH14?$AA@ 300a1ca4     bg_panimate.obj
 0002:00008cb4       ??_C@_0N@LKFNGOAH@BOTH_DEATH13?$AA@ 300a1cb4     bg_panimate.obj
 0002:00008cc4       ??_C@_0N@KDEGFPEG@BOTH_DEATH12?$AA@ 300a1cc4     bg_panimate.obj
 0002:00008cd4       ??_C@_0N@IIGLAMIF@BOTH_DEATH11?$AA@ 300a1cd4     bg_panimate.obj
 0002:00008ce4       ??_C@_0N@JBHADNME@BOTH_DEATH10?$AA@ 300a1ce4     bg_panimate.obj
 0002:00008cf4       ??_C@_0M@PKFBOJOK@BOTH_DEATH9?$AA@ 300a1cf4     bg_panimate.obj
 0002:00008d00       ??_C@_0M@ODEKNIKL@BOTH_DEATH8?$AA@ 300a1d00     bg_panimate.obj
 0002:00008d0c       ??_C@_0M@GENCMEGE@BOTH_DEATH7?$AA@ 300a1d0c     bg_panimate.obj
 0002:00008d18       ??_C@_0M@HNMJPFCF@BOTH_DEATH6?$AA@ 300a1d18     bg_panimate.obj
 0002:00008d24       ??_C@_0M@FGOEKGOG@BOTH_DEATH5?$AA@ 300a1d24     bg_panimate.obj
 0002:00008d30       ??_C@_0M@EPPPJHKH@BOTH_DEATH4?$AA@ 300a1d30     bg_panimate.obj
 0002:00008d3c       ??_C@_0M@LOABGA@BOTH_DEATH3?$AA@ 300a1d3c     bg_panimate.obj
 0002:00008d48       ??_C@_0M@BJKFDACB@BOTH_DEATH2?$AA@ 300a1d48     bg_panimate.obj
 0002:00008d54       ??_C@_0M@DCIIGDOC@BOTH_DEATH1?$AA@ 300a1d54     bg_panimate.obj
 0002:00008d60       ??_C@_09OODFOJKI@FACE_DEAD?$AA@ 300a1d60     bg_panimate.obj
 0002:00008d6c       ??_C@_0L@NHKOPMDL@FACE_FROWN?$AA@ 300a1d6c     bg_panimate.obj
 0002:00008d78       ??_C@_0L@LAOJKFMG@FACE_SMILE?$AA@ 300a1d78     bg_panimate.obj
 0002:00008d84       ??_C@_0L@MMCADNDE@FACE_ALERT?$AA@ 300a1d84     bg_panimate.obj
 0002:00008d90       ??_C@_0L@GMKJNGHP@FACE_TALK4?$AA@ 300a1d90     bg_panimate.obj
 0002:00008d9c       ??_C@_0L@CDOIEALI@FACE_TALK3?$AA@ 300a1d9c     bg_panimate.obj
 0002:00008da8       ??_C@_0L@DKPDHBPJ@FACE_TALK2?$AA@ 300a1da8     bg_panimate.obj
 0002:00008db4       ??_C@_0L@BBNOCCDK@FACE_TALK1?$AA@ 300a1db4     bg_panimate.obj
 0002:00008dc0       ??_C@_0L@IMFBDHL@FACE_TALK0?$AA@ 300a1dc0     bg_panimate.obj
 0002:00008dcc       ??_C@_0BE@KLHOHCCI@ERROR?3?5anim?5?$CFd?5?$DM?50?6?$AA@ 300a1dcc     bg_panimate.obj
 0002:00008de0       ??_C@_0FB@MCGFNKCO@ParseAnimationEvtBlock?3?5number?5e@ 300a1de0     bg_panimate.obj
 0002:00008e34       ??_C@_04HIBGFPH@NULL?$AA@  300a1e34     bg_panimate.obj
 0002:00008e3c       ??_C@_04CGFJFPFD@none?$AA@ 300a1e3c     bg_panimate.obj
 0002:00008e44       ??_C@_0BO@FGMGPLCG@sound?1weapons?1saber?1saberspin?$AA@ 300a1e44     bg_panimate.obj
 0002:00008e64       ??_C@_0BN@MFOGPCAH@sound?1weapons?1saber?1saberhup?$AA@ 300a1e64     bg_panimate.obj
 0002:00008e84       ??_C@_0L@GPGGJDHA@CHAN_VOICE?$AA@ 300a1e84     bg_panimate.obj
 0002:00008e90       ??_C@_0M@EGDHGLJA@CHAN_WEAPON?$AA@ 300a1e90     bg_panimate.obj
 0002:00008e9c       ??_C@_09PNMHHMAD@CHAN_BODY?$AA@ 300a1e9c     bg_panimate.obj
 0002:00008ea8       ??_C@_0P@PGMEJIPP@CHAN_ANNOUNCER?$AA@ 300a1ea8     bg_panimate.obj
 0002:00008eb8       ??_C@_0BC@LBLHAJCE@CHAN_VOICE_GLOBAL?$AA@ 300a1eb8     bg_panimate.obj
 0002:00008ecc       ??_C@_0BB@EAIMOIAK@CHAN_VOICE_ATTEN?$AA@ 300a1ecc     bg_panimate.obj
 0002:00008ee0       ??_C@_0DO@HMMANOI@?$FO3WARNING?3?5?$CFs?5animevents?4cfg?3?5an@ 300a1ee0     bg_panimate.obj
 0002:00008f20       ??_C@_0DC@LINDEPHM@?$FO3WARNING?3?5Unknown?5token?5?$CFs?5in?5a@ 300a1f20     bg_panimate.obj
 0002:00008f54       ??_C@_01CELHOKLL@?$HN?$AA@ 300a1f54     bg_panimate.obj
 0002:00008f58       ??_C@_01HCONENDN@?$HL?$AA@ 300a1f58     bg_panimate.obj
 0002:00008f5c       ??_C@_0M@PBCCMAPC@LOWEREVENTS?$AA@ 300a1f5c     bg_panimate.obj
 0002:00008f68       ??_C@_0M@LPEBDMOL@UPPEREVENTS?$AA@ 300a1f68     bg_panimate.obj
 0002:00008f74       ??_C@_0BD@MMOHBCGG@models?1players?1?$CFs?1?$AA@ 300a1f74     bg_panimate.obj
 0002:00008f88       ??_C@_07FHOHOHLG@include?$AA@ 300a1f88     bg_panimate.obj
 0002:00008f90       ??_C@_0BC@NFDFKMPA@File?5?$CFs?5too?5long?6?$AA@ 300a1f90     bg_panimate.obj
 0002:00008fa4       ??_C@_0BB@DEPPJPMH@?$CFsanimevents?4cfg?$AA@ 300a1fa4     bg_panimate.obj
 0002:00008fb8       ??_C@_0DD@BJENEBEN@?$CFs?5exceeds?5the?5allowed?5game?9side@ 300a1fb8     bg_panimate.obj
 0002:00008ff0       __real@408f400000000000    300a1ff0     bg_panimate.obj
 0002:00008ff8       ??_C@_0BH@OHJDKHCL@players?1rockettrooper?1?$AA@ 300a1ff8     bg_panimate.obj
 0002:00009010       ??_C@_0BD@IAGLKLFM@players?1_humanoid?1?$AA@ 300a2010     bg_panimate.obj
 0002:00009028       __real@3fe4ccccc0000000    300a2028     bg_panimate.obj
 0002:00009030       __real@3fe8000000000000    300a2030     bg_panimate.obj
 0002:00009038       __real@3ff8000000000000    300a2038     bg_panimate.obj
 0002:00009040       __real@3ff4cccccccccccd    300a2040     bg_panimate.obj
 0002:00009048       __real@3ffb333333333333    300a2048     bg_panimate.obj
 0002:00009058       __real@4038000000000000    300a2058     bg_pmove.obj
 0002:00009060       __real@4028000000000000    300a2060     bg_pmove.obj
 0002:00009068       __real@3ff0000000000000    300a2068     bg_pmove.obj
 0002:00009070       __real@4072c00000000000    300a2070     bg_pmove.obj
 0002:00009078       __real@42700000            300a2078     bg_pmove.obj
 0002:00009080       __real@404e000000000000    300a2080     bg_pmove.obj
 0002:00009088       __real@3f689374bc6a7efa    300a2088     bg_pmove.obj
 0002:00009090       __real@4062c00000000000    300a2090     bg_pmove.obj
 0002:00009098       __real@3fc0000000000000    300a2098     bg_pmove.obj
 0002:000090a0       __real@c2000000            300a20a0     bg_pmove.obj
 0002:000090a4       __real@42000000            300a20a4     bg_pmove.obj
 0002:000090a8       __real@0000000000000000    300a20a8     bg_pmove.obj
 0002:000090b0       __real@4040000000000000    300a20b0     bg_pmove.obj
 0002:000090b8       __real@3e800000            300a20b8     bg_pmove.obj
 0002:000090c0       __real@3fe99999a0000000    300a20c0     bg_pmove.obj
 0002:000090c8       __real@3f333333            300a20c8     bg_pmove.obj
 0002:000090d0       __real@3fb999999999999a    300a20d0     bg_pmove.obj
 0002:000090d8       __real@405fc00000000000    300a20d8     bg_pmove.obj
 0002:000090e0       __real@40f0000000000000    300a20e0     bg_pmove.obj
 0002:000090e8       __real@437a0000            300a20e8     bg_pmove.obj
 0002:000090ec       __real@42c80000            300a20ec     bg_pmove.obj
 0002:000090f0       __real@432f0000            300a20f0     bg_pmove.obj
 0002:000090f8       __real@bfeff7cee0000000    300a20f8     bg_pmove.obj
 0002:00009100       __real@3fd99999a0000000    300a2100     bg_pmove.obj
 0002:00009108       __real@c3000000            300a2108     bg_pmove.obj
 0002:0000910c       __real@c2b40000            300a210c     bg_pmove.obj
 0002:00009110       __real@43000000            300a2110     bg_pmove.obj
 0002:00009114       __real@41c00000            300a2114     bg_pmove.obj
 0002:00009118       __real@41700000            300a2118     bg_pmove.obj
 0002:0000911c       __real@c1700000            300a211c     bg_pmove.obj
 0002:00009120       __real@4069000000000000    300a2120     bg_pmove.obj
 0002:00009128       __real@c072c00000000000    300a2128     bg_pmove.obj
 0002:00009130       __real@43960000            300a2130     bg_pmove.obj
 0002:00009138       __real@c060000000000000    300a2138     bg_pmove.obj
 0002:00009140       __real@4059000000000000    300a2140     bg_pmove.obj
 0002:00009148       __real@4050000000000000    300a2148     bg_pmove.obj
 0002:00009150       __real@bff0000000000000    300a2150     bg_pmove.obj
 0002:00009158       __real@3f000000            300a2158     bg_pmove.obj
 0002:00009160       __real@4060000000000000    300a2160     bg_pmove.obj
 0002:00009168       __real@4004000000000000    300a2168     bg_pmove.obj
 0002:00009170       __real@c069000000000000    300a2170     bg_pmove.obj
 0002:00009178       __real@43340000            300a2178     bg_pmove.obj
 0002:0000917c       __real@c4960000            300a217c     bg_pmove.obj
 0002:00009180       __real@42a00000            300a2180     bg_pmove.obj
 0002:00009188       __real@3fe6666666666666    300a2188     bg_pmove.obj
 0002:00009190       __real@4030000000000000    300a2190     bg_pmove.obj
 0002:00009198       __real@4002000000000000    300a2198     bg_pmove.obj
 0002:000091a0       __real@407c200000000000    300a21a0     bg_pmove.obj
 0002:000091a8       __real@4020000000000000    300a21a8     bg_pmove.obj
 0002:000091b0       __real@43610000            300a21b0     bg_pmove.obj
 0002:000091b8       __real@406c200000000000    300a21b8     bg_pmove.obj
 0002:000091c0       __real@4024000000000000    300a21c0     bg_pmove.obj
 0002:000091c8       __real@c3160000            300a21c8     bg_pmove.obj
 0002:000091cc       __real@43160000            300a21cc     bg_pmove.obj
 0002:000091d0       __real@43af0000            300a21d0     bg_pmove.obj
 0002:000091d8       __real@403e000000000000    300a21d8     bg_pmove.obj
 0002:000091e0       __real@3f8020c5            300a21e0     bg_pmove.obj
 0002:000091e4       __real@c2700000            300a21e4     bg_pmove.obj
 0002:000091e8       __real@4000000000000000    300a21e8     bg_pmove.obj
 0002:000091f0       __real@4008000000000000    300a21f0     bg_pmove.obj
 0002:000091f8       __real@4034000000000000    300a21f8     bg_pmove.obj
 0002:00009200       __real@4032000000000000    300a2200     bg_pmove.obj
 0002:00009208       __real@3fd3333333333333    300a2208     bg_pmove.obj
 0002:00009210       __real@401c000000000000    300a2210     bg_pmove.obj
 0002:00009218       __real@40000000            300a2218     bg_pmove.obj
 0002:00009220       __real@3fd0000000000000    300a2220     bg_pmove.obj
 0002:00009228       __real@3f1a36e2eb1c432d    300a2228     bg_pmove.obj
 0002:00009230       ??_C@_0N@KJCNHCBK@?$CFi?3allsolid?6?$AA@ 300a2230     bg_pmove.obj
 0002:00009240       ??_C@_08EOGJDHPF@?$CFi?3lift?6?$AA@ 300a2240     bg_pmove.obj
 0002:0000924c       ??_C@_08KACHPCJN@?$CFi?3Land?6?$AA@ 300a224c     bg_pmove.obj
 0002:00009258       ??_C@_09OPMLNNOA@?$CFi?3steep?6?$AA@ 300a2258     bg_pmove.obj
 0002:00009264       ??_C@_0M@CKJFDFGH@?$CFi?3kickoff?6?$AA@ 300a2264     bg_pmove.obj
 0002:00009270       __real@c038000000000000    300a2270     bg_pmove.obj
 0002:00009278       __real@c1c00000            300a2278     bg_pmove.obj
 0002:0000927c       __real@c1000000            300a227c     bg_pmove.obj
 0002:00009280       __real@41800000            300a2280     bg_pmove.obj
 0002:00009284       __real@c1800000            300a2284     bg_pmove.obj
 0002:00009288       __real@40800000            300a2288     bg_pmove.obj
 0002:0000928c       __real@40400000            300a228c     bg_pmove.obj
 0002:00009290       __real@c0400000            300a2290     bg_pmove.obj
 0002:00009298       __real@4044000000000000    300a2298     bg_pmove.obj
 0002:000092a0       __real@c000000000000000    300a22a0     bg_pmove.obj
 0002:000092a8       __real@c008000000000000    300a22a8     bg_pmove.obj
 0002:000092b0       __real@c010000000000000    300a22b0     bg_pmove.obj
 0002:000092b8       __real@c014000000000000    300a22b8     bg_pmove.obj
 0002:000092c0       __real@4014000000000000    300a22c0     bg_pmove.obj
 0002:000092c8       __real@3ecccccd            300a22c8     bg_pmove.obj
 0002:000092cc       __real@471c4000            300a22cc     bg_pmove.obj
 0002:000092d0       __real@3e4ccccd            300a22d0     bg_pmove.obj
 0002:000092d4       __real@40a00000            300a22d4     bg_pmove.obj
 0002:000092d8       __real@40d3880000000000    300a22d8     bg_pmove.obj
 0002:000092e0       __real@45000000            300a22e0     bg_pmove.obj
 0002:000092e4       __real@46800000            300a22e4     bg_pmove.obj
 0002:000092e8       __real@40b0000000000000    300a22e8     bg_pmove.obj
 0002:000092f0       __real@3feccccccccccccd    300a22f0     bg_pmove.obj
 0002:000092f8       __real@41000000            300a22f8     bg_pmove.obj
 0002:000092fc       __real@42800000            300a22fc     bg_pmove.obj
 0002:00009300       __real@3f76800000000000    300a2300     bg_pmove.obj
 0002:00009308       __real@42480000            300a2308     bg_pmove.obj
 0002:00009310       __real@4049000000000000    300a2310     bg_pmove.obj
 0002:00009318       __real@3fa1eb8520000000    300a2318     bg_pmove.obj
 0002:00009320       __real@44160000            300a2320     bg_pmove.obj
 0002:00009328       __real@4018000000000000    300a2328     bg_pmove.obj
 0002:00009330       __real@3fe3333340000000    300a2330     bg_pmove.obj
 0002:00009338       __real@3fe19999a0000000    300a2338     bg_pmove.obj
 0002:00009340       __real@3feb333340000000    300a2340     bg_pmove.obj
 0002:00009348       __real@3fd3333340000000    300a2348     bg_pmove.obj
 0002:00009350       __real@3fdcccccc0000000    300a2350     bg_pmove.obj
 0002:00009358       __real@3fc999999999999a    300a2358     bg_pmove.obj
 0002:00009360       __real@3fe999999999999a    300a2360     bg_pmove.obj
 0002:00009368       __real@3fd999999999999a    300a2368     bg_pmove.obj
 0002:00009370       ??_C@_06IHEANBNF@pelvis?$AA@ 300a2370     bg_pmove.obj
 0002:00009378       __real@3f19999a            300a2378     bg_pmove.obj
 0002:0000937c       __real@3f4ccccd            300a237c     bg_pmove.obj
 0002:00009380       __real@3f666666            300a2380     bg_pmove.obj
 0002:00009384       __real@41a00000            300a2384     bg_pmove.obj
 0002:00009388       __real@41f00000            300a2388     bg_pmove.obj
 0002:0000938c       ??_C@_07NJHCGBBF@lradius?$AA@ 300a238c     bg_pmove.obj
 0002:00009394       __real@c1a00000            300a2394     bg_pmove.obj
 0002:00009398       ??_C@_08GMFJNBED@lhumerus?$AA@ 300a2398     bg_pmove.obj
 0002:000093a4       __real@41200000            300a23a4     bg_pmove.obj
 0002:000093a8       __real@3fb99999a0000000    300a23a8     bg_pmove.obj
 0002:000093b0       ??_C@_08ILEJMJL@thoracic?$AA@ 300a23b0     bg_pmove.obj
 0002:000093bc       ??_C@_08HPHDBPFM@cervical?$AA@ 300a23bc     bg_pmove.obj
 0002:000093c8       __real@3fe3333333333333    300a23c8     bg_pmove.obj
 0002:000093d0       ??_C@_07JOKDFEMH@cranium?$AA@ 300a23d0     bg_pmove.obj
 0002:000093d8       __real@3fd6666660000000    300a23d8     bg_pmove.obj
 0002:000093e0       ??_C@_0N@FLMNOMBE@upper_lumbar?$AA@ 300a23e0     bg_pmove.obj
 0002:000093f0       ??_C@_0N@DPOICHCI@lower_lumbar?$AA@ 300a23f0     bg_pmove.obj
 0002:00009400       __real@c2480000            300a2400     bg_pmove.obj
 0002:00009404       __real@c28c0000            300a2404     bg_pmove.obj
 0002:00009408       __real@428c0000            300a2408     bg_pmove.obj
 0002:0000940c       __real@c1f00000            300a240c     bg_pmove.obj
 0002:00009410       __real@c03e000000000000    300a2410     bg_pmove.obj
 0002:00009418       __real@3f266666            300a2418     bg_pmove.obj
 0002:00009420       __real@3fa999999999999a    300a2420     bg_pmove.obj
 0002:00009428       ??_C@_0BP@KPLHHMIM@Bad?5player?5movement?5angle?5?$CI?$CFi?$CJ?$AA@ 300a2428     bg_pmove.obj
 0002:00009448       __real@44af0000            300a2448     bg_pmove.obj
 0002:0000944c       __real@44960000            300a244c     bg_pmove.obj
 0002:00009450       __real@44e10000            300a2450     bg_pmove.obj
 0002:00009454       __real@44d48000            300a2454     bg_pmove.obj
 0002:00009458       __real@3f400000            300a2458     bg_pmove.obj
 0002:00009460       __real@40af400000000000    300a2460     bg_pmove.obj
 0002:00009468       __real@bfe0000000000000    300a2468     bg_pmove.obj
 0002:00009470       __real@402e000000000000    300a2470     bg_pmove.obj
 0002:00009478       __real@c02e000000000000    300a2478     bg_pmove.obj
 0002:00009480       __real@bf000000            300a2480     bg_pmove.obj
 0002:00009484       __real@c2c80000            300a2484     bg_pmove.obj
 0002:00009488       __real@c059000000000000    300a2488     bg_pmove.obj
 0002:00009490       __real@3f90000000000000    300a2490     bg_pmove.obj
 0002:00009498       __real@41400000            300a2498     bg_pmove.obj
 0002:0000949c       __real@43800000            300a249c     bg_pmove.obj
 0002:000094a0       __real@406e000000000000    300a24a0     bg_pmove.obj
 0002:000094a8       ??_C@_0L@PFJLCLDC@Reflect?5LL?$AA@ 300a24a8     bg_saber.obj
 0002:000094b4       ??_C@_0L@CBNKBEON@Reflect?5LR?$AA@ 300a24b4     bg_saber.obj
 0002:000094c0       ??_C@_0L@OGGMLDMN@Reflect?5UL?$AA@ 300a24c0     bg_saber.obj
 0002:000094cc       ??_C@_0L@DCCNIMBC@Reflect?5UR?$AA@ 300a24cc     bg_saber.obj
 0002:000094d8       ??_C@_0M@EILLDEJE@Reflect?5Top?$AA@ 300a24d8     bg_saber.obj
 0002:000094e4       ??_C@_08DLEEDOOH@Parry?5LL?$AA@ 300a24e4     bg_saber.obj
 0002:000094f0       ??_C@_08OPAFABDI@Parry?5LR?$AA@ 300a24f0     bg_saber.obj
 0002:000094fc       ??_C@_08CILDKGBI@Parry?5UL?$AA@ 300a24fc     bg_saber.obj
 0002:00009508       ??_C@_08PMPCJJMH@Parry?5UR?$AA@ 300a2508     bg_saber.obj
 0002:00009514       ??_C@_09LOMMMNNK@Parry?5Top?$AA@ 300a2514     bg_saber.obj
 0002:00009520       ??_C@_08BIFCBIDF@Knock?5LL?$AA@ 300a2520     bg_saber.obj
 0002:0000952c       ??_C@_08MMBDCHOK@Knock?5LR?$AA@ 300a252c     bg_saber.obj
 0002:00009538       ??_C@_08LKFIAMK@Knock?5UL?$AA@ 300a2538     bg_saber.obj
 0002:00009544       ??_C@_08NPOELPBF@Knock?5UR?$AA@ 300a2544     bg_saber.obj
 0002:00009550       ??_C@_09NGDCGIAE@Knock?5Top?$AA@ 300a2550     bg_saber.obj
 0002:0000955c       ??_C@_09KEIIJFKC@BParry?5LL?$AA@ 300a255c     bg_saber.obj
 0002:00009568       ??_C@_0L@KJPLHJCJ@BParry?5Bot?$AA@ 300a2568     bg_saber.obj
 0002:00009574       ??_C@_09HAMJKKHN@BParry?5LR?$AA@ 300a2574     bg_saber.obj
 0002:00009580       ??_C@_09LHHPANFN@BParry?5UL?$AA@ 300a2580     bg_saber.obj
 0002:0000958c       ??_C@_09GDDODCIC@BParry?5UR?$AA@ 300a258c     bg_saber.obj
 0002:00009598       ??_C@_0L@LIOFLEGO@BParry?5Top?$AA@ 300a2598     bg_saber.obj
 0002:000095a4       ??_C@_0M@LODFIFIA@Reflected?5B?$AA@ 300a25a4     bg_saber.obj
 0002:000095b0       ??_C@_0N@LBMKLGKM@Reflected?5BL?$AA@ 300a25b0     bg_saber.obj
 0002:000095c0       ??_C@_0M@CALGKIAO@Reflected?5L?$AA@ 300a25c0     bg_saber.obj
 0002:000095cc       ??_C@_0N@KJGBGJGO@Reflected?5TL?$AA@ 300a25cc     bg_saber.obj
 0002:000095dc       ??_C@_0M@KCKNDAFH@Reflected?5T?$AA@ 300a25dc     bg_saber.obj
 0002:000095e8       ??_C@_0N@HNCAFGLB@Reflected?5TR?$AA@ 300a25e8     bg_saber.obj
 0002:000095f8       ??_C@_0M@PEPHJHNB@Reflected?5R?$AA@ 300a25f8     bg_saber.obj
 0002:00009604       ??_C@_0N@GFILIJHD@Reflected?5BR?$AA@ 300a2604     bg_saber.obj
 0002:00009614       ??_C@_09FPLGLEMN@Deflect?5B?$AA@ 300a2614     bg_saber.obj
 0002:00009620       ??_C@_0L@LJEGAILA@Deflect?5BL?$AA@ 300a2620     bg_saber.obj
 0002:0000962c       ??_C@_09MBDFJJED@Deflect?5L?$AA@ 300a262c     bg_saber.obj
 0002:00009638       ??_C@_0L@KBONNHHC@Deflect?5TL?$AA@ 300a2638     bg_saber.obj
 0002:00009644       ??_C@_09EDCOABBK@Deflect?5T?$AA@ 300a2644     bg_saber.obj
 0002:00009650       ??_C@_0L@HFKMOIKN@Deflect?5TR?$AA@ 300a2650     bg_saber.obj
 0002:0000965c       ??_C@_09BFHEKGJM@Deflect?5R?$AA@ 300a265c     bg_saber.obj
 0002:00009668       ??_C@_0L@GNAHDHGP@Deflect?5BR?$AA@ 300a2668     bg_saber.obj
 0002:00009674       ??_C@_09GKILNFHN@Bounce?5BL?$AA@ 300a2674     bg_saber.obj
 0002:00009680       ??_C@_08NKBMKPCE@Bounce?5L?$AA@ 300a2680     bg_saber.obj
 0002:0000968c       ??_C@_09HCCAAKLP@Bounce?5TL?$AA@ 300a268c     bg_saber.obj
 0002:00009698       ??_C@_08FIAHDHHN@Bounce?5T?$AA@ 300a2698     bg_saber.obj
 0002:000096a4       ??_C@_09KGGBDFGA@Bounce?5TR?$AA@ 300a26a4     bg_saber.obj
 0002:000096b0       ??_C@_08OFNJAPL@Bounce?5R?$AA@ 300a26b0     bg_saber.obj
 0002:000096bc       ??_C@_09LOMKOKKC@Bounce?5BR?$AA@ 300a26bc     bg_saber.obj
 0002:000096c8       ??_C@_0L@POFOKKEO@BL2L?5Trans?$AA@ 300a26c8     bg_saber.obj
 0002:000096d4       ??_C@_0M@KHNLJCKB@BL2TL?5Trans?$AA@ 300a26d4     bg_saber.obj
 0002:000096e0       ??_C@_0L@FBAAIANA@BL2T?5Trans?$AA@ 300a26e0     bg_saber.obj
 0002:000096ec       ??_C@_0M@MOOKLBLI@BL2TR?5Trans?$AA@ 300a26ec     bg_saber.obj
 0002:000096f8       ??_C@_0L@JHGPIJFH@BL2R?5Trans?$AA@ 300a26f8     bg_saber.obj
 0002:00009704       ??_C@_0M@BBDAIKED@BL2BR?5Trans?$AA@ 300a2704     bg_saber.obj
 0002:00009710       ??_C@_0L@LEALPHLG@L2BL?5Trans?$AA@ 300a2710     bg_saber.obj
 0002:0000971c       ??_C@_0L@GLNBMMEN@L2TL?5Trans?$AA@ 300a271c     bg_saber.obj
 0002:00009728       ??_C@_09FHCJPJGE@L2T?5Trans?$AA@ 300a2728     bg_saber.obj
 0002:00009734       ??_C@_0L@COAOPFE@L2TR?5Trans?$AA@ 300a2734     bg_saber.obj
 0002:00009740       ??_C@_09JBEGPAOD@L2R?5Trans?$AA@ 300a2740     bg_saber.obj
 0002:0000974c       ??_C@_0L@NNDKNEKP@L2BR?5Trans?$AA@ 300a274c     bg_saber.obj
 0002:00009758       ??_C@_0M@JLCEOBEG@TL2BL?5Trans?$AA@ 300a2758     bg_saber.obj
 0002:00009764       ??_C@_0L@LIBNKEMG@TL2L?5Trans?$AA@ 300a2764     bg_saber.obj
 0002:00009770       ??_C@_0L@BHEDIOFI@TL2T?5Trans?$AA@ 300a2770     bg_saber.obj
 0002:0000977c       ??_C@_0M@CNMPPJKE@TL2TR?5Trans?$AA@ 300a277c     bg_saber.obj
 0002:00009788       ??_C@_0L@NBCMIHNP@TL2R?5Trans?$AA@ 300a2788     bg_saber.obj
 0002:00009794       ??_C@_0M@PCBFMCFP@TL2BR?5Trans?$AA@ 300a2794     bg_saber.obj
 0002:000097a0       ??_C@_0L@KADONCDI@T2BL?5Trans?$AA@ 300a27a0     bg_saber.obj
 0002:000097ac       ??_C@_09MMAOBCOG@T2L?5Trans?$AA@ 300a27ac     bg_saber.obj
 0002:000097b8       ??_C@_0L@HPOEOJMD@T2TL?5Trans?$AA@ 300a27b8     bg_saber.obj
 0002:000097c4       ??_C@_0L@BGNFMKNK@T2TR?5Trans?$AA@ 300a27c4     bg_saber.obj
 0002:000097d0       ??_C@_09KFDPDBPP@T2R?5Trans?$AA@ 300a27d0     bg_saber.obj
 0002:000097dc       ??_C@_0L@MJAPPBCB@T2BR?5Trans?$AA@ 300a27dc     bg_saber.obj
 0002:000097e8       ??_C@_0M@GHKEAOIL@TR2BL?5Trans?$AA@ 300a27e8     bg_saber.obj
 0002:000097f4       ??_C@_0L@IBHKBFJN@TR2L?5Trans?$AA@ 300a27f4     bg_saber.obj
 0002:00009800       ??_C@_0M@LIHODFHA@TR2TL?5Trans?$AA@ 300a2800     bg_saber.obj
 0002:0000980c       ??_C@_0L@COCEDPAD@TR2T?5Trans?$AA@ 300a280c     bg_saber.obj
 0002:00009818       ??_C@_0L@OIELDGIE@TR2R?5Trans?$AA@ 300a2818     bg_saber.obj
 0002:00009824       ??_C@_0M@OJFCNJC@TR2BR?5Trans?$AA@ 300a2824     bg_saber.obj
 0002:00009830       ??_C@_0L@EIILBIHL@R2BL?5Trans?$AA@ 300a2830     bg_saber.obj
 0002:0000983c       ??_C@_09MBBAGCKB@R2L?5Trans?$AA@ 300a283c     bg_saber.obj
 0002:00009848       ??_C@_0L@JHFBCDIA@R2TL?5Trans?$AA@ 300a2848     bg_saber.obj
 0002:00009854       ??_C@_09GOEOEIDP@R2T?5Trans?$AA@ 300a2854     bg_saber.obj
 0002:00009860       ??_C@_0L@POGAAAJJ@R2TR?5Trans?$AA@ 300a2860     bg_saber.obj
 0002:0000986c       ??_C@_0L@CBLKDLGC@R2BR?5Trans?$AA@ 300a286c     bg_saber.obj
 0002:00009878       ??_C@_0M@IEIBEGJH@BR2BL?5Trans?$AA@ 300a2878     bg_saber.obj
 0002:00009884       ??_C@_0L@MHDJBLBF@BR2L?5Trans?$AA@ 300a2884     bg_saber.obj
 0002:00009890       ??_C@_0M@FLFLHNGM@BR2TL?5Trans?$AA@ 300a2890     bg_saber.obj
 0002:0000989c       ??_C@_0L@GIGHDBIL@BR2T?5Trans?$AA@ 300a289c     bg_saber.obj
 0002:000098a8       ??_C@_0M@DCGKFOHF@BR2TR?5Trans?$AA@ 300a28a8     bg_saber.obj
 0002:000098b4       ??_C@_0L@KOAIDIAM@BR2R?5Trans?$AA@ 300a28b4     bg_saber.obj
 0002:000098c0       ??_C@_07JDFHJPKC@T2B?5Ret?$AA@ 300a28c0     bg_saber.obj
 0002:000098c8       ??_C@_09DJECHPBI@TR2BL?5Ret?$AA@ 300a28c8     bg_saber.obj
 0002:000098d4       ??_C@_07GPDCPHFF@R2L?5Ret?$AA@ 300a28d4     bg_saber.obj
 0002:000098dc       ??_C@_09BHPMCHED@BR2TL?5Ret?$AA@ 300a28dc     bg_saber.obj
 0002:000098e8       ??_C@_09EKCCNNEL@BL2TR?5Ret?$AA@ 300a28e8     bg_saber.obj
 0002:000098f4       ??_C@_07DPNPLHKH@L2R?5Ret?$AA@ 300a28f4     bg_saber.obj
 0002:000098fc       ??_C@_09GEJMIFBA@TL2BR?5Ret?$AA@ 300a28fc     bg_saber.obj
 0002:00009908       ??_C@_06FLBDMDIP@T2B?5St?$AA@ 300a2908     bg_saber.obj
 0002:00009910       ??_C@_08EELPCGOB@TR2BL?5St?$AA@ 300a2910     bg_saber.obj
 0002:0000991c       ??_C@_06IHPDEINE@R2L?5St?$AA@ 300a291c     bg_saber.obj
 0002:00009924       ??_C@_08EOOKPMJM@BR2TL?5St?$AA@ 300a2924     bg_saber.obj
 0002:00009930       ??_C@_08PIALPGGG@BL2TR?5St?$AA@ 300a2930     bg_saber.obj
 0002:0000993c       ??_C@_06GPMCIGKE@L2R?5St?$AA@ 300a293c     bg_saber.obj
 0002:00009944       ??_C@_08PCFOCMBL@TL2BR?5St?$AA@ 300a2944     bg_saber.obj
 0002:00009950       ??_C@_0M@HBLMDLAK@StfHiltBash?$AA@ 300a2950     bg_saber.obj
 0002:0000995c       ??_C@_0M@LAELOAEL@Dual?5LR?5Atk?$AA@ 300a295c     bg_saber.obj
 0002:00009968       ??_C@_0M@BHONLNJO@Dual?5FB?5Atk?$AA@ 300a2968     bg_saber.obj
 0002:00009974       ??_C@_0N@PCBIMGO@AloraSpinAtk?$AA@ 300a2974     bg_saber.obj
 0002:00009984       ??_C@_0N@GFKPCBPN@pullatkswing?$AA@ 300a2984     bg_saber.obj
 0002:00009994       ??_C@_0M@HMDNHOPJ@pullatkstab?$AA@ 300a2994     bg_saber.obj
 0002:000099a0       ??_C@_0N@LJBLOMAE@upsidedwnatk?$AA@ 300a29a0     bg_saber.obj
 0002:000099b0       ??_C@_0L@PLFOAHMF@specialstr?$AA@ 300a29b0     bg_saber.obj
 0002:000099bc       ??_C@_0L@EKOEFLPJ@specialmed?$AA@ 300a29bc     bg_saber.obj
 0002:000099c8       ??_C@_0M@GOKDABKC@specialfast?$AA@ 300a29c8     bg_saber.obj
 0002:000099d4       ??_C@_0L@NHJJEIC@StfSoulCal?$AA@ 300a29d4     bg_saber.obj
 0002:000099e0       ??_C@_0N@KBDLODPM@dualspinprot?$AA@ 300a29e0     bg_saber.obj
 0002:000099f0       ??_C@_0N@MHIEIOPE@StabDownDual?$AA@ 300a29f0     bg_saber.obj
 0002:00009a00       ??_C@_0M@JEGPPONO@StabDownStf?$AA@ 300a2a00     bg_saber.obj
 0002:00009a0c       ??_C@_08HGDIMBKI@StabDown?$AA@ 300a2a0c     bg_saber.obj
 0002:00009a18       ??_C@_0P@GIHHJKOM@StfKickLeftAir?$AA@ 300a2a18     bg_saber.obj
 0002:00009a28       ??_C@_0BA@EJCHHLPD@StfKickRightAir?$AA@ 300a2a28     bg_saber.obj
 0002:00009a38       ??_C@_0P@DLMPDNCN@StfKickBackAir?$AA@ 300a2a38     bg_saber.obj
 0002:00009a48       ??_C@_0O@NMBBHPCN@StfKickFwdAir?$AA@ 300a2a48     bg_saber.obj
 0002:00009a58       ??_C@_0N@JEMEOOKN@StfKickSplit?$AA@ 300a2a58     bg_saber.obj
 0002:00009a68       ??_C@_0N@NIILEKHB@StfKickBkFwd?$AA@ 300a2a68     bg_saber.obj
 0002:00009a78       ??_C@_0M@LODHMIIA@StfKickSpin?$AA@ 300a2a78     bg_saber.obj
 0002:00009a84       ??_C@_0M@IADBNCJI@StfKickLeft?$AA@ 300a2a84     bg_saber.obj
 0002:00009a90       ??_C@_0N@OEKLCFMN@StfKickRight?$AA@ 300a2a90     bg_saber.obj
 0002:00009aa0       ??_C@_0M@HLPCDHNL@StfKickBack?$AA@ 300a2aa0     bg_saber.obj
 0002:00009aac       ??_C@_0L@EBPEBDEI@StfKickFwd?$AA@ 300a2aac     bg_saber.obj
 0002:00009ab8       ??_C@_0N@GODEMPCP@TauntaunAtkL?$AA@ 300a2ab8     bg_saber.obj
 0002:00009ac8       ??_C@_0N@LKHFPAPA@TauntaunAtkR?$AA@ 300a2ac8     bg_saber.obj
 0002:00009ad8       ??_C@_09DMADOFPO@SwoopAtkL?$AA@ 300a2ad8     bg_saber.obj
 0002:00009ae4       ??_C@_09OIECNKCB@SwoopAtkR?$AA@ 300a2ae4     bg_saber.obj
 0002:00009af0       ??_C@_0L@NEJJNIPN@LngLeapAtk?$AA@ 300a2af0     bg_saber.obj
 0002:00009afc       ??_C@_0L@GNJONGPC@StfSpinAtk?$AA@ 300a2afc     bg_saber.obj
 0002:00009b08       ??_C@_0M@HECJKIFI@DualSpinAtk?$AA@ 300a2b08     bg_saber.obj
 0002:00009b14       ??_C@_0L@DLADLIII@BkFlip?5Atk?$AA@ 300a2b14     bg_saber.obj
 0002:00009b20       ??_C@_0P@FGMKFKI@ButterflyRight?$AA@ 300a2b20     bg_saber.obj
 0002:00009b30       ??_C@_0O@EJCJKPND@ButterflyLeft?$AA@ 300a2b30     bg_saber.obj
 0002:00009b40       ??_C@_0BC@MKGAPFGF@DualJumpAtkRStaff?$AA@ 300a2b40     bg_saber.obj
 0002:00009b54       ??_C@_0BC@PNIBBCPG@DualJumpAtkLStaff?$AA@ 300a2b54     bg_saber.obj
 0002:00009b68       ??_C@_0P@KOAKECAO@DualJumpAtkR_A?$AA@ 300a2b68     bg_saber.obj
 0002:00009b78       ??_C@_0P@BOMMGCKC@DualJumpAtkL_A?$AA@ 300a2b78     bg_saber.obj
 0002:00009b88       ??_C@_0N@BCAAENJH@DualJump?5Atk?$AA@ 300a2b88     bg_saber.obj
 0002:00009b98       ??_C@_0L@FMKCKBGH@Flip?5Slash?$AA@ 300a2b98     bg_saber.obj
 0002:00009ba4       ??_C@_09JENGNGLB@Flip?5Stab?$AA@ 300a2ba4     bg_saber.obj
 0002:00009bb0       ??_C@_08KNHLLBPK@Jump?5Att?$AA@ 300a2bb0     bg_saber.obj
 0002:00009bbc       ??_C@_09LEMMEBE@Lunge?5Att?$AA@ 300a2bbc     bg_saber.obj
 0002:00009bc8       ??_C@_08PKIJPDOE@RollStab?$AA@ 300a2bc8     bg_saber.obj
 0002:00009bd4       ??_C@_0M@GCNCHFMC@CR?5Back?5Att?$AA@ 300a2bd4     bg_saber.obj
 0002:00009be0       ??_C@_08NHHMKFDG@Back?5Att?$AA@ 300a2be0     bg_saber.obj
 0002:00009bec       ??_C@_09JIGLEFGA@Back?5Stab?$AA@ 300a2bec     bg_saber.obj
 0002:00009bf8       ??_C@_07MMBPKOJE@T2B?5Att?$AA@ 300a2bf8     bg_saber.obj
 0002:00009c00       ??_C@_09GGAKEOCO@TR2BL?5Att?$AA@ 300a2c00     bg_saber.obj
 0002:00009c0c       ??_C@_07DAHKMGGD@R2L?5Att?$AA@ 300a2c0c     bg_saber.obj
 0002:00009c14       ??_C@_09EILEBGHF@BR2TL?5Att?$AA@ 300a2c14     bg_saber.obj
 0002:00009c20       ??_C@_09BFGKOMHN@BL2TR?5Att?$AA@ 300a2c20     bg_saber.obj
 0002:00009c2c       ??_C@_07GAJHIGJB@L2R?5Att?$AA@ 300a2c2c     bg_saber.obj
 0002:00009c34       ??_C@_09DLNELECG@TL2BR?5Att?$AA@ 300a2c34     bg_saber.obj
 0002:00009c40       ??_C@_07EEKMGHL@Putaway?$AA@ 300a2c40     bg_saber.obj
 0002:00009c48       ??_C@_04HMPDNAFK@Draw?$AA@ 300a2c48     bg_saber.obj
 0002:00009c50       ??_C@_05GMBADOLI@Ready?$AA@ 300a2c50     bg_saber.obj
 0002:00009c58       ??_C@_04OHJIHAFH@None?$AA@ 300a2c58     bg_saber.obj
 0002:00009c60       __real@406f400000000000    300a2c60     bg_saber.obj
 0002:00009c68       __real@4052c00000000000    300a2c68     bg_saber.obj
 0002:00009c70       __real@4064000000000000    300a2c70     bg_saber.obj
 0002:00009c78       __real@4074000000000000    300a2c78     bg_saber.obj
 0002:00009c80       __real@4054000000000000    300a2c80     bg_saber.obj
 0002:00009c88       __real@40b9000000000000    300a2c88     bg_saber.obj
 0002:00009c90       __real@45800000            300a2c90     bg_saber.obj
 0002:00009c94       __real@c1400000            300a2c94     bg_saber.obj
 0002:00009c98       __real@4064800000000000    300a2c98     bg_saber.obj
 0002:00009ca0       __real@43c80000            300a2ca0     bg_saber.obj
 0002:00009ca4       __real@43fa0000            300a2ca4     bg_saber.obj
 0002:00009ca8       __real@438c0000            300a2ca8     bg_saber.obj
 0002:00009cac       __real@42200000            300a2cac     bg_saber.obj
 0002:00009cb0       __real@4067c00000000000    300a2cb0     bg_saber.obj
 0002:00009cb8       ??_C@_0N@ILPCADIK@LS_HILT_BASH?$AA@ 300a2cb8     bg_saberLoad.obj
 0002:00009cc8       ??_C@_0L@FALMEENH@LS_DUAL_LR?$AA@ 300a2cc8     bg_saberLoad.obj
 0002:00009cd4       ??_C@_0L@BHOJNDFA@LS_DUAL_FB?$AA@ 300a2cd4     bg_saberLoad.obj
 0002:00009ce0       ??_C@_0BE@NCPALCCM@LS_SPINATTACK_ALORA?$AA@ 300a2ce0     bg_saberLoad.obj
 0002:00009cf4       ??_C@_0BF@MEAMFNJP@LS_PULL_ATTACK_SWING?$AA@ 300a2cf4     bg_saberLoad.obj
 0002:00009d0c       ??_C@_0BE@DFLMECJA@LS_PULL_ATTACK_STAB?$AA@ 300a2d0c     bg_saberLoad.obj
 0002:00009d20       ??_C@_0BG@ONIDDAHL@LS_UPSIDE_DOWN_ATTACK?$AA@ 300a2d20     bg_saberLoad.obj
 0002:00009d38       ??_C@_0O@PFHMFLAI@LS_A3_SPECIAL?$AA@ 300a2d38     bg_saberLoad.obj
 0002:00009d48       ??_C@_0O@BKLODADG@LS_A2_SPECIAL?$AA@ 300a2d48     bg_saberLoad.obj
 0002:00009d58       ??_C@_0O@PBIJILDF@LS_A1_SPECIAL?$AA@ 300a2d58     bg_saberLoad.obj
 0002:00009d68       ??_C@_0BB@PAHMPHJI@LS_STAFF_SOULCAL?$AA@ 300a2d68     bg_saberLoad.obj
 0002:00009d7c       ??_C@_0BF@LBNOEGOG@LS_DUAL_SPIN_PROTECT?$AA@ 300a2d7c     bg_saberLoad.obj
 0002:00009d94       ??_C@_0BB@CODEHDPM@LS_STABDOWN_DUAL?$AA@ 300a2d94     bg_saberLoad.obj
 0002:00009da8       ??_C@_0BC@DMCCPMIC@LS_STABDOWN_STAFF?$AA@ 300a2da8     bg_saberLoad.obj
 0002:00009dbc       ??_C@_0M@ELFCBMHI@LS_STABDOWN?$AA@ 300a2dbc     bg_saberLoad.obj
 0002:00009dc8       ??_C@_0O@HIKDJAAM@LS_KICK_L_AIR?$AA@ 300a2dc8     bg_saberLoad.obj
 0002:00009dd8       ??_C@_0O@EBHPPDOH@LS_KICK_R_AIR?$AA@ 300a2dd8     bg_saberLoad.obj
 0002:00009de8       ??_C@_0O@ECKJPBHM@LS_KICK_B_AIR?$AA@ 300a2de8     bg_saberLoad.obj
 0002:00009df8       ??_C@_0O@NJDILDGK@LS_KICK_F_AIR?$AA@ 300a2df8     bg_saberLoad.obj
 0002:00009e08       ??_C@_0L@BEPDGMHP@LS_KICK_RL?$AA@ 300a2e08     bg_saberLoad.obj
 0002:00009e14       ??_C@_0L@PCDKCHIF@LS_KICK_BF?$AA@ 300a2e14     bg_saberLoad.obj
 0002:00009e20       ??_C@_09JEEBAMOG@LS_KICK_S?$AA@ 300a2e20     bg_saberLoad.obj
 0002:00009e2c       ??_C@_09FJBLACHI@LS_KICK_L?$AA@ 300a2e2c     bg_saberLoad.obj
 0002:00009e38       ??_C@_09INFKDNKH@LS_KICK_R?$AA@ 300a2e38     bg_saberLoad.obj
 0002:00009e44       ??_C@_09MHJICPPG@LS_KICK_B?$AA@ 300a2e44     bg_saberLoad.obj
 0002:00009e50       ??_C@_09KDPEOKPC@LS_KICK_F?$AA@ 300a2e50     bg_saberLoad.obj
 0002:00009e5c       ??_C@_0BI@PCDKKKP@LS_TAUNTAUN_ATTACK_LEFT?$AA@ 300a2e5c     bg_saberLoad.obj
 0002:00009e74       ??_C@_0BJ@MJBNLGBI@LS_TAUNTAUN_ATTACK_RIGHT?$AA@ 300a2e74     bg_saberLoad.obj
 0002:00009e90       ??_C@_0BF@KEBAECPJ@LS_SWOOP_ATTACK_LEFT?$AA@ 300a2e90     bg_saberLoad.obj
 0002:00009ea8       ??_C@_0BG@ELLOHBDB@LS_SWOOP_ATTACK_RIGHT?$AA@ 300a2ea8     bg_saberLoad.obj
 0002:00009ec0       ??_C@_0P@DFOBGGPF@LS_LEAP_ATTACK?$AA@ 300a2ec0     bg_saberLoad.obj
 0002:00009ed0       ??_C@_0O@FDMAOBOA@LS_SPINATTACK?$AA@ 300a2ed0     bg_saberLoad.obj
 0002:00009ee0       ??_C@_0BD@MHMCCFJA@LS_SPINATTACK_DUAL?$AA@ 300a2ee0     bg_saberLoad.obj
 0002:00009ef4       ??_C@_0BC@NDKCFACB@LS_A_BACKFLIP_ATK?$AA@ 300a2ef4     bg_saberLoad.obj
 0002:00009f08       ??_C@_0BD@JHIDIBPC@LS_BUTTERFLY_RIGHT?$AA@ 300a2f08     bg_saberLoad.obj
 0002:00009f1c       ??_C@_0BC@EPONEONH@LS_BUTTERFLY_LEFT?$AA@ 300a2f1c     bg_saberLoad.obj
 0002:00009f30       ??_C@_0BK@FOGHAHEL@LS_JUMPATTACK_STAFF_RIGHT?$AA@ 300a2f30     bg_saberLoad.obj
 0002:00009f4c       ??_C@_0BJ@KHELHBKE@LS_JUMPATTACK_STAFF_LEFT?$AA@ 300a2f4c     bg_saberLoad.obj
 0002:00009f68       ??_C@_0BJ@EFEGBHBD@LS_JUMPATTACK_CART_RIGHT?$AA@ 300a2f68     bg_saberLoad.obj
 0002:00009f84       ??_C@_0BI@IHPOFCPB@LS_JUMPATTACK_CART_LEFT?$AA@ 300a2f84     bg_saberLoad.obj
 0002:00009f9c       ??_C@_0BK@LAIHIPJO@LS_JUMPATTACK_ARIAL_RIGHT?$AA@ 300a2f9c     bg_saberLoad.obj
 0002:00009fb8       ??_C@_0BJ@EJKCIIKG@LS_JUMPATTACK_ARIAL_LEFT?$AA@ 300a2fb8     bg_saberLoad.obj
 0002:00009fd4       ??_C@_0BD@JIFEIOCK@LS_JUMPATTACK_DUAL?$AA@ 300a2fd4     bg_saberLoad.obj
 0002:00009fe8       ??_C@_0BA@HAINKDAA@LS_A_FLIP_SLASH?$AA@ 300a2fe8     bg_saberLoad.obj
 0002:00009ff8       ??_C@_0P@FJCEBKMH@LS_A_FLIP_STAB?$AA@ 300a2ff8     bg_saberLoad.obj
 0002:0000a008       ??_C@_0BA@GOCEHKHO@LS_A_JUMP_T__B_?$AA@ 300a3008     bg_saberLoad.obj
 0002:0000a018       ??_C@_0L@IMDBKIFN@LS_A_LUNGE?$AA@ 300a3018     bg_saberLoad.obj
 0002:0000a024       ??_C@_0N@EDFPDPID@LS_ROLL_STAB?$AA@ 300a3024     bg_saberLoad.obj
 0002:0000a034       ??_C@_0N@ONJIGLHG@LS_A_BACK_CR?$AA@ 300a3034     bg_saberLoad.obj
 0002:0000a044       ??_C@_09CAEELJLH@LS_A_BACK?$AA@ 300a3044     bg_saberLoad.obj
 0002:0000a050       ??_C@_0O@GNJKPOOL@LS_A_BACKSTAB?$AA@ 300a3050     bg_saberLoad.obj
 0002:0000a060       ??_C@_08PAOMHDGG@LS_A_T2B?$AA@ 300a3060     bg_saberLoad.obj
 0002:0000a06c       ??_C@_0L@CHHEJCDN@LS_A_TR2BL?$AA@ 300a306c     bg_saberLoad.obj
 0002:0000a078       ??_C@_08ELAEABDE@LS_A_R2L?$AA@ 300a3078     bg_saberLoad.obj
 0002:0000a084       ??_C@_0L@OKFAKMHJ@LS_A_BR2TL?$AA@ 300a3084     bg_saberLoad.obj
 0002:0000a090       ??_C@_0L@OBMBLKEF@LS_A_BL2TR?$AA@ 300a3090     bg_saberLoad.obj
 0002:0000a09c       ??_C@_08CPIDBOEH@LS_A_L2R?$AA@ 300a309c     bg_saberLoad.obj
 0002:0000a0a8       ??_C@_0L@CMOFIEAB@LS_A_TL2BR?$AA@ 300a30a8     bg_saberLoad.obj
 0002:0000a0b4       ??_C@_07NILEALPF@LS_NONE?$AA@ 300a30b4     bg_saberLoad.obj
 0002:0000a0bc       ??_C@_0O@JGGDFEFK@SABER_TRIDENT?$AA@ 300a30bc     bg_saberLoad.obj
 0002:0000a0cc       ??_C@_0L@BONOMJND@SABER_STAR?$AA@ 300a30cc     bg_saberLoad.obj
 0002:0000a0d8       ??_C@_0M@INMNJHEK@SABER_LANCE?$AA@ 300a30d8     bg_saberLoad.obj
 0002:0000a0e4       ??_C@_0L@JGOENFGE@SABER_CLAW?$AA@ 300a30e4     bg_saberLoad.obj
 0002:0000a0f0       ??_C@_09IIGKGANJ@SABER_SAI?$AA@ 300a30f0     bg_saberLoad.obj
 0002:0000a0fc       ??_C@_09JGPFAKGO@SABER_ARC?$AA@ 300a30fc     bg_saberLoad.obj
 0002:0000a108       ??_C@_0N@KPJEOBIO@SABER_DAGGER?$AA@ 300a3108     bg_saberLoad.obj
 0002:0000a118       ??_C@_0M@FMMLCOEM@SABER_PRONG?$AA@ 300a3118     bg_saberLoad.obj
 0002:0000a124       ??_C@_0M@DCKEJJCC@SABER_BROAD?$AA@ 300a3124     bg_saberLoad.obj
 0002:0000a130       ??_C@_0M@KCMILOII@SABER_STAFF?$AA@ 300a3130     bg_saberLoad.obj
 0002:0000a13c       ??_C@_0N@OGPMBMML@SABER_SINGLE?$AA@ 300a313c     bg_saberLoad.obj
 0002:0000a14c       ??_C@_0L@PGJIJNF@SABER_NONE?$AA@ 300a314c     bg_saberLoad.obj
 0002:0000a158       ??_C@_0BO@NBJEGAHB@required?5string?5?8?$CFs?8?5missing?6?$AA@ 300a3158     bg_saberLoad.obj
 0002:0000a178       ??_C@_0BA@FOCLBKAP@unexpected?5EOF?6?$AA@ 300a3178     bg_saberLoad.obj
 0002:0000a188       ??_C@_06NLFCANPD@random?$AA@ 300a3188     bg_saberLoad.obj
 0002:0000a190       ??_C@_06GEHONCEN@purple?$AA@ 300a3190     bg_saberLoad.obj
 0002:0000a198       ??_C@_05GBEEJKMC@green?$AA@ 300a3198     bg_saberLoad.obj
 0002:0000a1a0       ??_C@_06ENJNJKEL@yellow?$AA@ 300a31a0     bg_saberLoad.obj
 0002:0000a1a8       ??_C@_06HDDOCMMN@orange?$AA@ 300a31a8     bg_saberLoad.obj
 0002:0000a1b0       ??_C@_05DDLOIMOJ@staff?$AA@ 300a31b0     bg_saberLoad.obj
 0002:0000a1b8       ??_C@_04IJNDAMHN@dual?$AA@ 300a31b8     bg_saberLoad.obj
 0002:0000a1c0       ??_C@_06DBFFGPJE@tavion?$AA@ 300a31c0     bg_saberLoad.obj
 0002:0000a1c8       ??_C@_06MBIMHMOE@desann?$AA@ 300a31c8     bg_saberLoad.obj
 0002:0000a1d0       ??_C@_06KHACOKFA@strong?$AA@ 300a31d0     bg_saberLoad.obj
 0002:0000a1d8       ??_C@_06HIDOEFBI@medium?$AA@ 300a31d8     bg_saberLoad.obj
 0002:0000a1e0       ??_C@_04LBNBHAJC@fast?$AA@ 300a31e0     bg_saberLoad.obj
 0002:0000a1e8       ??_C@_0CI@MHFGOOAJ@sound?1weapons?1saber?1enemy_saber_@ 300a31e8     bg_saberLoad.obj
 0002:0000a210       ??_C@_0CC@LJCDHDAP@sound?1weapons?1saber?1saberhum3?4wa@ 300a3210     bg_saberLoad.obj
 0002:0000a234       ??_C@_0L@CLLBMKKI@lightsaber?$AA@ 300a3234     bg_saberLoad.obj
 0002:0000a240       ??_C@_0CH@BHNNODOL@sound?1weapons?1saber?1enemy_saber_@ 300a3240     bg_saberLoad.obj
 0002:0000a268       ??_C@_0CJ@PIIDACPD@models?1weapons2?1saber_reborn?1sab@ 300a3268     bg_saberLoad.obj
 0002:0000a294       ??_C@_0CM@LKMGCIC@?$FO1ERROR?3?5unexpected?5EOF?5while?5pa@ 300a3294     bg_saberLoad.obj
 0002:0000a2c0       ??_C@_0O@DHFCPNGH@noClashFlare2?$AA@ 300a32c0     bg_saberLoad.obj
 0002:0000a2d0       ??_C@_0N@HNKBLDME@bladeEffect2?$AA@ 300a32d0     bg_saberLoad.obj
 0002:0000a2e0       ??_C@_0BA@LBNLAIID@hitOtherEffect2?$AA@ 300a32e0     bg_saberLoad.obj
 0002:0000a2f0       ??_C@_0BB@HFKLMLPK@hitPersonEffect2?$AA@ 300a32f0     bg_saberLoad.obj
 0002:0000a304       ??_C@_0N@FMJFICJ@blockEffect2?$AA@ 300a3304     bg_saberLoad.obj
 0002:0000a314       ??_C@_0O@IFBCABHD@bounce2Sound3?$AA@ 300a3314     bg_saberLoad.obj
 0002:0000a324       ??_C@_0O@JMAJDADC@bounce2Sound2?$AA@ 300a3324     bg_saberLoad.obj
 0002:0000a334       ??_C@_0O@LHCEGDPB@bounce2Sound1?$AA@ 300a3334     bg_saberLoad.obj
 0002:0000a344       ??_C@_0N@OJLPMGPD@block2Sound3?$AA@ 300a3344     bg_saberLoad.obj
 0002:0000a354       ??_C@_0N@PAKEPHLC@block2Sound2?$AA@ 300a3354     bg_saberLoad.obj
 0002:0000a364       ??_C@_0N@NLIJKEHB@block2Sound1?$AA@ 300a3364     bg_saberLoad.obj
 0002:0000a374       ??_C@_0L@IDNLHHOL@hit2Sound3?$AA@ 300a3374     bg_saberLoad.obj
 0002:0000a380       ??_C@_0L@JKMAEGKK@hit2Sound2?$AA@ 300a3380     bg_saberLoad.obj
 0002:0000a38c       ??_C@_0L@LBONBFGJ@hit2Sound1?$AA@ 300a338c     bg_saberLoad.obj
 0002:0000a398       ??_C@_0BB@OOGGCDOD@splashKnockback2?$AA@ 300a3398     bg_saberLoad.obj
 0002:0000a3ac       ??_C@_0O@NBMKECEL@splashDamage2?$AA@ 300a33ac     bg_saberLoad.obj
 0002:0000a3bc       ??_C@_0O@JONKCADI@splashRadius2?$AA@ 300a33bc     bg_saberLoad.obj
 0002:0000a3cc       ??_C@_0BC@OAILGGCC@transitionDamage2?$AA@ 300a33cc     bg_saberLoad.obj
 0002:0000a3e0       ??_C@_0BE@LLCCMKBL@noManualDeactivate2?$AA@ 300a33e0     bg_saberLoad.obj
 0002:0000a3f4       ??_C@_0N@KOPEDDFM@alwaysBlock2?$AA@ 300a33f4     bg_saberLoad.obj
 0002:0000a404       ??_C@_0O@EBBGHGAI@noIdleEffect2?$AA@ 300a3404     bg_saberLoad.obj
 0002:0000a414       ??_C@_0BB@HEIPNLIN@noDismemberment2?$AA@ 300a3414     bg_saberLoad.obj
 0002:0000a428       ??_C@_0N@GCMJBKDD@damageScale2?$AA@ 300a3428     bg_saberLoad.obj
 0002:0000a438       ??_C@_0BA@NLECIOFG@knockbackScale2?$AA@ 300a3438     bg_saberLoad.obj
 0002:0000a448       ??_C@_0BE@FLHBGOJH@g2WeaponMarkShader2?$AA@ 300a3448     bg_saberLoad.obj
 0002:0000a45c       ??_C@_0P@MOINBIEE@g2MarksShader2?$AA@ 300a345c     bg_saberLoad.obj
 0002:0000a46c       ??_C@_0M@OIFJKOCO@trailStyle2?$AA@ 300a346c     bg_saberLoad.obj
 0002:0000a478       ??_C@_08JLEEMLBC@noBlade2?$AA@ 300a3478     bg_saberLoad.obj
 0002:0000a484       ??_C@_09PFLDLJGH@noDlight2?$AA@ 300a3484     bg_saberLoad.obj
 0002:0000a490       ??_C@_0N@DOGNHFNE@noWallMarks2?$AA@ 300a3490     bg_saberLoad.obj
 0002:0000a4a0       ??_C@_0N@ECBBMGGL@noClashFlare?$AA@ 300a34a0     bg_saberLoad.obj
 0002:0000a4b0       ??_C@_0M@GOPKCEAP@bladeEffect?$AA@ 300a34b0     bg_saberLoad.obj
 0002:0000a4bc       ??_C@_0P@BIDGPGLL@hitOtherEffect?$AA@ 300a34bc     bg_saberLoad.obj
 0002:0000a4cc       ??_C@_0BA@JLPDHEC@hitPersonEffect?$AA@ 300a34cc     bg_saberLoad.obj
 0002:0000a4dc       ??_C@_0M@BNIGLEH@blockEffect?$AA@ 300a34dc     bg_saberLoad.obj
 0002:0000a4e8       ??_C@_0N@MDLNFLDL@bounceSound3?$AA@ 300a34e8     bg_saberLoad.obj
 0002:0000a4f8       ??_C@_0N@NKKGGKHK@bounceSound2?$AA@ 300a34f8     bg_saberLoad.obj
 0002:0000a508       ??_C@_0N@PBILDJLJ@bounceSound1?$AA@ 300a3508     bg_saberLoad.obj
 0002:0000a518       ??_C@_0M@GIOPDGGP@blockSound3?$AA@ 300a3518     bg_saberLoad.obj
 0002:0000a524       ??_C@_0M@HBPEAHCO@blockSound2?$AA@ 300a3524     bg_saberLoad.obj
 0002:0000a530       ??_C@_0M@FKNJFEON@blockSound1?$AA@ 300a3530     bg_saberLoad.obj
 0002:0000a53c       ??_C@_09LMHONMHO@hitSound3?$AA@ 300a353c     bg_saberLoad.obj
 0002:0000a548       ??_C@_09KFGFONDP@hitSound2?$AA@ 300a3548     bg_saberLoad.obj
 0002:0000a554       ??_C@_09IOEILOPM@hitSound1?$AA@ 300a3554     bg_saberLoad.obj
 0002:0000a560       ??_C@_0BA@KAJFJOIC@splashKnockback?$AA@ 300a3560     bg_saberLoad.obj
 0002:0000a570       ??_C@_0N@LJPCOLCE@splashDamage?$AA@ 300a3570     bg_saberLoad.obj
 0002:0000a580       ??_C@_0N@HGGCMKIH@splashRadius?$AA@ 300a3580     bg_saberLoad.obj
 0002:0000a590       ??_C@_0BB@JGFIGNIK@transitionDamage?$AA@ 300a3590     bg_saberLoad.obj
 0002:0000a5a4       ??_C@_0BD@OBFKEJDF@noManualDeactivate?$AA@ 300a35a4     bg_saberLoad.obj
 0002:0000a5b8       ??_C@_0M@ONIOEHGI@alwaysBlock?$AA@ 300a35b8     bg_saberLoad.obj
 0002:0000a5c4       ??_C@_0N@NKNLDJCL@noIdleEffect?$AA@ 300a35c4     bg_saberLoad.obj
 0002:0000a5d4       ??_C@_0BA@PGNOEGAD@noDismemberment?$AA@ 300a35d4     bg_saberLoad.obj
 0002:0000a5e4       ??_C@_0M@NMNALNNM@damageScale?$AA@ 300a35e4     bg_saberLoad.obj
 0002:0000a5f0       ??_C@_0P@DBJANBKK@knockbackScale?$AA@ 300a35f0     bg_saberLoad.obj
 0002:0000a600       ??_C@_0BD@GHBHNLDP@g2WeaponMarkShader?$AA@ 300a3600     bg_saberLoad.obj
 0002:0000a614       ??_C@_0O@CECLIKPH@g2MarksShader?$AA@ 300a3614     bg_saberLoad.obj
 0002:0000a624       ??_C@_0L@CJKNEMMH@trailStyle?$AA@ 300a3624     bg_saberLoad.obj
 0002:0000a630       ??_C@_07OINOPDEA@noBlade?$AA@ 300a3630     bg_saberLoad.obj
 0002:0000a638       ??_C@_08HEKKGBNH@noDlight?$AA@ 300a3638     bg_saberLoad.obj
 0002:0000a644       ??_C@_0M@MLNFFOGH@noWallMarks?$AA@ 300a3644     bg_saberLoad.obj
 0002:0000a650       ??_C@_0BB@HJNEKDIH@bladeStyle2Start?$AA@ 300a3650     bg_saberLoad.obj
 0002:0000a664       ??_C@_07POBCBIAL@notInMP?$AA@ 300a3664     bg_saberLoad.obj
 0002:0000a66c       ??_C@_09EHPCDPPK@onInWater?$AA@ 300a366c     bg_saberLoad.obj
 0002:0000a678       ??_C@_0BA@FDGACPGL@noMirrorAttacks?$AA@ 300a3678     bg_saberLoad.obj
 0002:0000a688       ??_C@_07LKPMBHJJ@noKicks?$AA@ 300a3688     bg_saberLoad.obj
 0002:0000a690       ??_C@_0N@MAFHMJM@noCartwheels?$AA@ 300a3690     bg_saberLoad.obj
 0002:0000a6a0       ??_C@_07LBEMCHMC@noFlips?$AA@ 300a36a0     bg_saberLoad.obj
 0002:0000a6a8       ??_C@_07EMEJLHLJ@noRolls?$AA@ 300a36a8     bg_saberLoad.obj
 0002:0000a6b0       ??_C@_0L@LKFPINIG@noWallGrab?$AA@ 300a36b0     bg_saberLoad.obj
 0002:0000a6bc       ??_C@_0M@MOOJPGBK@noWallFlips?$AA@ 300a36bc     bg_saberLoad.obj
 0002:0000a6c8       ??_C@_0L@NHANMJOA@noWallRuns?$AA@ 300a36c8     bg_saberLoad.obj
 0002:0000a6d4       ??_C@_0L@NJPIIGCJ@noStabDown?$AA@ 300a36d4     bg_saberLoad.obj
 0002:0000a6e0       ??_C@_0N@DHKJHCGA@noBackAttack?$AA@ 300a36e0     bg_saberLoad.obj
 0002:0000a6f0       ??_C@_0N@DKAKOIDA@noPullAttack?$AA@ 300a36f0     bg_saberLoad.obj
 0002:0000a700       ??_C@_0L@FFEJLEGF@noRollStab?$AA@ 300a3700     bg_saberLoad.obj
 0002:0000a70c       ??_C@_09IJPFECN@gloatAnim?$AA@ 300a370c     bg_saberLoad.obj
 0002:0000a718       ??_C@_0N@KBGALCJL@flourishAnim?$AA@ 300a3718     bg_saberLoad.obj
 0002:0000a728       ??_C@_0N@BMHFJOOE@meditateAnim?$AA@ 300a3728     bg_saberLoad.obj
 0002:0000a738       ??_C@_07EKPFJCKJ@bowAnim?$AA@ 300a3738     bg_saberLoad.obj
 0002:0000a740       ??_C@_09COHKNEJL@tauntAnim?$AA@ 300a3740     bg_saberLoad.obj
 0002:0000a74c       ??_C@_0M@BFOJGBIN@putawayAnim?$AA@ 300a374c     bg_saberLoad.obj
 0002:0000a758       ??_C@_08OENFMDLA@drawAnim?$AA@ 300a3758     bg_saberLoad.obj
 0002:0000a764       ??_C@_09JOJHIGJB@readyAnim?$AA@ 300a3764     bg_saberLoad.obj
 0002:0000a770       ??_C@_0BA@PFCMNJNA@jumpAtkLeftMove?$AA@ 300a3770     bg_saberLoad.obj
 0002:0000a780       ??_C@_0BB@IGCOPKLJ@jumpAtkRightMove?$AA@ 300a3780     bg_saberLoad.obj
 0002:0000a794       ??_C@_0BA@BJBMJDFB@jumpAtkBackMove?$AA@ 300a3794     bg_saberLoad.obj
 0002:0000a7a4       ??_C@_0P@OGJOEGIL@jumpAtkFwdMove?$AA@ 300a37a4     bg_saberLoad.obj
 0002:0000a7b4       ??_C@_0O@DPADFKNO@jumpAtkUpMove?$AA@ 300a37b4     bg_saberLoad.obj
 0002:0000a7c4       ??_C@_0N@OLLFHDJP@lungeAtkMove?$AA@ 300a37c4     bg_saberLoad.obj
 0002:0000a7d4       ??_C@_08ILNOIMGH@kataMove?$AA@ 300a37d4     bg_saberLoad.obj
 0002:0000a7e0       ??_C@_0M@IADKEHHM@boltToWrist?$AA@ 300a37e0     bg_saberLoad.obj
 0002:0000a7ec       ??_C@_0O@FCNJCDBE@bounceOnWalls?$AA@ 300a37ec     bg_saberLoad.obj
 0002:0000a7fc       ??_C@_0P@MDHCHDJB@animSpeedScale?$AA@ 300a37fc     bg_saberLoad.obj
 0002:0000a80c       ??_C@_0P@IOPDDOBC@moveSpeedScale?$AA@ 300a380c     bg_saberLoad.obj
 0002:0000a81c       ??_C@_0M@NJHLFGCM@swingSound3?$AA@ 300a381c     bg_saberLoad.obj
 0002:0000a828       ??_C@_0M@MAGAGHGN@swingSound2?$AA@ 300a3828     bg_saberLoad.obj
 0002:0000a834       ??_C@_0M@OLENDEKO@swingSound1?$AA@ 300a3834     bg_saberLoad.obj
 0002:0000a840       ??_C@_09GLMEGEAN@spinSound?$AA@ 300a3840     bg_saberLoad.obj
 0002:0000a84c       ??_C@_0N@BLLLLBJF@returnDamage?$AA@ 300a384c     bg_saberLoad.obj
 0002:0000a85c       ??_C@_0N@OLHBMGJO@brokenSaber2?$AA@ 300a385c     bg_saberLoad.obj
 0002:0000a86c       ??_C@_0N@MAFMJFFN@brokenSaber1?$AA@ 300a386c     bg_saberLoad.obj
 0002:0000a87c       ??_C@_0BF@MFFEBKBA@singleBladeThrowable?$AA@ 300a387c     bg_saberLoad.obj
 0002:0000a894       ??_C@_0BB@MNBBHKPM@singleBladeStyle?$AA@ 300a3894     bg_saberLoad.obj
 0002:0000a8a8       ??_C@_0N@KMHGJIIM@disarmBonus2?$AA@ 300a38a8     bg_saberLoad.obj
 0002:0000a8b8       ??_C@_0M@CLGJNKL@disarmBonus?$AA@ 300a38b8     bg_saberLoad.obj
 0002:0000a8c4       ??_C@_0BB@JJJLEKKH@breakParryBonus2?$AA@ 300a38c4     bg_saberLoad.obj
 0002:0000a8d8       ??_C@_0BA@FKMMEMID@breakParryBonus?$AA@ 300a38d8     bg_saberLoad.obj
 0002:0000a8e8       ??_C@_0L@MJIMNAKN@parryBonus?$AA@ 300a38e8     bg_saberLoad.obj
 0002:0000a8f4       ??_C@_09FHICMJAA@lockBonus?$AA@ 300a38f4     bg_saberLoad.obj
 0002:0000a900       ??_C@_0O@IDDONEJ@forceRestrict?$AA@ 300a3900     bg_saberLoad.obj
 0002:0000a910       ??_C@_09BHFJEHJB@twoHanded?$AA@ 300a3910     bg_saberLoad.obj
 0002:0000a91c       ??_C@_08NPIAFDOA@blocking?$AA@ 300a391c     bg_saberLoad.obj
 0002:0000a928       ??_C@_0L@CPEPMKHD@disarmable?$AA@ 300a3928     bg_saberLoad.obj
 0002:0000a934       ??_C@_09ONPKMKJM@throwable?$AA@ 300a3934     bg_saberLoad.obj
 0002:0000a940       ??_C@_08BODNEOME@lockable?$AA@ 300a3940     bg_saberLoad.obj
 0002:0000a94c       ??_C@_08GIHANBGF@maxChain?$AA@ 300a394c     bg_saberLoad.obj
 0002:0000a958       ??_C@_0BE@OMGNGLFP@saberStyleForbidden?$AA@ 300a3958     bg_saberLoad.obj
 0002:0000a96c       ??_C@_0BC@DDCOJAAO@saberStyleLearned?$AA@ 300a396c     bg_saberLoad.obj
 0002:0000a980       ??_C@_0L@JFMMKNLG@saberStyle?$AA@ 300a3980     bg_saberLoad.obj
 0002:0000a98c       ??_C@_0CH@KBCAKBPO@?$FO3WARNING?3?5bad?5saberRadius?5?8?$CFs?8?5@ 300a398c     bg_saberLoad.obj
 0002:0000a9b4       ??_C@_0M@GAGBGIMM@saberRadius?$AA@ 300a39b4     bg_saberLoad.obj
 0002:0000a9c0       ??_C@_0CH@KPGIKOPP@?$FO3WARNING?3?5bad?5saberLength?5?8?$CFs?8?5@ 300a39c0     bg_saberLoad.obj
 0002:0000a9e8       ??_C@_0M@MOIKADHG@saberLength?$AA@ 300a39e8     bg_saberLoad.obj
 0002:0000a9f4       ??_C@_0CG@CGJEPIIF@?$FO3WARNING?3?5bad?5saberColor?5?8?$CFs?8?5i@ 300a39f4     bg_saberLoad.obj
 0002:0000aa1c       ??_C@_0L@OBCIJENM@saberColor?$AA@ 300a3a1c     bg_saberLoad.obj
 0002:0000aa28       ??_C@_0EH@EGIFGFD@WP_SaberParseParms?3?5saber?5?$CFs?5has@ 300a3a28     bg_saberLoad.obj
 0002:0000aa70       ??_C@_09NEDLCGJM@numBlades?$AA@ 300a3a70     bg_saberLoad.obj
 0002:0000aa7c       ??_C@_08IFIFNFKF@soundOff?$AA@ 300a3a7c     bg_saberLoad.obj
 0002:0000aa88       ??_C@_09LMHPKFJB@soundLoop?$AA@ 300a3a88     bg_saberLoad.obj
 0002:0000aa94       ??_C@_07IMONDDDH@soundOn?$AA@ 300a3a94     bg_saberLoad.obj
 0002:0000aa9c       ??_C@_0L@EKGCMDJL@customSkin?$AA@ 300a3a9c     bg_saberLoad.obj
 0002:0000aaa8       ??_C@_0L@MHEAGHEK@saberModel?$AA@ 300a3aa8     bg_saberLoad.obj
 0002:0000aab4       ??_C@_09NAGGCFBE@saberType?$AA@ 300a3ab4     bg_saberLoad.obj
 0002:0000aac0       ??_C@_04MEMAJGDJ@name?$AA@ 300a3ac0     bg_saberLoad.obj
 0002:0000aac8       ??_C@_09KGFNABEN@saberinfo?$AA@ 300a3ac8     bg_saberLoad.obj
 0002:0000aad4       ??_C@_04FJIOCDAK@Kyle?$AA@ 300a3ad4     bg_saberLoad.obj
 0002:0000aadc       ??_C@_01EEMJAFIK@?6?$AA@   300a3adc     bg_saberLoad.obj
 0002:0000aae0       ??_C@_0CH@GILDEJCA@Saber?5extensions?5?$CI?$CK?4sab?$CJ?5are?5too@ 300a3ae0     bg_saberLoad.obj
 0002:0000ab08       ??_C@_0BE@DJGNLOAI@error?5reading?5file?6?$AA@ 300a3b08     bg_saberLoad.obj
 0002:0000ab1c       ??_C@_0BD@NNPCBGHA@ext_data?1sabers?1?$CFs?$AA@ 300a3b1c     bg_saberLoad.obj
 0002:0000ab30       ??_C@_0BA@MIBHFBCE@ext_data?1sabers?$AA@ 300a3b30     bg_saberLoad.obj
 0002:0000ab40       ??_C@_04CAHIDOMH@?4sab?$AA@ 300a3b40     bg_saberLoad.obj
 0002:0000ab48       __real@3f847ae147ae147b    300a3b48     bg_saberLoad.obj
 0002:0000ab50       ??_C@_06LEMKAMD@remove?$AA@ 300a3b50     bg_saberLoad.obj
 0002:0000ab58       ??_C@_0O@OALEAKPJ@heavy_weapons?$AA@ 300a3b58     bg_saga.obj
 0002:0000ab68       ??_C@_0O@FEHNADND@demolitionist?$AA@ 300a3b68     bg_saga.obj
 0002:0000ab78       ??_C@_0N@DFCFOLOG@jedi_general?$AA@ 300a3b78     bg_saga.obj
 0002:0000ab88       ??_C@_07ILMBEDPO@support?$AA@ 300a3b88     bg_saga.obj
 0002:0000ab90       ??_C@_08KMDKBEDF@vanguard?$AA@ 300a3b90     bg_saga.obj
 0002:0000ab9c       ??_C@_08GMEOELGB@infantry?$AA@ 300a3b9c     bg_saga.obj
 0002:0000aba8       ??_C@_0N@POBOEFDG@PW_YSALAMIRI?$AA@ 300a3ba8     bg_saga.obj
 0002:0000abb8       ??_C@_0O@IGDAJBEG@PW_FORCE_BOON?$AA@ 300a3bb8     bg_saga.obj
 0002:0000abc8       ??_C@_0BK@MOILIMDA@PW_FORCE_ENLIGHTENED_DARK?$AA@ 300a3bc8     bg_saga.obj
 0002:0000abe4       ??_C@_0BL@EBGCPDCI@PW_FORCE_ENLIGHTENED_LIGHT?$AA@ 300a3be4     bg_saga.obj
 0002:0000ac00       ??_C@_0L@LJAIJPE@PW_CLOAKED?$AA@ 300a3c00     bg_saga.obj
 0002:0000ac0c       ??_C@_08BNFNBBBB@PW_SPEED?$AA@ 300a3c0c     bg_saga.obj
 0002:0000ac18       ??_C@_0M@FBGLLBBK@PW_DISINT_4?$AA@ 300a3c18     bg_saga.obj
 0002:0000ac24       ??_C@_0O@ENGHHLHL@PW_SPEEDBURST?$AA@ 300a3c24     bg_saga.obj
 0002:0000ac34       ??_C@_0N@GHPJGBHC@PW_SHIELDHIT?$AA@ 300a3c34     bg_saga.obj
 0002:0000ac44       ??_C@_0P@IBLDCDDO@PW_NEUTRALFLAG?$AA@ 300a3c44     bg_saga.obj
 0002:0000ac54       ??_C@_0M@MJPEKDEL@PW_BLUEFLAG?$AA@ 300a3c54     bg_saga.obj
 0002:0000ac60       ??_C@_0L@EHANBCOH@PW_REDFLAG?$AA@ 300a3c60     bg_saga.obj
 0002:0000ac6c       ??_C@_07DFNNPKLN@PW_PULL?$AA@ 300a3c6c     bg_saga.obj
 0002:0000ac74       ??_C@_0O@MMBFHIEB@PW_BATTLESUIT?$AA@ 300a3c74     bg_saga.obj
 0002:0000ac84       ??_C@_07MILMMKFG@PW_QUAD?$AA@ 300a3c84     bg_saga.obj
 0002:0000ac8c       ??_C@_07HOPALIC@PW_NONE?$AA@ 300a3c8c     bg_saga.obj
 0002:0000ac94       ??_C@_08CKJOPOAO@HI_CLOAK?$AA@ 300a3c94     bg_saga.obj
 0002:0000aca0       ??_C@_07DODJPBMI@HI_EWEB?$AA@ 300a3ca0     bg_saga.obj
 0002:0000aca8       ??_C@_0M@GINCEKMK@HI_AMMODISP?$AA@ 300a3ca8     bg_saga.obj
 0002:0000acb4       ??_C@_0O@CACPKEEP@HI_HEALTHDISP?$AA@ 300a3cb4     bg_saga.obj
 0002:0000acc4       ??_C@_0L@HECMIPKK@HI_JETPACK?$AA@ 300a3cc4     bg_saga.obj
 0002:0000acd0       ??_C@_0O@FBGGHEEG@HI_SENTRY_GUN?$AA@ 300a3cd0     bg_saga.obj
 0002:0000ace0       ??_C@_0O@ELJADNKI@HI_BINOCULARS?$AA@ 300a3ce0     bg_saga.obj
 0002:0000acf0       ??_C@_0O@LLNJKJCO@HI_MEDPAC_BIG?$AA@ 300a3cf0     bg_saga.obj
 0002:0000ad00       ??_C@_09NJBEABJH@HI_MEDPAC?$AA@ 300a3d00     bg_saga.obj
 0002:0000ad0c       ??_C@_09IKKFJDFC@HI_SHIELD?$AA@ 300a3d0c     bg_saga.obj
 0002:0000ad18       ??_C@_09FNJEOG@HI_SEEKER?$AA@ 300a3d18     bg_saga.obj
 0002:0000ad24       ??_C@_07JPFAMGIP@HI_NONE?$AA@ 300a3d24     bg_saga.obj
 0002:0000ad2c       ??_C@_0O@HFIJJPHA@FP_SABERTHROW?$AA@ 300a3d2c     bg_saga.obj
 0002:0000ad3c       ??_C@_0BB@OENPHNCL@FP_SABER_DEFENSE?$AA@ 300a3d3c     bg_saga.obj
 0002:0000ad50       ??_C@_0BB@IIFNHLOA@FP_SABER_OFFENSE?$AA@ 300a3d50     bg_saga.obj
 0002:0000ad64       ??_C@_06NBGCGEAI@FP_SEE?$AA@ 300a3d64     bg_saga.obj
 0002:0000ad6c       ??_C@_08NAMGMEAJ@FP_DRAIN?$AA@ 300a3d6c     bg_saga.obj
 0002:0000ad78       ??_C@_0O@FDDGJKAO@FP_TEAM_FORCE?$AA@ 300a3d78     bg_saga.obj
 0002:0000ad88       ??_C@_0N@MKMKNEAO@FP_TEAM_HEAL?$AA@ 300a3d88     bg_saga.obj
 0002:0000ad98       ??_C@_09MANKLPPB@FP_ABSORB?$AA@ 300a3d98     bg_saga.obj
 0002:0000ada4       ??_C@_0L@GMEKEMHM@FP_PROTECT?$AA@ 300a3da4     bg_saga.obj
 0002:0000adb0       ??_C@_07DCICDLJP@FP_RAGE?$AA@ 300a3db0     bg_saga.obj
 0002:0000adb8       ??_C@_0N@MLCJOEAL@FP_LIGHTNING?$AA@ 300a3db8     bg_saga.obj
 0002:0000adc8       ??_C@_07OFAFBAAC@FP_GRIP?$AA@ 300a3dc8     bg_saga.obj
 0002:0000add0       ??_C@_0N@EOKHLCHN@FP_TELEPATHY?$AA@ 300a3dd0     bg_saga.obj
 0002:0000ade0       ??_C@_07EKKOPMJP@FP_PULL?$AA@ 300a3de0     bg_saga.obj
 0002:0000ade8       ??_C@_07DJLINNNG@FP_PUSH?$AA@ 300a3de8     bg_saga.obj
 0002:0000adf0       ??_C@_08MIECCDPD@FP_SPEED?$AA@ 300a3df0     bg_saga.obj
 0002:0000adfc       ??_C@_0O@GOCMKMCC@FP_LEVITATION?$AA@ 300a3dfc     bg_saga.obj
 0002:0000ae0c       ??_C@_07ECPPOEBA@FP_HEAL?$AA@ 300a3e0c     bg_saga.obj
 0002:0000ae14       ??_C@_09LJGBHCLN@WP_TURRET?$AA@ 300a3e14     bg_saga.obj
 0002:0000ae20       ??_C@_0BA@HPLIMHOO@WP_EMPLACED_GUN?$AA@ 300a3e20     bg_saga.obj
 0002:0000ae30       ??_C@_0N@OIFGJENP@WP_BRYAR_OLD?$AA@ 300a3e30     bg_saga.obj
 0002:0000ae40       ??_C@_0O@MNNKJNKC@WP_CONCUSSION?$AA@ 300a3e40     bg_saga.obj
 0002:0000ae50       ??_C@_0M@EOMDDGDC@WP_DET_PACK?$AA@ 300a3e50     bg_saga.obj
 0002:0000ae5c       ??_C@_0N@OGLOKOOO@WP_TRIP_MINE?$AA@ 300a3e5c     bg_saga.obj
 0002:0000ae6c       ??_C@_0L@COCGCIBD@WP_THERMAL?$AA@ 300a3e6c     bg_saga.obj
 0002:0000ae78       ??_C@_0BD@JBJHCOEB@WP_ROCKET_LAUNCHER?$AA@ 300a3e78     bg_saga.obj
 0002:0000ae8c       ??_C@_0N@DNBPCFMC@WP_FLECHETTE?$AA@ 300a3e8c     bg_saga.obj
 0002:0000ae9c       ??_C@_08GDBGMIBE@WP_DEMP2?$AA@ 300a3e9c     bg_saga.obj
 0002:0000aea8       ??_C@_0M@GCNBMEBC@WP_REPEATER?$AA@ 300a3ea8     bg_saga.obj
 0002:0000aeb4       ??_C@_0N@ODCPPBBA@WP_BOWCASTER?$AA@ 300a3eb4     bg_saga.obj
 0002:0000aec4       ??_C@_0N@KLINONG@WP_DISRUPTOR?$AA@ 300a3ec4     bg_saga.obj
 0002:0000aed4       ??_C@_0L@DIBFNABM@WP_BLASTER?$AA@ 300a3ed4     bg_saga.obj
 0002:0000aee0       ??_C@_0BC@LEINJGEK@WP_BLASTER_PISTOL?$AA@ 300a3ee0     bg_saga.obj
 0002:0000aef4       ??_C@_0BA@GBAOKNDN@WP_BRYAR_PISTOL?$AA@ 300a3ef4     bg_saga.obj
 0002:0000af04       ??_C@_08KPDGEGJN@WP_SABER?$AA@ 300a3f04     bg_saga.obj
 0002:0000af10       ??_C@_08IGDGHABD@WP_MELEE?$AA@ 300a3f10     bg_saga.obj
 0002:0000af1c       ??_C@_0O@NNFLCPNL@WP_STUN_BATON?$AA@ 300a3f1c     bg_saga.obj
 0002:0000af2c       ??_C@_07MIINDMBF@WP_NONE?$AA@ 300a3f2c     bg_saga.obj
 0002:0000af34       ??_C@_08OKAIMOGC@SS_STAFF?$AA@ 300a3f34     bg_saga.obj
 0002:0000af40       ??_C@_07NCKFHLFM@SS_DUAL?$AA@ 300a3f40     bg_saga.obj
 0002:0000af48       ??_C@_09NOGCKHNM@SS_TAVION?$AA@ 300a3f48     bg_saga.obj
 0002:0000af54       ??_C@_09COLLLEKM@SS_DESANN?$AA@ 300a3f54     bg_saga.obj
 0002:0000af60       ??_C@_09EIDFCCBI@SS_STRONG?$AA@ 300a3f60     bg_saga.obj
 0002:0000af6c       ??_C@_09JHAJINFA@SS_MEDIUM?$AA@ 300a3f6c     bg_saga.obj
 0002:0000af78       ??_C@_07OKKHAHLD@SS_FAST?$AA@ 300a3f78     bg_saga.obj
 0002:0000af80       ??_C@_07HNCPCIHC@SS_NONE?$AA@ 300a3f80     bg_saga.obj
 0002:0000af88       ??_C@_0P@KICFDAJ@CFL_EXTRA_AMMO?$AA@ 300a3f88     bg_saga.obj
 0002:0000af98       ??_C@_0P@LBJDDHDM@CFL_CUSTOMSKEL?$AA@ 300a3f98     bg_saga.obj
 0002:0000afa8       ??_C@_0BC@LICHKKD@CFL_SINGLE_ROCKET?$AA@ 300a3fa8     bg_saga.obj
 0002:0000afbc       ??_C@_0P@NCLEBEDM@CFL_HEAVYMELEE?$AA@ 300a3fbc     bg_saga.obj
 0002:0000afcc       ??_C@_0P@DKGINMOP@CFL_STATVIEWER?$AA@ 300a3fcc     bg_saga.obj
 0002:0000afdc       ??_C@_0BD@DNMLPLIL@CFL_FASTFORCEREGEN?$AA@ 300a3fdc     bg_saga.obj
 0002:0000aff0       ??_C@_0BK@JLDBMALB@CFL_STRONGAGAINSTPHYSICAL?$AA@ 300a3ff0     bg_saga.obj
 0002:0000b00c       ??_C@_0BB@OIJDKHFE@CFL_MORESABERDMG?$AA@ 300a400c     bg_saga.obj
 0002:0000b020       ??_C@_0CI@BBIKCBO@Group?5?8?$CFs?8?5is?5missing?5a?5closing?5@ 300a4020     bg_saga.obj
 0002:0000b048       ??_C@_0FJ@KOGMAIHK@Found?5an?5opening?5bracket?5without@ 300a4048     bg_saga.obj
 0002:0000b0a8       ??_C@_0FA@EHNNLFND@Found?5a?5closing?5bracket?5without?5@ 300a40a8     bg_saga.obj
 0002:0000b0f8       ??_C@_0GA@DIGHOEOC@Error?5parsing?5group?5in?5file?0?5une@ 300a40f8     bg_saga.obj
 0002:0000b158       ??_C@_0CM@DMIPCGDB@Unexpected?5EOF?5while?5looking?5for@ 300a4158     bg_saga.obj
 0002:0000b188       ??_C@_0FH@PHDPJEBI@Unexpected?5EOF?5while?5looking?5for@ 300a4188     bg_saga.obj
 0002:0000b1e0       ??_C@_0EP@OCHOIPPN@Unexpected?5EOF?5while?5looking?5for@ 300a41e0     bg_saga.obj
 0002:0000b230       ??_C@_0EA@CICFFHLL@Error?5parsing?5file?0?5unexpected?5E@ 300a4230     bg_saga.obj
 0002:0000b270       ??_C@_0DL@MANGCKOJ@Error?5parsing?5file?0?5found?5commen@ 300a4270     bg_saga.obj
 0002:0000b2b0       ??_C@_0EJ@GJJGBCAC@Unexpected?5closing?5bracket?5?$CItoo?5@ 300a42b0     bg_saga.obj
 0002:0000b2fc       ??_C@_07IHELEENG@FP_JUMP?$AA@ 300a42fc     bg_saga.obj
 0002:0000b304       ??_C@_06PFGBHLNK@FP_ALL?$AA@ 300a4304     bg_saga.obj
 0002:0000b30c       ??_C@_08BOHIELLL@powerups?$AA@ 300a430c     bg_saga.obj
 0002:0000b318       ??_C@_09LOIGNDON@holdables?$AA@ 300a4318     bg_saga.obj
 0002:0000b324       ??_C@_0CN@HKDFKNIC@ERROR?3?5no?5class_shader?5defined?5f@ 300a4324     bg_saga.obj
 0002:0000b354       ??_C@_0DE@BHILLBOP@ERROR?3?5could?5not?5find?5class_shad@ 300a4354     bg_saga.obj
 0002:0000b388       ??_C@_0N@NNMCCMOK@class_shader?$AA@ 300a4388     bg_saga.obj
 0002:0000b398       ??_C@_0CD@GDIFDMKP@Siege?5class?5without?5uishader?5ent@ 300a4398     bg_saga.obj
 0002:0000b3bc       ??_C@_08BGECLNMM@uishader?$AA@ 300a43bc     bg_saga.obj
 0002:0000b3c8       ??_C@_05HJCMGBKF@speed?$AA@ 300a43c8     bg_saga.obj
 0002:0000b3d0       ??_C@_0L@GGCEHPNG@startarmor?$AA@ 300a43d0     bg_saga.obj
 0002:0000b3dc       ??_C@_08KAGIGECM@maxarmor?$AA@ 300a43dc     bg_saga.obj
 0002:0000b3e8       ??_C@_0M@JKHBPLJM@starthealth?$AA@ 300a43e8     bg_saga.obj
 0002:0000b3f4       ??_C@_09MHNPKMIF@maxhealth?$AA@ 300a43f4     bg_saga.obj
 0002:0000b400       ??_C@_0L@GKKNICAL@classflags?$AA@ 300a4400     bg_saga.obj
 0002:0000b40c       ??_C@_0M@IOJHBENM@forcepowers?$AA@ 300a440c     bg_saga.obj
 0002:0000b418       ??_C@_0CC@FAKKFGGN@Siege?5class?5without?5weapons?5entr@ 300a4418     bg_saga.obj
 0002:0000b43c       ??_C@_07PKKCMMCH@weapons?$AA@ 300a443c     bg_saga.obj
 0002:0000b444       ??_C@_0M@OOLLFDOG@saber2color?$AA@ 300a4444     bg_saga.obj
 0002:0000b450       ??_C@_0L@OGIEJBOK@sabercolor?$AA@ 300a4450     bg_saga.obj
 0002:0000b45c       ??_C@_0L@JCGAKIIA@saberstyle?$AA@ 300a445c     bg_saga.obj
 0002:0000b468       ??_C@_06CJLEPNJL@saber2?$AA@ 300a4468     bg_saga.obj
 0002:0000b470       ??_C@_06CJJKOFI@saber1?$AA@ 300a4470     bg_saga.obj
 0002:0000b478       ??_C@_04NHPAFEHJ@skin?$AA@ 300a4478     bg_saga.obj
 0002:0000b480       ??_C@_05NCCFOPHA@model?$AA@ 300a4480     bg_saga.obj
 0002:0000b488       ??_C@_0BP@JPFHBDB@Siege?5class?5without?5name?5entry?$AA@ 300a4488     bg_saga.obj
 0002:0000b4a8       ??_C@_09LPPNDGJE@ClassInfo?$AA@ 300a44a8     bg_saga.obj
 0002:0000b4b4       ??_C@_0BI@JBHHAHFA@DESCRIPTION?5UNAVAILABLE?$AA@ 300a44b4     bg_saga.obj
 0002:0000b4cc       ??_C@_0M@PPJNHBMP@description?$AA@ 300a44cc     bg_saga.obj
 0002:0000b4d8       ??_C@_0BI@HBENBDF@ext_data?1Siege?1Classes?1?$AA@ 300a44d8     bg_saga.obj
 0002:0000b4f0       ??_C@_0BH@NCMEBBFN@ext_data?1Siege?1Classes?$AA@ 300a44f0     bg_saga.obj
 0002:0000b508       ??_C@_04LNHPMHCH@?4scl?$AA@ 300a4508     bg_saga.obj
 0002:0000b510       ??_C@_0CI@JBGGEKDP@Team?5defined?5with?5no?5allowable?5c@ 300a4510     bg_saga.obj
 0002:0000b538       ??_C@_0BO@LFIIBAMC@Invalid?5class?5specified?3?5?8?$CFs?8?$AA@ 300a4538     bg_saga.obj
 0002:0000b558       ??_C@_07GEGLMCI@class?$CFi?$AA@ 300a4558     bg_saga.obj
 0002:0000b560       ??_C@_07DPIHKJGF@Classes?$AA@ 300a4560     bg_saga.obj
 0002:0000b568       ??_C@_0P@JEMEFMOF@FriendlyShader?$AA@ 300a4568     bg_saga.obj
 0002:0000b578       ??_C@_0CD@FDGFFIBB@Siege?5team?5with?5no?5name?5definiti@ 300a4578     bg_saga.obj
 0002:0000b59c       ??_C@_0BG@DPLOPEAL@ext_data?1Siege?1Teams?1?$AA@ 300a459c     bg_saga.obj
 0002:0000b5b4       ??_C@_0BF@KACDOLPP@ext_data?1Siege?1Teams?$AA@ 300a45b4     bg_saga.obj
 0002:0000b5cc       ??_C@_05OKHHMPNJ@?4team?$AA@ 300a45cc     bg_saga.obj
 0002:0000b5d4       __real@c2340000            300a45d4     bg_slidemove.obj
 0002:0000b5d8       __real@42340000            300a45d8     bg_slidemove.obj
 0002:0000b5e0       __real@409f400000000000    300a45e0     bg_slidemove.obj
 0002:0000b5e8       __real@3dcccccd            300a45e8     bg_slidemove.obj
 0002:0000b5ec       ??_C@_0M@CDHDENEF@?$CFi?3stepped?6?$AA@ 300a45ec     bg_slidemove.obj
 0002:0000b5f8       __real@41300000            300a45f8     bg_slidemove.obj
 0002:0000b5fc       __real@3e99999a            300a45fc     bg_slidemove.obj
 0002:0000b600       ??_C@_0BE@FLPNHHPN@?$CFi?3bend?5can?8t?5step?6?$AA@ 300a4600     bg_slidemove.obj
 0002:0000b618       __real@4050800000000000    300a4618     bg_slidemove.obj
 0002:0000b620       ??_C@_08GLJJKINI@VH_FLIER?$AA@ 300a4620     bg_vehicleLoad.obj
 0002:0000b62c       ??_C@_09IHBEGJAE@VH_ANIMAL?$AA@ 300a462c     bg_vehicleLoad.obj
 0002:0000b638       ??_C@_0L@PJKFHOGE@VH_SPEEDER?$AA@ 300a4638     bg_vehicleLoad.obj
 0002:0000b644       ??_C@_0L@NKPJKKBD@VH_FIGHTER?$AA@ 300a4644     bg_vehicleLoad.obj
 0002:0000b650       ??_C@_09EMIPDFIK@VH_WALKER?$AA@ 300a4650     bg_vehicleLoad.obj
 0002:0000b65c       ??_C@_07FABGOOCC@VH_NONE?$AA@ 300a465c     bg_vehicleLoad.obj
 0002:0000b664       ??_C@_0BF@FIODOCFH@turret2GunnerViewTag?$AA@ 300a4664     bg_vehicleLoad.obj
 0002:0000b67c       ??_C@_0BE@LBDLJCMI@turret2PassengerNum?$AA@ 300a467c     bg_vehicleLoad.obj
 0002:0000b690       ??_C@_0P@FJKEHIDI@turret2AIRange?$AA@ 300a4690     bg_vehicleLoad.obj
 0002:0000b6a0       ??_C@_0O@FKFOBAOB@turret2AILead?$AA@ 300a46a0     bg_vehicleLoad.obj
 0002:0000b6b0       ??_C@_09JCMLJIGJ@turret2AI?$AA@ 300a46b0     bg_vehicleLoad.obj
 0002:0000b6bc       ??_C@_0BB@GKFEIPAN@turret2TurnSpeed?$AA@ 300a46bc     bg_vehicleLoad.obj
 0002:0000b6d0       ??_C@_0P@MBHAFEOP@turret2Muzzle2?$AA@ 300a46d0     bg_vehicleLoad.obj
 0002:0000b6e0       ??_C@_0P@OKFNAHCM@turret2Muzzle1?$AA@ 300a46e0     bg_vehicleLoad.obj
 0002:0000b6f0       ??_C@_0BD@ENIGHIPL@turret2ClampPitchD?$AA@ 300a46f0     bg_vehicleLoad.obj
 0002:0000b704       ??_C@_0BD@BOFPFLOL@turret2ClampPitchU?$AA@ 300a4704     bg_vehicleLoad.obj
 0002:0000b718       ??_C@_0BB@DIKMIGDC@turret2ClampYawR?$AA@ 300a4718     bg_vehicleLoad.obj
 0002:0000b72c       ??_C@_0BB@OMONLJON@turret2ClampYawL?$AA@ 300a472c     bg_vehicleLoad.obj
 0002:0000b740       ??_C@_0BB@NCOFGCLN@turret2PitchAxis?$AA@ 300a4740     bg_vehicleLoad.obj
 0002:0000b754       ??_C@_0P@PPHMAOEC@turret2YawAxis?$AA@ 300a4754     bg_vehicleLoad.obj
 0002:0000b764       ??_C@_0BB@EBFMNEBJ@turret2PitchBone?$AA@ 300a4764     bg_vehicleLoad.obj
 0002:0000b778       ??_C@_0P@GMMFLIOG@turret2YawBone?$AA@ 300a4778     bg_vehicleLoad.obj
 0002:0000b788       ??_C@_0BG@KBCLJNLB@turret2AmmoRechargeMS?$AA@ 300a4788     bg_vehicleLoad.obj
 0002:0000b7a0       ??_C@_0P@GBCMHONA@turret2AmmoMax?$AA@ 300a47a0     bg_vehicleLoad.obj
 0002:0000b7b0       ??_C@_0N@GAMMJDLC@turret2Delay?$AA@ 300a47b0     bg_vehicleLoad.obj
 0002:0000b7c0       ??_C@_0M@CJIFPDBG@turret2Weap?$AA@ 300a47c0     bg_vehicleLoad.obj
 0002:0000b7cc       ??_C@_0BF@EJJOIICO@turret1GunnerViewTag?$AA@ 300a47cc     bg_vehicleLoad.obj
 0002:0000b7e4       ??_C@_0BE@MNFKLHBD@turret1PassengerNum?$AA@ 300a47e4     bg_vehicleLoad.obj
 0002:0000b7f8       ??_C@_0P@GACJEEPN@turret1AIRange?$AA@ 300a47f8     bg_vehicleLoad.obj
 0002:0000b808       ??_C@_0O@NENBBHAC@turret1AILead?$AA@ 300a4808     bg_vehicleLoad.obj
 0002:0000b818       ??_C@_09IAHODHIH@turret1AI?$AA@ 300a4818     bg_vehicleLoad.obj
 0002:0000b824       ??_C@_0BB@PDLGOJAM@turret1TurnSpeed?$AA@ 300a4824     bg_vehicleLoad.obj
 0002:0000b838       ??_C@_0P@PIPNGICK@turret1Muzzle2?$AA@ 300a4838     bg_vehicleLoad.obj
 0002:0000b848       ??_C@_0P@NDNADLOJ@turret1Muzzle1?$AA@ 300a4848     bg_vehicleLoad.obj
 0002:0000b858       ??_C@_0BD@PAEMBEDF@turret1ClampPitchD?$AA@ 300a4858     bg_vehicleLoad.obj
 0002:0000b86c       ??_C@_0BD@KDJFDHCF@turret1ClampPitchU?$AA@ 300a486c     bg_vehicleLoad.obj
 0002:0000b880       ??_C@_0BB@KBEOOADD@turret1ClampYawR?$AA@ 300a4880     bg_vehicleLoad.obj
 0002:0000b894       ??_C@_0BB@HFAPNPOM@turret1ClampYawL?$AA@ 300a4894     bg_vehicleLoad.obj
 0002:0000b8a8       ??_C@_0BB@ELAHAELM@turret1PitchAxis?$AA@ 300a48a8     bg_vehicleLoad.obj
 0002:0000b8bc       ??_C@_0P@MGPBDCIH@turret1YawAxis?$AA@ 300a48bc     bg_vehicleLoad.obj
 0002:0000b8cc       ??_C@_0BB@NILOLCBI@turret1PitchBone?$AA@ 300a48cc     bg_vehicleLoad.obj
 0002:0000b8e0       ??_C@_0P@FFEIIECD@turret1YawBone?$AA@ 300a48e0     bg_vehicleLoad.obj
 0002:0000b8f0       ??_C@_0BG@IIODCJED@turret1AmmoRechargeMS?$AA@ 300a48f0     bg_vehicleLoad.obj
 0002:0000b908       ??_C@_0P@FIKBECBF@turret1AmmoMax?$AA@ 300a4908     bg_vehicleLoad.obj
 0002:0000b918       ??_C@_0N@FBCEIJCP@turret1Delay?$AA@ 300a4918     bg_vehicleLoad.obj
 0002:0000b928       ??_C@_0M@KPBBIBLI@turret1Weap?$AA@ 300a4928     bg_vehicleLoad.obj
 0002:0000b934       ??_C@_0BP@GIMDHKNG@cameraPitchDependantVertOffset?$AA@ 300a4934     bg_vehicleLoad.obj
 0002:0000b954       ??_C@_0M@HCDOHHGA@cameraAlpha?$AA@ 300a4954     bg_vehicleLoad.obj
 0002:0000b960       ??_C@_09DEDNKOMM@cameraFOV?$AA@ 300a4960     bg_vehicleLoad.obj
 0002:0000b96c       ??_C@_0BC@HAMFPJAF@cameraPitchOffset?$AA@ 300a496c     bg_vehicleLoad.obj
 0002:0000b980       ??_C@_0BB@PHKMDBPA@cameraHorzOffset?$AA@ 300a4980     bg_vehicleLoad.obj
 0002:0000b994       ??_C@_0BB@JIEFMMG@cameraVertOffset?$AA@ 300a4994     bg_vehicleLoad.obj
 0002:0000b9a8       ??_C@_0M@NABKGBHB@cameraRange?$AA@ 300a49a8     bg_vehicleLoad.obj
 0002:0000b9b4       ??_C@_0P@GNOAPEOI@cameraOverride?$AA@ 300a49b4     bg_vehicleLoad.obj
 0002:0000b9c4       ??_C@_0P@OINMICGP@explosionDelay?$AA@ 300a49c4     bg_vehicleLoad.obj
 0002:0000b9d4       ??_C@_09FEKLMMFJ@flammable?$AA@ 300a49d4     bg_vehicleLoad.obj
 0002:0000b9e0       ??_C@_0BB@PDHEMPIJ@killRiderOnDeath?$AA@ 300a49e0     bg_vehicleLoad.obj
 0002:0000b9f4       ??_C@_09JBJPOHNK@hideRider?$AA@ 300a49f4     bg_vehicleLoad.obj
 0002:0000ba00       ??_C@_0O@NGNHGBJN@maxPassengers?$AA@ 300a4a00     bg_vehicleLoad.obj
 0002:0000ba10       ??_C@_0BA@HFCGNKHF@explosionDamage?$AA@ 300a4a10     bg_vehicleLoad.obj
 0002:0000ba20       ??_C@_0BA@LKLGPLNG@explosionRadius?$AA@ 300a4a20     bg_vehicleLoad.obj
 0002:0000ba30       ??_C@_08PPAAKLBH@loudness?$AA@ 300a4a30     bg_vehicleLoad.obj
 0002:0000ba3c       ??_C@_0L@CNKMJODB@visibility?$AA@ 300a4a3c     bg_vehicleLoad.obj
 0002:0000ba48       ??_C@_0O@DAFJHCFD@turboRecharge?$AA@ 300a4a48     bg_vehicleLoad.obj
 0002:0000ba58       ??_C@_0O@LHGBPOCO@turboDuration?$AA@ 300a4a58     bg_vehicleLoad.obj
 0002:0000ba68       ??_C@_08POLMHDEL@fuelRate?$AA@ 300a4a68     bg_vehicleLoad.obj
 0002:0000ba74       ??_C@_07PBHPKAIK@fuelMax?$AA@ 300a4a74     bg_vehicleLoad.obj
 0002:0000ba7c       ??_C@_08DLBCDKOK@bouyancy?$AA@ 300a4a7c     bg_vehicleLoad.obj
 0002:0000ba88       ??_C@_0L@KPACIHBI@waterProof?$AA@ 300a4a88     bg_vehicleLoad.obj
 0002:0000ba94       ??_C@_0O@JOCPMJAA@hoverStrength?$AA@ 300a4a94     bg_vehicleLoad.obj
 0002:0000baa4       ??_C@_0M@HKBHLPFK@hoverHeight?$AA@ 300a4aa4     bg_vehicleLoad.obj
 0002:0000bab0       ??_C@_07GFBFDLBM@gravity?$AA@ 300a4ab0     bg_vehicleLoad.obj
 0002:0000bab8       ??_C@_0O@JIDEEHO@landingHeight?$AA@ 300a4ab8     bg_vehicleLoad.obj
 0002:0000bac8       ??_C@_0N@GDPHOKJG@weapMuzzle10?$AA@ 300a4ac8     bg_vehicleLoad.obj
 0002:0000bad8       ??_C@_0M@BPIGPFLJ@weapMuzzle9?$AA@ 300a4ad8     bg_vehicleLoad.obj
 0002:0000bae4       ??_C@_0M@GJNMEPI@weapMuzzle8?$AA@ 300a4ae4     bg_vehicleLoad.obj
 0002:0000baf0       ??_C@_0M@IBAFNIDH@weapMuzzle7?$AA@ 300a4af0     bg_vehicleLoad.obj
 0002:0000bafc       ??_C@_0M@JIBOOJHG@weapMuzzle6?$AA@ 300a4afc     bg_vehicleLoad.obj
 0002:0000bb08       ??_C@_0M@LDDDLKLF@weapMuzzle5?$AA@ 300a4b08     bg_vehicleLoad.obj
 0002:0000bb14       ??_C@_0M@KKCIILPE@weapMuzzle4?$AA@ 300a4b14     bg_vehicleLoad.obj
 0002:0000bb20       ??_C@_0M@OFGJBNDD@weapMuzzle3?$AA@ 300a4b20     bg_vehicleLoad.obj
 0002:0000bb2c       ??_C@_0M@PMHCCMHC@weapMuzzle2?$AA@ 300a4b2c     bg_vehicleLoad.obj
 0002:0000bb38       ??_C@_0M@NHFPHPLB@weapMuzzle1?$AA@ 300a4b38     bg_vehicleLoad.obj
 0002:0000bb44       ??_C@_0BB@PMCLALPP@weap2SoundNoAmmo?$AA@ 300a4b44     bg_vehicleLoad.obj
 0002:0000bb58       ??_C@_0BB@EBOBGHDB@weap1SoundNoAmmo?$AA@ 300a4b58     bg_vehicleLoad.obj
 0002:0000bb6c       ??_C@_0BE@BOOILCOO@weap2AmmoRechargeMS?$AA@ 300a4b6c     bg_vehicleLoad.obj
 0002:0000bb80       ??_C@_0BE@DHCAAGBM@weap1AmmoRechargeMS?$AA@ 300a4b80     bg_vehicleLoad.obj
 0002:0000bb94       ??_C@_0N@IHPKDNMK@weap2AmmoMax?$AA@ 300a4b94     bg_vehicleLoad.obj
 0002:0000bba4       ??_C@_0N@LOHHABAP@weap1AmmoMax?$AA@ 300a4ba4     bg_vehicleLoad.obj
 0002:0000bbb4       ??_C@_08FMMAJAPJ@weap2Aim?$AA@ 300a4bb4     bg_vehicleLoad.obj
 0002:0000bbc0       ??_C@_08BLGAOKCJ@weap1Aim?$AA@ 300a4bc0     bg_vehicleLoad.obj
 0002:0000bbcc       ??_C@_09LIOCECKM@weap2Link?$AA@ 300a4bcc     bg_vehicleLoad.obj
 0002:0000bbd8       ??_C@_09DOHGDAAC@weap1Link?$AA@ 300a4bd8     bg_vehicleLoad.obj
 0002:0000bbe4       ??_C@_0L@KPBIONAP@weap2Delay?$AA@ 300a4be4     bg_vehicleLoad.obj
 0002:0000bbf0       ??_C@_0L@JOPAPHJC@weap1Delay?$AA@ 300a4bf0     bg_vehicleLoad.obj
 0002:0000bbfc       ??_C@_05DDNDDHFP@weap2?$AA@ 300a4bfc     bg_vehicleLoad.obj
 0002:0000bc04       ??_C@_05BIPOGEJM@weap1?$AA@ 300a4c04     bg_vehicleLoad.obj
 0002:0000bc0c       ??_C@_07PEBKCGPE@rwingFX?$AA@ 300a4c0c     bg_vehicleLoad.obj
 0002:0000bc14       ??_C@_07JNCLAFON@lwingFX?$AA@ 300a4c14     bg_vehicleLoad.obj
 0002:0000bc1c       ??_C@_06PEEHBBLG@noseFX?$AA@ 300a4c1c     bg_vehicleLoad.obj
 0002:0000bc24       ??_C@_08NBOBHDEO@injureFX?$AA@ 300a4c24     bg_vehicleLoad.obj
 0002:0000bc30       ??_C@_05BMHOEJHI@dmgFX?$AA@ 300a4c30     bg_vehicleLoad.obj
 0002:0000bc38       ??_C@_06GMJLHFJI@wakeFX?$AA@ 300a4c38     bg_vehicleLoad.obj
 0002:0000bc40       ??_C@_09BPBLMDGM@explodeFX?$AA@ 300a4c40     bg_vehicleLoad.obj
 0002:0000bc4c       ??_C@_07OJDPNJKI@trailFX?$AA@ 300a4c4c     bg_vehicleLoad.obj
 0002:0000bc54       ??_C@_0N@KHLFFGCJ@turboStartFX?$AA@ 300a4c54     bg_vehicleLoad.obj
 0002:0000bc64       ??_C@_07MMLPAJOM@turboFX?$AA@ 300a4c64     bg_vehicleLoad.obj
 0002:0000bc6c       ??_C@_09EJLKNCKH@exhaustFX?$AA@ 300a4c6c     bg_vehicleLoad.obj
 0002:0000bc78       ??_C@_0M@FAJFECEE@soundShift4?$AA@ 300a4c78     bg_vehicleLoad.obj
 0002:0000bc84       ??_C@_0M@BPNENEID@soundShift3?$AA@ 300a4c84     bg_vehicleLoad.obj
 0002:0000bc90       ??_C@_0M@GMPOFMC@soundShift2?$AA@ 300a4c90     bg_vehicleLoad.obj
 0002:0000bc9c       ??_C@_0M@CNOCLGAB@soundShift1?$AA@ 300a4c9c     bg_vehicleLoad.obj
 0002:0000bca8       ??_C@_0M@OPNACIAF@soundFlyBy2?$AA@ 300a4ca8     bg_vehicleLoad.obj
 0002:0000bcb4       ??_C@_0L@MNOPHOMD@soundFlyBy?$AA@ 300a4cb4     bg_vehicleLoad.obj
 0002:0000bcc0       ??_C@_09HDMMGPMA@soundLand?$AA@ 300a4cc0     bg_vehicleLoad.obj
 0002:0000bccc       ??_C@_0L@PMBLMBGF@soundHyper?$AA@ 300a4ccc     bg_vehicleLoad.obj
 0002:0000bcd8       ??_C@_0L@BNNFFMJG@soundTurbo?$AA@ 300a4cd8     bg_vehicleLoad.obj
 0002:0000bce4       ??_C@_09IGHJKBGG@soundSpin?$AA@ 300a4ce4     bg_vehicleLoad.obj
 0002:0000bcf0       ??_C@_0BB@GGMAFHFB@soundEngineStart?$AA@ 300a4cf0     bg_vehicleLoad.obj
 0002:0000bd04       ??_C@_0N@JPGBMOIF@soundTakeOff?$AA@ 300a4d04     bg_vehicleLoad.obj
 0002:0000bd14       ??_C@_0M@DFCNLFDF@health_left?$AA@ 300a4d14     bg_vehicleLoad.obj
 0002:0000bd20       ??_C@_0N@EMHJOGPP@health_right?$AA@ 300a4d20     bg_vehicleLoad.obj
 0002:0000bd30       ??_C@_0M@MOOOFAHG@health_back?$AA@ 300a4d30     bg_vehicleLoad.obj
 0002:0000bd3c       ??_C@_0N@CDHFELM@health_front?$AA@ 300a4d3c     bg_vehicleLoad.obj
 0002:0000bd4c       ??_C@_0N@JONDFKLC@shieldShader?$AA@ 300a4d4c     bg_vehicleLoad.obj
 0002:0000bd5c       ??_C@_0BA@FMKKHFFJ@crosshairShader?$AA@ 300a4d5c     bg_vehicleLoad.obj
 0002:0000bd6c       ??_C@_09CMMAKMMC@icon_left?$AA@ 300a4d6c     bg_vehicleLoad.obj
 0002:0000bd78       ??_C@_0L@GPLJGMFJ@icon_right?$AA@ 300a4d78     bg_vehicleLoad.obj
 0002:0000bd84       ??_C@_09NHADEJIB@icon_back?$AA@ 300a4d84     bg_vehicleLoad.obj
 0002:0000bd90       ??_C@_0L@CBPHNOBK@icon_front?$AA@ 300a4d90     bg_vehicleLoad.obj
 0002:0000bd9c       ??_C@_0BD@KLFJKOII@dmgIndicBackground?$AA@ 300a4d9c     bg_vehicleLoad.obj
 0002:0000bdb0       ??_C@_0P@FPBFALOJ@dmgIndicShield?$AA@ 300a4db0     bg_vehicleLoad.obj
 0002:0000bdc0       ??_C@_0O@DJHCJKGN@dmgIndicFrame?$AA@ 300a4dc0     bg_vehicleLoad.obj
 0002:0000bdd0       ??_C@_09FONOLKPA@radarIcon?$AA@ 300a4dd0     bg_vehicleLoad.obj
 0002:0000bddc       ??_C@_08EJIADHP@droidNPC?$AA@ 300a4ddc     bg_vehicleLoad.obj
 0002:0000bde8       ??_C@_09PMPDIAJG@riderAnim?$AA@ 300a4de8     bg_vehicleLoad.obj
 0002:0000bdf4       ??_C@_08CCPHKHEL@g2radius?$AA@ 300a4df4     bg_vehicleLoad.obj
 0002:0000be00       ??_C@_0BA@PLDNJPJN@surfDestruction?$AA@ 300a4e00     bg_vehicleLoad.obj
 0002:0000be10       ??_C@_0BG@ICOPODEK@malfunctionArmorLevel?$AA@ 300a4e10     bg_vehicleLoad.obj
 0002:0000be28       ??_C@_09FGFEKOJH@toughness?$AA@ 300a4e28     bg_vehicleLoad.obj
 0002:0000be34       ??_C@_0BB@BMKKPECK@shieldRechargeMS?$AA@ 300a4e34     bg_vehicleLoad.obj
 0002:0000be48       ??_C@_07EEEOBDLK@shields?$AA@ 300a4e48     bg_vehicleLoad.obj
 0002:0000be50       ??_C@_05JJEJIJLL@armor?$AA@ 300a4e50     bg_vehicleLoad.obj
 0002:0000be58       ??_C@_04IJEANHEE@mass?$AA@ 300a4e58     bg_vehicleLoad.obj
 0002:0000be60       ??_C@_0BG@HOKPMJKB@speedDependantTurning?$AA@ 300a4e60     bg_vehicleLoad.obj
 0002:0000be78       ??_C@_08IOPKEDDJ@maxSlope?$AA@ 300a4e78     bg_vehicleLoad.obj
 0002:0000be84       ??_C@_08LKDNMFOC@friction?$AA@ 300a4e84     bg_vehicleLoad.obj
 0002:0000be90       ??_C@_08LOEOBHC@traction?$AA@ 300a4e90     bg_vehicleLoad.obj
 0002:0000be9c       ??_C@_0BA@DEALIFEA@turnWhenStopped?$AA@ 300a4e9c     bg_vehicleLoad.obj
 0002:0000beac       ??_C@_0N@BEECELKI@turningSpeed?$AA@ 300a4eac     bg_vehicleLoad.obj
 0002:0000bebc       ??_C@_0L@PFPFAHKM@mousePitch?$AA@ 300a4ebc     bg_vehicleLoad.obj
 0002:0000bec8       ??_C@_08EAELEJGF@mouseYaw?$AA@ 300a4ec8     bg_vehicleLoad.obj
 0002:0000bed4       ??_C@_07HAHFHPDC@braking?$AA@ 300a4ed4     bg_vehicleLoad.obj
 0002:0000bedc       ??_C@_09IPOAKDJE@rollLimit?$AA@ 300a4edc     bg_vehicleLoad.obj
 0002:0000bee8       ??_C@_0L@CFHLLIPB@pitchLimit?$AA@ 300a4ee8     bg_vehicleLoad.obj
 0002:0000bef4       ??_C@_0N@ENHLHJGE@bankingSpeed?$AA@ 300a4ef4     bg_vehicleLoad.obj
 0002:0000bf04       ??_C@_0L@FDBPLPOD@strafePerc?$AA@ 300a4f04     bg_vehicleLoad.obj
 0002:0000bf10       ??_C@_0P@HHEMMPFK@throttleSticks?$AA@ 300a4f10     bg_vehicleLoad.obj
 0002:0000bf20       ??_C@_09JCLBALJJ@decelIdle?$AA@ 300a4f20     bg_vehicleLoad.obj
 0002:0000bf2c       ??_C@_0N@OKFAMOHD@acceleration?$AA@ 300a4f2c     bg_vehicleLoad.obj
 0002:0000bf3c       ??_C@_09HICLJFH@accelIdle?$AA@ 300a4f3c     bg_vehicleLoad.obj
 0002:0000bf48       ??_C@_09JLKIBNNM@speedIdle?$AA@ 300a4f48     bg_vehicleLoad.obj
 0002:0000bf54       ??_C@_08EEILJPJB@speedMin?$AA@ 300a4f54     bg_vehicleLoad.obj
 0002:0000bf60       ??_C@_0L@MLDLGLOI@turboSpeed?$AA@ 300a4f60     bg_vehicleLoad.obj
 0002:0000bf6c       ??_C@_08FGAAHLPO@speedMax?$AA@ 300a4f6c     bg_vehicleLoad.obj
 0002:0000bf78       ??_C@_0BA@BPLGJHPJ@centerOfGravity?$AA@ 300a4f78     bg_vehicleLoad.obj
 0002:0000bf88       ??_C@_06IJDLPEM@length?$AA@ 300a4f88     bg_vehicleLoad.obj
 0002:0000bf90       ??_C@_07OIEJFMLD@lookYaw?$AA@ 300a4f90     bg_vehicleLoad.obj
 0002:0000bf98       ??_C@_09EPEKCJNM@lookPitch?$AA@ 300a4f98     bg_vehicleLoad.obj
 0002:0000bfa4       ??_C@_08FEOKBMLD@numHands?$AA@ 300a4fa4     bg_vehicleLoad.obj
 0002:0000bfb0       ??_C@_04GPMDFGEJ@type?$AA@ 300a4fb0     bg_vehicleLoad.obj
 0002:0000bfb8       ??_C@_0BA@KPKBCLLA@explodeOnExpire?$AA@ 300a4fb8     bg_vehicleLoad.obj
 0002:0000bfc8       ??_C@_08MOKDPMFA@lifetime?$AA@ 300a4fc8     bg_vehicleLoad.obj
 0002:0000bfd4       ??_C@_06LNLHEAAG@height?$AA@ 300a4fd4     bg_vehicleLoad.obj
 0002:0000bfdc       ??_C@_05IGKADHGO@width?$AA@ 300a4fdc     bg_vehicleLoad.obj
 0002:0000bfe4       ??_C@_06KJINILIP@health?$AA@ 300a4fe4     bg_vehicleLoad.obj
 0002:0000bfec       ??_C@_0M@EIOFGFCL@ammoPerShot?$AA@ 300a4fec     bg_vehicleLoad.obj
 0002:0000bff8       ??_C@_06GJOIPFFF@damage?$AA@ 300a4ff8     bg_vehicleLoad.obj
 0002:0000c000       ??_C@_0L@FFLAGJDE@lockOnTime?$AA@ 300a5000     bg_vehicleLoad.obj
 0002:0000c00c       ??_C@_09DIOLNDJN@homingFOV?$AA@ 300a500c     bg_vehicleLoad.obj
 0002:0000c018       ??_C@_06GMBBIPLD@homing?$AA@ 300a5018     bg_vehicleLoad.obj
 0002:0000c020       ??_C@_09DPJGNNNM@loopSound?$AA@ 300a5020     bg_vehicleLoad.obj
 0002:0000c02c       ??_C@_0L@NDLIJKLF@g2MarkSize?$AA@ 300a502c     bg_vehicleLoad.obj
 0002:0000c038       ??_C@_0N@LOKNPDPD@g2MarkShader?$AA@ 300a5038     bg_vehicleLoad.obj
 0002:0000c048       ??_C@_08LBKCHJGI@impactFX?$AA@ 300a5048     bg_vehicleLoad.obj
 0002:0000c054       ??_C@_06KCPOJGHJ@shotFX?$AA@ 300a5054     bg_vehicleLoad.obj
 0002:0000c05c       ??_C@_08OEIEAIMH@muzzleFX?$AA@ 300a505c     bg_vehicleLoad.obj
 0002:0000c068       ??_C@_0P@MLELMPKF@saberBlockable?$AA@ 300a5068     bg_vehicleLoad.obj
 0002:0000c078       ??_C@_09LOOPDJEK@ionWeapon?$AA@ 300a5078     bg_vehicleLoad.obj
 0002:0000c084       ??_C@_0L@IPNKNAOM@hasGravity?$AA@ 300a5084     bg_vehicleLoad.obj
 0002:0000c090       ??_C@_0L@BOMCPGNF@projectile?$AA@ 300a5090     bg_vehicleLoad.obj
 0002:0000c0a0       ??_C@_0FD@MDELBJLL@?$FO3BG_ParseVehWeaponParm?3?5VEC3?5ss@ 300a50a0     bg_vehicleLoad.obj
 0002:0000c0f4       ??_C@_0CF@CCHFIIPJ@sound?1vehicles?1common?1lockalarm3@ 300a50f4     bg_vehicleLoad.obj
 0002:0000c11c       ??_C@_0CF@OJCJFLFM@sound?1vehicles?1common?1lockalarm2@ 300a511c     bg_vehicleLoad.obj
 0002:0000c144       ??_C@_0CF@GPLNCJPC@sound?1vehicles?1common?1lockalarm1@ 300a5144     bg_vehicleLoad.obj
 0002:0000c16c       ??_C@_0CH@GDPFBACF@sound?1vehicles?1weapons?1common?1lo@ 300a516c     bg_vehicleLoad.obj
 0002:0000c194       ??_C@_0CH@LCICPJML@sound?1vehicles?1weapons?1common?1ti@ 300a5194     bg_vehicleLoad.obj
 0002:0000c1bc       ??_C@_0DL@FMGLONEB@?$FO1ERROR?3?5unexpected?5EOF?5while?5pa@ 300a51bc     bg_vehicleLoad.obj
 0002:0000c1f8       ??_C@_0DC@DEIKKAAA@?$FO1ERROR?3?5Vehicle?5Weapon?5token?5?8?$CF@ 300a51f8     bg_vehicleLoad.obj
 0002:0000c22c       ??_C@_0DL@NMOBCAIH@?$FO1ERROR?3?5Unknown?5Vehicle?5Weapon?5@ 300a522c     bg_vehicleLoad.obj
 0002:0000c268       ??_C@_0L@MLJDLEMM@vehWeapons?$AA@ 300a5268     bg_vehicleLoad.obj
 0002:0000c274       ??_C@_0DG@NFPGFPBD@?$FO1ERROR?3?5Trying?5to?5read?5Vehicle?5@ 300a5274     bg_vehicleLoad.obj
 0002:0000c2ac       ??_C@_0CM@BOPHHAJF@?$FO1ERROR?3?5Could?5not?5find?5Vehicle?5@ 300a52ac     bg_vehicleLoad.obj
 0002:0000c2d8       ??_C@_0EC@OJBJIBOI@?$FO1ERROR?3?5Too?5many?5Vehicle?5Weapon@ 300a52d8     bg_vehicleLoad.obj
 0002:0000c320       ??_C@_0FB@JIOAPADB@?$FO3BG_ParseVehicleParm?3?5VEC3?5ssca@ 300a5320     bg_vehicleLoad.obj
 0002:0000c374       ??_C@_0DA@KBNENJDB@Vehicle?5Weapon?5extensions?5?$CI?$CK?4vwp@ 300a5374     bg_vehicleLoad.obj
 0002:0000c3a4       ??_C@_01CLKCMJKC@?5?$AA@   300a53a4     bg_vehicleLoad.obj
 0002:0000c3a8       ??_C@_0BN@HEKLMLDI@ext_data?1vehicles?1weapons?1?$CFs?$AA@ 300a53a8     bg_vehicleLoad.obj
 0002:0000c3c8       ??_C@_0BK@NBKBPLIB@ext_data?1vehicles?1weapons?$AA@ 300a53c8     bg_vehicleLoad.obj
 0002:0000c3e4       ??_C@_04HHPJGBOE@?4vwp?$AA@ 300a53e4     bg_vehicleLoad.obj
 0002:0000c3ec       ??_C@_0CJ@FOAJMHKE@Vehicle?5extensions?5?$CI?$CK?4veh?$CJ?5are?5t@ 300a53ec     bg_vehicleLoad.obj
 0002:0000c418       ??_C@_0BF@IBNPKGMN@ext_data?1vehicles?1?$CFs?$AA@ 300a5418     bg_vehicleLoad.obj
 0002:0000c430       ??_C@_0BC@OPBPEGFG@ext_data?1vehicles?$AA@ 300a5430     bg_vehicleLoad.obj
 0002:0000c444       ??_C@_04OKEAIOKD@?4veh?$AA@ 300a5444     bg_vehicleLoad.obj
 0002:0000c44c       ??_C@_07ECBLGCPH@?$CKdriver?$AA@ 300a544c     bg_vehicleLoad.obj
 0002:0000c454       ??_C@_0CD@LFPNGPKF@gfx?1menus?1radar?1circle_base_shie@ 300a5454     bg_vehicleLoad.obj
 0002:0000c478       ??_C@_0CC@EFBOPOJ@gfx?1menus?1radar?1circle_base_fram@ 300a5478     bg_vehicleLoad.obj
 0002:0000c49c       ??_C@_0BM@OMIIFOPC@gfx?1menus?1radar?1circle_base?$AA@ 300a549c     bg_vehicleLoad.obj
 0002:0000c4b8       ??_C@_0BH@MJMHOIHM@ships?1hyperspace_stars?$AA@ 300a54b8     bg_vehicleLoad.obj
 0002:0000c4d0       ??_C@_0L@FJMBPMOH@ships?1fire?$AA@ 300a54d0     bg_vehicleLoad.obj
 0002:0000c4dc       ??_C@_0BH@EGNCFGHP@volumetric?1black_smoke?$AA@ 300a54dc     bg_vehicleLoad.obj
 0002:0000c4f4       ??_C@_0CB@PMCFCAHP@effects?1ships?1dest_destroyed?4efx@ 300a54f4     bg_vehicleLoad.obj
 0002:0000c518       ??_C@_0BP@DKDDAPFA@effects?1ships?1dest_burning?4efx?$AA@ 300a5518     bg_vehicleLoad.obj
 0002:0000c538       ??_C@_0CC@FMEFNJAG@sound?1vehicles?1common?1release?4wa@ 300a5538     bg_vehicleLoad.obj
 0002:0000c55c       ??_C@_0CE@OLLPDHPF@sound?1vehicles?1common?1linkweaps?4@ 300a555c     bg_vehicleLoad.obj
 0002:0000c580       ??_C@_0CG@LGHONDOI@sound?1vehicles?1common?1impactalar@ 300a5580     bg_vehicleLoad.obj
 0002:0000c5a8       ??_C@_0BJ@POPKHPP@gfx?1menus?1radar?1asteroid?$AA@ 300a55a8     bg_vehicleLoad.obj
 0002:0000c5c4       ??_C@_0BF@FLALHJAP@gfx?1menus?1radar?1lead?$AA@ 300a55c4     bg_vehicleLoad.obj
 0002:0000c5dc       ??_C@_0BI@IOMIPFAI@gfx?1menus?1radar?1bracket?$AA@ 300a55dc     bg_vehicleLoad.obj
 0002:0000c5f4       ??_C@_0BB@DNJHOLNH@ships?1swoop_dust?$AA@ 300a55f4     bg_vehicleLoad.obj
 0002:0000c608       ??_C@_0CC@DCOMBCFJ@sound?1vehicles?1common?1fire_lp?4wa@ 300a5608     bg_vehicleLoad.obj
 0002:0000c62c       ??_C@_0BK@NCALAGBO@ships?1ship_explosion_mark?$AA@ 300a562c     bg_vehicleLoad.obj
 0002:0000c648       ??_C@_0BM@KNIODCMI@models?1players?1?$CFs?1model?4glm?$AA@ 300a5648     bg_vehicleLoad.obj
 0002:0000c664       ??_C@_0DE@EKJMGPEC@?$FO1ERROR?3?5unexpected?5EOF?5while?5pa@ 300a5664     bg_vehicleLoad.obj
 0002:0000c698       ??_C@_0CL@OGPLJEAB@?$FO1ERROR?3?5Vehicle?5token?5?8?$CFs?8?5has?5@ 300a5698     bg_vehicleLoad.obj
 0002:0000c6c4       ??_C@_08HAIKMFBJ@vehicles?$AA@ 300a56c4     bg_vehicleLoad.obj
 0002:0000c6d0       ??_C@_0CP@GGAMJIMN@?$FO1ERROR?3?5Trying?5to?5read?5Vehicle?5@ 300a56d0     bg_vehicleLoad.obj
 0002:0000c700       ??_C@_0CF@JDPFBFFF@?$FO1ERROR?3?5Could?5not?5find?5Vehicle?5@ 300a5700     bg_vehicleLoad.obj
 0002:0000c728       ??_C@_0DL@LHHFHKNO@?$FO1ERROR?3?5Too?5many?5Vehicles?5?$CImax?5@ 300a5728     bg_vehicleLoad.obj
 0002:0000c764       ??_C@_0DC@CNDALACO@BG_GetVehicleModelName?3?5?5couldn?8@ 300a5764     bg_vehicleLoad.obj
 0002:0000c798       ??_C@_0DB@BEOAHFLB@BG_GetVehicleSkinName?3?5?5couldn?8t@ 300a5798     bg_vehicleLoad.obj
 0002:0000c7cc       ??_C@_0O@EJFAGBDB@rotateCam?9360?$AA@ 300a57cc     cg_consolecmds.obj
 0002:0000c7dc       ??_C@_0N@PPKIAJIL@rotateCam360?$AA@ 300a57dc     cg_consolecmds.obj
 0002:0000c7ec       ??_C@_0P@CKMMMCFP@stopPreviewCam?$AA@ 300a57ec     cg_consolecmds.obj
 0002:0000c7fc       ??_C@_0L@PJCPPNJH@previewCam?$AA@ 300a57fc     cg_consolecmds.obj
 0002:0000c808       ??_C@_0P@NFKBOOFI@screenshot_png?$AA@ 300a5808     cg_consolecmds.obj
 0002:0000c818       ??_C@_06LMEAOBLB@rename?$AA@ 300a5818     cg_consolecmds.obj
 0002:0000c820       ??_C@_07EGOMHOKH@varMath?$AA@ 300a5820     cg_consolecmds.obj
 0002:0000c828       ??_C@_0L@GJFPOMBE@ghostclose?$AA@ 300a5828     cg_consolecmds.obj
 0002:0000c834       ??_C@_09PLAOOOOH@ghostload?$AA@ 300a5834     cg_consolecmds.obj
 0002:0000c840       ??_C@_09PJBDBNDD@ghostsave?$AA@ 300a5840     cg_consolecmds.obj
 0002:0000c84c       ??_C@_0BB@CMOEMFAI@truepug_demospec?$AA@ 300a584c     cg_consolecmds.obj
 0002:0000c860       ??_C@_09GMOHLEPN@listfiles?$AA@ 300a5860     cg_consolecmds.obj
 0002:0000c86c       ??_C@_07IGGNLOHG@replloc?$AA@ 300a586c     cg_consolecmds.obj
 0002:0000c874       ??_C@_06IMJKCBEA@insloc?$AA@ 300a5874     cg_consolecmds.obj
 0002:0000c87c       ??_C@_06MMCOAHND@addloc?$AA@ 300a587c     cg_consolecmds.obj
 0002:0000c884       ??_C@_07EBDPHBNC@dumploc?$AA@ 300a5884     cg_consolecmds.obj
 0002:0000c88c       ??_C@_07CNONJCH@showcam?$AA@ 300a588c     cg_consolecmds.obj
 0002:0000c894       ??_C@_0L@IBAOCKEL@savecamcfg?$AA@ 300a5894     cg_consolecmds.obj
 0002:0000c8a0       ??_C@_0O@JIJPAAJJ@removeallcams?$AA@ 300a58a0     cg_consolecmds.obj
 0002:0000c8b0       ??_C@_09PCFBHFFA@removecam?$AA@ 300a58b0     cg_consolecmds.obj
 0002:0000c8bc       ??_C@_09KEBKBBOB@insertcam?$AA@ 300a58bc     cg_consolecmds.obj
 0002:0000c8c8       ??_C@_09FBDGNOLB@smoothcam?$AA@ 300a58c8     cg_consolecmds.obj
 0002:0000c8d4       ??_C@_07JEFMBHDJ@demopos?$AA@ 300a58d4     cg_consolecmds.obj
 0002:0000c8dc       ??_C@_0BD@FCJJFCLF@clientserverstatus?$AA@ 300a58dc     cg_consolecmds.obj
 0002:0000c8f0       ??_C@_0BI@HDGHMOHC@siegeCompleteCvarUpdate?$AA@ 300a58f0     cg_consolecmds.obj
 0002:0000c908       ??_C@_0BA@NFKMJLPI@siegeCvarUpdate?$AA@ 300a5908     cg_consolecmds.obj
 0002:0000c918       ??_C@_08PLKIGCGP@briefing?$AA@ 300a5918     cg_consolecmds.obj
 0002:0000c924       ??_C@_09EANJKMNE@forceprev?$AA@ 300a5924     cg_consolecmds.obj
 0002:0000c930       ??_C@_09HEAPLILA@forcenext?$AA@ 300a5930     cg_consolecmds.obj
 0002:0000c93c       ??_C@_07FMBGBNAB@invprev?$AA@ 300a593c     cg_consolecmds.obj
 0002:0000c944       ??_C@_07GIMAAJGF@invnext?$AA@ 300a5944     cg_consolecmds.obj
 0002:0000c94c       ??_C@_0N@FDCACBMC@loaddeferred?$AA@ 300a594c     cg_consolecmds.obj
 0002:0000c95c       ??_C@_0L@FBDGNAPC@startOrbit?$AA@ 300a595c     cg_consolecmds.obj
 0002:0000c968       ??_C@_08NILIEBDN@scoresUp?$AA@ 300a5968     cg_consolecmds.obj
 0002:0000c974       ??_C@_0L@JEAJCAAH@scoresDown?$AA@ 300a5974     cg_consolecmds.obj
 0002:0000c980       ??_C@_06EEKPMAA@spLose?$AA@ 300a5980     cg_consolecmds.obj
 0002:0000c988       ??_C@_05NAPLEAGB@spWin?$AA@ 300a5988     cg_consolecmds.obj
 0002:0000c990       ??_C@_04FNICOANA@tcmd?$AA@ 300a5990     cg_consolecmds.obj
 0002:0000c998       ??_C@_0O@CIPPGGPC@tell_attacker?$AA@ 300a5998     cg_consolecmds.obj
 0002:0000c9a8       ??_C@_0M@IEEMCPKO@tell_target?$AA@ 300a59a8     cg_consolecmds.obj
 0002:0000c9b4       ??_C@_0M@IFIOEFBC@weaponclean?$AA@ 300a59b4     cg_consolecmds.obj
 0002:0000c9c0       ??_C@_06GEPNGEJI@weapon?$AA@ 300a59c0     cg_consolecmds.obj
 0002:0000c9c8       ??_C@_08DMEBPOGB@weapprev?$AA@ 300a59c8     cg_consolecmds.obj
 0002:0000c9d4       ??_C@_08IJHOKAF@weapnext?$AA@ 300a59d4     cg_consolecmds.obj
 0002:0000c9e0       ??_C@_08KKGKLAHJ@sizedown?$AA@ 300a59e0     cg_consolecmds.obj
 0002:0000c9ec       ??_C@_06FCHHJILH@sizeup?$AA@ 300a59ec     cg_consolecmds.obj
 0002:0000c9f4       ??_C@_07DLBEELCG@?9scores?$AA@ 300a59f4     cg_consolecmds.obj
 0002:0000c9fc       ??_C@_07PNHLECKB@?$CLscores?$AA@ 300a59fc     cg_consolecmds.obj
 0002:0000ca04       ??_C@_07NBKBBFDF@viewpos?$AA@ 300a5a04     cg_consolecmds.obj
 0002:0000ca0c       ??_C@_08ONPIGPGM@prevskin?$AA@ 300a5a0c     cg_consolecmds.obj
 0002:0000ca18       ??_C@_08LEEFJCLI@nextskin?$AA@ 300a5a18     cg_consolecmds.obj
 0002:0000ca24       ??_C@_09KFHKLKJD@prevframe?$AA@ 300a5a24     cg_consolecmds.obj
 0002:0000ca30       ??_C@_09CEJNBBKD@nextframe?$AA@ 300a5a30     cg_consolecmds.obj
 0002:0000ca3c       ??_C@_09FDMDKFOH@testmodel?$AA@ 300a5a3c     cg_consolecmds.obj
 0002:0000ca48       ??_C@_07OFBIMGPG@testgun?$AA@ 300a5a48     cg_consolecmds.obj
 0002:0000ca50       ??_C@_08FJOFODJK@gc?5?$CFi?5?$CFi?$AA@ 300a5a50     cg_consolecmds.obj
 0002:0000ca5c       ??_C@_0M@NABCNGBA@cg_viewsize?$AA@ 300a5a5c     cg_consolecmds.obj
 0002:0000ca68       ??_C@_0CK@HMDPAPKH@?$CFs?5origin?5?$CI?$CFf?5?$CFf?5?$CFf?$CJ?5?3?5angles?5?$CI?$CF@ 300a5a68     cg_consolecmds.obj
 0002:0000ca94       ??_C@_05DBKDOICH@score?$AA@ 300a5a94     cg_consolecmds.obj
 0002:0000ca9c       ??_C@_09FBJDPOOB@MP_INGAME?$AA@ 300a5a9c     cg_consolecmds.obj
 0002:0000caa8       ??_C@_07MDJMOPGK@YOU_WIN?$AA@ 300a5aa8     cg_consolecmds.obj
 0002:0000cab0       ??_C@_0BE@FKFEAA@cg_thirdPersonRange?$AA@ 300a5ab0     cg_consolecmds.obj
 0002:0000cac4       ??_C@_03GNABGMEE@100?$AA@  300a5ac4     cg_consolecmds.obj
 0002:0000cac8       ??_C@_0BE@HGBFBDIP@cg_thirdPersonAngle?$AA@ 300a5ac8     cg_consolecmds.obj
 0002:0000cadc       ??_C@_01GBGANLPD@0?$AA@    300a5adc     cg_consolecmds.obj
 0002:0000cae0       ??_C@_0P@OPFJLCMG@cg_thirdPerson?$AA@ 300a5ae0     cg_consolecmds.obj
 0002:0000caf0       ??_C@_01HIHLOKLC@1?$AA@    300a5af0     cg_consolecmds.obj
 0002:0000caf4       ??_C@_0BE@EKDKKKAP@cg_cameraOrbitDelay?$AA@ 300a5af4     cg_consolecmds.obj
 0002:0000cb08       ??_C@_02IEKCLPJC@35?$AA@   300a5b08     cg_consolecmds.obj
 0002:0000cb0c       ??_C@_0P@GDCMABHL@cg_cameraOrbit?$AA@ 300a5b0c     cg_consolecmds.obj
 0002:0000cb1c       ??_C@_01FDFGLJHB@2?$AA@    300a5b1c     cg_consolecmds.obj
 0002:0000cb20       ??_C@_08GAPGGIF@YOU_LOSE?$AA@ 300a5b20     cg_consolecmds.obj
 0002:0000cb2c       ??_C@_0L@EGAGNODH@tell?5?$CFi?5?$CFs?$AA@ 300a5b2c     cg_consolecmds.obj
 0002:0000cb38       ??_C@_01BMBHCPLG@5?$AA@    300a5b38     cg_consolecmds.obj
 0002:0000cb3c       ??_C@_09DNECJBKD@developer?$AA@ 300a5b3c     cg_consolecmds.obj
 0002:0000cb48       ??_C@_07LCGEOBC@?$CFd?3?5?$CFs?6?$AA@ 300a5b48     cg_consolecmds.obj
 0002:0000cb50       ??_C@_01EFFIKLCJ@n?$AA@    300a5b50     cg_consolecmds.obj
 0002:0000cb54       ??_C@_09IIOBMIO@timescale?$AA@ 300a5b54     cg_consolecmds.obj
 0002:0000cb60       ??_C@_02DPKJAMEF@?$CFd?$AA@ 300a5b60     cg_consolecmds.obj
 0002:0000cb64       ??_C@_0DJ@IIEAIBIK@Syntax?3?5demopos?5mm?3ss?4ms?5?$CIsecond@ 300a5b64     cg_consolecmds.obj
 0002:0000cba0       __real@3da5fd7fe1796495    300a5ba0     cg_consolecmds.obj
 0002:0000cba8       ??_C@_0CA@POEDGALM@cam?5?$CFd?5axis?5?$CFd?5coefficient?5?$CFlf?6?$AA@ 300a5ba8     cg_consolecmds.obj
 0002:0000cbc8       ??_C@_0L@EONOHOAA@curCam?5?$CFd?6?$AA@ 300a5bc8     cg_consolecmds.obj
 0002:0000cbd4       ??_C@_0BI@HEKJDBFC@Added?5Cam?5Location?5?$CFd?4?6?$AA@ 300a5bd4     cg_consolecmds.obj
 0002:0000cbec       ??_C@_02NBLAPNNF@TP?$AA@   300a5bec     cg_consolecmds.obj
 0002:0000cbf0       ??_C@_0BL@FGCBHCMK@Inserted?5Cam?5Location?5?$CFd?4?6?$AA@ 300a5bf0     cg_consolecmds.obj
 0002:0000cc0c       ??_C@_0BK@OCFFJIOF@Removed?5Cam?5Location?5?$CFd?4?6?$AA@ 300a5c0c     cg_consolecmds.obj
 0002:0000cc28       ??_C@_0BM@BNCKAGLF@Usage?3?5removecam?5?$DMcam?5num?$DO?6?$AA@ 300a5c28     cg_consolecmds.obj
 0002:0000cc44       ??_C@_0BC@DDIDDKOK@Removed?5?$CFd?5Cams?4?6?$AA@ 300a5c44     cg_consolecmds.obj
 0002:0000cc58       ??_C@_0BJ@FLKIDGDF@?6Cam?5Data?5Dumped?5to?5?$CFs?4?6?$AA@ 300a5c58     cg_consolecmds.obj
 0002:0000cc74       ??_C@_0CJ@KCNADLPF@smoothcam?5TP?50?5?$CFf?5?$CFf?5?$CFf?5?$CFf?5?$CFf?5?$CFd@ 300a5c74     cg_consolecmds.obj
 0002:0000cca0       ??_C@_0CH@IGCJMAMF@smoothcam?5?$CFf?5?$CFf?5?$CFf?5?$CFf?5?$CFf?5?$CFf?5?$CFd?3?$CF@ 300a5ca0     cg_consolecmds.obj
 0002:0000ccc8       ??_C@_03JDANDILB@?$CFd?5?$AA@ 300a5cc8     cg_consolecmds.obj
 0002:0000cccc       ??_C@_0N@GJABNGAG@Dumping?5Cam?5?$AA@ 300a5ccc     cg_consolecmds.obj
 0002:0000ccdc       ??_C@_0CC@LAEOLOAO@Failed?5to?5open?5?8?$CFs?8?5for?5writing?4@ 300a5cdc     cg_consolecmds.obj
 0002:0000cd00       ??_C@_0BP@CNEGNICM@Syntax?3?5savecamcfg?5?$DMfilename?$DO?6?$AA@ 300a5d00     cg_consolecmds.obj
 0002:0000cd20       ??_C@_0CD@NENFLMON@?$CFd?3?5TP?50?5?$CFf?5?$CFf?5?$CFf?5?$CFf?5?$CFf?5?$CFd?3?$CF06?43@ 300a5d20     cg_consolecmds.obj
 0002:0000cd44       ??_C@_0CB@JGPLFMCM@?$CFd?3?5?$CFf?5?$CFf?5?$CFf?5?$CFf?5?$CFf?5?$CFf?5?$CFd?3?$CF06?43f?6@ 300a5d44     cg_consolecmds.obj
 0002:0000cd68       ??_C@_0BI@KNMLEHHA@Cam?5Data?5Dumped?5to?5?$CFs?4?6?$AA@ 300a5d68     cg_consolecmds.obj
 0002:0000cd80       ??_C@_0CC@CAAIEGKB@smoothcam?5TP?50?5?$CFf?5?$CFf?5?$CFf?5?$CFf?5?$CFf?5?$CFs@ 300a5d80     cg_consolecmds.obj
 0002:0000cda4       ??_C@_0CA@KICGPMJM@smoothcam?5?$CFf?5?$CFf?5?$CFf?5?$CFf?5?$CFf?5?$CFf?5?$CFs?6?$AA@ 300a5da4     cg_consolecmds.obj
 0002:0000cdc4       ??_C@_0DH@KNDCEGGJ@Syntax?3?5dumploc?5?$DMstart?3time?$FL?4mse@ 300a5dc4     cg_consolecmds.obj
 0002:0000cdfc       ??_C@_0CL@JBLEBFN@Syntax?3?5addloc?5?$DMstart?3time?$FL?4msec@ 300a5dfc     cg_consolecmds.obj
 0002:0000ce28       ??_C@_0CF@IFJMBNJJ@insertcam?5?$CFd?5TP?50?5?$CFf?5?$CFf?5?$CFf?5?$CFf?5?$CFf@ 300a5e28     cg_consolecmds.obj
 0002:0000ce50       ??_C@_0CD@CCOAHIJL@insertcam?5?$CFd?5?$CFf?5?$CFf?5?$CFf?5?$CFf?5?$CFf?5?$CFf?5?$CF@ 300a5e50     cg_consolecmds.obj
 0002:0000ce74       ??_C@_0DF@MMGOGLMK@Syntax?3?5insloc?5?$DMcam?5num?$DO?5?$DMstart?3@ 300a5e74     cg_consolecmds.obj
 0002:0000ceac       ??_C@_0DC@LOJEOJLE@removecam?5?$CFd?$DLinsertcam?5?$CFd?5TP?50?5?$CF@ 300a5eac     cg_consolecmds.obj
 0002:0000cee0       ??_C@_0DA@PADOJCEB@removecam?5?$CFd?$DLinsertcam?5?$CFd?5?$CFf?5?$CFf?5@ 300a5ee0     cg_consolecmds.obj
 0002:0000cf10       ??_C@_0DG@CPINLFKN@Syntax?3?5replloc?5?$DMcam?5num?$DO?5?$DMstart@ 300a5f10     cg_consolecmds.obj
 0002:0000cf48       ??_C@_0CF@JCJABECP@?$CCpug_demospec?$CC?5is?3?$CC?$CFd?$CC?5default?3?$CC@ 300a5f48     cg_consolecmds.obj
 0002:0000cf70       ??_C@_0BO@MOMKDNKF@Usage?3?5rotateCam360?5?$DMcamnum?$DO?6?$AA@ 300a5f70     cg_consolecmds.obj
 0002:0000cf90       ??_C@_0BP@LKMLMBCA@Usage?3?5rotateCam?9360?5?$DMcamnum?$DO?6?$AA@ 300a5f90     cg_consolecmds.obj
 0002:0000cfb0       ??_C@_0L@CHDPMOJM@Files?3?5?$CFs?6?$AA@ 300a5fb0     cg_consolecmds.obj
 0002:0000cfbc       ??_C@_0DA@OPJLIFHH@WARNING?3?5refusing?5to?5create?5rela@ 300a5fbc     cg_consolecmds.obj
 0002:0000cfec       ??_C@_02MOLJINC@?3?3?$AA@  300a5fec     cg_consolecmds.obj
 0002:0000cff0       ??_C@_02DJGKEECL@?4?4?$AA@ 300a5ff0     cg_consolecmds.obj
 0002:0000cff4       ??_C@_0BN@NHHHLPKA@Error?3?5Ghost?5already?5closed?6?$AA@ 300a5ff4     cg_consolecmds.obj
 0002:0000d014       ??_C@_09IGGOEAAD@set?5?$CFs?5?$CFd?$AA@ 300a6014     cg_consolecmds.obj
 0002:0000d020       ??_C@_09LEFICCIB@set?5?$CFs?5?$CFf?$AA@ 300a6020     cg_consolecmds.obj
 0002:0000d02c       ??_C@_09IDONMEJF@set?5?$CFs?5?$CFs?$AA@ 300a602c     cg_consolecmds.obj
 0002:0000d038       ??_C@_0BB@DCNKKJGD@?$FO7?$CFs?5?$FO4?9?9?$DO?$FO7?5?$CFd?6?$AA@ 300a6038     cg_consolecmds.obj
 0002:0000d04c       ??_C@_0BB@DBFOHNAN@?$FO7?$CFs?5?$FO4?9?9?$DO?$FO7?5?$CFf?6?$AA@ 300a604c     cg_consolecmds.obj
 0002:0000d060       ??_C@_0CI@DHLIHOFB@?$CK?$CK?$CK?5Parse?5error?3?5invalid?5operato@ 300a6060     cg_consolecmds.obj
 0002:0000d088       ??_C@_0BB@CLLDBMJG@?$FO7?$CFs?5?$FO4?9?9?$DO?$FO7?5?$CFs?6?$AA@ 300a6088     cg_consolecmds.obj
 0002:0000d09c       ??_C@_05MNAOKCKF@user_?$AA@ 300a609c     cg_consolecmds.obj
 0002:0000d0a4       ??_C@_06NPMFHAAM@cgtime?$AA@ 300a60a4     cg_consolecmds.obj
 0002:0000d0ac       ??_C@_0L@DLPPLGBB@playername?$AA@ 300a60ac     cg_consolecmds.obj
 0002:0000d0b8       ??_C@_0N@NMLPILGG@?$CF02d?$CF02d?$CF02d?$AA@ 300a60b8     cg_consolecmds.obj
 0002:0000d0c8       ??_C@_04CLCEDBPF@time?$AA@ 300a60c8     cg_consolecmds.obj
 0002:0000d0d0       ??_C@_0N@DEAKEBCF@?$CF04d?$CF02d?$CF02d?$AA@ 300a60d0     cg_consolecmds.obj
 0002:0000d0e0       ??_C@_04JNIHBGGH@date?$AA@ 300a60e0     cg_consolecmds.obj
 0002:0000d0e8       ??_C@_07KMNEBLH@mapname?$AA@ 300a60e8     cg_consolecmds.obj
 0002:0000d0f0       ??_C@_07OABDPJFL@speedXY?$AA@ 300a60f0     cg_consolecmds.obj
 0002:0000d0f8       ??_C@_06MEFAEGJJ@velXYZ?$AA@ 300a60f8     cg_consolecmds.obj
 0002:0000d100       ??_C@_06OGJBMONI@speedZ?$AA@ 300a6100     cg_consolecmds.obj
 0002:0000d108       ??_C@_04ECCOJNCG@velZ?$AA@ 300a6108     cg_consolecmds.obj
 0002:0000d110       ??_C@_04GJADMOOF@velY?$AA@ 300a6110     cg_consolecmds.obj
 0002:0000d118       ??_C@_04HABIPPKE@velX?$AA@ 300a6118     cg_consolecmds.obj
 0002:0000d120       ??_C@_06HLDOCFAL@angXYZ?$AA@ 300a6120     cg_consolecmds.obj
 0002:0000d128       ??_C@_04ELLKLOFE@angZ?$AA@ 300a6128     cg_consolecmds.obj
 0002:0000d130       ??_C@_04GAJHONJH@angY?$AA@ 300a6130     cg_consolecmds.obj
 0002:0000d138       ??_C@_04HJIMNMNG@angX?$AA@ 300a6138     cg_consolecmds.obj
 0002:0000d140       ??_C@_06OEKLFAJG@posXYZ?$AA@ 300a6140     cg_consolecmds.obj
 0002:0000d148       ??_C@_04LFKJGMKP@posZ?$AA@ 300a6148     cg_consolecmds.obj
 0002:0000d150       ??_C@_0L@JJEENFGM@viewposXYZ?$AA@ 300a6150     cg_consolecmds.obj
 0002:0000d15c       ??_C@_02NJPGOMH@?$CFf?$AA@ 300a615c     cg_consolecmds.obj
 0002:0000d160       ??_C@_08BGDGNAOI@viewposZ?$AA@ 300a6160     cg_consolecmds.obj
 0002:0000d16c       ??_C@_04JOIEDPGM@posY?$AA@ 300a616c     cg_consolecmds.obj
 0002:0000d174       ??_C@_08DNBLIDCL@viewposY?$AA@ 300a6174     cg_consolecmds.obj
 0002:0000d180       ??_C@_04IHJPAOCN@posX?$AA@ 300a6180     cg_consolecmds.obj
 0002:0000d188       ??_C@_08CEAALCGK@viewposX?$AA@ 300a6188     cg_consolecmds.obj
 0002:0000d194       ??_C@_0BN@CHJLBCAL@?$FO7?$CK?$CK?$CK?5Error?5?9?5missing?5value?6?$AA@ 300a6194     cg_consolecmds.obj
 0002:0000d1b4       ??_C@_0CA@LKDIKDDF@?$FO7?$CK?$CK?$CK?5Error?5?9?5missing?5operator?6?$AA@ 300a61b4     cg_consolecmds.obj
 0002:0000d1d8       ??_C@_0FG@OKPMLKHH@?$FO3Note?3?5?5?5?5for?5immediate?5variabl@ 300a61d8     cg_consolecmds.obj
 0002:0000d230       ??_C@_0EG@KAIAPMBI@?$FO2Example?3?5?$FO7varMath?5user_demona@ 300a6230     cg_consolecmds.obj
 0002:0000d278       ??_C@_0CL@COHDHNGM@?$FO2Example?3?5?$FO7varMath?5user_num?5?$DN?5@ 300a6278     cg_consolecmds.obj
 0002:0000d2a4       ??_C@_0CF@MAODHHKA@?$FO2Example?3?5?$FO7varMath?5timescale?5?$CK@ 300a62a4     cg_consolecmds.obj
 0002:0000d2d0       ??_C@_0EN@DEJKLAGM@?$FO7Usage?3?5?5?5varMath?5targetVariabl@ 300a62d0     cg_consolecmds.obj
 0002:0000d320       ??_C@_0DL@BOLAADMG@?6?$FO1varMath?3?5?$FO2Performs?5math?5func@ 300a6320     cg_consolecmds.obj
 0002:0000d35c       ??_C@_04HDOCAJNK@?$CFs?$CFs?$AA@ 300a635c     cg_consolecmds.obj
 0002:0000d364       ??_C@_06HALAHGDI@?1?$CFs?1?$CFs?$AA@ 300a6364     cg_consolecmds.obj
 0002:0000d36c       ??_C@_07FMAMAFJE@fs_game?$AA@ 300a636c     cg_consolecmds.obj
 0002:0000d374       ??_C@_02JDPG@rb?$AA@       300a6374     cg_consolecmds.obj
 0002:0000d378       ??_C@_0M@LECGGKKC@fs_homepath?$AA@ 300a6378     cg_consolecmds.obj
 0002:0000d384       ??_C@_05EGBLHKBN@1?44?43?$AA@ 300a6384     cg_consolecmds.obj
 0002:0000d38c       ??_C@_02GMLFBBN@wb?$AA@    300a638c     cg_consolecmds.obj
 0002:0000d390       ??_C@_0BI@GKNAIHHK@screenshots?1?$CFs?4?$CF010d?4?$CFs?$AA@ 300a6390     cg_consolecmds.obj
 0002:0000d3a8       ??_C@_03LJIJAGL@tga?$AA@   300a63a8     cg_consolecmds.obj
 0002:0000d3ac       ??_C@_03NNHBJLDF@png?$AA@  300a63ac     cg_consolecmds.obj
 0002:0000d3b0       ??_C@_03PEGNKCLE@jpg?$AA@  300a63b0     cg_consolecmds.obj
 0002:0000d3b8       __real@4070000000000000    300a63b8     cg_consolecmds.obj
 0002:0000d3c0       ??_C@_08FOPOJBJM@triangle?$AA@ 300a63c0     cg_consolecmds.obj
 0002:0000d3d0       __real@401921fb60000000    300a63d0     cg_consolecmds.obj
 0002:0000d3d8       ??_C@_08EEGEOCFC@gaussian?$AA@ 300a63d8     cg_consolecmds.obj
 0002:0000d3e4       ??_C@_0DG@PCKLELKP@Failed?5to?5allocate?5?$CFd?5bytes?5from@ 300a63e4     cg_consolecmds.obj
 0002:0000d41c       ??_C@_0BA@FIJNJEDA@mme_blurOverlap?$AA@ 300a641c     cg_consolecmds.obj
 0002:0000d42c       ??_C@_0P@CBALPNJB@mme_blurFrames?$AA@ 300a642c     cg_consolecmds.obj
 0002:0000d43c       ??_C@_07GBKEPKP@BLURMAX?$AA@ 300a643c     cg_consolecmds.obj
 0002:0000d448       __real@406fe00000000000    300a6448     cg_consolecmds.obj
 0002:0000d450       ??_C@_03LJGCHEIJ@avi?$AA@  300a6450     cg_consolecmds.obj
 0002:0000d454       ??_C@_0L@NHOALDEL@?$CFs?4stencil?$AA@ 300a6454     cg_consolecmds.obj
 0002:0000d460       ??_C@_08DLJJMMMB@?$CFs?4depth?$AA@ 300a6460     cg_consolecmds.obj
 0002:0000d46c       ??_C@_02DKCKIIND@?$CFs?$AA@ 300a646c     cg_consolecmds.obj
 0002:0000d470       ??_C@_0DB@PKBDIJIM@Failed?5to?5allocate?5?$CFd?5bytes?5for?5@ 300a6470     cg_consolecmds.obj
 0002:0000d4a4       ??_C@_0BI@KMEFLICN@Started?5previewing?5cam?6?$AA@ 300a64a4     cg_consolecmds.obj
 0002:0000d4bc       ??_C@_0BI@MNNOCOIJ@Stopped?5previewing?5cam?6?$AA@ 300a64bc     cg_consolecmds.obj
 0002:0000d4d4       ??_C@_0M@NJBPNDAH@loaddefered?$AA@ 300a64d4     cg_consolecmds.obj
 0002:0000d4e0       ??_C@_08OKGPDOIO@teamtask?$AA@ 300a64e0     cg_consolecmds.obj
 0002:0000d4ec       ??_C@_05BLKJBNOD@stats?$AA@ 300a64ec     cg_consolecmds.obj
 0002:0000d4f4       ??_C@_08OLLMCBNG@teamvote?$AA@ 300a64f4     cg_consolecmds.obj
 0002:0000d500       ??_C@_0N@JDBKAFAM@callteamvote?$AA@ 300a6500     cg_consolecmds.obj
 0002:0000d510       ??_C@_04GHHIKFLG@vote?$AA@ 300a6510     cg_consolecmds.obj
 0002:0000d518       ??_C@_08NNMLCPB@callvote?$AA@ 300a6518     cg_consolecmds.obj
 0002:0000d524       ??_C@_0L@CCEFBCKP@setviewpos?$AA@ 300a6524     cg_consolecmds.obj
 0002:0000d530       ??_C@_06CJHCPEHG@addbot?$AA@ 300a6530     cg_consolecmds.obj
 0002:0000d538       ??_C@_09EFOFPGPE@levelshot?$AA@ 300a6538     cg_consolecmds.obj
 0002:0000d544       ??_C@_06HNJAFFAK@follow?$AA@ 300a6544     cg_consolecmds.obj
 0002:0000d54c       ??_C@_04KADBPNCB@team?$AA@ 300a654c     cg_consolecmds.obj
 0002:0000d554       ??_C@_06IHODGGMJ@noclip?$AA@ 300a6554     cg_consolecmds.obj
 0002:0000d55c       ??_C@_08HPLPOCJL@notarget?$AA@ 300a655c     cg_consolecmds.obj
 0002:0000d568       ??_C@_03DKFAMNOH@god?$AA@  300a6568     cg_consolecmds.obj
 0002:0000d56c       ??_C@_04BMBHJADG@give?$AA@ 300a656c     cg_consolecmds.obj
 0002:0000d574       ??_C@_04LBPCFPDD@tell?$AA@ 300a6574     cg_consolecmds.obj
 0002:0000d57c       ??_C@_08NBFNGOHN@say_team?$AA@ 300a657c     cg_consolecmds.obj
 0002:0000d588       ??_C@_03BANJEMDJ@say?$AA@  300a6588     cg_consolecmds.obj
 0002:0000d58c       ??_C@_04BJJEOANI@kill?$AA@ 300a658c     cg_consolecmds.obj
 0002:0000d594       ??_C@_0BB@CFPBIBMB@saberAttackCycle?$AA@ 300a6594     cg_consolecmds.obj
 0002:0000d5a8       ??_C@_09CKNLHHEO@bot_order?$AA@ 300a65a8     cg_consolecmds.obj
 0002:0000d5b4       ??_C@_0L@HCOPHPIB@use_sentry?$AA@ 300a65b4     cg_consolecmds.obj
 0002:0000d5c0       ??_C@_04HKCCIOCO@zoom?$AA@ 300a65c0     cg_consolecmds.obj
 0002:0000d5c8       ??_C@_0BG@OOGFIKBA@use_electrobinoculars?$AA@ 300a65c8     cg_consolecmds.obj
 0002:0000d5e0       ??_C@_09GPEOCDOP@use_bacta?$AA@ 300a65e0     cg_consolecmds.obj
 0002:0000d5ec       ??_C@_09IOIGHDGJ@use_field?$AA@ 300a65ec     cg_consolecmds.obj
 0002:0000d5f8       ??_C@_0L@PHNIGFGH@use_seeker?$AA@ 300a65f8     cg_consolecmds.obj
 0002:0000d604       ??_C@_0N@PIIHDBOG@force_seeing?$AA@ 300a6604     cg_consolecmds.obj
 0002:0000d614       ??_C@_0BG@IPJAFHDH@force_forcepowerother?$AA@ 300a6614     cg_consolecmds.obj
 0002:0000d62c       ??_C@_0BA@FAEJBFDN@force_healother?$AA@ 300a662c     cg_consolecmds.obj
 0002:0000d63c       ??_C@_0N@LHEDBPBG@force_absorb?$AA@ 300a663c     cg_consolecmds.obj
 0002:0000d64c       ??_C@_0O@MHNHIGKF@force_protect?$AA@ 300a664c     cg_consolecmds.obj
 0002:0000d65c       ??_C@_0L@PNAILJHA@force_rage?$AA@ 300a665c     cg_consolecmds.obj
 0002:0000d668       ??_C@_0P@PMALMCEF@force_distract?$AA@ 300a6668     cg_consolecmds.obj
 0002:0000d678       ??_C@_0L@IFCEHOHA@force_pull?$AA@ 300a6678     cg_consolecmds.obj
 0002:0000d684       ??_C@_0M@IBJPDFKD@force_throw?$AA@ 300a6684     cg_consolecmds.obj
 0002:0000d690       ??_C@_0M@GNLMHCDK@force_speed?$AA@ 300a6690     cg_consolecmds.obj
 0002:0000d69c       ??_C@_0L@INHFGGPP@force_heal?$AA@ 300a669c     cg_consolecmds.obj
 0002:0000d6a8       ??_C@_0M@HCFMJNJ@engage_duel?$AA@ 300a66a8     cg_consolecmds.obj
 0002:0000d6b4       ??_C@_0P@LACKILCD@sv_saberswitch?$AA@ 300a66b4     cg_consolecmds.obj
 0002:0000d6c4       ??_C@_0N@ILCIJPJM@sv_forceprev?$AA@ 300a66c4     cg_consolecmds.obj
 0002:0000d6d4       ??_C@_0N@LPPOILPI@sv_forcenext?$AA@ 300a66d4     cg_consolecmds.obj
 0002:0000d6e4       ??_C@_0L@GDMPDMAO@sv_invprev?$AA@ 300a66e4     cg_consolecmds.obj
 0002:0000d6f0       ??_C@_0L@FHBJCIGK@sv_invnext?$AA@ 300a66f0     cg_consolecmds.obj
 0002:0000d6fc       ??_C@_0N@GENKAHPG@forcechanged?$AA@ 300a66fc     cg_consolecmds.obj
 0002:0000d70c       ??_C@_0BB@EBBFPMHD@ghosts?1?$CFs?4BOO_?$CFs?$AA@ 300a670c     cg_consolecmds.obj
 0002:0000d720       ??_C@_06PNCHNKIK@ghosts?$AA@ 300a6720     cg_consolecmds.obj
 0002:0000d728       ??_C@_08FCFPNNHF@protocol?$AA@ 300a6728     cg_consolecmds.obj
 0002:0000d734       ??_C@_0BN@NENGJNCM@Error?3?5Ghost?5already?5in?5use?6?$AA@ 300a6734     cg_consolecmds.obj
 0002:0000d754       ??_C@_0BD@KBOBONEI@Filename?5required?6?$AA@ 300a6754     cg_consolecmds.obj
 0002:0000d768       ??_C@_0BH@NGMICHNB@Error?3?5File?5not?5found?6?$AA@ 300a6768     cg_consolecmds.obj
 0002:0000d780       ??_C@_0O@JOENAPKJ@vehicle_right?$AA@ 300a6780     cg_draw.obj
 0002:0000d790       ??_C@_0N@MEBBOBD@vehicle_left?$AA@ 300a6790     cg_draw.obj
 0002:0000d7a0       ??_C@_0N@PHICPLFA@vehicle_back?$AA@ 300a67a0     cg_draw.obj
 0002:0000d7b0       ??_C@_0O@NAADLNOK@vehicle_front?$AA@ 300a67b0     cg_draw.obj
 0002:0000d7c0       ??_C@_0N@PIKOAACM@SABER_THROW2?$AA@ 300a67c0     cg_draw.obj
 0002:0000d7d0       ??_C@_0P@EJLFCBNE@SABER_DEFENSE2?$AA@ 300a67d0     cg_draw.obj
 0002:0000d7e0       ??_C@_0P@EFGPLIOK@SABER_OFFENSE2?$AA@ 300a67e0     cg_draw.obj
 0002:0000d7f0       ??_C@_07LOFPMPLA@SEEING2?$AA@ 300a67f0     cg_draw.obj
 0002:0000d7f8       ??_C@_06IHGKEKOC@DRAIN2?$AA@ 300a67f8     cg_draw.obj
 0002:0000d800       ??_C@_0BA@PGEKMKPK@TEAM_REPLENISH2?$AA@ 300a6800     cg_draw.obj
 0002:0000d810       ??_C@_0L@EOCADFMC@TEAM_HEAL2?$AA@ 300a6810     cg_draw.obj
 0002:0000d81c       ??_C@_07DKNPJIC@ABSORB2?$AA@ 300a681c     cg_draw.obj
 0002:0000d824       ??_C@_08MGIMODBK@PROTECT2?$AA@ 300a6824     cg_draw.obj
 0002:0000d830       ??_C@_0L@MHGIMFCO@DARK_RAGE2?$AA@ 300a6830     cg_draw.obj
 0002:0000d83c       ??_C@_0L@DOELCCHN@LIGHTNING2?$AA@ 300a683c     cg_draw.obj
 0002:0000d848       ??_C@_05HJGDJFFF@GRIP2?$AA@ 300a6848     cg_draw.obj
 0002:0000d850       ??_C@_0L@ILKNLNPA@MINDTRICK2?$AA@ 300a6850     cg_draw.obj
 0002:0000d85c       ??_C@_05PHHCNBEA@PULL2?$AA@ 300a685c     cg_draw.obj
 0002:0000d864       ??_C@_05PIABDOFF@PUSH2?$AA@ 300a6864     cg_draw.obj
 0002:0000d86c       ??_C@_06NKBKNFAH@SPEED2?$AA@ 300a686c     cg_draw.obj
 0002:0000d874       ??_C@_05PILPMNMM@JUMP2?$AA@ 300a6874     cg_draw.obj
 0002:0000d87c       ??_C@_05IKHNBOOJ@HEAL2?$AA@ 300a687c     cg_draw.obj
 0002:0000d884       ??_C@_09PPHDNFHI@ammo_tic4?$AA@ 300a6884     cg_draw.obj
 0002:0000d890       ??_C@_09LADCEDLP@ammo_tic3?$AA@ 300a6890     cg_draw.obj
 0002:0000d89c       ??_C@_09KJCJHCPO@ammo_tic2?$AA@ 300a689c     cg_draw.obj
 0002:0000d8a8       ??_C@_09ICAECBDN@ammo_tic1?$AA@ 300a68a8     cg_draw.obj
 0002:0000d8b4       ??_C@_0L@BDFFKAPG@force_tic4?$AA@ 300a68b4     cg_draw.obj
 0002:0000d8c0       ??_C@_0L@FMBEDGDB@force_tic3?$AA@ 300a68c0     cg_draw.obj
 0002:0000d8cc       ??_C@_0L@EFAPAHHA@force_tic2?$AA@ 300a68cc     cg_draw.obj
 0002:0000d8d8       ??_C@_0L@GOCCFELD@force_tic1?$AA@ 300a68d8     cg_draw.obj
 0002:0000d8e4       ??_C@_0M@NJNJFLCA@health_tic4?$AA@ 300a68e4     cg_draw.obj
 0002:0000d8f0       ??_C@_0M@JGJIMNOH@health_tic3?$AA@ 300a68f0     cg_draw.obj
 0002:0000d8fc       ??_C@_0M@IPIDPMKG@health_tic2?$AA@ 300a68fc     cg_draw.obj
 0002:0000d908       ??_C@_0M@KEKOKPGF@health_tic1?$AA@ 300a6908     cg_draw.obj
 0002:0000d914       ??_C@_0L@GOJBIFIC@armor_tic4?$AA@ 300a6914     cg_draw.obj
 0002:0000d920       ??_C@_0L@CBNABDEF@armor_tic3?$AA@ 300a6920     cg_draw.obj
 0002:0000d92c       ??_C@_0L@DIMLCCAE@armor_tic2?$AA@ 300a692c     cg_draw.obj
 0002:0000d938       ??_C@_0L@BDOGHBMH@armor_tic1?$AA@ 300a6938     cg_draw.obj
 0002:0000d944       __real@43808000            300a6944     cg_draw.obj
 0002:0000d948       __real@43d98000            300a6948     cg_draw.obj
 0002:0000d950       __real@4060c00000000000    300a6950     cg_draw.obj
 0002:0000d958       __real@4097700000000000    300a6958     cg_draw.obj
 0002:0000d960       __real@404ca5e360000000    300a6960     cg_draw.obj
 0002:0000d968       __real@4032800000000000    300a6968     cg_draw.obj
 0002:0000d970       __real@41940000            300a6970     cg_draw.obj
 0002:0000d978       __real@404d000000000000    300a6978     cg_draw.obj
 0002:0000d980       __real@3e19999a            300a6980     cg_draw.obj
 0002:0000d984       __real@43a00000            300a6984     cg_draw.obj
 0002:0000d988       __real@43700000            300a6988     cg_draw.obj
 0002:0000d98c       __real@42c60000            300a698c     cg_draw.obj
 0002:0000d990       __real@4059c00000000000    300a6990     cg_draw.obj
 0002:0000d998       __real@3fef5c2900000000    300a6998     cg_draw.obj
 0002:0000d9a0       __real@43998000            300a69a0     cg_draw.obj
 0002:0000d9a4       __real@41d00000            300a69a4     cg_draw.obj
 0002:0000d9a8       __real@43a50000            300a69a8     cg_draw.obj
 0002:0000d9ac       __real@c1d00000            300a69ac     cg_draw.obj
 0002:0000d9b0       __real@4071a00000000000    300a69b0     cg_draw.obj
 0002:0000d9b8       __real@44200000            300a69b8     cg_draw.obj
 0002:0000d9bc       __real@43f00000            300a69bc     cg_draw.obj
 0002:0000d9c0       __real@3fe6666660000000    300a69c0     cg_draw.obj
 0002:0000d9c8       __real@40dfffc000000000    300a69c8     cg_draw.obj
 0002:0000d9d0       __real@42a40000            300a69d0     cg_draw.obj
 0002:0000d9d4       __real@42bc0000            300a69d4     cg_draw.obj
 0002:0000d9d8       __real@3f847ae140000000    300a69d8     cg_draw.obj
 0002:0000d9e0       __real@41e00000            300a69e0     cg_draw.obj
 0002:0000d9e4       __real@43bc0000            300a69e4     cg_draw.obj
 0002:0000d9e8       __real@40c00000            300a69e8     cg_draw.obj
 0002:0000d9ec       __real@43540000            300a69ec     cg_draw.obj
 0002:0000d9f0       __real@43b78000            300a69f0     cg_draw.obj
 0002:0000d9f4       __real@43480000            300a69f4     cg_draw.obj
 0002:0000d9f8       __real@42080000            300a69f8     cg_draw.obj
 0002:0000d9fc       __real@42400000            300a69fc     cg_draw.obj
 0002:0000da00       __real@440e8000            300a6a00     cg_draw.obj
 0002:0000da04       __real@43b50000            300a6a04     cg_draw.obj
 0002:0000da08       __real@4064400000000000    300a6a08     cg_draw.obj
 0002:0000da10       __real@3fd126e978d4fdf4    300a6a10     cg_draw.obj
 0002:0000da18       ??_C@_0N@DHHIJOLI@healthamount?$AA@ 300a6a18     cg_draw.obj
 0002:0000da28       ??_C@_0M@PBHBEKC@armoramount?$AA@ 300a6a28     cg_draw.obj
 0002:0000da34       ??_C@_0BC@LKLFAMKI@saberstyle_strong?$AA@ 300a6a34     cg_draw.obj
 0002:0000da48       ??_C@_0BC@GFIJKDOA@saberstyle_medium?$AA@ 300a6a48     cg_draw.obj
 0002:0000da5c       ??_C@_0BA@EHENGAJC@saberstyle_fast?$AA@ 300a6a5c     cg_draw.obj
 0002:0000da6c       ??_C@_02BAABKJLB@?9?9?$AA@ 300a6a6c     cg_draw.obj
 0002:0000da70       ??_C@_0N@PHNNNPHC@ammoinfinite?$AA@ 300a6a70     cg_draw.obj
 0002:0000da80       ??_C@_0L@FCOOONPA@ammoamount?$AA@ 300a6a80     cg_draw.obj
 0002:0000da8c       ??_C@_0M@FIACGFKC@forceamount?$AA@ 300a6a8c     cg_draw.obj
 0002:0000da98       __real@4039000000000000    300a6a98     cg_draw.obj
 0002:0000daa0       ??_C@_0L@MALOJPGH@score_line?$AA@ 300a6aa0     cg_draw.obj
 0002:0000daac       ??_C@_08DNKNJDF@righthud?$AA@ 300a6aac     cg_draw.obj
 0002:0000dab8       ??_C@_06LDLKBCCJ@?$CFs?3?5?$CFi?$AA@ 300a6ab8     cg_draw.obj
 0002:0000dac0       ??_C@_09BGDELMBA@?$CFs?3?5?$CFi?1?$CFi?$AA@ 300a6ac0     cg_draw.obj
 0002:0000dacc       ??_C@_05PKDFAPGJ@SCORE?$AA@ 300a6acc     cg_draw.obj
 0002:0000dad4       ??_C@_05MIJNFGED@frame?$AA@ 300a6ad4     cg_draw.obj
 0002:0000dadc       ??_C@_08NBKMMBGP@scanline?$AA@ 300a6adc     cg_draw.obj
 0002:0000dae8       ??_C@_07LLNBIHJM@lefthud?$AA@ 300a6ae8     cg_draw.obj
 0002:0000daf0       ??_C@_04HNOLJCOK@FAST?$AA@ 300a6af0     cg_draw.obj
 0002:0000daf8       ??_C@_06HMBFJLMK@MEDIUM?$AA@ 300a6af8     cg_draw.obj
 0002:0000db00       ??_C@_06KDCJDEIC@STRONG?$AA@ 300a6b00     cg_draw.obj
 0002:0000db08       ??_C@_05PICIGLKH@STAFF?$AA@ 300a6b08     cg_draw.obj
 0002:0000db10       ??_C@_06NNBCBEFP@AKIMBO?$AA@ 300a6b10     cg_draw.obj
 0002:0000db18       ??_C@_09GIPEEPLK@SP_INGAME?$AA@ 300a6b18     cg_draw.obj
 0002:0000db24       __real@43910000            300a6b24     cg_draw.obj
 0002:0000db28       __real@43cd0000            300a6b28     cg_draw.obj
 0002:0000db2c       __real@43d48000            300a6b2c     cg_draw.obj
 0002:0000db30       __real@4095e00000000000    300a6b30     cg_draw.obj
 0002:0000db38       ??_C@_0N@KMACKPKL@SP_INGAME_?$CFs?$AA@ 300a6b38     cg_draw.obj
 0002:0000db48       __real@3f1ef9db            300a6b48     cg_draw.obj
 0002:0000db4c       __real@3e9fbe77            300a6b4c     cg_draw.obj
 0002:0000db50       __real@43d20000            300a6b50     cg_draw.obj
 0002:0000db54       ??_C@_0BA@HGJCONNI@EMPTY?5INVENTORY?$AA@ 300a6b54     cg_draw.obj
 0002:0000db64       ??_C@_0M@BPKNBEGN@armor_tic?$CFd?$AA@ 300a6b64     cg_draw.obj
 0002:0000db70       ??_C@_0BA@CCDAELNC@armorbackground?$AA@ 300a6b70     cg_draw.obj
 0002:0000db80       __real@3f747ae147ae147b    300a6b80     cg_draw.obj
 0002:0000db88       ??_C@_0L@ECFEONDP@ammo_tic?$CFd?$AA@ 300a6b88     cg_draw.obj
 0002:0000db94       ??_C@_0P@CJIFLDBJ@ammobackground?$AA@ 300a6b94     cg_draw.obj
 0002:0000dba4       ??_C@_0BA@KDHCKNDD@ammoupper_tic?$CFd?$AA@ 300a6ba4     cg_draw.obj
 0002:0000dbb4       ??_C@_0BE@HBKNAKL@ammoupperbackground?$AA@ 300a6bb4     cg_draw.obj
 0002:0000dbc8       ??_C@_0BA@ONBBFBCK@ammolower_tic?$CFd?$AA@ 300a6bc8     cg_draw.obj
 0002:0000dbd8       ??_C@_0BE@EJGBBGPJ@ammolowerbackground?$AA@ 300a6bd8     cg_draw.obj
 0002:0000dbec       ??_C@_0O@LCKIPAPA@turborecharge?$AA@ 300a6bec     cg_draw.obj
 0002:0000dbfc       ??_C@_0O@IPDIHBJJ@weaponslinked?$AA@ 300a6bfc     cg_draw.obj
 0002:0000dc0c       ??_C@_0M@JLMPCMAJ@speed_tic?$CFd?$AA@ 300a6c0c     cg_draw.obj
 0002:0000dc18       ??_C@_0BA@BBCNBLC@speedbackground?$AA@ 300a6c18     cg_draw.obj
 0002:0000dc28       ??_C@_0N@OMMCLJEJ@shield_tic?$CFd?$AA@ 300a6c28     cg_draw.obj
 0002:0000dc38       ??_C@_0BB@BKBBGJEG@shieldbackground?$AA@ 300a6c38     cg_draw.obj
 0002:0000dc4c       ??_C@_0M@FIHNCPN@outer_frame?$AA@ 300a6c4c     cg_draw.obj
 0002:0000dc58       ??_C@_0L@EGCKCJDC@background?$AA@ 300a6c58     cg_draw.obj
 0002:0000dc64       ??_C@_0BG@LENGIJP@enemyvehicledamagehud?$AA@ 300a6c64     cg_draw.obj
 0002:0000dc7c       ??_C@_0BB@LKHHKMDL@vehicledamagehud?$AA@ 300a6c7c     cg_draw.obj
 0002:0000dc90       ??_C@_0L@LKEPCBNP@rightframe?$AA@ 300a6c90     cg_draw.obj
 0002:0000dc9c       ??_C@_09EJFJOCIH@leftframe?$AA@ 300a6c9c     cg_draw.obj
 0002:0000dca8       ??_C@_0BA@JPPCKGIP@swoopvehiclehud?$AA@ 300a6ca8     cg_draw.obj
 0002:0000dcb8       __real@440f4000            300a6cb8     cg_draw.obj
 0002:0000dcbc       ??_C@_05IFECLAII@?5?$CFs?3?5?$AA@ 300a6cbc     cg_draw.obj
 0002:0000dcc4       ??_C@_04CNFFLDFF@BLUE?$AA@ 300a6cc4     cg_draw.obj
 0002:0000dccc       ??_C@_01JOAMLHOP@?9?$AA@   300a6ccc     cg_draw.obj
 0002:0000dcd0       ??_C@_04PFAOODAA@?$CFs?3?5?$AA@ 300a6cd0     cg_draw.obj
 0002:0000dcd8       ??_C@_03FNPLCCOA@RED?$AA@  300a6cd8     cg_draw.obj
 0002:0000dcdc       ??_C@_0BH@OGHHEKME@time?3?$CFi?5snap?3?$CFi?5cmd?3?$CFi?$AA@ 300a6cdc     cg_draw.obj
 0002:0000dcf4       ??_C@_0P@HHOGNHGP@?$CFifps?5?$CIsv?3?5?$CFi?$CJ?$AA@ 300a6cf4     cg_draw.obj
 0002:0000dd04       ??_C@_05MDNADFFP@?$CFifps?$AA@ 300a6d04     cg_draw.obj
 0002:0000dd10       __real@405e000000000000    300a6d10     cg_draw.obj
 0002:0000dd18       __real@44110000            300a6d18     cg_draw.obj
 0002:0000dd1c       __real@40f00000            300a6d1c     cg_draw.obj
 0002:0000dd20       __real@3fecccccc0000000    300a6d20     cg_draw.obj
 0002:0000dd28       ??_C@_0BD@NPDPLFMD@team?$CFi_objective?$CFi?$AA@ 300a6d28     cg_draw.obj
 0002:0000dd40       __real@3f80000000000000    300a6d40     cg_draw.obj
 0002:0000dd48       __real@3f50000000000000    300a6d48     cg_draw.obj
 0002:0000dd50       __real@40a7700000000000    300a6d50     cg_draw.obj
 0002:0000dd58       __real@453b8000            300a6d58     cg_draw.obj
 0002:0000dd5c       __real@41100000            300a6d5c     cg_draw.obj
 0002:0000dd60       __real@409ef00020000000    300a6d60     cg_draw.obj
 0002:0000dd68       __real@408c200000000000    300a6d68     cg_draw.obj
 0002:0000dd70       __real@3f59999a            300a6d70     cg_draw.obj
 0002:0000dd78       __real@c07f400000000000    300a6d78     cg_draw.obj
 0002:0000dd80       __real@40aa0aaaa0000000    300a6d80     cg_draw.obj
 0002:0000dd88       __real@40b9c80020000000    300a6d88     cg_draw.obj
 0002:0000dd90       __real@461c4000            300a6d90     cg_draw.obj
 0002:0000dd98       __real@4092c00000000000    300a6d98     cg_draw.obj
 0002:0000dda0       __real@40c3880000000000    300a6da0     cg_draw.obj
 0002:0000dda8       __real@4022000000000000    300a6da8     cg_draw.obj
 0002:0000ddb0       __real@3f30000000000000    300a6db0     cg_draw.obj
 0002:0000ddb8       __real@4082200000000000    300a6db8     cg_draw.obj
 0002:0000ddc0       __real@44020000            300a6dc0     cg_draw.obj
 0002:0000ddc4       __real@42f00000            300a6dc4     cg_draw.obj
 0002:0000ddc8       ??_C@_0N@CJNJOGFO@?$CFi?3?$CF02i?4?$CF03i?$AA@ 300a6dc8     cg_draw.obj
 0002:0000ddd8       ??_C@_07NCJKFOGD@?$CFi?5jump?$AA@ 300a6dd8     cg_draw.obj
 0002:0000dde0       ??_C@_07IJGKEFOO@?$CFi?5Zvel?$AA@ 300a6de0     cg_draw.obj
 0002:0000dde8       ??_C@_08MNFHFLLB@?$CFi?5XYvel?$AA@ 300a6de8     cg_draw.obj
 0002:0000ddf4       ??_C@_07FJAEFGNG@?$CF3i?5?$CF3i?$AA@ 300a6df4     cg_draw.obj
 0002:0000ddfc       ??_C@_07CIFAGBMG@unknown?$AA@ 300a6dfc     cg_draw.obj
 0002:0000de04       __real@3ea8f5c3            300a6e04     cg_draw.obj
 0002:0000de08       __real@4082cccccccccccd    300a6e08     cg_draw.obj
 0002:0000de10       __real@4081cccccccccccd    300a6e10     cg_draw.obj
 0002:0000de18       ??_C@_0BF@IAOLIPJ@gfx?1hud?1mpi_rflag_ys?$AA@ 300a6e18     cg_draw.obj
 0002:0000de30       ??_C@_0BF@KEMOPKII@gfx?1hud?1mpi_bflag_ys?$AA@ 300a6e30     cg_draw.obj
 0002:0000de48       __real@44140000            300a6e48     cg_draw.obj
 0002:0000de4c       __real@43d80000            300a6e4c     cg_draw.obj
 0002:0000de50       ??_C@_0P@NNJCDNEK@gfx?12d?1net?4tga?$AA@ 300a6e50     cg_draw.obj
 0002:0000de60       ??_C@_0BH@FMIOKFKB@CONNECTION_INTERRUPTED?$AA@ 300a6e60     cg_draw.obj
 0002:0000de78       ??_C@_0M@ONDMCFFB@PLEASE_WAIT?$AA@ 300a6e78     cg_draw.obj
 0002:0000de84       ??_C@_0BF@CNEFMHOP@SERVER_CHANGING_MAPS?$AA@ 300a6e84     cg_draw.obj
 0002:0000de9c       ??_C@_03KLKIPBNP@snc?$AA@  300a6e9c     cg_draw.obj
 0002:0000dea0       __real@43b40000            300a6ea0     cg_draw.obj
 0002:0000dea8       __real@4078000000000000    300a6ea8     cg_draw.obj
 0002:0000deb0       __real@3f9b4e81c0000000    300a6eb0     cg_draw.obj
 0002:0000deb8       __real@43b00000            300a6eb8     cg_draw.obj
 0002:0000dec0       __real@4084000000000000    300a6ec0     cg_draw.obj
 0002:0000dec8       __real@4076000000000000    300a6ec8     cg_draw.obj
 0002:0000ded0       __real@3fab4e81c0000000    300a6ed0     cg_draw.obj
 0002:0000ded8       __real@43a80000            300a6ed8     cg_draw.obj
 0002:0000dedc       ??_C@_0BA@JDLOJMCJ@cg_siegeMessage?$AA@ 300a6edc     cg_draw.obj
 0002:0000deec       ??_C@_0BJ@KBGFPHJH@MP_INGAME_KILLED_MESSAGE?$AA@ 300a6eec     cg_draw.obj
 0002:0000df08       ??_C@_0L@MIIDNALC@siegeclass?$AA@ 300a6f08     cg_draw.obj
 0002:0000df14       __real@43cd8000            300a6f14     cg_draw.obj
 0002:0000df18       __real@43ff8000            300a6f18     cg_draw.obj
 0002:0000df20       __real@4079b00000000000    300a6f20     cg_draw.obj
 0002:0000df28       __real@4048800000000000    300a6f28     cg_draw.obj
 0002:0000df30       __real@43ff0000            300a6f30     cg_draw.obj
 0002:0000df38       __real@407e000000000000    300a6f38     cg_draw.obj
 0002:0000df40       __real@407f400000000000    300a6f40     cg_draw.obj
 0002:0000df48       __real@4058000000000000    300a6f48     cg_draw.obj
 0002:0000df50       __real@4059800000000000    300a6f50     cg_draw.obj
 0002:0000df58       __real@3c23d70a            300a6f58     cg_draw.obj
 0002:0000df60       __real@4082c00000000000    300a6f60     cg_draw.obj
 0002:0000df68       ??_C@_0BH@MAPMCHKH@gfx?1effects?1saberFlare?$AA@ 300a6f68     cg_draw.obj
 0002:0000df80       __real@3a83126f            300a6f80     cg_draw.obj
 0002:0000df84       ??_C@_0M@GFKDFJGL@gfx?12d?1lock?$AA@ 300a6f84     cg_draw.obj
 0002:0000df90       __real@3fa99999a0000000    300a6f90     cg_draw.obj
 0002:0000df98       __real@4046800000000000    300a6f98     cg_draw.obj
 0002:0000dfa0       ??_C@_0N@HFODKPEP@gfx?12d?1wedge?$AA@ 300a6fa0     cg_draw.obj
 0002:0000dfb0       ??_C@_0BO@NPGLCAPC@sound?1weapons?1rocket?1tick?4wav?$AA@ 300a6fb0     cg_draw.obj
 0002:0000dfd0       ??_C@_0BO@OBMMJBM@sound?1weapons?1rocket?1lock?4wav?$AA@ 300a6fd0     cg_draw.obj
 0002:0000dff0       __real@3fb0000000000000    300a6ff0     cg_draw.obj
 0002:0000dff8       __real@45160000            300a6ff8     cg_draw.obj
 0002:0000e000       __real@4048000000000000    300a7000     cg_draw.obj
 0002:0000e008       ??_C@_0N@MEJHFJDP@?$CKcannonflash?$AA@ 300a7008     cg_draw.obj
 0002:0000e018       ??_C@_0BA@OGEGDHKE@WAITING_TO_PLAY?$AA@ 300a7018     cg_draw.obj
 0002:0000e028       ??_C@_0BA@EJICBNBF@SPEC_CHOOSEJOIN?$AA@ 300a7028     cg_draw.obj
 0002:0000e038       __real@43966666            300a7038     cg_draw.obj
 0002:0000e03c       ??_C@_05PPJGDEGI@?$CFi?1?$CFi?$AA@ 300a703c     cg_draw.obj
 0002:0000e044       __real@43ba0000            300a7044     cg_draw.obj
 0002:0000e048       __real@440d8000            300a7048     cg_draw.obj
 0002:0000e04c       __real@43c00000            300a704c     cg_draw.obj
 0002:0000e050       ??_C@_0L@PHFNKFJL@?$CFs?$FO7?5?$CFs?5?$CFs?$AA@ 300a7050     cg_draw.obj
 0002:0000e05c       ??_C@_0BD@KEONDFIM@?$CFs?$FO7?5?$CFs?5?$CFs?$FO7?5?$CFs?5?$CFs?$AA@ 300a705c     cg_draw.obj
 0002:0000e070       ??_C@_0P@DEEIGBMI@SPECHUD_VERSUS?$AA@ 300a7070     cg_draw.obj
 0002:0000e080       ??_C@_03BDACDFHA@AND?$AA@  300a7080     cg_draw.obj
 0002:0000e084       ??_C@_09GNDCBOBP@SPECTATOR?$AA@ 300a7084     cg_draw.obj
 0002:0000e090       ??_C@_0BN@JCPMKMDP@OR_PRESS_ESC_THEN_CLICK_VOTE?$AA@ 300a7090     cg_draw.obj
 0002:0000e0b0       ??_C@_0BI@PGAFFJKF@?$CFs?$CI?$CFi?$CJ?3?$DM?$CFs?$DO?5?$CFs?3?$CFi?5?$CFs?3?$CFi?$AA@ 300a70b0     cg_draw.obj
 0002:0000e0c8       ??_C@_0BL@FBILOGIK@?$CFs?$CI?$CFi?$CJ?3?$DM?$CFs?5?$CFs?$DO?5?$CFs?3?$CFi?5?$CFs?3?$CFi?$AA@ 300a70c8     cg_draw.obj
 0002:0000e0e4       ??_C@_08POBJANAH@MENUS_NO?$AA@ 300a70e4     cg_draw.obj
 0002:0000e0f0       ??_C@_09MPFFGIMJ@MENUS_YES?$AA@ 300a70f0     cg_draw.obj
 0002:0000e0fc       ??_C@_0L@IHNLPFAM@MENUS_VOTE?$AA@ 300a70fc     cg_draw.obj
 0002:0000e108       ??_C@_04HFHLCKAN@?5vs?5?$AA@ 300a7108     cg_draw.obj
 0002:0000e110       ??_C@_05HOMNMGAK@Capt?3?$AA@ 300a7110     cg_draw.obj
 0002:0000e118       ??_C@_07NPIGDIDB@pugcapt?$AA@ 300a7118     cg_draw.obj
 0002:0000e120       ??_C@_0BC@IBOFMGKA@MENUS_KICK_PLAYER?$AA@ 300a7120     cg_draw.obj
 0002:0000e134       ??_C@_04FNIJDBCC@kick?$AA@ 300a7134     cg_draw.obj
 0002:0000e13c       ??_C@_0O@HEKHFFFJ@MENUS_NEW_MAP?$AA@ 300a713c     cg_draw.obj
 0002:0000e14c       ??_C@_03HBNNNHNM@map?$AA@  300a714c     cg_draw.obj
 0002:0000e150       ??_C@_0BG@NKPMOGAN@CAPTURE_THE_YSALIMARI?$AA@ 300a7150     cg_draw.obj
 0002:0000e168       ??_C@_0BG@BKPINHAJ@Capture?5the?5Ysalamiri?$AA@ 300a7168     cg_draw.obj
 0002:0000e180       ??_C@_0BB@NFDNICPD@CAPTURE_THE_FLAG?$AA@ 300a7180     cg_draw.obj
 0002:0000e194       ??_C@_0BB@OOIHNFAG@Capture?5the?5Flag?$AA@ 300a7194     cg_draw.obj
 0002:0000e1a8       ??_C@_05MFNFJGDH@SIEGE?$AA@ 300a71a8     cg_draw.obj
 0002:0000e1b0       ??_C@_05JOPHEEP@Siege?$AA@ 300a71b0     cg_draw.obj
 0002:0000e1b8       ??_C@_08JPMGIABA@TEAM_FFA?$AA@ 300a71b8     cg_draw.obj
 0002:0000e1c4       ??_C@_08NFCDKJPC@Team?5FFA?$AA@ 300a71c4     cg_draw.obj
 0002:0000e1d0       ??_C@_09NHOBJKNB@POWERDUEL?$AA@ 300a71d0     cg_draw.obj
 0002:0000e1dc       ??_C@_0L@MKHOILHK@Power?5Duel?$AA@ 300a71dc     cg_draw.obj
 0002:0000e1e8       ??_C@_05ONMCFNBF@MENUS?$AA@ 300a71e8     cg_draw.obj
 0002:0000e1f0       ??_C@_0N@IFFHBAH@HOLOCRON_FFA?$AA@ 300a71f0     cg_draw.obj
 0002:0000e200       ??_C@_0N@BBLBINLJ@Holocron?5FFA?$AA@ 300a7200     cg_draw.obj
 0002:0000e210       ??_C@_04ECOAEGNJ@DUEL?$AA@ 300a7210     cg_draw.obj
 0002:0000e218       ??_C@_04EPBLILKF@Duel?$AA@ 300a7218     cg_draw.obj
 0002:0000e220       ??_C@_0N@OPJELAJP@FREE_FOR_ALL?$AA@ 300a7220     cg_draw.obj
 0002:0000e230       ??_C@_0N@PCEMCJC@Free?5For?5All?$AA@ 300a7230     cg_draw.obj
 0002:0000e240       ??_C@_0BA@IFPAMCHM@MENUS_GAME_TYPE?$AA@ 300a7240     cg_draw.obj
 0002:0000e250       ??_C@_0L@GFINLBEC@g_gametype?$AA@ 300a7250     cg_draw.obj
 0002:0000e25c       ??_C@_0N@GHCHMIMA@MENUS_WARMUP?$AA@ 300a725c     cg_draw.obj
 0002:0000e26c       ??_C@_0L@LPENDGCI@g_doWarmup?$AA@ 300a726c     cg_draw.obj
 0002:0000e278       ??_C@_0P@HJOFCBGG@MENUS_NEXT_MAP?$AA@ 300a7278     cg_draw.obj
 0002:0000e288       ??_C@_0N@NPFCFAAA@vstr?5nextmap?$AA@ 300a7288     cg_draw.obj
 0002:0000e298       ??_C@_0BC@GKCGBOPB@MENUS_RESTART_MAP?$AA@ 300a7298     cg_draw.obj
 0002:0000e2ac       ??_C@_0M@NBIMEKNE@map_restart?$AA@ 300a72ac     cg_draw.obj
 0002:0000e2b8       ??_C@_0BN@CPIJHJOL@TEAMVOTE?$CI?$CFi?$CJ?3?$CFs?5yes?3?$CFi?5no?3?$CFi?$AA@ 300a72b8     cg_draw.obj
 0002:0000e2d8       ??_C@_0DI@OLEEFICH@TEAMVOTE?$CI?$CFi?$CJ?3?$CIMake?5?$CFs?5the?5new?5te@ 300a72d8     cg_draw.obj
 0002:0000e310       ??_C@_06DFLPLEOP@leader?$AA@ 300a7310     cg_draw.obj
 0002:0000e318       ??_C@_0O@PMBDMEKO@Out?5of?5Range?$CB?$AA@ 300a7318     cg_draw.obj
 0002:0000e328       ??_C@_09CEHOCBMK@FOLLOWING?$AA@ 300a7328     cg_draw.obj
 0002:0000e334       ??_C@_0BA@IDFMPEMP@FOLLOWINGDOUBLE?$AA@ 300a7334     cg_draw.obj
 0002:0000e344       ??_C@_0O@ELOHELF@FOLLOWINGLONE?$AA@ 300a7344     cg_draw.obj
 0002:0000e354       __real@3fa00000            300a7354     cg_draw.obj
 0002:0000e358       __real@3f933333            300a7358     cg_draw.obj
 0002:0000e35c       __real@3f866666            300a735c     cg_draw.obj
 0002:0000e360       ??_C@_09FKOGLEJP@STARTS_IN?$AA@ 300a7360     cg_draw.obj
 0002:0000e36c       ??_C@_08MFFNPGJB@?$CFs?5vs?5?$CFs?$AA@ 300a736c     cg_draw.obj
 0002:0000e378       ??_C@_0BA@BLDJAJGC@?$CFs?5vs?5?$CFs?5and?5?$CFs?$AA@ 300a7378     cg_draw.obj
 0002:0000e388       __real@3fc00000            300a7388     cg_draw.obj
 0002:0000e38c       ??_C@_0BE@ECCNBCF@WAITING_FOR_PLAYERS?$AA@ 300a738c     cg_draw.obj
 0002:0000e3a0       __real@43a40000            300a73a0     cg_draw.obj
 0002:0000e3a4       ??_C@_0BE@MPCJPEKB@gfx?1hud?1mpi_bflag_x?$AA@ 300a73a4     cg_draw.obj
 0002:0000e3b8       ??_C@_0BE@LDJCMFIK@gfx?1hud?1mpi_rflag_x?$AA@ 300a73b8     cg_draw.obj
 0002:0000e3cc       __real@43828000            300a73cc     cg_draw.obj
 0002:0000e3d0       __real@44194000            300a73d0     cg_draw.obj
 0002:0000e3d8       __real@4070500000000000    300a73d8     cg_draw.obj
 0002:0000e3e0       __real@41980000            300a73e0     cg_draw.obj
 0002:0000e3e8       __real@4058c00000000000    300a73e8     cg_draw.obj
 0002:0000e3f0       __real@44190000            300a73f0     cg_draw.obj
 0002:0000e3f4       __real@43820000            300a73f4     cg_draw.obj
 0002:0000e3f8       __real@43918000            300a73f8     cg_draw.obj
 0002:0000e400       __real@4072300000000000    300a7400     cg_draw.obj
 0002:0000e408       __real@403c000000000000    300a7408     cg_draw.obj
 0002:0000e410       __real@44120000            300a7410     cg_draw.obj
 0002:0000e414       ??_C@_05NAPFDJNG@timer?$AA@ 300a7414     cg_draw.obj
 0002:0000e41c       ??_C@_07PKFONIJM@?$CFi?3?$CF02i?$AA@ 300a741c     cg_draw.obj
 0002:0000e424       ??_C@_08FDNPOCOG@mp_timer?$AA@ 300a7424     cg_draw.obj
 0002:0000e430       ??_C@_0L@GCIALBI@deathtimer?$AA@ 300a7430     cg_draw.obj
 0002:0000e43c       ??_C@_05JIFBJDMF@?$CFi?3?$CFi?$AA@ 300a743c     cg_draw.obj
 0002:0000e444       ??_C@_06EBOOGEEL@?$CFi?30?$CFi?$AA@ 300a7444     cg_draw.obj
 0002:0000e44c       ??_C@_0L@BOEAGEIN@deathframe?$AA@ 300a744c     cg_draw.obj
 0002:0000e458       __real@44098000            300a7458     cg_draw.obj
 0002:0000e45c       ??_C@_0CM@OKKPOFIP@CG_ChatBox_ArrayInsert?3?5Exceeded@ 300a745c     cg_draw.obj
 0002:0000e488       __real@4029fffff0000000    300a7488     cg_draw.obj
 0002:0000e490       __real@3fc3333340000000    300a7490     cg_draw.obj
 0002:0000e498       __real@3fc3333333333333    300a7498     cg_draw.obj
 0002:0000e4a0       __real@3ed4f8b588e368f1    300a74a0     cg_draw.obj
 0002:0000e4a8       __real@40c1940000000000    300a74a8     cg_draw.obj
 0002:0000e4b0       __real@48960000            300a74b0     cg_draw.obj
 0002:0000e4b8       __real@4081f80000000000    300a74b8     cg_draw.obj
 0002:0000e4c0       ??_C@_06DBJEGKDN@LEADER?$AA@ 300a74c0     cg_draw.obj
 0002:0000e4c8       ??_C@_07KHFBGKLJ@DUELING?$AA@ 300a74c8     cg_draw.obj
 0002:0000e4d0       __real@4081c00000000000    300a74d0     cg_draw.obj
 0002:0000e4d8       ??_C@_09NAKPECJB@GET_SABER?$AA@ 300a74d8     cg_draw.obj
 0002:0000e4e8       __real@3fb47ae140000000    300a74e8     cg_draw.obj
 0002:0000e4f0       __real@4100000000000000    300a74f0     cg_draw.obj
 0002:0000e4f8       __real@469c4000            300a74f8     cg_draw.obj
 0002:0000e4fc       ??_C@_0L@DNAFAEJK@?$CFs?5?$CIpilot?$CJ?$AA@ 300a74fc     cg_draw.obj
 0002:0000e508       ??_C@_08IGIILICA@?$CFs?5?$CFi?4?4?4?$AA@ 300a7508     cg_draw.obj
 0002:0000e514       ??_C@_0O@NCEDBAEC@ROUNDBEGINSIN?$AA@ 300a7514     cg_draw.obj
 0002:0000e524       ??_C@_05PMAELIEO@white?$AA@ 300a7524     cg_draw.obj
 0002:0000e52c       ??_C@_0L@FFKAMJAN@r_showtris?$AA@ 300a752c     cg_draw.obj
 0002:0000e538       ??_C@_0CE@GNKHIBFA@CG_DrawActive?3?5Undefined?5stereoV@ 300a7538     cg_draw.obj
 0002:0000e55c       ??_C@_09IOAPNCJN@?$DMdefault?$DO?$AA@ 300a755c     cg_draw.obj
 0002:0000e568       __real@4040800000000000    300a7568     cg_drawtools.obj
 0002:0000e570       __real@3fa0000000000000    300a7570     cg_drawtools.obj
 0002:0000e578       __real@3ff3333340000000    300a7578     cg_drawtools.obj
 0002:0000e580       __real@42aa0000            300a7580     cg_effects.obj
 0002:0000e588       __real@3f9eb851e0000000    300a7588     cg_effects.obj
 0002:0000e590       __real@3f826e9780000000    300a7590     cg_effects.obj
 0002:0000e598       __real@3f2a36e2eb1c432d    300a7598     cg_effects.obj
 0002:0000e5a0       __real@3d23d70a            300a75a0     cg_effects.obj
 0002:0000e5a4       __real@3c1374bc            300a75a4     cg_effects.obj
 0002:0000e5a8       __real@3d4ccccd            300a75a8     cg_effects.obj
 0002:0000e5b0       __real@406b800000000000    300a75b0     cg_effects.obj
 0002:0000e5b8       ??_C@_0BO@IMOAEHBH@sound?1effects?1glassbreak1?4wav?$AA@ 300a75b8     cg_effects.obj
 0002:0000e5d8       ??_C@_0BD@HHBLDKKA@chunks?1rockbreaklg?$AA@ 300a75d8     cg_effects.obj
 0002:0000e5ec       ??_C@_0BE@GMAIKFHK@chunks?1rockbreakmed?$AA@ 300a75ec     cg_effects.obj
 0002:0000e600       ??_C@_0BB@IAFIADNA@chunks?1ropebreak?$AA@ 300a7600     cg_effects.obj
 0002:0000e614       ??_C@_0BE@FDCAJCD@chunks?1grateexplode?$AA@ 300a7614     cg_effects.obj
 0002:0000e628       ??_C@_0BE@FIGLPACF@chunks?1sparkexplode?$AA@ 300a7628     cg_effects.obj
 0002:0000e63c       ??_C@_0BE@PFGIPPAI@chunks?1metalexplode?$AA@ 300a763c     cg_effects.obj
 0002:0000e650       ??_C@_0BC@KHOJEJFN@chunks?1glassbreak?$AA@ 300a7650     cg_effects.obj
 0002:0000e668       __real@3ff4000000000000    300a7668     cg_effects.obj
 0002:0000e670       ??_C@_0BL@HGMHPONK@sound?1ambience?1spark?$CFd?4wav?$AA@ 300a7670     cg_effects.obj
 0002:0000e68c       ??_C@_08DMPOOPJI@generic6?$AA@ 300a768c     cg_ents.obj
 0002:0000e698       ??_C@_08BHNDLMFL@generic5?$AA@ 300a7698     cg_ents.obj
 0002:0000e6a4       ??_C@_08OMIINBK@generic4?$AA@ 300a76a4     cg_ents.obj
 0002:0000e6b0       ??_C@_08EBIJBLNN@generic3?$AA@ 300a76b0     cg_ents.obj
 0002:0000e6bc       ??_C@_08FIJCCKJM@generic2?$AA@ 300a76bc     cg_ents.obj
 0002:0000e6c8       ??_C@_08HDLPHJFP@generic1?$AA@ 300a76c8     cg_ents.obj
 0002:0000e6d4       ??_C@_09KBFFALMN@left?5hand?$AA@ 300a76d4     cg_ents.obj
 0002:0000e6e0       ??_C@_0L@FCEDMIJF@right?5hand?$AA@ 300a76e0     cg_ents.obj
 0002:0000e6ec       ??_C@_08IGACBHIA@left?5arm?$AA@ 300a76ec     cg_ents.obj
 0002:0000e6f8       ??_C@_09CJLAAHJC@right?5arm?$AA@ 300a76f8     cg_ents.obj
 0002:0000e704       ??_C@_05HIADHCOO@chest?$AA@ 300a7704     cg_ents.obj
 0002:0000e70c       ??_C@_0BE@NDAPDMBK@front?5left?5shoulder?$AA@ 300a770c     cg_ents.obj
 0002:0000e720       ??_C@_0BE@MOIKECPN@front?5right?5shouler?$AA@ 300a7720     cg_ents.obj
 0002:0000e734       ??_C@_04JFCNHLLM@back?$AA@ 300a7734     cg_ents.obj
 0002:0000e73c       ??_C@_0BD@NNOJNAAF@back?5left?5shoulder?$AA@ 300a773c     cg_ents.obj
 0002:0000e750       ??_C@_0BE@PCBICGBO@back?5right?5shoulder?$AA@ 300a7750     cg_ents.obj
 0002:0000e764       ??_C@_05KHICOPKK@waist?$AA@ 300a7764     cg_ents.obj
 0002:0000e76c       ??_C@_08JHOOJCCC@left?5leg?$AA@ 300a776c     cg_ents.obj
 0002:0000e778       ??_C@_09DIFMICDA@right?5leg?$AA@ 300a7778     cg_ents.obj
 0002:0000e784       ??_C@_09LFLKLKPJ@left?5foot?$AA@ 300a7784     cg_ents.obj
 0002:0000e790       ??_C@_0L@EGKMHJKB@right?5foot?$AA@ 300a7790     cg_ents.obj
 0002:0000e79c       ??_C@_0CG@PIHMAPBC@models?1map_objects?1mp?1saber_thro@ 300a779c     cg_ents.obj
 0002:0000e7c4       ??_C@_0CH@GLODINII@models?1map_objects?1mp?1saber_defe@ 300a77c4     cg_ents.obj
 0002:0000e7ec       ??_C@_0CH@EECFHMAE@models?1map_objects?1mp?1saber_atta@ 300a77ec     cg_ents.obj
 0002:0000e814       ??_C@_0CG@LFGJGPHI@models?1map_objects?1mp?1force_sigh@ 300a7814     cg_ents.obj
 0002:0000e83c       ??_C@_0CD@GJNKCFIP@models?1map_objects?1mp?1dk_drain?4m@ 300a783c     cg_ents.obj
 0002:0000e860       ??_C@_0CI@BGHKIJBN@models?1map_objects?1mp?1dk_powerot@ 300a7860     cg_ents.obj
 0002:0000e888       ??_C@_0CH@PGCLJJGA@models?1map_objects?1mp?1lt_healoth@ 300a7888     cg_ents.obj
 0002:0000e8b0       ??_C@_0CE@OIMHGLCM@models?1map_objects?1mp?1lt_absorb?4@ 300a78b0     cg_ents.obj
 0002:0000e8d4       ??_C@_0CF@JKKDFLBL@models?1map_objects?1mp?1lt_protect@ 300a78d4     cg_ents.obj
 0002:0000e8fc       ??_C@_0CC@HBLCLHHB@models?1map_objects?1mp?1dk_rage?4md@ 300a78fc     cg_ents.obj
 0002:0000e920       ??_C@_0CH@NPBCBKGE@models?1map_objects?1mp?1dk_lightni@ 300a7920     cg_ents.obj
 0002:0000e948       ??_C@_0CC@GGPFGOPC@models?1map_objects?1mp?1dk_grip?4md@ 300a7948     cg_ents.obj
 0002:0000e96c       ??_C@_0CH@EPHIGDHG@models?1map_objects?1mp?1lt_telepat@ 300a796c     cg_ents.obj
 0002:0000e994       ??_C@_0CF@IMFGPGED@models?1map_objects?1mp?1force_pull@ 300a7994     cg_ents.obj
 0002:0000e9bc       ??_C@_0CF@IGFBFIHC@models?1map_objects?1mp?1force_push@ 300a79bc     cg_ents.obj
 0002:0000e9e4       ??_C@_0CG@JFCOPPHE@models?1map_objects?1mp?1force_spee@ 300a79e4     cg_ents.obj
 0002:0000ea0c       ??_C@_0CF@GHNLPHPI@models?1map_objects?1mp?1force_jump@ 300a7a0c     cg_ents.obj
 0002:0000ea34       ??_C@_0CC@LDMLFDGF@models?1map_objects?1mp?1lt_heal?4md@ 300a7a34     cg_ents.obj
 0002:0000ea58       ??_C@_0BK@KHIMODAF@gfx?1misc?1blue_portashield?$AA@ 300a7a58     cg_ents.obj
 0002:0000ea74       ??_C@_0BI@JOPMALJL@gfx?1misc?1blue_dmgshield?$AA@ 300a7a74     cg_ents.obj
 0002:0000ea8c       ??_C@_0BJ@BMIANOGO@gfx?1misc?1red_portashield?$AA@ 300a7a8c     cg_ents.obj
 0002:0000eaa8       ??_C@_0BH@IJFAKHJP@gfx?1misc?1red_dmgshield?$AA@ 300a7aa8     cg_ents.obj
 0002:0000eac0       ??_C@_09DIABHAFB@cl_paused?$AA@ 300a7ac0     cg_ents.obj
 0002:0000eacc       ??_C@_05FIALHFBO@lhand?$AA@ 300a7acc     cg_ents.obj
 0002:0000ead8       __real@3fb47ae147ae147b    300a7ad8     cg_ents.obj
 0002:0000eae0       ??_C@_06LHDKCOKJ@rtibia?$AA@ 300a7ae0     cg_ents.obj
 0002:0000eae8       ??_C@_06IANLMJDK@ltibia?$AA@ 300a7ae8     cg_ents.obj
 0002:0000eaf0       ??_C@_05GBNHBGPF@rhand?$AA@ 300a7af0     cg_ents.obj
 0002:0000eaf8       ??_C@_07LAEDECAM@rradius?$AA@ 300a7af8     cg_ents.obj
 0002:0000eb00       ??_C@_0N@HLEFBOH@?$CFs_cap_r_leg?$AA@ 300a7b00     cg_ents.obj
 0002:0000eb10       ??_C@_05KHMEBGJM@r_leg?$AA@ 300a7b10     cg_ents.obj
 0002:0000eb18       ??_C@_0N@DOGIDCAM@?$CFs_cap_l_leg?$AA@ 300a7b18     cg_ents.obj
 0002:0000eb28       ??_C@_04IGFCMOIC@hips?$AA@ 300a7b28     cg_ents.obj
 0002:0000eb30       ??_C@_05JOBIHFHH@l_leg?$AA@ 300a7b30     cg_ents.obj
 0002:0000eb38       ??_C@_0O@EKMLGHDB@?$CFs_cap_r_hand?$AA@ 300a7b38     cg_ents.obj
 0002:0000eb48       ??_C@_0N@BGFINEEF@?$CFs_cap_r_arm?$AA@ 300a7b48     cg_ents.obj
 0002:0000eb58       ??_C@_0N@CPIELHKO@?$CFs_cap_l_arm?$AA@ 300a7b58     cg_ents.obj
 0002:0000eb68       ??_C@_0P@HDEGEHBA@hips_cap_torso?$AA@ 300a7b68     cg_ents.obj
 0002:0000eb78       ??_C@_05LAAIDIGB@torso?$AA@ 300a7b78     cg_ents.obj
 0002:0000eb80       ??_C@_0P@PJCLBOLM@torso_cap_head?$AA@ 300a7b80     cg_ents.obj
 0002:0000eb90       __real@401a666660000000    300a7b90     cg_ents.obj
 0002:0000eb98       __real@3f60624de0000000    300a7b98     cg_ents.obj
 0002:0000eba0       __real@3f8ccccd            300a7ba0     cg_ents.obj
 0002:0000eba8       __real@3f747ae140000000    300a7ba8     cg_ents.obj
 0002:0000ebb0       __real@40b00000            300a7bb0     cg_ents.obj
 0002:0000ebb8       __real@3f689374c0000000    300a7bb8     cg_ents.obj
 0002:0000ebc0       ??_C@_0CC@PEOLNCAE@sound?1weapons?1saber?1saberhum1?4wa@ 300a7bc0     cg_ents.obj
 0002:0000ebe4       ??_C@_0BO@GKODPFDH@sound?1weapons?1force?1lightning?$AA@ 300a7be4     cg_ents.obj
 0002:0000ec04       ??_C@_0BM@OAKPMOJG@sound?1weapons?1force?1see?4wav?$AA@ 300a7c04     cg_ents.obj
 0002:0000ec20       __real@406fc00000000000    300a7c20     cg_ents.obj
 0002:0000ec28       ??_C@_0DB@JMBCFHFK@models?1map_objects?1imp_mine?1turr@ 300a7c28     cg_ents.obj
 0002:0000ec60       __real@3fa47ae140000000    300a7c60     cg_ents.obj
 0002:0000ec68       __real@40a9000000000000    300a7c68     cg_ents.obj
 0002:0000ec70       ??_C@_0BL@MCJIELFO@gfx?1effects?1turretflashdie?$AA@ 300a7c70     cg_ents.obj
 0002:0000ec8c       ??_C@_0BD@FDGGIEPJ@model_default?4skin?$AA@ 300a7c8c     cg_ents.obj
 0002:0000eca0       ??_C@_06KLEEIGKC@Bone02?$AA@ 300a7ca0     cg_ents.obj
 0002:0000eca8       ??_C@_0BA@ONFFPGED@?$CKr_leg_cap_hips?$AA@ 300a7ca8     cg_ents.obj
 0002:0000ecb8       ??_C@_0BA@LMGOOAAO@?$CKhips_cap_r_leg?$AA@ 300a7cb8     cg_ents.obj
 0002:0000ecc8       ??_C@_0BA@IFLCIDOF@?$CKhips_cap_l_leg?$AA@ 300a7cc8     cg_ents.obj
 0002:0000ecd8       ??_C@_0BA@EEEEHBHJ@?$CKl_leg_cap_hips?$AA@ 300a7cd8     cg_ents.obj
 0002:0000ece8       ??_C@_0M@PMPHMNGC@?$CFs_cap_hips?$AA@ 300a7ce8     cg_ents.obj
 0002:0000ecf4       ??_C@_0BC@LCHBAINC@?$CKr_arm_cap_r_hand?$AA@ 300a7cf4     cg_ents.obj
 0002:0000ed08       ??_C@_0BC@HJGOBMJP@?$CKr_hand_cap_r_arm?$AA@ 300a7d08     cg_ents.obj
 0002:0000ed1c       ??_C@_0BB@HKNBMIAA@?$CKtorso_cap_r_arm?$AA@ 300a7d1c     cg_ents.obj
 0002:0000ed30       ??_C@_0BB@MILJPFMH@?$CKr_arm_cap_torso?$AA@ 300a7d30     cg_ents.obj
 0002:0000ed44       ??_C@_0BB@EDANKLOL@?$CKtorso_cap_l_arm?$AA@ 300a7d44     cg_ents.obj
 0002:0000ed58       ??_C@_0BB@OBMDNPC@?$CKl_arm_cap_torso?$AA@ 300a7d58     cg_ents.obj
 0002:0000ed6c       ??_C@_0N@BAHIHPBK@?$CFs_cap_torso?$AA@ 300a7d6c     cg_ents.obj
 0002:0000ed7c       ??_C@_0BA@KLKCMOPD@?$CKhips_cap_torso?$AA@ 300a7d7c     cg_ents.obj
 0002:0000ed8c       ??_C@_0BA@HDHOGFDG@?$CKtorso_cap_hips?$AA@ 300a7d8c     cg_ents.obj
 0002:0000ed9c       ??_C@_0P@KLJKOMNF@torso_cap_hips?$AA@ 300a7d9c     cg_ents.obj
 0002:0000edac       ??_C@_0BA@CBMPJHFP@?$CKtorso_cap_head?$AA@ 300a7dac     cg_ents.obj
 0002:0000edbc       ??_C@_0BA@JAEGCEPC@?$CKhead_cap_torso?$AA@ 300a7dbc     cg_ents.obj
 0002:0000edcc       ??_C@_0P@EIKCKNBB@head_cap_torso?$AA@ 300a7dcc     cg_ents.obj
 0002:0000eddc       ??_C@_0L@OPBBEMAA@model_root?$AA@ 300a7ddc     cg_ents.obj
 0002:0000ede8       __real@468ca000            300a7de8     cg_ents.obj
 0002:0000edec       ??_C@_0BC@OEHJDLC@all?5dismembered?4?6?$AA@ 300a7dec     cg_ents.obj
 0002:0000ee00       ??_C@_09JHACAKLH@alwaysGib?$AA@ 300a7e00     cg_ents.obj
 0002:0000ee10       __real@bf50000000000000    300a7e10     cg_ents.obj
 0002:0000ee18       __real@4026000000000000    300a7e18     cg_ents.obj
 0002:0000ee20       __real@402a000000000000    300a7e20     cg_ents.obj
 0002:0000ee28       __real@3ee4f8b588e368f1    300a7e28     cg_ents.obj
 0002:0000ee30       ??_C@_0CB@EEJJHDFD@gfx?1misc?1mp_dark_enlight_disable@ 300a7e30     cg_ents.obj
 0002:0000ee54       ??_C@_0CC@EKOKLPLD@gfx?1misc?1mp_light_enlight_disabl@ 300a7e54     cg_ents.obj
 0002:0000ee78       __real@41600000            300a7e78     cg_ents.obj
 0002:0000ee7c       ??_C@_0BM@DFPOGHOF@Bad?5item?5index?5?$CFi?5on?5entity?$AA@ 300a7e7c     cg_ents.obj
 0002:0000ee98       __real@44800000            300a7e98     cg_ents.obj
 0002:0000ee9c       __real@44000000            300a7e9c     cg_ents.obj
 0002:0000eea0       ??_C@_0BB@GGHMHFHG@?5overridden?3?5?$CFd?6?$AA@ 300a7ea0     cg_ents.obj
 0002:0000eeb8       __real@3f70000000000000    300a7eb8     cg_ents.obj
 0002:0000eec0       ??_C@_0DB@OLDIELNC@CG_InterpoateEntityPosition?3?5cg?4@ 300a7ec0     cg_ents.obj
 0002:0000eef4       ??_C@_0BF@NGFHFBLN@Bad?5entity?5type?3?5?$CFi?6?$AA@ 300a7ef4     cg_ents.obj
 0002:0000ef10       __real@3f40000000000000    300a7f10     cg_ents.obj
 0002:0000ef18       ??_C@_0DL@LDBLCIHM@?$FO3Warning?3?5Notetrack?5is?5missing?5@ 300a7f18     cg_ents.obj
 0002:0000ef54       ??_C@_0DH@BKFOMJJG@?$FO3Warning?3?5?$CC?$CFs?$CC?5is?5an?5invalid?5RO@ 300a7f54     cg_ents.obj
 0002:0000ef8c       ??_C@_04GKOOIABA@loop?$AA@ 300a7f8c     cg_ents.obj
 0002:0000ef94       ??_C@_05MHNANJII@sound?$AA@ 300a7f94     cg_ents.obj
 0002:0000ef9c       ??_C@_06HOPIODND@effect?$AA@ 300a7f9c     cg_ents.obj
 0002:0000efa4       ??_C@_0BA@CLAAAGCB@VC_TAC_TOGETHER?$AA@ 300a7fa4     cg_event.obj
 0002:0000efb4       ??_C@_0N@DMJBAMBN@VC_TAC_SPLIT?$AA@ 300a7fb4     cg_event.obj
 0002:0000efc4       ??_C@_0M@FEAKMGNO@VC_TAC_HOLD?$AA@ 300a7fc4     cg_event.obj
 0002:0000efd0       ??_C@_0O@HGALIJMC@VC_TAC_FOLLOW?$AA@ 300a7fd0     cg_event.obj
 0002:0000efe0       ??_C@_0BA@JEJBIDNE@VC_TAC_FALLBACK?$AA@ 300a7fe0     cg_event.obj
 0002:0000eff0       ??_C@_0N@LNBDOHMM@VC_TAC_COVER?$AA@ 300a7ff0     cg_event.obj
 0002:0000f000       ??_C@_0O@DFHBKCFK@VC_SPOT_TROOP?$AA@ 300a8000     cg_event.obj
 0002:0000f010       ??_C@_0P@CPGCNJAC@VC_SPOT_SNIPER?$AA@ 300a8010     cg_event.obj
 0002:0000f020       ??_C@_0BB@OFFPFDGF@VC_SPOT_EMPLACED?$AA@ 300a8020     cg_event.obj
 0002:0000f034       ??_C@_0M@BFDLJFIL@VC_SPOT_DEF?$AA@ 300a8034     cg_event.obj
 0002:0000f040       ??_C@_0M@FFBELII@VC_SPOT_AIR?$AA@ 300a8040     cg_event.obj
 0002:0000f04c       ??_C@_0M@DOFPKOJP@VC_REQ_TECH?$AA@ 300a804c     cg_event.obj
 0002:0000f058       ??_C@_0O@KBNCBKOL@VC_REQ_SUPPLY?$AA@ 300a8058     cg_event.obj
 0002:0000f068       ??_C@_0N@DBGMMGA@VC_REQ_MEDIC?$AA@ 300a8068     cg_event.obj
 0002:0000f078       ??_C@_0L@PNFMICJA@VC_REQ_HVY?$AA@ 300a8078     cg_event.obj
 0002:0000f084       ??_C@_0M@BLGAICNA@VC_REQ_DEMO?$AA@ 300a8084     cg_event.obj
 0002:0000f090       ??_C@_0O@EPKPIMNE@VC_REQ_ASSIST?$AA@ 300a8090     cg_event.obj
 0002:0000f0a0       ??_C@_0N@MKDGOBHE@VC_REPLY_YES?$AA@ 300a80a0     cg_event.obj
 0002:0000f0b0       ??_C@_0O@IBGMDKJM@VC_REPLY_STAY?$AA@ 300a80b0     cg_event.obj
 0002:0000f0c0       ??_C@_0M@JNMHKDMA@VC_REPLY_NO?$AA@ 300a80c0     cg_event.obj
 0002:0000f0cc       ??_C@_0M@JCBGJIEP@VC_REPLY_GO?$AA@ 300a80cc     cg_event.obj
 0002:0000f0d8       ??_C@_0BA@EFOCDAMI@VC_REPLY_COMING?$AA@ 300a80d8     cg_event.obj
 0002:0000f0e8       ??_C@_0BB@KGIEEMFH@VC_DEF_SECONDARY?$AA@ 300a80e8     cg_event.obj
 0002:0000f0fc       ??_C@_0P@HDOJNDEL@VC_DEF_PRIMARY?$AA@ 300a80fc     cg_event.obj
 0002:0000f10c       ??_C@_0BA@HLFKBIC@VC_DEF_POSITION?$AA@ 300a810c     cg_event.obj
 0002:0000f11c       ??_C@_0M@JFELNFCA@VC_DEF_GUNS?$AA@ 300a811c     cg_event.obj
 0002:0000f128       ??_C@_0BB@KLJFCOAG@VC_ATT_SECONDARY?$AA@ 300a8128     cg_event.obj
 0002:0000f13c       ??_C@_0P@KHGJOOIF@VC_ATT_PRIMARY?$AA@ 300a813c     cg_event.obj
 0002:0000f14c       ??_C@_06IHNDPNLA@VC_ATT?$AA@ 300a814c     cg_event.obj
 0002:0000f154       ??_C@_04EMEGLOCB@?$CFi?$CFs?$AA@ 300a8154     cg_event.obj
 0002:0000f15c       ??_C@_04HNJGGAKF@13?$CFs?$AA@ 300a815c     cg_event.obj
 0002:0000f164       ??_C@_04MFCKAHMA@12?$CFs?$AA@ 300a8164     cg_event.obj
 0002:0000f16c       ??_C@_04NHJPKICO@11?$CFs?$AA@ 300a816c     cg_event.obj
 0002:0000f174       ??_C@_03GLBNJJC@3?$CFs?$AA@ 300a8174     cg_event.obj
 0002:0000f178       ??_C@_03LOANLOPH@2?$CFs?$AA@ 300a8178     cg_event.obj
 0002:0000f17c       ??_C@_03KMLIBBBJ@1?$CFs?$AA@ 300a817c     cg_event.obj
 0002:0000f180       ??_C@_0BD@PKKAIICO@MP_INGAME_TIED_FOR?$AA@ 300a8180     cg_event.obj
 0002:0000f194       ??_C@_0BE@ENHINNBD@MP_INGAME_NUMBER_TH?$AA@ 300a8194     cg_event.obj
 0002:0000f1a8       ??_C@_0BE@OFEAOOKN@MP_INGAME_NUMBER_RD?$AA@ 300a81a8     cg_event.obj
 0002:0000f1bc       ??_C@_0BE@PAHMLELJ@MP_INGAME_NUMBER_ND?$AA@ 300a81bc     cg_event.obj
 0002:0000f1d0       ??_C@_0BE@KOEAJGML@MP_INGAME_NUMBER_ST?$AA@ 300a81d0     cg_event.obj
 0002:0000f1e4       ??_C@_09GPBPOFIE@?$CFs?5?$CFs?5?$CFs?6?$AA@ 300a81e4     cg_event.obj
 0002:0000f1f0       ??_C@_0M@BDAOMHEC@?$CFs?5?$CISPLASH?$CJ?$AA@ 300a81f0     cg_event.obj
 0002:0000f1fc       ??_C@_0P@JAGCHHE@KILLED_GENERIC?$AA@ 300a81fc     cg_event.obj
 0002:0000f20c       ??_C@_0BB@OPGILALH@KILLED_FORCETOSS?$AA@ 300a820c     cg_event.obj
 0002:0000f220       ??_C@_0BA@PLHHDAOP@KILLED_TELEFRAG?$AA@ 300a8220     cg_event.obj
 0002:0000f230       ??_C@_0O@GOEINFFA@KILLED_SENTRY?$AA@ 300a8230     cg_event.obj
 0002:0000f240       ??_C@_0BB@CDNJLIKH@KILLED_DARKFORCE?$AA@ 300a8240     cg_event.obj
 0002:0000f254       ??_C@_0P@KCGOODH@KILLED_DETPACK?$AA@ 300a8254     cg_event.obj
 0002:0000f264       ??_C@_0BG@HOAJDDCM@KILLED_TRIPMINE_TIMED?$AA@ 300a8264     cg_event.obj
 0002:0000f27c       ??_C@_0BA@EFIIHAGC@KILLED_TRIPMINE?$AA@ 300a827c     cg_event.obj
 0002:0000f28c       ??_C@_0P@KDBDMBJD@KILLED_THERMAL?$AA@ 300a828c     cg_event.obj
 0002:0000f29c       ??_C@_0BF@GEDPKMGM@KILLED_ROCKET_HOMING?$AA@ 300a829c     cg_event.obj
 0002:0000f2b4       ??_C@_0O@DFIJLFEC@KILLED_ROCKET?$AA@ 300a82b4     cg_event.obj
 0002:0000f2c4       ??_C@_0BG@PKKJJLAL@KILLED_FLECHETTE_MINE?$AA@ 300a82c4     cg_event.obj
 0002:0000f2dc       ??_C@_0BB@NPEKGKGA@KILLED_FLECHETTE?$AA@ 300a82dc     cg_event.obj
 0002:0000f2f0       ??_C@_0N@FPPGAAHB@KILLED_DEMP2?$AA@ 300a82f0     cg_event.obj
 0002:0000f300       ??_C@_0BD@LPENDEOH@KILLED_REPEATERALT?$AA@ 300a8300     cg_event.obj
 0002:0000f314       ??_C@_0BA@IPOEHCNL@KILLED_REPEATER?$AA@ 300a8314     cg_event.obj
 0002:0000f324       ??_C@_0BB@BHKLOLC@KILLED_BOWCASTER?$AA@ 300a8324     cg_event.obj
 0002:0000f338       ??_C@_0BG@FEEEOEOP@KILLED_DISRUPTORSNIPE?$AA@ 300a8338     cg_event.obj
 0002:0000f350       ??_C@_0BB@OIONJBHE@KILLED_DISRUPTOR?$AA@ 300a8350     cg_event.obj
 0002:0000f364       ??_C@_0P@LFCADJJM@KILLED_BLASTER?$AA@ 300a8364     cg_event.obj
 0002:0000f374       ??_C@_0N@PMANMKNG@KILLED_BRYAR?$AA@ 300a8374     cg_event.obj
 0002:0000f384       ??_C@_0N@JDNGIOPI@KILLED_SABER?$AA@ 300a8384     cg_event.obj
 0002:0000f394       ??_C@_0N@LKNGLIHG@KILLED_MELEE?$AA@ 300a8394     cg_event.obj
 0002:0000f3a4       ??_C@_0M@MHEOJOMG@KILLED_STUN?$AA@ 300a83a4     cg_event.obj
 0002:0000f3b0       ??_C@_06LNKFDEGN@noname?$AA@ 300a83b0     cg_event.obj
 0002:0000f3b8       ??_C@_05DNIIFBMG@?$CFs?5?$CFs?$AA@ 300a83b8     cg_event.obj
 0002:0000f3c0       ??_C@_0BB@FMBDAKNB@?$CFs?5?$CFs?4?6?$CFs?5?$CFs?5?$CFi?4?$AA@ 300a83c0     cg_event.obj
 0002:0000f3d4       ??_C@_0BF@IKFHMHCC@MP_INGAME_PLACE_WITH?$AA@ 300a83d4     cg_event.obj
 0002:0000f3ec       ??_C@_09OEGONCCB@?$CFs?5?$CFs?6?$CFs?6?$AA@ 300a83ec     cg_event.obj
 0002:0000f3f8       ??_C@_0BJ@NEOJGJCJ@MP_INGAME_JMKILLED_NOTJM?$AA@ 300a83f8     cg_event.obj
 0002:0000f414       ??_C@_06IINFAHFO@?$CFs?5?$CFs?6?$AA@ 300a8414     cg_event.obj
 0002:0000f41c       ??_C@_0BK@LDDEAKKE@SUICIDE_GENERICDEATH_MALE?$AA@ 300a841c     cg_event.obj
 0002:0000f438       ??_C@_0CA@OAKEMEBL@SUICIDE_GENERICDEATH_GENDERLESS?$AA@ 300a8438     cg_event.obj
 0002:0000f458       ??_C@_0BM@PFKEEECI@SUICIDE_GENERICDEATH_FEMALE?$AA@ 300a8458     cg_event.obj
 0002:0000f474       ??_C@_0BH@BDIIPDGM@SUICIDE_FALLDEATH_MALE?$AA@ 300a8474     cg_event.obj
 0002:0000f48c       ??_C@_0BN@NGOHMGKM@SUICIDE_FALLDEATH_GENDERLESS?$AA@ 300a848c     cg_event.obj
 0002:0000f4ac       ??_C@_0BJ@DCOGPDGK@SUICIDE_FALLDEATH_FEMALE?$AA@ 300a84ac     cg_event.obj
 0002:0000f4c8       ??_C@_0BK@JOACMNGP@SUICIDE_ELECTROCUTED_MALE?$AA@ 300a84c8     cg_event.obj
 0002:0000f4e4       ??_C@_0CA@CFGLGMGJ@SUICIDE_ELECTROCUTED_GENDERLESS?$AA@ 300a84e4     cg_event.obj
 0002:0000f504       ??_C@_0BM@NIKKDAII@SUICIDE_ELECTROCUTED_FEMALE?$AA@ 300a8504     cg_event.obj
 0002:0000f520       ??_C@_0BI@LOIGJPMB@SUICIDE_EXPLOSIVES_MALE?$AA@ 300a8520     cg_event.obj
 0002:0000f538       ??_C@_0BO@BONIOHNA@SUICIDE_EXPLOSIVES_GENDERLESS?$AA@ 300a8538     cg_event.obj
 0002:0000f558       ??_C@_0BK@GNELLBLD@SUICIDE_EXPLOSIVES_FEMALE?$AA@ 300a8558     cg_event.obj
 0002:0000f574       ??_C@_0BC@DLPIHFNE@SUICIDE_SHOT_MALE?$AA@ 300a8574     cg_event.obj
 0002:0000f588       ??_C@_0BI@EDLJKFEC@SUICIDE_SHOT_GENDERLESS?$AA@ 300a8588     cg_event.obj
 0002:0000f5a0       ??_C@_0BE@BKCBNJLP@SUICIDE_SHOT_FEMALE?$AA@ 300a85a0     cg_event.obj
 0002:0000f5b4       ??_C@_0L@EGGEHAEK@DIED_LASER?$AA@ 300a85b4     cg_event.obj
 0002:0000f5c0       ??_C@_0N@OIOBBDFO@DIED_GENERIC?$AA@ 300a85c0     cg_event.obj
 0002:0000f5d0       ??_C@_02PGJLIFGD@?$FO7?$AA@ 300a85d0     cg_event.obj
 0002:0000f5d4       ??_C@_0CB@LLKCBBGA@CG_Obituary?3?5target?5out?5of?5range@ 300a85d4     cg_event.obj
 0002:0000f5f8       ??_C@_0L@OMPHCJLG@PICKUPLINE?$AA@ 300a85f8     cg_event.obj
 0002:0000f604       ??_C@_0N@CIPOKOBF@?$CKpain100?4wav?$AA@ 300a8604     cg_event.obj
 0002:0000f614       ??_C@_0M@CJAMJCH@?$CKpain75?4wav?$AA@ 300a8614     cg_event.obj
 0002:0000f620       ??_C@_0M@MFMCEJLN@?$CKpain50?4wav?$AA@ 300a8620     cg_event.obj
 0002:0000f62c       ??_C@_0M@FAKIOGIA@?$CKpain25?4wav?$AA@ 300a862c     cg_event.obj
 0002:0000f638       ??_C@_04HEDFJGEJ@FREE?$AA@ 300a8638     cg_event.obj
 0002:0000f640       ??_C@_03OFAPEBGM@?$CFs?6?$AA@ 300a8640     cg_event.obj
 0002:0000f644       ??_C@_03IKGEINEE@?$CFs?5?$AA@ 300a8644     cg_event.obj
 0002:0000f648       ??_C@_0BA@GOKKEBNJ@PLAYER_GOT_FLAG?$AA@ 300a8648     cg_event.obj
 0002:0000f658       ??_C@_0BF@GDEBPKGL@PLAYER_CAPTURED_FLAG?$AA@ 300a8658     cg_event.obj
 0002:0000f670       ??_C@_0BF@DCOFADEE@PLAYER_RETURNED_FLAG?$AA@ 300a8670     cg_event.obj
 0002:0000f688       ??_C@_0O@MBPOLPAP@FLAG_RETURNED?$AA@ 300a8688     cg_event.obj
 0002:0000f698       ??_C@_0BF@MKAEEDCG@FRAGGED_FLAG_CARRIER?$AA@ 300a8698     cg_event.obj
 0002:0000f6b0       ??_C@_0L@LNFPJAAJ@?$CKland1?4wav?$AA@ 300a86b0     cg_event.obj
 0002:0000f6bc       ??_C@_0CD@PBPAMPHJ@sound?1movers?1objects?1objectHit?4w@ 300a86bc     cg_event.obj
 0002:0000f6e0       __real@42900000            300a86e0     cg_event.obj
 0002:0000f6e4       __real@3fb33333            300a86e4     cg_event.obj
 0002:0000f6e8       ??_C@_0L@PAMDLABJ@voice?5chat?$AA@ 300a86e8     cg_event.obj
 0002:0000f6f4       ??_C@_0BC@OKELKAPM@Unknown?5event?3?5?$CFi?$AA@ 300a86f4     cg_event.obj
 0002:0000f708       ??_C@_08GCOIMFOL@UNKNOWN?6?$AA@ 300a8708     cg_event.obj
 0002:0000f714       ??_C@_0N@JKOMGMLA@EV_TESTLINE?6?$AA@ 300a8714     cg_event.obj
 0002:0000f724       ??_C@_0P@DKFKJLCN@EV_DEBUG_LINE?6?$AA@ 300a8724     cg_event.obj
 0002:0000f734       ??_C@_0P@NNMMBHMG@EV_SHIELD_HIT?6?$AA@ 300a8734     cg_event.obj
 0002:0000f744       ??_C@_0BG@LPILCDGP@EV_WEAPON_CHARGE_ALT?6?$AA@ 300a8744     cg_event.obj
 0002:0000f75c       ??_C@_0BC@FFJFINLG@EV_WEAPON_CHARGE?6?$AA@ 300a875c     cg_event.obj
 0002:0000f770       ??_C@_0BF@JEGDHJFI@EV_STOPLOOPINGSOUND?6?$AA@ 300a8770     cg_event.obj
 0002:0000f788       ??_C@_0BG@LDMGNCJJ@EV_STARTLOOPINGSOUND?6?$AA@ 300a8788     cg_event.obj
 0002:0000f7a0       ??_C@_0P@OAKOFJEN@EV_GIB_PLAYER?6?$AA@ 300a87a0     cg_event.obj
 0002:0000f7b0       ??_C@_0BC@MLCHKGFI@EV_FORCE_DRAINED?6?$AA@ 300a87b0     cg_event.obj
 0002:0000f7c4       ??_C@_0BH@DMMEDNOI@EV_POWERUP_BATTLESUIT?6?$AA@ 300a87c4     cg_event.obj
 0002:0000f7dc       ??_C@_0BB@BAEBNJML@EV_POWERUP_QUAD?6?$AA@ 300a87dc     cg_event.obj
 0002:0000f7f0       ??_C@_0N@NHOCPMCE@EV_OBITUARY?6?$AA@ 300a87f0     cg_event.obj
 0002:0000f800       ??_C@_0N@OJAOIBLE@?$CKdeath?$CFi?4wav?$AA@ 300a8800     cg_event.obj
 0002:0000f810       ??_C@_0L@GGFIAEKN@EV_DEATHx?6?$AA@ 300a8810     cg_event.obj
 0002:0000f81c       ??_C@_08MEMNOIPP@EV_PAIN?6?$AA@ 300a881c     cg_event.obj
 0002:0000f828       ??_C@_0BD@CICJADGK@EV_MISC_MODEL_EXP?6?$AA@ 300a8828     cg_event.obj
 0002:0000f83c       ??_C@_0L@ODCIENMH@EV_DEBRIS?6?$AA@ 300a883c     cg_event.obj
 0002:0000f848       ??_C@_0BC@OFECDCPE@EV_GLASS_SHATTER?6?$AA@ 300a8848     cg_event.obj
 0002:0000f85c       ??_C@_0O@NJJBGPF@EV_PLAY_ROFF?6?$AA@ 300a885c     cg_event.obj
 0002:0000f86c       ??_C@_0BB@MGFHJKEO@EV_ENTITY_SOUND?6?$AA@ 300a886c     cg_event.obj
 0002:0000f880       ??_C@_0BG@DDNACAKH@EV_GLOBAL_TEAM_SOUND?6?$AA@ 300a8880     cg_event.obj
 0002:0000f898       ??_C@_0BB@DOBOGIIM@EV_GLOBAL_SOUND?6?$AA@ 300a8898     cg_event.obj
 0002:0000f8ac       ??_C@_0BC@BJDFIFFI@EV_GENERAL_SOUND?6?$AA@ 300a88ac     cg_event.obj
 0002:0000f8c0       ??_C@_09CLANNEJM@?$DM?$CFs?3?5?$CFs?$DO?6?$AA@ 300a88c0     cg_event.obj
 0002:0000f8cc       ??_C@_0BD@MDIAINNI@EV_VOICECMD_SOUND?6?$AA@ 300a88cc     cg_event.obj
 0002:0000f8e0       ??_C@_0P@MFMNPEFJ@EV_MUTE_SOUND?6?$AA@ 300a88e0     cg_event.obj
 0002:0000f8f0       ??_C@_0BB@IGHFLFFN@EV_BMODEL_SOUND?6?$AA@ 300a88f0     cg_event.obj
 0002:0000f904       ??_C@_0BD@NADCCPEN@EV_PLAY_EFFECT_ID?6?$AA@ 300a8904     cg_event.obj
 0002:0000f918       ??_C@_0BA@EOBPNDFA@EV_PLAY_EFFECT?6?$AA@ 300a8918     cg_event.obj
 0002:0000f928       ??_C@_0BH@JAOAMPDI@EV_MISSILE_MISS_METAL?6?$AA@ 300a8928     cg_event.obj
 0002:0000f940       ??_C@_0BB@PNKCFMCO@EV_MISSILE_MISS?6?$AA@ 300a8940     cg_event.obj
 0002:0000f954       ??_C@_0BA@IGKGMCOM@EV_MISSILE_HIT?6?$AA@ 300a8954     cg_event.obj
 0002:0000f964       ??_C@_0BC@KFHMIOIE@EV_MISSILE_STICK?6?$AA@ 300a8964     cg_event.obj
 0002:0000f978       ??_C@_0BE@NNBFEJOK@EV_CONC_ALT_IMPACT?6?$AA@ 300a8978     cg_event.obj
 0002:0000f98c       ??_C@_0BF@LBOIACLJ@ui_forcePowerDisable?$AA@ 300a898c     cg_event.obj
 0002:0000f9a4       ??_C@_0BG@MIJCAGDM@EV_SET_FORCE_DISABLE?6?$AA@ 300a89a4     cg_event.obj
 0002:0000f9bc       ??_C@_0N@KGLGFCPL@ui_freeSaber?$AA@ 300a89bc     cg_event.obj
 0002:0000f9cc       ??_C@_0BD@BKAJJBKD@EV_SET_FREE_SABER?6?$AA@ 300a89cc     cg_event.obj
 0002:0000f9e0       ??_C@_09CPHDILCP@ui_myteam?$AA@ 300a89e0     cg_event.obj
 0002:0000f9ec       ??_C@_0O@LNLHFCCF@ui_rankChange?$AA@ 300a89ec     cg_event.obj
 0002:0000f9fc       ??_C@_0BC@HOMJNHOI@EV_GIVE_NEW_RANK?6?$AA@ 300a89fc     cg_event.obj
 0002:0000fa10       ??_C@_0BJ@BCHDFDJB@EV_DESTROY_WEAPON_MODEL?6?$AA@ 300a8a10     cg_event.obj
 0002:0000fa2c       ??_C@_0BM@PCLPFHBH@EV_DESTROY_GHOUL2_INSTANCE?6?$AA@ 300a8a2c     cg_event.obj
 0002:0000fa48       ??_C@_0BM@BABMLOOH@EV_SIEGE_OBJECTIVECOMPLETE?6?$AA@ 300a8a48     cg_event.obj
 0002:0000fa64       ??_C@_0BE@BNOHOFLM@EV_SIEGE_ROUNDOVER?6?$AA@ 300a8a64     cg_event.obj
 0002:0000fa78       ??_C@_0BA@HOIEJEJL@head_eyes_mouth?$AA@ 300a8a78     cg_event.obj
 0002:0000fa88       ??_C@_0P@FDEPALG@EV_CTFMESSAGE?6?$AA@ 300a8a88     cg_event.obj
 0002:0000fa98       ??_C@_0O@HHOHODHG@EV_SCOREPLUM?6?$AA@ 300a8a98     cg_event.obj
 0002:0000faa8       ??_C@_0BD@EIBAGLKH@EV_GRENADE_BOUNCE?6?$AA@ 300a8aa8     cg_event.obj
 0002:0000fabc       ??_C@_0BB@JFDGENII@EV_ITEM_RESPAWN?6?$AA@ 300a8abc     cg_event.obj
 0002:0000fad0       ??_C@_0N@PBHGFCFD@EV_ITEM_POP?6?$AA@ 300a8ad0     cg_event.obj
 0002:0000fae0       ??_C@_0BI@GJLLMPKI@EV_PLAYER_TELEPORT_OUT?6?$AA@ 300a8ae0     cg_event.obj
 0002:0000faf8       ??_C@_0BH@EMPINMBK@EV_PLAYER_TELEPORT_IN?6?$AA@ 300a8af8     cg_event.obj
 0002:0000fb10       ??_C@_0BH@LIEHOCMA@SEEKER_ALREADYDEPLOYED?$AA@ 300a8b10     cg_event.obj
 0002:0000fb28       ??_C@_0O@EGAENPND@SHIELD_NOROOM?$AA@ 300a8b28     cg_event.obj
 0002:0000fb38       ??_C@_0BF@BCPBOCCJ@SENTRY_ALREADYPLACED?$AA@ 300a8b38     cg_event.obj
 0002:0000fb50       ??_C@_0O@HOCAFJFE@SENTRY_NOROOM?$AA@ 300a8b50     cg_event.obj
 0002:0000fb60       ??_C@_0BA@HPBPKKLD@EV_ITEMUSEFAIL?6?$AA@ 300a8b60     cg_event.obj
 0002:0000fb70       ??_C@_0P@DPDLKGLM@EV_USE_ITEM14?6?$AA@ 300a8b70     cg_event.obj
 0002:0000fb80       ??_C@_0P@DKHELADJ@EV_USE_ITEM13?6?$AA@ 300a8b80     cg_event.obj
 0002:0000fb90       ??_C@_0P@DLLGNKAO@EV_USE_ITEM12?6?$AA@ 300a8b90     cg_event.obj
 0002:0000fba0       ??_C@_0P@DJPAGEFH@EV_USE_ITEM11?6?$AA@ 300a8ba0     cg_event.obj
 0002:0000fbb0       ??_C@_0P@DIDCAOGA@EV_USE_ITEM10?6?$AA@ 300a8bb0     cg_event.obj
 0002:0000fbc0       ??_C@_0O@CBKDMCHN@EV_USE_ITEM9?6?$AA@ 300a8bc0     cg_event.obj
 0002:0000fbd0       ??_C@_0O@CAGBKIEK@EV_USE_ITEM8?6?$AA@ 300a8bd0     cg_event.obj
 0002:0000fbe0       ??_C@_0O@CLDNOPHH@EV_USE_ITEM7?6?$AA@ 300a8be0     cg_event.obj
 0002:0000fbf0       ??_C@_0O@CKPPIFEA@EV_USE_ITEM6?6?$AA@ 300a8bf0     cg_event.obj
 0002:0000fc00       ??_C@_0O@CILJDLBJ@EV_USE_ITEM5?6?$AA@ 300a8c00     cg_event.obj
 0002:0000fc10       ??_C@_0O@CJHLFBCO@EV_USE_ITEM4?6?$AA@ 300a8c10     cg_event.obj
 0002:0000fc20       ??_C@_0O@CMDEEHKL@EV_USE_ITEM3?6?$AA@ 300a8c20     cg_event.obj
 0002:0000fc30       ??_C@_0O@CNPGCNJM@EV_USE_ITEM2?6?$AA@ 300a8c30     cg_event.obj
 0002:0000fc40       ??_C@_0O@CPLAJDMF@EV_USE_ITEM1?6?$AA@ 300a8c40     cg_event.obj
 0002:0000fc50       ??_C@_0O@COHCPJPC@EV_USE_ITEM0?6?$AA@ 300a8c50     cg_event.obj
 0002:0000fc60       ??_C@_0P@PEFPIADP@EV_LOCALTIMER?6?$AA@ 300a8c60     cg_event.obj
 0002:0000fc70       ??_C@_0BA@MNHPKCIL@EV_SCREENSHAKE?6?$AA@ 300a8c70     cg_event.obj
 0002:0000fc80       ??_C@_0P@EFHBOHF@EV_TEAM_POWER?6?$AA@ 300a8c80     cg_event.obj
 0002:0000fc90       ??_C@_0BN@OAMJLKID@sound?1weapons?1force?1grip?4mp3?$AA@ 300a8c90     cg_event.obj
 0002:0000fcb0       ??_C@_0BN@OPAMHANO@sound?1weapons?1force?1jump?4mp3?$AA@ 300a8cb0     cg_event.obj
 0002:0000fcd0       ??_C@_0BP@HBDMOEFN@sound?1weapons?1force?1absorb?4mp3?$AA@ 300a8cd0     cg_event.obj
 0002:0000fcf0       ??_C@_0CC@JDCLBP@sound?1weapons?1force?1absorbhit?4mp@ 300a8cf0     cg_event.obj
 0002:0000fd14       ??_C@_0CA@HJGMCKFK@sound?1weapons?1force?1protect?4mp3?$AA@ 300a8d14     cg_event.obj
 0002:0000fd34       ??_C@_0CD@DLMOJGKG@sound?1weapons?1force?1protecthit?4m@ 300a8d34     cg_event.obj
 0002:0000fd58       ??_C@_0BA@OCJLFFOK@EV_PREDEFSOUND?6?$AA@ 300a8d58     cg_event.obj
 0002:0000fd68       ??_C@_0CE@PIBAGMCN@sound?1weapons?1disruptor?1zoomend?4@ 300a8d68     cg_event.obj
 0002:0000fd8c       ??_C@_0CG@PBOJOFP@sound?1weapons?1disruptor?1zoomstar@ 300a8d8c     cg_event.obj
 0002:0000fdb4       ??_C@_0BI@GNFPMMKN@EV_DISRUPTOR_ZOOMSOUND?6?$AA@ 300a8db4     cg_event.obj
 0002:0000fdcc       ??_C@_0BC@JPMCFDBJ@EV_DISRUPTOR_HIT?6?$AA@ 300a8dcc     cg_event.obj
 0002:0000fde0       ??_C@_0BK@GPKOGJOH@EV_DISRUPTOR_SNIPER_MISS?6?$AA@ 300a8de0     cg_event.obj
 0002:0000fdfc       ??_C@_0BK@HEJCNNBO@EV_DISRUPTOR_SNIPER_SHOT?6?$AA@ 300a8dfc     cg_event.obj
 0002:0000fe18       ??_C@_0BI@IGJAGMIN@EV_DISRUPTOR_MAIN_SHOT?6?$AA@ 300a8e18     cg_event.obj
 0002:0000fe30       ??_C@_0CA@IHKBIIAM@sound?1weapons?1saber?1saberon?4wav?$AA@ 300a8e30     cg_event.obj
 0002:0000fe50       ??_C@_0BE@LHAIBFCE@EV_SABER_UNHOLSTER?6?$AA@ 300a8e50     cg_event.obj
 0002:0000fe64       ??_C@_0CD@MINDHCBN@sound?1weapons?1saber?1saberhitwall@ 300a8e64     cg_event.obj
 0002:0000fe88       ??_C@_0BF@BLJMDOGE@EV_SABER_CLASHFLARE?6?$AA@ 300a8e88     cg_event.obj
 0002:0000fea0       __real@459c4000            300a8ea0     cg_event.obj
 0002:0000fea4       ??_C@_0CF@KPADFJEL@sound?1weapons?1saber?1saberblock?$CFd@ 300a8ea4     cg_event.obj
 0002:0000fecc       ??_C@_0BA@NNCAIIDK@EV_SABER_BLOCK?6?$AA@ 300a8ecc     cg_event.obj
 0002:0000fedc       ??_C@_0CD@IPCIPINL@sound?1weapons?1saber?1saberhit?$CFi?4w@ 300a8edc     cg_event.obj
 0002:0000ff00       ??_C@_0O@FLLECKKD@EV_SABER_HIT?6?$AA@ 300a8f00     cg_event.obj
 0002:0000ff10       ??_C@_0CD@EBJGEHEE@sound?1weapons?1saber?1saberhup?$CFi?4w@ 300a8f10     cg_event.obj
 0002:0000ff34       ??_C@_0BB@EBLNKKNK@EV_SABER_ATTACK?6?$AA@ 300a8f34     cg_event.obj
 0002:0000ff48       ??_C@_0N@EEFOAGOF@EV_ALT_FIRE?6?$AA@ 300a8f48     cg_event.obj
 0002:0000ff58       ??_C@_08BOOIEECM@?$CKflash02?$AA@ 300a8f58     cg_event.obj
 0002:0000ff64       ??_C@_08DFMFBHOP@?$CKflash01?$AA@ 300a8f64     cg_event.obj
 0002:0000ff70       ??_C@_0BA@CJMMIDHE@EV_FIRE_WEAPON?6?$AA@ 300a8f70     cg_event.obj
 0002:0000ff80       ??_C@_0BC@KBHMOJOO@EV_CHANGE_WEAPON?6?$AA@ 300a8f80     cg_event.obj
 0002:0000ff94       ??_C@_0L@CIOCLBPP@EV_NOAMMO?6?$AA@ 300a8f94     cg_event.obj
 0002:0000ffa0       ??_C@_0N@GJLAOEL@EV_VEH_FIRE?6?$AA@ 300a8fa0     cg_event.obj
 0002:0000ffb0       ??_C@_0BH@BPJPNNOH@EV_GLOBAL_ITEM_PICKUP?6?$AA@ 300a8fb0     cg_event.obj
 0002:0000ffc8       ??_C@_0BA@LGJAHGJL@EV_ITEM_PICKUP?6?$AA@ 300a8fc8     cg_event.obj
 0002:0000ffd8       ??_C@_09OICPJII@?$CKgasp?4wav?$AA@ 300a8fd8     cg_event.obj
 0002:0000ffe4       ??_C@_0BA@OODKPEF@EV_WATER_CLEAR?6?$AA@ 300a8fe4     cg_event.obj
 0002:0000fff4       ??_C@_0BA@PFCHBJFN@EV_WATER_UNDER?6?$AA@ 300a8ff4     cg_event.obj
 0002:00010004       ??_C@_0BA@POIDPCHH@EV_WATER_LEAVE?6?$AA@ 300a9004     cg_event.obj
 0002:00010014       ??_C@_0BA@PBFGAGAE@EV_WATER_TOUCH?6?$AA@ 300a9014     cg_event.obj
 0002:00010024       ??_C@_0O@LILDLENG@EV_SIEGESPEC?6?$AA@ 300a9024     cg_event.obj
 0002:00010034       ??_C@_0O@HILDDGFG@?$CKpushfail?4wav?$AA@ 300a9034     cg_event.obj
 0002:00010044       ??_C@_0N@JMFEBDJA@EV_PUSHFAIL?6?$AA@ 300a9044     cg_event.obj
 0002:00010054       ??_C@_0N@DGFHHOCI@?$CKgloat?$CFi?4wav?$AA@ 300a9054     cg_event.obj
 0002:00010064       ??_C@_0L@PFIKNHDI@EV_GLOATx?6?$AA@ 300a9064     cg_event.obj
 0002:00010070       ??_C@_0P@KMMHMIEJ@?$CKdeflect?$CFi?4wav?$AA@ 300a9070     cg_event.obj
 0002:00010080       ??_C@_0N@KDIAIIOP@EV_DEFLECTx?6?$AA@ 300a9080     cg_event.obj
 0002:00010090       ??_C@_0N@CKMOBFDB@?$CKjlost?$CFi?4wav?$AA@ 300a9090     cg_event.obj
 0002:000100a0       ??_C@_0L@HEKPAGAL@EV_JLOSTx?6?$AA@ 300a90a0     cg_event.obj
 0002:000100ac       ??_C@_0O@NFHHFBIJ@?$CKjchase?$CFi?4wav?$AA@ 300a90ac     cg_event.obj
 0002:000100bc       ??_C@_0M@NIMEFBOE@EV_JCHASEx?6?$AA@ 300a90bc     cg_event.obj
 0002:000100c8       ??_C@_0N@GJHANCND@?$CKtaunt?$CFi?4wav?$AA@ 300a90c8     cg_event.obj
 0002:000100d8       ??_C@_0L@EGHEDGBM@EV_TAUNTx?6?$AA@ 300a90d8     cg_event.obj
 0002:000100e4       ??_C@_0BB@JDDLJJHL@?$CKjdetected?$CFi?4wav?$AA@ 300a90e4     cg_event.obj
 0002:000100f8       ??_C@_0P@GMGCJCFO@EV_JDETECTEDx?6?$AA@ 300a90f8     cg_event.obj
 0002:00010108       ??_C@_0O@PPKPFKOD@?$CKcombat?$CFi?4wav?$AA@ 300a9108     cg_event.obj
 0002:00010118       ??_C@_0M@FOBFLOB@EV_COMBATx?6?$AA@ 300a9118     cg_event.obj
 0002:00010124       ??_C@_0BC@PHFLACAM@?$CKsuspicious?$CFi?4wav?$AA@ 300a9124     cg_event.obj
 0002:00010138       ??_C@_0BA@KBLHFCPH@EV_SUSPICIOUSx?6?$AA@ 300a9138     cg_event.obj
 0002:00010148       ??_C@_0N@DDCFCBHB@?$CKsound?$CFi?4wav?$AA@ 300a9148     cg_event.obj
 0002:00010158       ??_C@_0L@EMJHBDMH@EV_SOUNDx?6?$AA@ 300a9158     cg_event.obj
 0002:00010164       ??_C@_0N@PHGKPCEG@?$CKsight?$CFi?4wav?$AA@ 300a9164     cg_event.obj
 0002:00010174       ??_C@_0L@LOAACHFC@EV_SIGHTx?6?$AA@ 300a9174     cg_event.obj
 0002:00010180       ??_C@_0BA@IAPJDOKJ@?$CKescaping?$CFi?4wav?$AA@ 300a9180     cg_event.obj
 0002:00010190       ??_C@_0O@LBEFKCPP@EV_ESCAPINGx?6?$AA@ 300a9190     cg_event.obj
 0002:000101a0       ??_C@_0BA@ECEMECLD@?$CKoutflank?$CFi?4wav?$AA@ 300a91a0     cg_event.obj
 0002:000101b0       ??_C@_0O@JKGLGHPC@EV_OUTFLANKx?6?$AA@ 300a91b0     cg_event.obj
 0002:000101c0       ??_C@_0L@PFPNPDKP@?$CKlost1?4wav?$AA@ 300a91c0     cg_event.obj
 0002:000101cc       ??_C@_09HAJHGPIM@EV_LOST1?6?$AA@ 300a91cc     cg_event.obj
 0002:000101d8       ??_C@_0M@IECJNBN@?$CKlook?$CFi?4wav?$AA@ 300a91d8     cg_event.obj
 0002:000101e4       ??_C@_09KCLGOEIJ@EV_LOOKx?6?$AA@ 300a91e4     cg_event.obj
 0002:000101f0       ??_C@_0O@MKEGNAOE@?$CKgiveup?$CFi?4wav?$AA@ 300a91f0     cg_event.obj
 0002:00010200       ??_C@_0M@PMLMFNPD@EV_GIVEUPx?6?$AA@ 300a9200     cg_event.obj
 0002:0001020c       ??_C@_0BA@IEJODIMK@?$CKdetected?$CFi?4wav?$AA@ 300a920c     cg_event.obj
 0002:0001021c       ??_C@_0O@JKILKEDL@EV_DETECTEDx?6?$AA@ 300a921c     cg_event.obj
 0002:0001022c       ??_C@_0N@OMILNBPP@?$CKcover?$CFi?4wav?$AA@ 300a922c     cg_event.obj
 0002:0001023c       ??_C@_0L@LEBKGJBA@EV_COVERx?6?$AA@ 300a923c     cg_event.obj
 0002:00010248       ??_C@_0N@KJGGFNCE@?$CKchase?$CFi?4wav?$AA@ 300a9248     cg_event.obj
 0002:00010258       ??_C@_0L@ENAAGILJ@EV_CHASEx?6?$AA@ 300a9258     cg_event.obj
 0002:00010264       ??_C@_0M@KKCLPGGH@?$CKffturn?4wav?$AA@ 300a9264     cg_event.obj
 0002:00010270       ??_C@_0L@GEKMINAM@EV_FFTURN?6?$AA@ 300a9270     cg_event.obj
 0002:0001027c       ??_C@_0M@GLFHPFHD@?$CKffwarn?4wav?$AA@ 300a927c     cg_event.obj
 0002:00010288       ??_C@_0L@HHFIMOOA@EV_FFWARN?6?$AA@ 300a9288     cg_event.obj
 0002:00010294       ??_C@_0N@KALHINPO@?$CKchoke?$CFi?4wav?$AA@ 300a9294     cg_event.obj
 0002:000102a4       ??_C@_0L@CHJKNFIK@EV_CHOKEx?6?$AA@ 300a92a4     cg_event.obj
 0002:000102b0       ??_C@_0O@NKLIIKEJ@?$CKpushed?$CFi?4wav?$AA@ 300a92b0     cg_event.obj
 0002:000102c0       ??_C@_0M@EODEDNBM@EV_PUSHEDx?6?$AA@ 300a92c0     cg_event.obj
 0002:000102cc       ??_C@_0P@CMIJNIPJ@?$CKconfuse?$CFi?4wav?$AA@ 300a92cc     cg_event.obj
 0002:000102dc       ??_C@_0O@KPIHHDB@EV_CONFUSEDx?6?$AA@ 300a92dc     cg_event.obj
 0002:000102ec       ??_C@_0P@KKLAIMH@?$CKvictory?$CFi?4wav?$AA@ 300a92ec     cg_event.obj
 0002:000102fc       ??_C@_0N@HEEPLDGK@EV_VICTORYx?6?$AA@ 300a92fc     cg_event.obj
 0002:0001030c       ??_C@_0N@JFCHKHG@?$CKanger?$CFi?4wav?$AA@ 300a930c     cg_event.obj
 0002:0001031c       ??_C@_0L@JIMCLEOH@EV_ANGERx?6?$AA@ 300a931c     cg_event.obj
 0002:00010328       ??_C@_0N@NFOOMBAN@?$CKtaunt?$CFd?4wav?$AA@ 300a9328     cg_event.obj
 0002:00010338       ??_C@_0P@LGDFBLBJ@?$CKvictory?$CFd?4wav?$AA@ 300a9338     cg_event.obj
 0002:00010348       ??_C@_0N@LFMMGJKI@?$CKanger?$CFd?4wav?$AA@ 300a9348     cg_event.obj
 0002:00010358       ??_C@_0N@IKMJGNPG@?$CKgloat?$CFd?4wav?$AA@ 300a9358     cg_event.obj
 0002:00010368       ??_C@_0P@BAFJNLJH@?$CKdeflect?$CFd?4wav?$AA@ 300a9368     cg_event.obj
 0002:00010378       ??_C@_0L@FDBCLIPJ@?$CKtaunt?4wav?$AA@ 300a9378     cg_event.obj
 0002:00010384       ??_C@_09OAFEJHMF@EV_TAUNT?6?$AA@ 300a9384     cg_event.obj
 0002:00010390       ??_C@_08CGPNDMJ@EV_ROLL?6?$AA@ 300a9390     cg_event.obj
 0002:0001039c       ??_C@_0L@FMHDEMAN@?$CKjump1?4wav?$AA@ 300a939c     cg_event.obj
 0002:000103a8       ??_C@_08GKDKOBGN@EV_JUMP?6?$AA@ 300a93a8     cg_event.obj
 0002:000103b4       ??_C@_0BC@BIOHEDAP@music?1mp?1duel?4mp3?$AA@ 300a93b4     cg_event.obj
 0002:000103c8       ??_C@_09HNLILNJH@MP_SVGAME?$AA@ 300a93c8     cg_event.obj
 0002:000103d4       ??_C@_0L@HMDPGPOM@BEGIN_DUEL?$AA@ 300a93d4     cg_event.obj
 0002:000103e0       ??_C@_0BB@MIEMHGH@EV_PRIVATE_DUEL?6?$AA@ 300a93e0     cg_event.obj
 0002:000103f4       ??_C@_0BA@JJCOOCID@EV_GLOBAL_DUEL?6?$AA@ 300a93f4     cg_event.obj
 0002:00010404       ??_C@_0BA@GNCBDOLB@EV_GHOUL2_MARK?6?$AA@ 300a9404     cg_event.obj
 0002:00010414       ??_C@_0N@CDCGGHDH@EV_JUMP_PAD?6?$AA@ 300a9414     cg_event.obj
 0002:00010424       ??_C@_08LGDHLDGB@EV_STEP?6?$AA@ 300a9424     cg_event.obj
 0002:00010430       ??_C@_08CFBICNCF@EV_FALL?6?$AA@ 300a9430     cg_event.obj
 0002:0001043c       ??_C@_08KPLPEGCK@EV_SWIM?6?$AA@ 300a943c     cg_event.obj
 0002:00010448       ??_C@_0N@DBFBMKGC@EV_FOOTWADE?6?$AA@ 300a9448     cg_event.obj
 0002:00010458       ??_C@_0P@ECCJNKCN@EV_FOOTSPLASH?6?$AA@ 300a9458     cg_event.obj
 0002:00010468       ??_C@_0BD@GPGIDOAE@EV_FOOTSTEP_METAL?6?$AA@ 300a9468     cg_event.obj
 0002:0001047c       ??_C@_0N@KAJBJGHI@EV_FOOTSTEP?6?$AA@ 300a947c     cg_event.obj
 0002:0001048c       ??_C@_0P@LEHMHLJF@EV_CLIENTJOIN?6?$AA@ 300a948c     cg_event.obj
 0002:0001049c       ??_C@_0L@GMIFJJAD@ZEROEVENT?6?$AA@ 300a949c     cg_event.obj
 0002:000104a8       ??_C@_0BE@HGIJDIOP@ent?3?$CF3i?5?5event?3?$CF3i?5?$AA@ 300a94a8     cg_event.obj
 0002:000104bc       __real@430c0000            300a94bc     cg_info.obj
 0002:000104c0       __real@43e60000            300a94c0     cg_info.obj
 0002:000104c4       __real@42e00000            300a94c4     cg_info.obj
 0002:000104c8       __real@43e00000            300a94c8     cg_info.obj
 0002:000104cc       __real@43d00000            300a94cc     cg_info.obj
 0002:000104d0       ??_C@_0M@DLPOCMGF@RULES_CTY_2?$AA@ 300a94d0     cg_info.obj
 0002:000104dc       ??_C@_0M@BANDHPKG@RULES_CTY_1?$AA@ 300a94dc     cg_info.obj
 0002:000104e8       ??_C@_0M@DDIEGLKM@RULES_CTF_2?$AA@ 300a94e8     cg_info.obj
 0002:000104f4       ??_C@_0M@BIKJDIGP@RULES_CTF_1?$AA@ 300a94f4     cg_info.obj
 0002:00010500       ??_C@_0N@FAOPFHNA@RULES_TEAM_2?$AA@ 300a9500     cg_info.obj
 0002:00010510       ??_C@_0N@HLMCAEBD@RULES_TEAM_1?$AA@ 300a9510     cg_info.obj
 0002:00010520       ??_C@_0BC@DEFENGAD@RULES_POWERDUEL_2?$AA@ 300a9520     cg_info.obj
 0002:00010534       ??_C@_0BC@BPHJIFMA@RULES_POWERDUEL_1?$AA@ 300a9534     cg_info.obj
 0002:00010548       ??_C@_0N@HJNLAICA@RULES_DUEL_2?$AA@ 300a9548     cg_info.obj
 0002:00010558       ??_C@_0N@FCPGFLOD@RULES_DUEL_1?$AA@ 300a9558     cg_info.obj
 0002:00010568       ??_C@_0N@CAIMKIGE@RULES_JEDI_2?$AA@ 300a9568     cg_info.obj
 0002:00010578       ??_C@_0N@LKBPLKH@RULES_JEDI_1?$AA@ 300a9578     cg_info.obj
 0002:00010588       ??_C@_0N@DJDIODG@RULES_HOLO_2?$AA@ 300a9588     cg_info.obj
 0002:00010598       ??_C@_0N@CILONNPF@RULES_HOLO_1?$AA@ 300a9598     cg_info.obj
 0002:000105a8       ??_C@_0M@MPJDFFIH@RULES_FFA_1?$AA@ 300a95a8     cg_info.obj
 0002:000105b4       ??_C@_07IEKFKEFE@NOFPSET?$AA@ 300a95b4     cg_info.obj
 0002:000105bc       ??_C@_0N@JNDANCJI@SABERONLYSET?$AA@ 300a95bc     cg_info.obj
 0002:000105cc       ??_C@_0BE@OBOCPLPN@g_duelWeaponDisable?$AA@ 300a95cc     cg_info.obj
 0002:000105e0       ??_C@_0BA@DKHOJHPN@g_weaponDisable?$AA@ 300a95e0     cg_info.obj
 0002:000105f0       ??_C@_0BH@INBNAGOD@MP_INGAME_MAXFORCERANK?$AA@ 300a95f0     cg_info.obj
 0002:00010608       ??_C@_0P@CHCANPBO@g_maxForceRank?$AA@ 300a9608     cg_info.obj
 0002:00010618       ??_C@_0BE@EDCPOKDI@g_forcePowerDisable?$AA@ 300a9618     cg_info.obj
 0002:0001062c       ??_C@_0BA@DGPADPIF@FORCEBASEDTEAMS?$AA@ 300a962c     cg_info.obj
 0002:0001063c       ??_C@_0BC@PJKMCDAC@g_forceBasedTeams?$AA@ 300a963c     cg_info.obj
 0002:00010650       ??_C@_0N@EPCFLABN@CAPTURELIMIT?$AA@ 300a9650     cg_info.obj
 0002:00010660       ??_C@_0N@FCAHJCDA@capturelimit?$AA@ 300a9660     cg_info.obj
 0002:00010670       ??_C@_08MILIEONM@WINLIMIT?$AA@ 300a9670     cg_info.obj
 0002:0001067c       ??_C@_0P@CFJBJECC@duel_fraglimit?$AA@ 300a967c     cg_info.obj
 0002:0001068c       ??_C@_09FCHFFOMK@FRAGLIMIT?$AA@ 300a968c     cg_info.obj
 0002:00010698       ??_C@_09GCIEGDDN@fraglimit?$AA@ 300a9698     cg_info.obj
 0002:000106a4       ??_C@_05INKFKLBN@?$CFs?5?$CFi?$AA@ 300a96a4     cg_info.obj
 0002:000106ac       ??_C@_09JPILNHNF@TIMELIMIT?$AA@ 300a96ac     cg_info.obj
 0002:000106b8       ??_C@_09KPHKOKCC@timelimit?$AA@ 300a96b8     cg_info.obj
 0002:000106c4       ??_C@_04PJHBGHKA@SAGA?$AA@ 300a96c4     cg_info.obj
 0002:000106cc       ??_C@_0BB@FMGHLLBN@CHEATSAREENABLED?$AA@ 300a96cc     cg_info.obj
 0002:000106e0       ??_C@_09NFOPKLIK@sv_cheats?$AA@ 300a96e0     cg_info.obj
 0002:000106ec       ??_C@_0O@GJFLJONJ@cl_motdString?$AA@ 300a96ec     cg_info.obj
 0002:000106fc       ??_C@_0M@LJLDHHA@PURE_SERVER?$AA@ 300a96fc     cg_info.obj
 0002:00010708       ??_C@_07CAKOHKGL@sv_pure?$AA@ 300a9708     cg_info.obj
 0002:00010710       ??_C@_0M@NHCIKFPA@sv_hostname?$AA@ 300a9710     cg_info.obj
 0002:0001071c       ??_C@_0L@MPAGGMDN@sv_running?$AA@ 300a971c     cg_info.obj
 0002:00010728       ??_C@_0BC@OMJIFLDI@AWAITING_SNAPSHOT?$AA@ 300a9728     cg_info.obj
 0002:0001073c       ??_C@_0BA@DANNDEJB@LOADING_MAPNAME?$AA@ 300a973c     cg_info.obj
 0002:0001074c       ??_C@_0BH@NKLBLPLI@menu?1art?1unknownmap_mp?$AA@ 300a974c     cg_info.obj
 0002:00010764       ??_C@_0O@OBEFLHGN@levelshots?1?$CFs?$AA@ 300a9764     cg_info.obj
 0002:00010774       ??_C@_0BJ@JHLHMDHN@svc_lightstyle?5length?$DN?$CFi?$AA@ 300a9774     cg_light.obj
 0002:00010790       ??_C@_0BP@HOJADAKE@CG_FreeLocalEntity?3?5not?5active?$AA@ 300a9790     cg_localents.obj
 0002:000107b0       ??_C@_0DA@IBIAOCEJ@?$FO1WARNING?3?5CG_AllocLocalEntity?3?5@ 300a97b0     cg_localents.obj
 0002:000107e0       __real@44fa0000            300a97e0     cg_localents.obj
 0002:000107e4       __real@437f0000            300a97e4     cg_localents.obj
 0002:000107e8       __real@4045000000000000    300a97e8     cg_localents.obj
 0002:000107f0       __real@3fd51eb851eb851f    300a97f0     cg_localents.obj
 0002:000107f8       __real@405b800000000000    300a97f8     cg_localents.obj
 0002:00010800       __real@408fe00000000000    300a9800     cg_localents.obj
 0002:00010808       ??_C@_0P@JBCHHKP@Bad?5leType?3?5?$CFi?$AA@ 300a9808     cg_localents.obj
 0002:00010818       ??_C@_0L@GHJELKA@radarrange?$AA@ 300a9818     cg_main.obj
 0002:00010824       ??_C@_08GPANHKMJ@fogstart?$AA@ 300a9824     cg_main.obj
 0002:00010830       ??_C@_0M@NPFLFEBE@onlyfoghere?$AA@ 300a9830     cg_main.obj
 0002:0001083c       ??_C@_07GOKJEFCD@zoffset?$AA@ 300a983c     cg_main.obj
 0002:00010844       ??_C@_04IFBFDIKF@maxs?$AA@ 300a9844     cg_main.obj
 0002:0001084c       ??_C@_04FIAKMPII@mins?$AA@ 300a984c     cg_main.obj
 0002:00010854       ??_C@_0P@OMAFFCFF@modelscale_vec?$AA@ 300a9854     cg_main.obj
 0002:00010864       ??_C@_0L@HDLPNNAF@modelscale?$AA@ 300a9864     cg_main.obj
 0002:00010870       ??_C@_05FECBCJJD@angle?$AA@ 300a9870     cg_main.obj
 0002:00010878       ??_C@_06GNEAMJOC@angles?$AA@ 300a9878     cg_main.obj
 0002:00010880       ??_C@_06NHCMNMEH@origin?$AA@ 300a9880     cg_main.obj
 0002:00010888       ??_C@_09CNJINBGN@classname?$AA@ 300a9888     cg_main.obj
 0002:00010894       ??_C@_0BG@DGNIOOMC@gfx?12d?1numbers?1c_nine?$AA@ 300a9894     cg_main.obj
 0002:000108ac       ??_C@_0BH@CBBIOLJK@gfx?12d?1numbers?1c_eight?$AA@ 300a98ac     cg_main.obj
 0002:000108c4       ??_C@_0BH@GBDHLOGP@gfx?12d?1numbers?1c_seven?$AA@ 300a98c4     cg_main.obj
 0002:000108dc       ??_C@_0BF@FIJHJLOI@gfx?12d?1numbers?1c_six?$AA@ 300a98dc     cg_main.obj
 0002:000108f4       ??_C@_0BG@BEJNFHML@gfx?12d?1numbers?1c_five?$AA@ 300a98f4     cg_main.obj
 0002:0001090c       ??_C@_0BG@DGDDDCNI@gfx?12d?1numbers?1c_four?$AA@ 300a990c     cg_main.obj
 0002:00010924       ??_C@_0BH@OIDEAEPK@gfx?12d?1numbers?1c_three?$AA@ 300a9924     cg_main.obj
 0002:0001093c       ??_C@_0BF@NGHLKJLN@gfx?12d?1numbers?1c_two?$AA@ 300a993c     cg_main.obj
 0002:00010954       ??_C@_0BF@LIHLAJFG@gfx?12d?1numbers?1c_one?$AA@ 300a9954     cg_main.obj
 0002:0001096c       ??_C@_0BG@GLNNCKG@gfx?12d?1numbers?1c_zero?$AA@ 300a996c     cg_main.obj
 0002:00010984       ??_C@_0BH@JNICLIKL@gfx?12d?1numbers?1t_minus?$AA@ 300a9984     cg_main.obj
 0002:0001099c       ??_C@_0BG@JEKBEMIC@gfx?12d?1numbers?1t_nine?$AA@ 300a999c     cg_main.obj
 0002:000109b4       ??_C@_0BH@FHGGNDKI@gfx?12d?1numbers?1t_eight?$AA@ 300a99b4     cg_main.obj
 0002:000109cc       ??_C@_0BH@BHEJIGFN@gfx?12d?1numbers?1t_seven?$AA@ 300a99cc     cg_main.obj
 0002:000109e4       ??_C@_0BF@EGEEKJML@gfx?12d?1numbers?1t_six?$AA@ 300a99e4     cg_main.obj
 0002:000109fc       ??_C@_0BG@LGOEPFIL@gfx?12d?1numbers?1t_five?$AA@ 300a99fc     cg_main.obj
 0002:00010a14       ??_C@_0BG@JEEKJAJI@gfx?12d?1numbers?1t_four?$AA@ 300a9a14     cg_main.obj
 0002:00010a2c       ??_C@_0BH@JOEKDMMI@gfx?12d?1numbers?1t_three?$AA@ 300a9a2c     cg_main.obj
 0002:00010a44       ??_C@_0BF@MIKIJLJO@gfx?12d?1numbers?1t_two?$AA@ 300a9a44     cg_main.obj
 0002:00010a5c       ??_C@_0BF@KGKIDLHF@gfx?12d?1numbers?1t_one?$AA@ 300a9a5c     cg_main.obj
 0002:00010a74       ??_C@_0BG@KEMEHAOG@gfx?12d?1numbers?1t_zero?$AA@ 300a9a74     cg_main.obj
 0002:00010a8c       ??_C@_0BF@BIEHLLCD@gfx?12d?1numbers?1minus?$AA@ 300a9a8c     cg_main.obj
 0002:00010aa4       ??_C@_0BE@DEJCBMNA@gfx?12d?1numbers?1nine?$AA@ 300a9aa4     cg_main.obj
 0002:00010ab8       ??_C@_0BF@NCKDNACA@gfx?12d?1numbers?1eight?$AA@ 300a9ab8     cg_main.obj
 0002:00010ad0       ??_C@_0BF@JCIMIFNF@gfx?12d?1numbers?1seven?$AA@ 300a9ad0     cg_main.obj
 0002:00010ae8       ??_C@_0BD@HPPGIDCL@gfx?12d?1numbers?1six?$AA@ 300a9ae8     cg_main.obj
 0002:00010afc       ??_C@_0BE@BGNHKFNJ@gfx?12d?1numbers?1five?$AA@ 300a9afc     cg_main.obj
 0002:00010b10       ??_C@_0BE@DEHJMAMK@gfx?12d?1numbers?1four?$AA@ 300a9b10     cg_main.obj
 0002:00010b24       ??_C@_0BF@BLIPDPEA@gfx?12d?1numbers?1three?$AA@ 300a9b24     cg_main.obj
 0002:00010b3c       ??_C@_0BD@PBBKLBHO@gfx?12d?1numbers?1two?$AA@ 300a9b3c     cg_main.obj
 0002:00010b50       ??_C@_0BD@JPBKBBJF@gfx?12d?1numbers?1one?$AA@ 300a9b50     cg_main.obj
 0002:00010b64       ??_C@_0BE@EPHCALE@gfx?12d?1numbers?1zero?$AA@ 300a9b64     cg_main.obj
 0002:00010b78       ??_C@_04KOJKLCBG@1000?$AA@ 300a9b78     cg_main.obj
 0002:00010b80       ??_C@_07JGDKFCBB@fx_vfps?$AA@ 300a9b80     cg_main.obj
 0002:00010b88       ??_C@_0N@PHFEJIJO@cg_drawSpeed?$AA@ 300a9b88     cg_main.obj
 0002:00010b98       ??_C@_0N@HIDEOKKB@cg_drawSvFPS?$AA@ 300a9b98     cg_main.obj
 0002:00010ba8       ??_C@_0N@NNKAOHNC@cg_fixRocket?$AA@ 300a9ba8     cg_main.obj
 0002:00010bb8       ??_C@_0BH@LNJBLCJN@pug_demos_autoChaseCam?$AA@ 300a9bb8     cg_main.obj
 0002:00010bd0       ??_C@_04HBOFHNPO@shot?$AA@ 300a9bd0     cg_main.obj
 0002:00010bd8       ??_C@_0BD@NEBAGPKH@mme_screenshotName?$AA@ 300a9bd8     cg_main.obj
 0002:00010bec       ??_C@_0N@HOJMHMN@mme_workMegs?$AA@ 300a9bec     cg_main.obj
 0002:00010bfc       ??_C@_0N@ONCCPHNB@mme_saveShot?$AA@ 300a9bfc     cg_main.obj
 0002:00010c0c       ??_C@_0O@LCCEJAEB@mme_saveDepth?$AA@ 300a9c0c     cg_main.obj
 0002:00010c1c       ??_C@_0BA@IOLOLPGC@mme_saveStencil?$AA@ 300a9c1c     cg_main.obj
 0002:00010c2c       ??_C@_0P@PKPDDNII@mme_depthFocus?$AA@ 300a9c2c     cg_main.obj
 0002:00010c3c       ??_C@_0P@CMNENJHA@mme_depthRange?$AA@ 300a9c3c     cg_main.obj
 0002:00010c4c       ??_C@_0O@LEKDEAPJ@mme_blurGamma?$AA@ 300a9c4c     cg_main.obj
 0002:00010c5c       ??_C@_0N@PMIBLHDL@mme_blurType?$AA@ 300a9c5c     cg_main.obj
 0002:00010c6c       ??_C@_0BB@DPIJHBHN@mme_renderHeight?$AA@ 300a9c6c     cg_main.obj
 0002:00010c80       ??_C@_0BA@LAGFINDI@mme_renderWidth?$AA@ 300a9c80     cg_main.obj
 0002:00010c90       ??_C@_0L@KGGEDDIK@mme_skykey?$AA@ 300a9c90     cg_main.obj
 0002:00010c9c       ??_C@_0BD@DENNNKHO@mme_pngCompression?$AA@ 300a9c9c     cg_main.obj
 0002:00010cb0       ??_C@_0BD@LABCJPIA@mme_tgaCompression?$AA@ 300a9cb0     cg_main.obj
 0002:00010cc4       ??_C@_0BE@FCMBHPGC@mme_screenShotGamma?$AA@ 300a9cc4     cg_main.obj
 0002:00010cd8       ??_C@_0BF@JGHABHGO@mme_screenShotFormat?$AA@ 300a9cd8     cg_main.obj
 0002:00010cf0       ??_C@_0BI@MJDEDNPE@mme_jpegOptimizeHuffman?$AA@ 300a9cf0     cg_main.obj
 0002:00010d08       ??_C@_0BJ@GFKPMOFP@mme_jpegDownsampleChroma?$AA@ 300a9d08     cg_main.obj
 0002:00010d24       ??_C@_02PEECMOAB@90?$AA@   300a9d24     cg_main.obj
 0002:00010d28       ??_C@_0BA@NLONEKIF@mme_jpegQuality?$AA@ 300a9d28     cg_main.obj
 0002:00010d38       ??_C@_0O@ODFCODEJ@mme_aviFormat?$AA@ 300a9d38     cg_main.obj
 0002:00010d48       ??_C@_0BE@MHCJHGKO@cg_blendScreenshots?$AA@ 300a9d48     cg_main.obj
 0002:00010d5c       ??_C@_0P@KGNLIACH@cg_noChatSound?$AA@ 300a9d5c     cg_main.obj
 0002:00010d6c       ??_C@_0L@KCINNCLM@debug_cvar?$AA@ 300a9d6c     cg_main.obj
 0002:00010d78       ??_C@_0BM@HBADKBOE@pug_demos_Timescalelesscams?$AA@ 300a9d78     cg_main.obj
 0002:00010d94       ??_C@_0BN@FHOIEGAB@pug_demos_HidePacketEntities?$AA@ 300a9d94     cg_main.obj
 0002:00010db4       ??_C@_0BM@CPNFDONL@pug_demos_HideLocalEntities?$AA@ 300a9db4     cg_main.obj
 0002:00010dd0       ??_C@_0CB@KGFPIBFO@pug_demos_UnlockThirdpersonPitch@ 300a9dd0     cg_main.obj
 0002:00010df4       ??_C@_0BF@LBNJGGLD@pug_demos_cameraMode?$AA@ 300a9df4     cg_main.obj
 0002:00010e0c       ??_C@_0L@FIDNPIBJ@ui_noScope?$AA@ 300a9e0c     cg_main.obj
 0002:00010e18       ??_C@_0N@GKMNIEIH@ui_fragsOnly?$AA@ 300a9e18     cg_main.obj
 0002:00010e28       ??_C@_0O@IDOKGHD@cam_autosound?$AA@ 300a9e28     cg_main.obj
 0002:00010e38       ??_C@_0P@IAMOECNE@cam_autorecord?$AA@ 300a9e38     cg_main.obj
 0002:00010e48       ??_C@_02PGHGPEOM@?91?$AA@  300a9e48     cg_main.obj
 0002:00010e4c       ??_C@_0N@JIKAIIJC@pug_demospec?$AA@ 300a9e4c     cg_main.obj
 0002:00010e5c       ??_C@_07HEFMJHOI@debugBB?$AA@ 300a9e5c     cg_main.obj
 0002:00010e64       ??_C@_0O@LCGEGLGL@cg_enemyModel?$AA@ 300a9e64     cg_main.obj
 0002:00010e74       ??_C@_0P@MHIOLDMB@cg_friendModel?$AA@ 300a9e74     cg_main.obj
 0002:00010e84       ??_C@_0BC@FFJIJNNL@cg_forceTeamModel?$AA@ 300a9e84     cg_main.obj
 0002:00010e98       ??_C@_02PKFBJPLJ@10?$AA@   300a9e98     cg_main.obj
 0002:00010e9c       ??_C@_0BD@PBCOGHDJ@cg_snapshotTimeout?$AA@ 300a9e9c     cg_main.obj
 0002:00010eb0       ??_C@_0BB@GNCGINEC@cg_showVehBounds?$AA@ 300a9eb0     cg_main.obj
 0002:00010ec4       ??_C@_0BF@IHAIMPIG@cg_noProjectileTrail?$AA@ 300a9ec4     cg_main.obj
 0002:00010edc       ??_C@_0L@BNLHLPGL@cg_noTaunt?$AA@ 300a9edc     cg_main.obj
 0002:00010ee8       ??_C@_01KJLJFBPL@8?$AA@    300a9ee8     cg_main.obj
 0002:00010eec       ??_C@_0L@JLBEBBAD@pmove_msec?$AA@ 300a9eec     cg_main.obj
 0002:00010ef8       ??_C@_0M@HOGKGHBI@pmove_fixed?$AA@ 300a9ef8     cg_main.obj
 0002:00010f04       ??_C@_0P@EIAPFKBF@com_cameraMode?$AA@ 300a9f04     cg_main.obj
 0002:00010f14       ??_C@_0BB@EPNKMEEL@cg_smoothClients?$AA@ 300a9f14     cg_main.obj
 0002:00010f28       ??_C@_0N@NPDEHAEG@ui?1jahud?4txt?$AA@ 300a9f28     cg_main.obj
 0002:00010f38       ??_C@_0M@OADJJKKA@cg_hudFiles?$AA@ 300a9f38     cg_main.obj
 0002:00010f44       ??_C@_0O@ECBGLFLJ@cg_scorePlums?$AA@ 300a9f44     cg_main.obj
 0002:00010f54       ??_C@_0BG@HODAAIBP@cg_timescaleFadeSpeed?$AA@ 300a9f54     cg_main.obj
 0002:00010f6c       ??_C@_0BE@INLNOCBP@cg_timescaleFadeEnd?$AA@ 300a9f6c     cg_main.obj
 0002:00010f80       ??_C@_02PNFIDHGF@50?$AA@   300a9f80     cg_main.obj
 0002:00010f84       ??_C@_0BE@CELIAELA@ui_recordSPDemoName?$AA@ 300a9f84     cg_main.obj
 0002:00010f98       ??_C@_0BA@OHINOCDN@ui_recordSPDemo?$AA@ 300a9f98     cg_main.obj
 0002:00010fa8       ??_C@_0BN@HANLGBBD@cg_currentSelectedPlayerName?$AA@ 300a9fa8     cg_main.obj
 0002:00010fc8       ??_C@_0BJ@CEJCFKCN@cg_currentSelectedPlayer?$AA@ 300a9fc8     cg_main.obj
 0002:00010fe4       ??_C@_0BF@LICFCALK@g_synchronousClients?$AA@ 300a9fe4     cg_main.obj
 0002:00010ffc       ??_C@_09DKNLLEN@com_blood?$AA@ 300a9ffc     cg_main.obj
 0002:00011008       ??_C@_0BA@MOHNLIKA@com_buildScript?$AA@ 300aa008     cg_main.obj
 0002:00011018       ??_C@_0BB@GFOCPFOA@cg_teamChatsOnly?$AA@ 300aa018     cg_main.obj
 0002:0001102c       ??_C@_0O@KGJIDOMN@cg_drawFriend?$AA@ 300aa02c     cg_main.obj
 0002:0001103c       ??_C@_08CGDPCFHD@cg_stats?$AA@ 300aa03c     cg_main.obj
 0002:00011048       ??_C@_0M@IKKMOBIP@teamoverlay?$AA@ 300aa048     cg_main.obj
 0002:00011054       ??_C@_0BD@BNGDPIGC@cg_drawTeamOverlay?$AA@ 300aa054     cg_main.obj
 0002:00011068       ??_C@_0BA@PFOJHBKN@cg_deferPlayers?$AA@ 300aa068     cg_main.obj
 0002:00011078       ??_C@_0BA@PKAEEJJB@cg_predictItems?$AA@ 300aa078     cg_main.obj
 0002:00011088       ??_C@_0O@LJBBKNGE@cg_forceModel?$AA@ 300aa088     cg_main.obj
 0002:00011098       ??_C@_03HLLJOCDO@1?40?$AA@ 300aa098     cg_main.obj
 0002:0001109c       ??_C@_0BE@KCHOECBB@cg_thirdPersonAlpha?$AA@ 300aa09c     cg_main.obj
 0002:000110b0       ??_C@_0BJ@FEJLIMD@cg_thirdPersonHorzOffset?$AA@ 300aa0b0     cg_main.obj
 0002:000110cc       ??_C@_03LOHCHBBO@0?45?$AA@ 300aa0cc     cg_main.obj
 0002:000110d0       ??_C@_0BJ@FGGPEIAI@cg_thirdPersonTargetDamp?$AA@ 300aa0d0     cg_main.obj
 0002:000110ec       ??_C@_03OICINGJI@0?43?$AA@ 300aa0ec     cg_main.obj
 0002:000110f0       ??_C@_0BJ@BBJMCCPF@cg_thirdPersonCameraDamp?$AA@ 300aa0f0     cg_main.obj
 0002:0001110c       ??_C@_0BJ@PLGBNFPF@cg_thirdPersonVertOffset?$AA@ 300aa10c     cg_main.obj
 0002:00011128       ??_C@_0BK@MPOHHNJK@cg_thirdPersonPitchOffset?$AA@ 300aa128     cg_main.obj
 0002:00011144       ??_C@_0BJ@GCJEPJEL@cg_thirdPersonSpecialCam?$AA@ 300aa144     cg_main.obj
 0002:00011160       ??_C@_0N@OPONILAJ@cg_dismember?$AA@ 300aa160     cg_main.obj
 0002:00011170       ??_C@_0N@CKANHONG@cg_animBlend?$AA@ 300aa170     cg_main.obj
 0002:00011180       ??_C@_0P@KJEOPEGG@cg_repeaterOrb?$AA@ 300aa180     cg_main.obj
 0002:00011190       ??_C@_0N@BELOMMOL@cg_auraShell?$AA@ 300aa190     cg_main.obj
 0002:000111a0       ??_C@_0O@JKMBDLDF@cg_speedTrail?$AA@ 300aa1a0     cg_main.obj
 0002:000111b0       ??_C@_0BC@JMPFMIDA@cg_duelHeadAngles?$AA@ 300aa1b0     cg_main.obj
 0002:000111c4       ??_C@_0O@DCMCBFNO@cg_saberTrail?$AA@ 300aa1c4     cg_main.obj
 0002:000111d4       ??_C@_0BA@JIJPALDE@cg_saberContact?$AA@ 300aa1d4     cg_main.obj
 0002:000111e4       ??_C@_05DGDJCJKI@60000?$AA@ 300aa1e4     cg_main.obj
 0002:000111ec       ??_C@_0BI@OHDIIEFC@cg_saberDynamicMarkTime?$AA@ 300aa1ec     cg_main.obj
 0002:00011204       ??_C@_0BF@NABJAOEA@cg_saberDynamicMarks?$AA@ 300aa204     cg_main.obj
 0002:0001121c       ??_C@_0BA@DKCLACHI@com_optvehtrace?$AA@ 300aa21c     cg_main.obj
 0002:0001122c       ??_C@_02KMALDIDP@16?$AA@   300aa22c     cg_main.obj
 0002:00011230       ??_C@_0P@LOAKBPJB@cg_ghoul2Marks?$AA@ 300aa230     cg_main.obj
 0002:00011240       ??_C@_07EPOCHFIH@cg_fpls?$AA@ 300aa240     cg_main.obj
 0002:00011248       ??_C@_0O@FGBOGFDL@cg_g2TraceLod?$AA@ 300aa248     cg_main.obj
 0002:00011258       ??_C@_0CB@MPIDIEDG@cg_saberClientVisualCompensation@ 300aa258     cg_main.obj
 0002:0001127c       ??_C@_0BJ@MEKKLEGB@cg_saberModelTraceEffect?$AA@ 300aa27c     cg_main.obj
 0002:00011298       ??_C@_03MBMDGGCE@350?$AA@  300aa298     cg_main.obj
 0002:0001129c       ??_C@_0BB@CHDPLIJE@cg_chatBoxHeight?$AA@ 300aa29c     cg_main.obj
 0002:000112b0       ??_C@_05CLDMBJBA@10000?$AA@ 300aa2b0     cg_main.obj
 0002:000112b8       ??_C@_0L@HPCJPPPL@cg_chatBox?$AA@ 300aa2b8     cg_main.obj
 0002:000112c4       ??_C@_0BF@KOOBPECE@bg_fighterAltControl?$AA@ 300aa2c4     cg_main.obj
 0002:000112dc       ??_C@_0L@HLKMJKID@r_autoMapH?$AA@ 300aa2dc     cg_main.obj
 0002:000112e8       ??_C@_03KGFMDCCC@128?$AA@  300aa2e8     cg_main.obj
 0002:000112ec       ??_C@_0L@LGPGJEBN@r_autoMapW?$AA@ 300aa2ec     cg_main.obj
 0002:000112f8       ??_C@_02MLODCJFF@32?$AA@   300aa2f8     cg_main.obj
 0002:000112fc       ??_C@_0L@CIHFLJJD@r_autoMapY?$AA@ 300aa2fc     cg_main.obj
 0002:00011308       ??_C@_03DFEAAHP@496?$AA@   300aa308     cg_main.obj
 0002:0001130c       ??_C@_0L@DBGOIINC@r_autoMapX?$AA@ 300aa30c     cg_main.obj
 0002:00011318       ??_C@_09GFLGOEGI@r_autoMap?$AA@ 300aa318     cg_main.obj
 0002:00011324       ??_C@_0O@KGIKKFB@cg_jumpSounds?$AA@ 300aa324     cg_main.obj
 0002:00011334       ??_C@_0L@HNPLAEJB@broadsword?$AA@ 300aa334     cg_main.obj
 0002:00011340       ??_C@_0BB@FEDAIAGH@cg_oldPainSounds?$AA@ 300aa340     cg_main.obj
 0002:00011354       ??_C@_0P@JLFLAMIK@cg_swingAngles?$AA@ 300aa354     cg_main.obj
 0002:00011364       ??_C@_0N@GHAOKDNB@cg_footsteps?$AA@ 300aa364     cg_main.obj
 0002:00011374       ??_C@_0P@KLOAANMO@cg_showVehMiss?$AA@ 300aa374     cg_main.obj
 0002:00011384       ??_C@_0M@DOMGGLDE@cg_showmiss?$AA@ 300aa384     cg_main.obj
 0002:00011390       ??_C@_0BB@HOMHKKFN@cg_noplayeranims?$AA@ 300aa390     cg_main.obj
 0002:000113a4       ??_C@_0N@BMAKLHMK@cg_nopredict?$AA@ 300aa3a4     cg_main.obj
 0002:000113b4       ??_C@_0O@MAANEMBM@cg_errordecay?$AA@ 300aa3b4     cg_main.obj
 0002:000113c4       ??_C@_0P@NKGOJNHN@cg_debugevents?$AA@ 300aa3c4     cg_main.obj
 0002:000113d4       ??_C@_0BB@PNGPLJB@cg_debugposition?$AA@ 300aa3d4     cg_main.obj
 0002:000113e8       ??_C@_0O@HLOFHCH@cg_debugsaber?$AA@ 300aa3e8     cg_main.obj
 0002:000113f8       ??_C@_0N@OLFHJPEJ@cg_debuganim?$AA@ 300aa3f8     cg_main.obj
 0002:00011408       ??_C@_0N@EMGODPLM@cg_animspeed?$AA@ 300aa408     cg_main.obj
 0002:00011418       ??_C@_0L@BEAFIAK@cg_bobroll?$AA@ 300aa418     cg_main.obj
 0002:00011424       ??_C@_0M@BBIJCEAP@cg_bobpitch?$AA@ 300aa424     cg_main.obj
 0002:00011430       ??_C@_08MBNPMEME@cg_bobup?$AA@ 300aa430     cg_main.obj
 0002:0001143c       ??_C@_05ECMHBHBD@0?4005?$AA@ 300aa43c     cg_main.obj
 0002:00011444       ??_C@_0L@MJJHGKNK@cg_runroll?$AA@ 300aa444     cg_main.obj
 0002:00011450       ??_C@_05NIGIBNE@0?4002?$AA@ 300aa450     cg_main.obj
 0002:00011458       ??_C@_0M@JHJCCBOJ@cg_runpitch?$AA@ 300aa458     cg_main.obj
 0002:00011464       ??_C@_01EKENIIDA@3?$AA@    300aa464     cg_main.obj
 0002:00011468       ??_C@_0O@CMEJDJHP@cg_centertime?$AA@ 300aa468     cg_main.obj
 0002:00011478       ??_C@_07CJOOHIA@cg_gunZ?$AA@ 300aa478     cg_main.obj
 0002:00011480       ??_C@_07CJLDLEED@cg_gunY?$AA@ 300aa480     cg_main.obj
 0002:00011488       ??_C@_07DAKIIFAC@cg_gunX?$AA@ 300aa488     cg_main.obj
 0002:00011490       ??_C@_0N@IBNNIGPC@cg_lagometer?$AA@ 300aa490     cg_main.obj
 0002:000114a0       ??_C@_08OCDFECFG@cg_marks?$AA@ 300aa4a0     cg_main.obj
 0002:000114ac       ??_C@_0P@CCFIBNOJ@cg_simpleItems?$AA@ 300aa4ac     cg_main.obj
 0002:000114bc       ??_C@_0O@JOEPLDPN@cg_crosshairY?$AA@ 300aa4bc     cg_main.obj
 0002:000114cc       ??_C@_0O@IHFEICLM@cg_crosshairX?$AA@ 300aa4cc     cg_main.obj
 0002:000114dc       ??_C@_0BD@JJIJCGAH@cg_crosshairHealth?$AA@ 300aa4dc     cg_main.obj
 0002:000114f0       ??_C@_02JMHLOEOE@24?$AA@   300aa4f0     cg_main.obj
 0002:000114f4       ??_C@_0BB@NJOFJDCL@cg_crosshairSize?$AA@ 300aa4f4     cg_main.obj
 0002:00011508       ??_C@_0P@GNHKLMJL@cg_drawRewards?$AA@ 300aa508     cg_main.obj
 0002:00011518       ??_C@_0BN@BFHNKEKL@cg_dynamicCrosshairPrecision?$AA@ 300aa518     cg_main.obj
 0002:00011538       ??_C@_0BE@DIOLLFIC@cg_dynamicCrosshair?$AA@ 300aa538     cg_main.obj
 0002:0001154c       ??_C@_0O@BAKMKNGL@cg_drawScores?$AA@ 300aa54c     cg_main.obj
 0002:0001155c       ??_C@_0BI@NGOBKLCO@cg_drawVehLeadIndicator?$AA@ 300aa55c     cg_main.obj
 0002:00011574       ??_C@_0N@MCKFIPGH@cg_drawRadar?$AA@ 300aa574     cg_main.obj
 0002:00011584       ??_C@_0BG@PFLNOEEN@cg_drawCrosshairNames?$AA@ 300aa584     cg_main.obj
 0002:0001159c       ??_C@_0BB@KBADOJHA@cg_drawCrosshair?$AA@ 300aa59c     cg_main.obj
 0002:000115b0       ??_C@_0BB@LBKBMNKM@cg_drawEnemyInfo?$AA@ 300aa5b0     cg_main.obj
 0002:000115c4       ??_C@_0BD@FJPGADGN@cg_drawAmmoWarning?$AA@ 300aa5c4     cg_main.obj
 0002:000115d8       ??_C@_0N@BEDCNPCC@cg_drawIcons?$AA@ 300aa5d8     cg_main.obj
 0002:000115e8       ??_C@_0P@DMBICICD@cg_draw3dIcons?$AA@ 300aa5e8     cg_main.obj
 0002:000115f8       ??_C@_0BA@MIPMDAEB@cg_drawSnapshot?$AA@ 300aa5f8     cg_main.obj
 0002:00011608       ??_C@_0L@CHMHIHCB@cg_drawFPS?$AA@ 300aa608     cg_main.obj
 0002:00011614       ??_C@_0N@FOINMAON@cg_drawTimer?$AA@ 300aa614     cg_main.obj
 0002:00011624       ??_C@_0O@IIACNNIF@cg_drawStatus?$AA@ 300aa624     cg_main.obj
 0002:00011634       ??_C@_09EKPCJMOG@cg_draw2D?$AA@ 300aa634     cg_main.obj
 0002:00011640       ??_C@_0BF@NCEBGBDJ@cg_renderToTextureFX?$AA@ 300aa640     cg_main.obj
 0002:00011658       ??_C@_0L@MAOLAFLC@cg_shadows?$AA@ 300aa658     cg_main.obj
 0002:00011664       ??_C@_03KHGJEAFP@0?44?$AA@ 300aa664     cg_main.obj
 0002:00011668       ??_C@_0BE@EMBJACLB@cg_stereoSeparation?$AA@ 300aa668     cg_main.obj
 0002:0001167c       ??_C@_02PFIAKEDG@80?$AA@   300aa67c     cg_main.obj
 0002:00011680       ??_C@_06FDNMOLLD@cg_fov?$AA@ 300aa680     cg_main.obj
 0002:00011688       ??_C@_04HAMCLDBM@40?40?$AA@ 300aa688     cg_main.obj
 0002:00011690       ??_C@_0L@DPFDGKBB@cg_zoomfov?$AA@ 300aa690     cg_main.obj
 0002:0001169c       ??_C@_0L@MLBFCMPB@cg_drawGun?$AA@ 300aa69c     cg_main.obj
 0002:000116a8       ??_C@_0O@JKEEFDLF@cg_autoswitch?$AA@ 300aa6a8     cg_main.obj
 0002:000116b8       ??_C@_09JDMGBOIM@cg_ignore?$AA@ 300aa6b8     cg_main.obj
 0002:000116c4       ??_C@_0BK@FEFIMOAO@gfx?1mp?1f_icon_saber_throw?$AA@ 300aa6c4     cg_main.obj
 0002:000116e0       ??_C@_0BL@NEBHBNKD@gfx?1mp?1f_icon_saber_defend?$AA@ 300aa6e0     cg_main.obj
 0002:000116fc       ??_C@_0BL@FEKHDPBD@gfx?1mp?1f_icon_saber_attack?$AA@ 300aa6fc     cg_main.obj
 0002:00011718       ??_C@_0BE@IDOBHAPF@gfx?1mp?1f_icon_sight?$AA@ 300aa718     cg_main.obj
 0002:0001172c       ??_C@_0BH@JNFFMKGL@gfx?1mp?1f_icon_dk_drain?$AA@ 300aa72c     cg_main.obj
 0002:00011744       ??_C@_0BM@INELODPO@gfx?1mp?1f_icon_dk_forceother?$AA@ 300aa744     cg_main.obj
 0002:00011760       ??_C@_0BL@PHMODMPE@gfx?1mp?1f_icon_lt_healother?$AA@ 300aa760     cg_main.obj
 0002:0001177c       ??_C@_0BI@JGABMFHN@gfx?1mp?1f_icon_lt_absorb?$AA@ 300aa77c     cg_main.obj
 0002:00011794       ??_C@_0BJ@BNJGHMKP@gfx?1mp?1f_icon_lt_protect?$AA@ 300aa794     cg_main.obj
 0002:000117b0       ??_C@_0BG@CIIDCBDH@gfx?1mp?1f_icon_dk_rage?$AA@ 300aa7b0     cg_main.obj
 0002:000117c8       ??_C@_0BE@FIGKNCGE@gfx?1mp?1f_icon_dk_l1?$AA@ 300aa7c8     cg_main.obj
 0002:000117dc       ??_C@_0BG@PPAEAKKK@gfx?1mp?1f_icon_dk_grip?$AA@ 300aa7dc     cg_main.obj
 0002:000117f4       ??_C@_0BL@GPKCAHJD@gfx?1mp?1f_icon_lt_telepathy?$AA@ 300aa7f4     cg_main.obj
 0002:00011810       ??_C@_0BD@FAMLDPCA@gfx?1mp?1f_icon_pull?$AA@ 300aa810     cg_main.obj
 0002:00011824       ??_C@_0BD@CDNNBOGJ@gfx?1mp?1f_icon_push?$AA@ 300aa824     cg_main.obj
 0002:00011838       ??_C@_0BE@GACMMIP@gfx?1mp?1f_icon_speed?$AA@ 300aa838     cg_main.obj
 0002:0001184c       ??_C@_0BJ@DCGHGAMM@gfx?1mp?1f_icon_levitation?$AA@ 300aa84c     cg_main.obj
 0002:00011868       ??_C@_0BG@BKINAJCK@gfx?1mp?1f_icon_lt_heal?$AA@ 300aa868     cg_main.obj
 0002:00011880       ??_C@_0O@BFABHDBN@ui_tm2_c5_cnt?$AA@ 300aa880     cg_main.obj
 0002:00011890       ??_C@_0O@NOFNKALI@ui_tm2_c4_cnt?$AA@ 300aa890     cg_main.obj
 0002:000118a0       ??_C@_0O@MDFIJAAA@ui_tm2_c3_cnt?$AA@ 300aa8a0     cg_main.obj
 0002:000118b0       ??_C@_0O@IAEEDKF@ui_tm2_c2_cnt?$AA@ 300aa8b0     cg_main.obj
 0002:000118c0       ??_C@_0O@IOJADBAL@ui_tm2_c1_cnt?$AA@ 300aa8c0     cg_main.obj
 0002:000118d0       ??_C@_0O@EFMMOCKO@ui_tm2_c0_cnt?$AA@ 300aa8d0     cg_main.obj
 0002:000118e0       ??_C@_0O@CMIMEPNI@ui_tm1_c5_cnt?$AA@ 300aa8e0     cg_main.obj
 0002:000118f0       ??_C@_0O@OHNAJMHN@ui_tm1_c4_cnt?$AA@ 300aa8f0     cg_main.obj
 0002:00011900       ??_C@_0O@PKNFKMMF@ui_tm1_c3_cnt?$AA@ 300aa900     cg_main.obj
 0002:00011910       ??_C@_0O@DBIJHPGA@ui_tm1_c2_cnt?$AA@ 300aa910     cg_main.obj
 0002:00011920       ??_C@_0O@LHBNANMO@ui_tm1_c1_cnt?$AA@ 300aa920     cg_main.obj
 0002:00011930       ??_C@_0O@HMEBNOGL@ui_tm1_c0_cnt?$AA@ 300aa930     cg_main.obj
 0002:00011940       ??_C@_0L@EBELIMNM@ui_tm3_cnt?$AA@ 300aa940     cg_main.obj
 0002:0001194c       ??_C@_0L@IKBHFPHJ@ui_tm2_cnt?$AA@ 300aa94c     cg_main.obj
 0002:00011958       ??_C@_0L@MIDCNNH@ui_tm1_cnt?$AA@ 300aa958     cg_main.obj
 0002:00011964       ??_C@_0BH@MDOIMJCC@ui_about_botminplayers?$AA@ 300aa964     cg_main.obj
 0002:0001197c       ??_C@_0BC@IKMCDPFG@ui_about_needpass?$AA@ 300aa97c     cg_main.obj
 0002:00011990       ??_C@_0BC@LKDAODDF@ui_about_hostname?$AA@ 300aa990     cg_main.obj
 0002:000119a4       ??_C@_0BB@PALGEOKN@ui_about_mapname?$AA@ 300aa9a4     cg_main.obj
 0002:000119b8       ??_C@_0BB@JGBJLNBF@ui_about_dmflags?$AA@ 300aa9b8     cg_main.obj
 0002:000119cc       ??_C@_0BE@MLNAEEGH@ui_about_maxclients?$AA@ 300aa9cc     cg_main.obj
 0002:000119e0       ??_C@_0BD@IPOIPHBD@ui_about_timelimit?$AA@ 300aa9e0     cg_main.obj
 0002:000119f4       ??_C@_0BD@KEMPJJPI@ui_about_duellimit?$AA@ 300aa9f4     cg_main.obj
 0002:00011a08       ??_C@_0BG@JGMDIDMD@ui_about_capturelimit?$AA@ 300aaa08     cg_main.obj
 0002:00011a20       ??_C@_0BD@ECBGHOAM@ui_about_fraglimit?$AA@ 300aaa20     cg_main.obj
 0002:00011a34       ??_C@_0BC@CEGLMIAL@ui_about_gametype?$AA@ 300aaa34     cg_main.obj
 0002:00011a48       ??_C@_0BH@JHFKKJAL@5?91?9000000000000000000?$AA@ 300aaa48     cg_main.obj
 0002:00011a60       ??_C@_0CJ@CMOPAMCG@PrecacheItem?3?5?$CFs?5has?5bad?5precach@ 300aaa60     cg_main.obj
 0002:00011a8c       ??_C@_03HJPPGDLO@efx?$AA@  300aaa8c     cg_main.obj
 0002:00011a90       ??_C@_0BA@FBGBOLED@env?1acid_splash?$AA@ 300aaa90     cg_main.obj
 0002:00011aa0       ??_C@_0BA@LJAMMEG@env?1lava_splash?$AA@ 300aaaa0     cg_main.obj
 0002:00011ab0       ??_C@_0BB@JJBGBOML@env?1water_impact?$AA@ 300aaab0     cg_main.obj
 0002:00011ac4       ??_C@_0BH@FFHHKIMO@materials?1gravel_large?$AA@ 300aaac4     cg_main.obj
 0002:00011adc       ??_C@_0BF@NOEPOPAI@materials?1snow_large?$AA@ 300aaadc     cg_main.obj
 0002:00011af4       ??_C@_0BF@GIFOIHPM@materials?1dirt_large?$AA@ 300aaaf4     cg_main.obj
 0002:00011b0c       ??_C@_0BF@MKALJGAO@materials?1sand_large?$AA@ 300aab0c     cg_main.obj
 0002:00011b24       ??_C@_0BE@GPGKBELK@materials?1mud_large?$AA@ 300aab24     cg_main.obj
 0002:00011b38       ??_C@_0BB@PNDPFHAF@materials?1gravel?$AA@ 300aab38     cg_main.obj
 0002:00011b4c       ??_C@_0P@GHJGEIGP@materials?1snow?$AA@ 300aab4c     cg_main.obj
 0002:00011b5c       ??_C@_0P@FPNIHDJM@materials?1sand?$AA@ 300aab5c     cg_main.obj
 0002:00011b6c       ??_C@_0O@MGCCPCPC@materials?1mud?$AA@ 300aab6c     cg_main.obj
 0002:00011b7c       ??_C@_05ONEOBAM@?$CFs_?$CFs?$AA@ 300aab7c     cg_main.obj
 0002:00011b84       ??_C@_0BL@JNENHOLE@gfx?1mp?1c_icon_jedi_general?$AA@ 300aab84     cg_main.obj
 0002:00011ba0       ??_C@_0BG@HPEKJBCG@gfx?1mp?1c_icon_support?$AA@ 300aaba0     cg_main.obj
 0002:00011bb8       ??_C@_0BH@CEMGMFAB@gfx?1mp?1c_icon_vanguard?$AA@ 300aabb8     cg_main.obj
 0002:00011bd0       ??_C@_0BM@NBLAFLJO@gfx?1mp?1c_icon_demolitionist?$AA@ 300aabd0     cg_main.obj
 0002:00011bec       ??_C@_0BM@GFHJFCLE@gfx?1mp?1c_icon_heavy_weapons?$AA@ 300aabec     cg_main.obj
 0002:00011c08       ??_C@_0BH@OELCJKFF@gfx?1mp?1c_icon_infantry?$AA@ 300aac08     cg_main.obj
 0002:00011c20       ??_C@_07DNFNGBFM@?$CFs?5?5?5?5?5?$AA@ 300aac20     cg_main.obj
 0002:00011c28       ??_C@_0BP@KAAOENNK@CG_ConfigString?3?5bad?5index?3?5?$CFi?$AA@ 300aac28     cg_main.obj
 0002:00011c48       ??_C@_0DD@JILOANNP@?$FO1menu?5file?5too?5large?3?5?$CFs?5is?5?$CFi?0@ 300aac48     cg_main.obj
 0002:00011c7c       ??_C@_0CK@ECPONHFG@?$FO1menu?5file?5not?5found?3?5?$CFs?0?5using@ 300aac7c     cg_main.obj
 0002:00011ca8       ??_C@_0M@JPJLLJDB@shadowColor?$AA@ 300aaca8     cg_main.obj
 0002:00011cb4       ??_C@_07PGMDMGII@shadowY?$AA@ 300aacb4     cg_main.obj
 0002:00011cbc       ??_C@_07OPNIPHMJ@shadowX?$AA@ 300aacbc     cg_main.obj
 0002:00011cc4       ??_C@_0L@JDDHILPC@fadeAmount?$AA@ 300aacc4     cg_main.obj
 0002:00011cd0       ??_C@_09LGBLEGN@fadeCycle?$AA@ 300aacd0     cg_main.obj
 0002:00011cdc       ??_C@_09DPBPOIDH@fadeClamp?$AA@ 300aacdc     cg_main.obj
 0002:00011ce8       ??_C@_06CHDIMBDP@cursor?$AA@ 300aace8     cg_main.obj
 0002:00011cf0       ??_C@_0O@JDBLIAHI@menuBuzzSound?$AA@ 300aacf0     cg_main.obj
 0002:00011d00       ??_C@_0P@IGAMHAPB@itemFocusSound?$AA@ 300aad00     cg_main.obj
 0002:00011d10       ??_C@_0O@CCIDDBMD@menuExitSound?$AA@ 300aad10     cg_main.obj
 0002:00011d20       ??_C@_0P@HOFNPEDB@menuEnterSound?$AA@ 300aad20     cg_main.obj
 0002:00011d30       ??_C@_0M@KMLBJNNP@gradientbar?$AA@ 300aad30     cg_main.obj
 0002:00011d3c       ??_C@_07HPOBIOOE@bigfont?$AA@ 300aad3c     cg_main.obj
 0002:00011d44       ??_C@_0L@KDLFEFGB@small2Font?$AA@ 300aad44     cg_main.obj
 0002:00011d50       ??_C@_09DOKKJGBA@smallFont?$AA@ 300aad50     cg_main.obj
 0002:00011d5c       ??_C@_04EFPADHIC@font?$AA@ 300aad5c     cg_main.obj
 0002:00011d64       ??_C@_07MCIOFCJF@menudef?$AA@ 300aad64     cg_main.obj
 0002:00011d6c       ??_C@_0P@JJKHBDCP@assetGlobalDef?$AA@ 300aad6c     cg_main.obj
 0002:00011d7c       ??_C@_0BA@HHBGDHLB@ui?1testhud?4menu?$AA@ 300aad7c     cg_main.obj
 0002:00011d8c       ??_C@_0L@FJAFPCBC@connecting?$AA@ 300aad8c     cg_main.obj
 0002:00011d98       ??_C@_03NOAKOCEN@?$CF4i?$AA@ 300aad98     cg_main.obj
 0002:00011d9c       ??_C@_06PKACINHD@Leader?$AA@ 300aad9c     cg_main.obj
 0002:00011da4       ??_C@_09BCJOCADI@Spectator?$AA@ 300aada4     cg_main.obj
 0002:00011db0       ??_C@_09CBAPOGED@Rebellion?$AA@ 300aadb0     cg_main.obj
 0002:00011dbc       ??_C@_06DAMJBNEB@Empire?$AA@ 300aadbc     cg_main.obj
 0002:00011dc4       ??_C@_08GJJFPOLP@loadmenu?$AA@ 300aadc4     cg_main.obj
 0002:00011dd0       ??_C@_0EA@NOKNMOHD@?$FO1default?5menu?5file?5not?5found?3?5u@ 300aadd0     cg_main.obj
 0002:00011e10       ??_C@_0BF@IMFGDGLA@menu?1new?1sliderthumb?$AA@ 300aae10     cg_main.obj
 0002:00011e28       ??_C@_0BA@IIPDBPAH@menu?1new?1slider?$AA@ 300aae28     cg_main.obj
 0002:00011e38       ??_C@_0BO@OGCKOCFI@gfx?1menus?1scrollbar_thumb?4tga?$AA@ 300aae38     cg_main.obj
 0002:00011e58       ??_C@_0CE@EBDHDKAC@gfx?1menus?1scrollbar_arrow_right?4@ 300aae58     cg_main.obj
 0002:00011e7c       ??_C@_0CD@HGBCPEJO@gfx?1menus?1scrollbar_arrow_left?4t@ 300aae7c     cg_main.obj
 0002:00011ea0       ??_C@_0CD@CMMKEMFC@gfx?1menus?1scrollbar_arrow_up_a?4t@ 300aaea0     cg_main.obj
 0002:00011ec4       ??_C@_0CE@COBFEBJB@gfx?1menus?1scrollbar_arrow_dwn_a?4@ 300aaec4     cg_main.obj
 0002:00011ee8       ??_C@_0BI@FDOMFDJL@gfx?1menus?1scrollbar?4tga?$AA@ 300aaee8     cg_main.obj
 0002:00011f00       ??_C@_0BC@GAPGDHHF@menu?1art?1fx_white?$AA@ 300aaf00     cg_main.obj
 0002:00011f14       ??_C@_0BB@LIJKJPJD@menu?1art?1fx_cyan?$AA@ 300aaf14     cg_main.obj
 0002:00011f28       ??_C@_0BB@BKOGMDOJ@menu?1art?1fx_blue?$AA@ 300aaf28     cg_main.obj
 0002:00011f3c       ??_C@_0BB@ECKDFOKE@menu?1art?1fx_teal?$AA@ 300aaf3c     cg_main.obj
 0002:00011f50       ??_C@_0BA@IJJPLEBB@menu?1art?1fx_grn?$AA@ 300aaf50     cg_main.obj
 0002:00011f60       ??_C@_0BA@BCAGEDMK@menu?1art?1fx_yel?$AA@ 300aaf60     cg_main.obj
 0002:00011f70       ??_C@_0BA@NNOEOMD@menu?1art?1fx_red?$AA@ 300aaf70     cg_main.obj
 0002:00011f80       ??_C@_0BB@OMABGHIG@menu?1art?1fx_base?$AA@ 300aaf80     cg_main.obj
 0002:00011f94       ??_C@_0BL@LDKEDAHM@ui?1assets?1gradientbar2?4tga?$AA@ 300aaf94     cg_main.obj
 0002:00011fb0       ??_C@_0DK@MEMBGKNJ@You?5exceeded?5the?5cgame?5string?5po@ 300aafb0     cg_main.obj
 0002:00011fec       ??_C@_0CB@IEGPOIHD@misc_model_static?5with?5no?5model?4@ 300aafec     cg_main.obj
 0002:00012010       ??_C@_0CM@COEPIPFK@misc_model_static?5failed?5to?5load@ 300ab010     cg_main.obj
 0002:00012040       ??_C@_0GN@MCPHADGE@Too?5many?5misc_model_static?8s?5on?5@ 300ab040     cg_main.obj
 0002:000120b0       ??_C@_0CE@KFIMGHLL@CG_AddSpawnVarToken?3?5MAX_SPAWN_V@ 300ab0b0     cg_main.obj
 0002:000120d4       ??_C@_0CC@FFKCCAOL@CG_ParseSpawnVars?3?5MAX_SPAWN_VAR@ 300ab0d4     cg_main.obj
 0002:000120f8       ??_C@_0CO@LBIGDOPL@CG_ParseSpawnVars?3?5closing?5brace@ 300ab0f8     cg_main.obj
 0002:00012128       ??_C@_0CN@KDIJEMJC@CG_ParseSpawnVars?3?5EOF?5without?5c@ 300ab128     cg_main.obj
 0002:00012158       ??_C@_0CN@LHOGJKHF@CG_ParseSpawnVars?3?5found?5?$CFs?5when@ 300ab158     cg_main.obj
 0002:00012188       ??_C@_0BC@CAFACOKO@misc_weather_zone?$AA@ 300ab188     cg_main.obj
 0002:0001219c       ??_C@_0P@IFKMPLOL@misc_skyportal?$AA@ 300ab19c     cg_main.obj
 0002:000121ac       ??_C@_0BG@DHHABGNA@misc_skyportal_orient?$AA@ 300ab1ac     cg_main.obj
 0002:000121c4       ??_C@_0BC@LMMEGHFB@misc_model_static?$AA@ 300ab1c4     cg_main.obj
 0002:000121d8       ??_C@_0L@BIFLFHPF@worldspawn?$AA@ 300ab1d8     cg_main.obj
 0002:000121e4       ??_C@_0BM@BLBJHDKM@no?5entities?5for?5cgame?5parse?$AA@ 300ab1e4     cg_main.obj
 0002:00012200       ??_C@_03DFHDCPPK@die?$AA@  300ab200     cg_main.obj
 0002:00012204       ??_C@_0CD@PGGCPIMP@Invalid?5callType?5in?5CG_RagCallba@ 300ab204     cg_main.obj
 0002:00012228       ??_C@_0CC@NJMNCFMP@sound?1player?1bodyfall_human?$CFi?4wa@ 300ab228     cg_main.obj
 0002:0001224c       ??_C@_0CK@MLAIPOAD@client_model?5has?5invalid?5model?5d@ 300ab24c     cg_main.obj
 0002:00012278       ??_C@_06BGIAFJGK@?$CDclear?$AA@ 300ab278     cg_main.obj
 0002:00012280       ??_C@_0CD@KBKJGEMP@sound?1chars?1protocol?1misc?140MOM0@ 300ab280     cg_main.obj
 0002:000122a4       ??_C@_0CD@PGDBKJHO@sound?1chars?1protocol?1misc?140MOM0@ 300ab2a4     cg_main.obj
 0002:000122c8       ??_C@_0BK@FFKIOHJN@sound?1items?1use_bacta?4wav?$AA@ 300ab2c8     cg_main.obj
 0002:000122e4       ??_C@_0BN@KKOEBMCN@sound?1chars?1seeker?1misc?1hiss?$AA@ 300ab2e4     cg_main.obj
 0002:00012304       ??_C@_0CG@JENCNJDN@sound?1player?1footsteps?1wood_run?$CF@ 300ab304     cg_main.obj
 0002:0001232c       ??_C@_0CH@KEIEAAOE@sound?1player?1footsteps?1wood_walk@ 300ab32c     cg_main.obj
 0002:00012354       ??_C@_0CF@IIEDMFNC@sound?1player?1footsteps?1rug_run?$CFi@ 300ab354     cg_main.obj
 0002:0001237c       ??_C@_0CG@GIABMMBJ@sound?1player?1footsteps?1rug_step?$CF@ 300ab37c     cg_main.obj
 0002:000123a4       ??_C@_0CI@JHPJBICI@sound?1player?1footsteps?1gravel_ru@ 300ab3a4     cg_main.obj
 0002:000123cc       ??_C@_0CJ@MJFKMPMO@sound?1player?1footsteps?1gravel_wa@ 300ab3cc     cg_main.obj
 0002:000123f8       ??_C@_0CF@MPPLJPLI@sound?1player?1footsteps?1mud_run?$CFi@ 300ab3f8     cg_main.obj
 0002:00012420       ??_C@_0CG@DJANFOAN@sound?1player?1footsteps?1mud_walk?$CF@ 300ab420     cg_main.obj
 0002:00012448       ??_C@_0CG@MGDMEMOF@sound?1player?1footsteps?1dirt_run?$CF@ 300ab448     cg_main.obj
 0002:00012470       ??_C@_0CH@NAPCBGJP@sound?1player?1footsteps?1dirt_step@ 300ab470     cg_main.obj
 0002:00012498       ??_C@_0CH@FNFOBOHF@sound?1player?1footsteps?1grass_run@ 300ab498     cg_main.obj
 0002:000124c0       ??_C@_0CI@CAGGOHIJ@sound?1player?1footsteps?1grass_ste@ 300ab4c0     cg_main.obj
 0002:000124e8       ??_C@_0CG@IKDDAFL@sound?1player?1footsteps?1sand_run?$CF@ 300ab4e8     cg_main.obj
 0002:00012510       ??_C@_0CH@MJLFGA@sound?1player?1footsteps?1sand_walk@ 300ab510     cg_main.obj
 0002:00012538       ??_C@_0CG@PICHGCCE@sound?1player?1footsteps?1snow_run?$CF@ 300ab538     cg_main.obj
 0002:00012560       ??_C@_0CH@DMKPPPJH@sound?1player?1footsteps?1snow_step@ 300ab560     cg_main.obj
 0002:00012588       ??_C@_0CK@POKBBDJH@sound?1player?1footsteps?1water_wad@ 300ab588     cg_main.obj
 0002:000125b4       ??_C@_0CI@DAPHNJAL@sound?1player?1footsteps?1water_wal@ 300ab5b4     cg_main.obj
 0002:000125dc       ??_C@_0CH@IDDALCLE@sound?1player?1footsteps?1water_run@ 300ab5dc     cg_main.obj
 0002:00012604       ??_C@_0CG@PPMDKCBB@sound?1player?1footsteps?1pipe_run?$CF@ 300ab604     cg_main.obj
 0002:0001262c       ??_C@_0CH@GKBLNPHE@sound?1player?1footsteps?1pipe_step@ 300ab62c     cg_main.obj
 0002:00012654       ??_C@_0CH@DOEIAHBB@sound?1player?1footsteps?1metal_run@ 300ab654     cg_main.obj
 0002:0001267c       ??_C@_0CI@GKNKFENB@sound?1player?1footsteps?1metal_ste@ 300ab67c     cg_main.obj
 0002:000126a4       ??_C@_0CH@JGCHGDKG@sound?1player?1footsteps?1stone_run@ 300ab6a4     cg_main.obj
 0002:000126cc       ??_C@_0CI@DPHHBNJK@sound?1player?1footsteps?1stone_ste@ 300ab6cc     cg_main.obj
 0002:000126f4       ??_C@_0BM@LGCAPPLD@sound?1interface?1zoomend?4wav?$AA@ 300ab6f4     cg_main.obj
 0002:00012710       ??_C@_0BN@CGCJIHAN@sound?1interface?1zoomloop?4wav?$AA@ 300ab710     cg_main.obj
 0002:00012730       ??_C@_0BO@IJNKLFAF@sound?1interface?1zoomstart?4wav?$AA@ 300ab730     cg_main.obj
 0002:00012750       ??_C@_0BK@PNDKAKFC@sound?1player?1holocron?4wav?$AA@ 300ab750     cg_main.obj
 0002:0001276c       ??_C@_0BM@DLLLNEPJ@gfx?1effects?1solidWhite_cull?$AA@ 300ab76c     cg_main.obj
 0002:00012788       ??_C@_0BB@HDBIPJEB@gfx?1effects?1burn?$AA@ 300ab788     cg_main.obj
 0002:0001279c       ??_C@_0BB@LJELJCEE@surfaceExplosion?$AA@ 300ab79c     cg_main.obj
 0002:000127b0       ??_C@_0CB@JPBIOOOD@models?1map_objects?1mp?1sphere?4md3@ 300ab7b0     cg_main.obj
 0002:000127d4       ??_C@_0BJ@ILNOCJIO@sound?1player?1watr_un?4wav?$AA@ 300ab7d4     cg_main.obj
 0002:000127f0       ??_C@_0BK@PEBHADE@sound?1player?1watr_out?4wav?$AA@ 300ab7f0     cg_main.obj
 0002:0001280c       ??_C@_0BJ@CLKANPDE@sound?1player?1watr_in?4wav?$AA@ 300ab80c     cg_main.obj
 0002:00012828       ??_C@_0BM@BFNDNDLL@sound?1weapons?1force?1noforce?$AA@ 300ab828     cg_main.obj
 0002:00012844       ??_C@_0BH@JPPKHAKF@sound?1player?1roll1?4wav?$AA@ 300ab844     cg_main.obj
 0002:0001285c       ??_C@_0CB@HLPMFIDJ@sound?1effects?1energy_crackle?4wav@ 300ab85c     cg_main.obj
 0002:00012880       ??_C@_0BL@NBPAAOGK@sound?1player?1fallsplat?4wav?$AA@ 300ab880     cg_main.obj
 0002:0001289c       ??_C@_0BH@BPJFFDHG@sound?1player?1land1?4wav?$AA@ 300ab89c     cg_main.obj
 0002:000128b4       ??_C@_0BG@MOPKJEGA@sound?1player?1talk?4wav?$AA@ 300ab8b4     cg_main.obj
 0002:000128cc       ??_C@_0BJ@LOHBFELN@sound?1items?1respawn1?4wav?$AA@ 300ab8cc     cg_main.obj
 0002:000128e8       ??_C@_0BJ@JHMBBENI@sound?1player?1teleout?4wav?$AA@ 300ab8e8     cg_main.obj
 0002:00012904       ??_C@_0BI@HJOEIPHG@sound?1player?1telein?4wav?$AA@ 300ab904     cg_main.obj
 0002:0001291c       ??_C@_0BJ@EFMFEOAN@sound?1weapons?1change?4wav?$AA@ 300ab91c     cg_main.obj
 0002:00012938       ??_C@_0BD@PKCEDEMI@music?1badsmall?4mp3?$AA@ 300ab938     cg_main.obj
 0002:0001294c       ??_C@_0BE@CAAOHOKG@music?1goodsmall?4mp3?$AA@ 300ab94c     cg_main.obj
 0002:00012960       ??_C@_0CA@IFIECLL@sound?1weapons?1force?1drained?4mp3?$AA@ 300ab960     cg_main.obj
 0002:00012980       ??_C@_0CD@OICDDAOD@sound?1chars?1protocol?1misc?140MOM0@ 300ab980     cg_main.obj
 0002:000129a4       ??_C@_0CD@GPLLCMCM@sound?1chars?1protocol?1misc?140MOM0@ 300ab9a4     cg_main.obj
 0002:000129c8       ??_C@_0CD@HGKABNGN@sound?1chars?1protocol?1misc?140MOM0@ 300ab9c8     cg_main.obj
 0002:000129ec       ??_C@_0CD@KGKAMMBD@sound?1chars?1protocol?1misc?140MOM0@ 300ab9ec     cg_main.obj
 0002:00012a10       ??_C@_0CD@HDOPALOI@sound?1chars?1protocol?1misc?140MOM0@ 300aba10     cg_main.obj
 0002:00012a34       ??_C@_0CD@KHGCKGCE@sound?1chars?1protocol?1misc?140MOM0@ 300aba34     cg_main.obj
 0002:00012a58       ??_C@_0CD@LOHJJHGF@sound?1chars?1protocol?1misc?140MOM0@ 300aba58     cg_main.obj
 0002:00012a7c       ??_C@_0CD@JFFEMEKG@sound?1chars?1protocol?1misc?140MOM0@ 300aba7c     cg_main.obj
 0002:00012aa0       ??_C@_0CD@IMEPPFOH@sound?1chars?1protocol?1misc?140MOM0@ 300abaa0     cg_main.obj
 0002:00012ac4       ??_C@_0CD@MDAOGDCA@sound?1chars?1protocol?1misc?140MOM0@ 300abac4     cg_main.obj
 0002:00012ae8       ??_C@_0CD@JABLNCCD@sound?1chars?1protocol?1misc?140MOM0@ 300abae8     cg_main.obj
 0002:00012b0c       ??_C@_0CD@NKBFFCGB@sound?1chars?1protocol?1misc?140MOM0@ 300abb0c     cg_main.obj
 0002:00012b30       ??_C@_0CD@PBDIABKC@sound?1chars?1protocol?1misc?140MOM0@ 300abb30     cg_main.obj
 0002:00012b54       ??_C@_0CC@ONCGEBCD@sound?1weapons?1force?1speedloop?4wa@ 300abb54     cg_main.obj
 0002:00012b78       ??_C@_0BM@ECOPMLLG@sound?1chars?1turret?1move?4wav?$AA@ 300abb78     cg_main.obj
 0002:00012b94       ??_C@_0CA@DICAJEGI@sound?1chars?1turret?1shutdown?4wav?$AA@ 300abb94     cg_main.obj
 0002:00012bb4       ??_C@_0BP@OJENPHJJ@sound?1chars?1turret?1startup?4wav?$AA@ 300abbb4     cg_main.obj
 0002:00012bd4       ??_C@_0BM@MAPGBELF@sound?1chars?1turret?1ping?4wav?$AA@ 300abbd4     cg_main.obj
 0002:00012bf0       ??_C@_0BK@BIGBMHEG@sound?1ambience?1spark5?4wav?$AA@ 300abbf0     cg_main.obj
 0002:00012c0c       ??_C@_0CC@DCLLILCD@sound?1movers?1switches?1switch3?4wa@ 300abc0c     cg_main.obj
 0002:00012c30       ??_C@_0CC@PJOHFIIG@sound?1movers?1switches?1switch2?4wa@ 300abc30     cg_main.obj
 0002:00012c54       ??_C@_0CD@DFAKCMJE@sound?1weapons?1thermal?1bounce?$CFi?4w@ 300abc54     cg_main.obj
 0002:00012c78       ??_C@_0BN@KBMIBKKI@sound?1weapons?1force?1push?4wav?$AA@ 300abc78     cg_main.obj
 0002:00012c98       ??_C@_0BN@KLMPLEJJ@sound?1weapons?1force?1pull?4wav?$AA@ 300abc98     cg_main.obj
 0002:00012cb8       ??_C@_0CF@GAOMGDBJ@sound?1weapons?1force?1distractstop@ 300abcb8     cg_main.obj
 0002:00012ce0       ??_C@_0CB@DHCOJIOI@sound?1weapons?1force?1distract?4wav@ 300abce0     cg_main.obj
 0002:00012d04       ??_C@_0CC@IDPNPIJB@sound?1weapons?1force?1jumpbuild?4wa@ 300abd04     cg_main.obj
 0002:00012d28       ??_C@_0BO@CFEEFGGJ@sound?1weapons?1force?1drain?4wav?$AA@ 300abd28     cg_main.obj
 0002:00012d48       ??_C@_0CC@EODIHIPD@sound?1weapons?1force?1lightninghit@ 300abd48     cg_main.obj
 0002:00012d6c       ??_C@_0CC@FHCDEJLC@sound?1weapons?1force?1lightninghit@ 300abd6c     cg_main.obj
 0002:00012d90       ??_C@_0CC@HMAOBKHB@sound?1weapons?1force?1lightninghit@ 300abd90     cg_main.obj
 0002:00012db4       ??_C@_0BN@FIMAKGPM@sound?1weapons?1force?1rage?4wav?$AA@ 300abdb4     cg_main.obj
 0002:00012dd4       ??_C@_0BO@CMLBKDJG@sound?1weapons?1force?1speed?4wav?$AA@ 300abdd4     cg_main.obj
 0002:00012df4       ??_C@_0BN@KBLLAEBL@sound?1weapons?1force?1heal?4wav?$AA@ 300abdf4     cg_main.obj
 0002:00012e14       ??_C@_0CC@NGHLBFEO@sound?1weapons?1force?1teamforce?4wa@ 300abe14     cg_main.obj
 0002:00012e38       ??_C@_0CB@GOLMPDFB@sound?1weapons?1force?1teamheal?4wav@ 300abe38     cg_main.obj
 0002:00012e5c       ??_C@_0CE@CFCKGBNH@sound?1weapons?1saber?1saber_catch?4@ 300abe5c     cg_main.obj
 0002:00012e80       ??_C@_0CC@GAHBIOHG@sound?1weapons?1saber?1saberhit3?4wa@ 300abe80     cg_main.obj
 0002:00012ea4       ??_C@_0CC@KLCNFNND@sound?1weapons?1saber?1saberhit2?4wa@ 300abea4     cg_main.obj
 0002:00012ec8       ??_C@_0CC@CNLJCPHN@sound?1weapons?1saber?1saberhit1?4wa@ 300abec8     cg_main.obj
 0002:00012eec       ??_C@_0CB@ELDLDPNJ@sound?1weapons?1saber?1saberhit?4wav@ 300abeec     cg_main.obj
 0002:00012f10       ??_C@_0CC@CMNFPBBJ@sound?1weapons?1saber?1saberhitwall@ 300abf10     cg_main.obj
 0002:00012f34       ??_C@_0CC@DFMOMAFI@sound?1weapons?1saber?1saberhitwall@ 300abf34     cg_main.obj
 0002:00012f58       ??_C@_0CC@BOODJDJL@sound?1weapons?1saber?1saberhitwall@ 300abf58     cg_main.obj
 0002:00012f7c       ??_C@_0CG@LENDFJGC@sound?1weapons?1saber?1saberoffquic@ 300abf7c     cg_main.obj
 0002:00012fa4       ??_C@_0CB@KIOLPEIM@sound?1weapons?1saber?1bounce?$CFi?4wav@ 300abfa4     cg_main.obj
 0002:00012fc8       ??_C@_0CF@BDJNEKJF@sound?1weapons?1saber?1saberblock?$CFi@ 300abfc8     cg_main.obj
 0002:00012ff0       ??_C@_0BG@BOFAMPFG@gfx?1effects?1forcePush?$AA@ 300abff0     cg_main.obj
 0002:00013008       ??_C@_0BI@MCAJLALH@powerups?1ysalimarishell?$AA@ 300ac008     cg_main.obj
 0002:00013020       ??_C@_0BF@DJENGLFO@gfx?1damage?1rivetmark?$AA@ 300ac020     cg_main.obj
 0002:00013038       ??_C@_0BI@JJNNJHJD@gfx?1effects?1yellow_glow?$AA@ 300ac038     cg_main.obj
 0002:00013050       ??_C@_0BE@EAAEGHFK@gfx?1hud?1force_swirl?$AA@ 300ac050     cg_main.obj
 0002:00013064       ??_C@_0BI@HJPKAAIH@gfx?1effects?1whiteFlarea?$AA@ 300ac064     cg_main.obj
 0002:0001307c       ??_C@_0BC@IIFGENHM@gfx?1effects?1fire4?$AA@ 300ac07c     cg_main.obj
 0002:00013090       ??_C@_0BC@MHBHNLLL@gfx?1effects?1fire3?$AA@ 300ac090     cg_main.obj
 0002:000130a4       ??_C@_0BC@NOAMOKPK@gfx?1effects?1fire2?$AA@ 300ac0a4     cg_main.obj
 0002:000130b8       ??_C@_0BF@DMBGBKEK@gfx?1effects?1flamejet?$AA@ 300ac0b8     cg_main.obj
 0002:000130d0       ??_C@_0BI@DGLEMNLK@gfx?1effects?1alpha_smoke?$AA@ 300ac0d0     cg_main.obj
 0002:000130e8       ??_C@_0BO@DDEPMPOP@gfx?1effects?1sabers?1swordTrail?$AA@ 300ac0e8     cg_main.obj
 0002:00013108       ??_C@_0BN@NGIAMIEK@gfx?1effects?1sabers?1saberBlur?$AA@ 300ac108     cg_main.obj
 0002:00013128       ??_C@_0BP@GGIPNFEP@gfx?1effects?1sabers?1purple_line?$AA@ 300ac128     cg_main.obj
 0002:00013148       ??_C@_0BP@FPLHAOII@gfx?1effects?1sabers?1purple_glow?$AA@ 300ac148     cg_main.obj
 0002:00013168       ??_C@_0BN@HODAECEB@gfx?1effects?1sabers?1blue_line?$AA@ 300ac168     cg_main.obj
 0002:00013188       ??_C@_0BN@EHAIJJIG@gfx?1effects?1sabers?1blue_glow?$AA@ 300ac188     cg_main.obj
 0002:000131a8       ??_C@_0BO@CIEHACAD@gfx?1effects?1sabers?1green_line?$AA@ 300ac1a8     cg_main.obj
 0002:000131c8       ??_C@_0BO@BBHPNJME@gfx?1effects?1sabers?1green_glow?$AA@ 300ac1c8     cg_main.obj
 0002:000131e8       ??_C@_0BP@FIINKBCP@gfx?1effects?1sabers?1yellow_line?$AA@ 300ac1e8     cg_main.obj
 0002:00013208       ??_C@_0BP@GBLFHKOI@gfx?1effects?1sabers?1yellow_glow?$AA@ 300ac208     cg_main.obj
 0002:00013228       ??_C@_0BP@MEMJANBP@gfx?1effects?1sabers?1orange_line?$AA@ 300ac228     cg_main.obj
 0002:00013248       ??_C@_0BP@PNPBNGNI@gfx?1effects?1sabers?1orange_glow?$AA@ 300ac248     cg_main.obj
 0002:00013268       ??_C@_0BM@FMMFHOBL@gfx?1effects?1sabers?1red_line?$AA@ 300ac268     cg_main.obj
 0002:00013284       ??_C@_0BM@GFPNKFNM@gfx?1effects?1sabers?1red_glow?$AA@ 300ac284     cg_main.obj
 0002:000132a0       ??_C@_0BD@CMBDLFG@gfx?1mp?1c_icon_tech?$AA@ 300ac2a0     cg_main.obj
 0002:000132b4       ??_C@_0CD@GKPEDKKJ@sound?1chars?1protocol?1misc?140MOM0@ 300ac2b4     cg_main.obj
 0002:000132d8       ??_C@_0CD@ONGMCGGG@sound?1chars?1protocol?1misc?140MOM0@ 300ac2d8     cg_main.obj
 0002:000132fc       ??_C@_0CD@PEHHBHCH@sound?1chars?1protocol?1misc?140MOM0@ 300ac2fc     cg_main.obj
 0002:00013320       ??_C@_0CD@NPFKEEOE@sound?1chars?1protocol?1misc?140MOM0@ 300ac320     cg_main.obj
 0002:00013344       ??_C@_0CD@ILEGFNDL@sound?1chars?1protocol?1misc?140MOM0@ 300ac344     cg_main.obj
 0002:00013368       ??_C@_0CD@JCFNGMHK@sound?1chars?1protocol?1misc?140MOM0@ 300ac368     cg_main.obj
 0002:0001338c       ??_C@_0CD@LJHADPLJ@sound?1chars?1protocol?1misc?140MOM0@ 300ac38c     cg_main.obj
 0002:000133b0       ??_C@_0CD@NNBMPKLN@sound?1chars?1protocol?1misc?140MOM0@ 300ac3b0     cg_main.obj
 0002:000133d4       ??_C@_0CD@MEAHMLPM@sound?1chars?1protocol?1misc?140MOM0@ 300ac3d4     cg_main.obj
 0002:000133f8       ??_C@_0CA@HECOILHC@effects?1mp?1test_wall_impact?4efx?$AA@ 300ac3f8     cg_main.obj
 0002:00013418       ??_C@_0BL@GPCFCJHH@effects?1mp?1test_sparks?4efx?$AA@ 300ac418     cg_main.obj
 0002:00013434       ??_C@_0CB@DGGILJED@sound?1player?1bodyfall_human3?4wav@ 300ac434     cg_main.obj
 0002:00013458       ??_C@_0CB@PNDEGKOG@sound?1player?1bodyfall_human2?4wav@ 300ac458     cg_main.obj
 0002:0001347c       ??_C@_0CB@HLKABIEI@sound?1player?1bodyfall_human1?4wav@ 300ac47c     cg_main.obj
 0002:000134a0       ??_C@_0CA@CHBAPCJN@sound?1movers?1objects?1saber_slam?$AA@ 300ac4a0     cg_main.obj
 0002:000134c0       ??_C@_0BP@NIIFJPHO@sound?1weapons?1melee?1punch4?4mp3?$AA@ 300ac4c0     cg_main.obj
 0002:000134e0       ??_C@_0BP@MFIAKPMG@sound?1weapons?1melee?1punch3?4mp3?$AA@ 300ac4e0     cg_main.obj
 0002:00013500       ??_C@_0BP@ONMHMGD@sound?1weapons?1melee?1punch2?4mp3?$AA@ 300ac500     cg_main.obj
 0002:00013520       ??_C@_0BP@IIEIAOMN@sound?1weapons?1melee?1punch1?4mp3?$AA@ 300ac520     cg_main.obj
 0002:00013540       ??_C@_0BC@LNMDPJLI@force?1force_touch?$AA@ 300ac540     cg_main.obj
 0002:00013554       ??_C@_0BA@GPIBLNDH@halfShieldShell?$AA@ 300ac554     cg_main.obj
 0002:00013564       ??_C@_0BN@OJIAAIJF@models?1weaphits?1testboom?4md3?$AA@ 300ac564     cg_main.obj
 0002:00013584       ??_C@_0CF@BBPPIJMH@ui?1assets?1statusbar?1flag_missing@ 300ac584     cg_main.obj
 0002:000135ac       ??_C@_0CF@LPJBOID@ui?1assets?1statusbar?1flag_capture@ 300ac5ac     cg_main.obj
 0002:000135d4       ??_C@_0CF@ENDMFFOH@ui?1assets?1statusbar?1flag_in_base@ 300ac5d4     cg_main.obj
 0002:000135fc       ??_C@_0BL@LPJJLJJG@ui?1assets?1selectcursor?4tga?$AA@ 300ac5fc     cg_main.obj
 0002:00013618       ??_C@_0BJ@LEDAGAI@ui?1assets?1sizecursor?4tga?$AA@ 300ac618     cg_main.obj
 0002:00013634       ??_C@_0BD@CHEDBJDN@menu?1art?13_cursor2?$AA@ 300ac634     cg_main.obj
 0002:00013648       ??_C@_0BP@KGMEFMCF@ui?1assets?1statusbar?1escort?4tga?$AA@ 300ac648     cg_main.obj
 0002:00013668       ??_C@_0CB@LAIMNJFD@ui?1assets?1statusbar?1retrieve?4tga@ 300ac668     cg_main.obj
 0002:0001368c       ??_C@_0CE@MMLKAKOP@ui?1assets?1statusbar?1team_leader?4@ 300ac68c     cg_main.obj
 0002:000136b0       ??_C@_0BP@DFAFNPOM@ui?1assets?1statusbar?1defend?4tga?$AA@ 300ac6b0     cg_main.obj
 0002:000136d0       ??_C@_0BP@NDBPBMNA@ui?1assets?1statusbar?1follow?4tga?$AA@ 300ac6d0     cg_main.obj
 0002:000136f0       ??_C@_0BN@IFHLAFIM@ui?1assets?1statusbar?1camp?4tga?$AA@ 300ac6f0     cg_main.obj
 0002:00013710       ??_C@_0CA@BMENIIHA@ui?1assets?1statusbar?1assault?4tga?$AA@ 300ac710     cg_main.obj
 0002:00013730       ??_C@_0BP@JMKNBDMD@ui?1assets?1statusbar?1patrol?4tga?$AA@ 300ac730     cg_main.obj
 0002:00013750       ??_C@_06FPMCFOBA@?$CK?$CFd?9?$CFd?$AA@ 300ac750     cg_main.obj
 0002:00013758       ??_C@_04HAEDHBJD@?4glm?$AA@ 300ac758     cg_main.obj
 0002:00013760       ??_C@_03JLINDLFM@?$CK?$CFi?$AA@ 300ac760     cg_main.obj
 0002:00013764       ??_C@_0CC@BMBLEHAM@gfx?1mp?1dmgshader_shieldsandhealt@ 300ac764     cg_main.obj
 0002:00013788       ??_C@_0BJ@DBMHLADB@gfx?1mp?1dmgshader_shields?$AA@ 300ac788     cg_main.obj
 0002:000137a4       ??_C@_0BG@HJJFHBCH@gfx?1misc?1borgeyeflare?$AA@ 300ac7a4     cg_main.obj
 0002:000137bc       ??_C@_04KNLNBPHI@wake?$AA@ 300ac7bc     cg_main.obj
 0002:000137c4       ??_C@_0L@KHLAIOEE@markShadow?$AA@ 300ac7c4     cg_main.obj
 0002:000137d0       ??_C@_0BK@IBFDCHFF@gfx?1effects?1cloakedShader?$AA@ 300ac7d0     cg_main.obj
 0002:000137ec       ??_C@_0BD@MCDAOGIB@effects?1refraction?$AA@ 300ac7ec     cg_main.obj
 0002:00013800       ??_C@_0BB@DNGJJGLB@footstep_heavy_l?$AA@ 300ac800     cg_main.obj
 0002:00013814       ??_C@_0BB@OJCIKJGO@footstep_heavy_r?$AA@ 300ac814     cg_main.obj
 0002:00013828       ??_C@_0L@HOEDAMGM@footstep_l?$AA@ 300ac828     cg_main.obj
 0002:00013834       ??_C@_0L@KKACDDLD@footstep_r?$AA@ 300ac834     cg_main.obj
 0002:00013840       ??_C@_0BL@KONNHIGJ@gfx?1misc?1fullbodyelectric2?$AA@ 300ac840     cg_main.obj
 0002:0001385c       ??_C@_0BC@KOPBJOAL@gfx?1misc?1electric?$AA@ 300ac85c     cg_main.obj
 0002:00013870       ??_C@_0BG@JIBKAJPC@gfx?1misc?1test_crackle?$AA@ 300ac870     cg_main.obj
 0002:00013888       ??_C@_0CE@PLCKCDDC@sound?1weapons?1explosions?1crateBu@ 300ac888     cg_main.obj
 0002:000138ac       ??_C@_0CE@NAAHHAPB@sound?1weapons?1explosions?1crateBu@ 300ac8ac     cg_main.obj
 0002:000138d0       ??_C@_0CF@BGPACEFC@sound?1weapons?1explosions?1glassbr@ 300ac8d0     cg_main.obj
 0002:000138f8       ??_C@_0BM@CELNJPHA@sound?1effects?1metal_bounce2?$AA@ 300ac8f8     cg_main.obj
 0002:00013914       ??_C@_0BL@MBOLIHHD@sound?1effects?1metal_bounce?$AA@ 300ac914     cg_main.obj
 0002:00013930       ??_C@_0BM@PCGCBPDN@sound?1effects?1stone_bounce2?$AA@ 300ac930     cg_main.obj
 0002:0001394c       ??_C@_0BL@MIMICCND@sound?1effects?1stone_bounce?$AA@ 300ac94c     cg_main.obj
 0002:00013968       ??_C@_0BJ@DLLIGKEF@sound?1effects?1wall_smash?$AA@ 300ac968     cg_main.obj
 0002:00013984       ??_C@_0BM@OAFICFND@sound?1effects?1grate_destroy?$AA@ 300ac984     cg_main.obj
 0002:000139a0       ??_C@_0CD@JACKJPA@sound?1weapons?1explosions?1glasslc@ 300ac9a0     cg_main.obj
 0002:000139c4       ??_C@_0CD@KGJEJJO@models?1chunks?1metal?1wmetal1_?$CFi?4m@ 300ac9c4     cg_main.obj
 0002:000139e8       ??_C@_0CC@FCMANAHK@models?1chunks?1crate?1crate2_?$CFi?4md@ 300ac9e8     cg_main.obj
 0002:00013a0c       ??_C@_0CC@GLENOMLP@models?1chunks?1crate?1crate1_?$CFi?4md@ 300aca0c     cg_main.obj
 0002:00013a30       ??_C@_0CA@JDEDOPNP@models?1chunks?1rock?1rock3_?$CFi?4md3?$AA@ 300aca30     cg_main.obj
 0002:00013a50       ??_C@_0CA@IEDIPLJM@models?1chunks?1rock?1rock2_?$CFi?4md3?$AA@ 300aca50     cg_main.obj
 0002:00013a70       ??_C@_0CA@LNLFMHFJ@models?1chunks?1rock?1rock1_?$CFi?4md3?$AA@ 300aca70     cg_main.obj
 0002:00013a90       ??_C@_0CC@FDHJEBCB@models?1chunks?1metal?1metal2_?$CFi?4md@ 300aca90     cg_main.obj
 0002:00013ab4       ??_C@_0CC@GKPEHNOE@models?1chunks?1metal?1metal1_?$CFi?4md@ 300acab4     cg_main.obj
 0002:00013ad8       ??_C@_0BL@MMBFBAIB@gfx?12d?1binocularNumOverlay?$AA@ 300acad8     cg_main.obj
 0002:00013af4       ??_C@_0BH@MANIHANO@gfx?12d?1binocularWindow?$AA@ 300acaf4     cg_main.obj
 0002:00013b0c       ??_C@_0BB@JEPLFKJJ@gfx?12d?1binTopTri?$AA@ 300acb0c     cg_main.obj
 0002:00013b20       ??_C@_0BE@IIMHDGMO@gfx?12d?1binSideArrow?$AA@ 300acb20     cg_main.obj
 0002:00013b34       ??_C@_0P@LHEFCKJK@gfx?12d?1binMask?$AA@ 300acb34     cg_main.obj
 0002:00013b44       ??_C@_0BB@ENOKEJMK@gfx?12d?1binCircle?$AA@ 300acb44     cg_main.obj
 0002:00013b58       ??_C@_0BO@PBALHOFA@powerups?1invulnerabilityshell?$AA@ 300acb58     cg_main.obj
 0002:00013b78       ??_C@_0BM@CILICBLC@powerups?1enlightenmentshell?$AA@ 300acb78     cg_main.obj
 0002:00013b94       ??_C@_0BL@JAOFPJCP@powerups?1endarkenmentshell?$AA@ 300acb94     cg_main.obj
 0002:00013bb0       ??_C@_0BD@FDOCLGBJ@powerups?1boonshell?$AA@ 300acbb0     cg_main.obj
 0002:00013bc4       ??_C@_0BI@PCIGPAA@powerups?1ysaliblueshell?$AA@ 300acbc4     cg_main.obj
 0002:00013bdc       ??_C@_0BH@CBLAHDFN@powerups?1ysaliredshell?$AA@ 300acbdc     cg_main.obj
 0002:00013bf4       ??_C@_0CH@BGFFCLAG@ui?1assets?1statusbar?1selectedheal@ 300acbf4     cg_main.obj
 0002:00013c1c       ??_C@_0BE@MEJHIMJO@gfx?12d?1colorbar?4tga?$AA@ 300acc1c     cg_main.obj
 0002:00013c30       ??_C@_0BC@CPIHIBPP@sprites?1team_blue?$AA@ 300acc30     cg_main.obj
 0002:00013c44       ??_C@_0BB@NJDEKCOL@sprites?1team_red?$AA@ 300acc44     cg_main.obj
 0002:00013c58       ??_C@_0CJ@PBONGGD@models?1mapobjects?1flagbase?1ntrl_@ 300acc58     cg_main.obj
 0002:00013c84       ??_C@_0CJ@MEDKOFPD@models?1mapobjects?1flagbase?1blue_@ 300acc84     cg_main.obj
 0002:00013cb0       ??_C@_0CI@PFOOJNMO@models?1mapobjects?1flagbase?1red_b@ 300accb0     cg_main.obj
 0002:00013cd8       ??_C@_0BL@NNONIMAN@models?1flag2?1flagflap3?4md3?$AA@ 300accd8     cg_main.obj
 0002:00013cf4       ??_C@_0BK@NHEDDPHF@models?1flag2?1flagpole?4md3?$AA@ 300accf4     cg_main.obj
 0002:00013d10       ??_C@_0BP@JIAHAICB@models?1map_objects?1mp?1holo?4md3?$AA@ 300acd10     cg_main.obj
 0002:00013d30       ??_C@_0BE@JLIPOJOD@powerups?1sightshell?$AA@ 300acd30     cg_main.obj
 0002:00013d44       ??_C@_0BE@DDKEHNDP@powerups?1forceshell?$AA@ 300acd44     cg_main.obj
 0002:00013d58       ??_C@_0BF@NLDNMFFP@gfx?1misc?1sightbubble?$AA@ 300acd58     cg_main.obj
 0002:00013d70       ??_C@_0BG@LLDBPCCL@gfx?1misc?1forceprotect?$AA@ 300acd70     cg_main.obj
 0002:00013d88       ??_C@_0BI@MGAOKANG@gfx?1misc?1personalshield?$AA@ 300acd88     cg_main.obj
 0002:00013da0       ??_C@_0BA@PEFPEMDE@powerups?1rezout?$AA@ 300acda0     cg_main.obj
 0002:00013db0       ??_C@_0BF@KCKLAPFP@powerups?1placeholder?$AA@ 300acdb0     cg_main.obj
 0002:00013dc8       ??_C@_0BA@PJMLIFEA@gfx?12d?1backtile?$AA@ 300acdc8     cg_main.obj
 0002:00013dd8       ??_C@_0BD@PPPBDMEH@gfx?12d?1crosshair?$CFc?$AA@ 300acdd8     cg_main.obj
 0002:00013dec       ??_C@_0BG@KLAJLGNE@disruptor?1death_smoke?$AA@ 300acdec     cg_main.obj
 0002:00013e04       ??_C@_0BI@FFKPJFGI@effects?1mp?1drainhit?4efx?$AA@ 300ace04     cg_main.obj
 0002:00013e1c       ??_C@_0BJ@POMMBGAM@effects?1mp?1drainwide?4efx?$AA@ 300ace1c     cg_main.obj
 0002:00013e38       ??_C@_0BF@DOMCBFFK@effects?1mp?1drain?4efx?$AA@ 300ace38     cg_main.obj
 0002:00013e50       ??_C@_0CA@PJMOHHIO@effects?1force?1lightningwide?4efx?$AA@ 300ace50     cg_main.obj
 0002:00013e70       ??_C@_0BM@PFBHLOPA@effects?1force?1lightning?4efx?$AA@ 300ace70     cg_main.obj
 0002:00013e8c       ??_C@_0BI@EKDCGGPA@force?1confusion_old?4efx?$AA@ 300ace8c     cg_main.obj
 0002:00013ea4       ??_C@_0BF@BPNBJBAC@blaster?1smoke_bolton?$AA@ 300acea4     cg_main.obj
 0002:00013ebc       ??_C@_0BE@EDNJGAOC@blaster?1deflect?4efx?$AA@ 300acebc     cg_main.obj
 0002:00013ed0       ??_C@_0BB@CKIDHIKN@mp?1jedispawn?4efx?$AA@ 300aced0     cg_main.obj
 0002:00013ee4       ??_C@_0N@LLGCPGGE@mp?1spawn?4efx?$AA@ 300acee4     cg_main.obj
 0002:00013ef4       ??_C@_0BN@DKINBKCM@saber?1blood_sparks_50_mp?4efx?$AA@ 300acef4     cg_main.obj
 0002:00013f14       ??_C@_0BN@JCMGEEBK@saber?1blood_sparks_25_mp?4efx?$AA@ 300acf14     cg_main.obj
 0002:00013f34       ??_C@_0BK@POKMLLAA@saber?1blood_sparks_mp?4efx?$AA@ 300acf34     cg_main.obj
 0002:00013f50       ??_C@_0BG@NKEPHOMN@saber?1saber_block?4efx?$AA@ 300acf50     cg_main.obj
 0002:00013f68       ??_C@_0BE@JLBEFIFN@saber?1saber_cut?4efx?$AA@ 300acf68     cg_main.obj
 0002:00013f7c       ??_C@_0BH@JDPGNKAL@sparks?1spark_nosnd?4efx?$AA@ 300acf7c     cg_main.obj
 0002:00013f94       ??_C@_0CA@HGFMJEIC@effects?1turret?1muzzle_flash?4efx?$AA@ 300acf94     cg_main.obj
 0002:00013fb4       ??_C@_0BA@CDHDMGGO@mp?1itemcone?4efx?$AA@ 300acfb4     cg_main.obj
 0002:00013fc4       ??_C@_0BE@EJCDPDIJ@concussion?1alt_ring?$AA@ 300acfc4     cg_main.obj
 0002:00013fd8       ??_C@_0BO@JELNEKOO@effects?1emplaced?1muzzle_flash?$AA@ 300acfd8     cg_main.obj
 0002:00013ff8       ??_C@_0BD@BEOLDAGA@tripMine?1laser?4efx?$AA@ 300acff8     cg_main.obj
 0002:0001400c       ??_C@_0BH@HKDCPBHI@sparks?1spark_exp_nosnd?$AA@ 300ad00c     cg_main.obj
 0002:00014024       ??_C@_0BG@JJPEKAJ@demp2?1altDetonate?4efx?$AA@ 300ad024     cg_main.obj
 0002:0001403c       ??_C@_0BL@ENBMGPII@stunBaton?1flesh_impact?4efx?$AA@ 300ad03c     cg_main.obj
 0002:00014058       ??_C@_0BH@IGPEPEKB@flechette?1alt_blow?4efx?$AA@ 300ad058     cg_main.obj
 0002:00014070       ??_C@_0BG@OPKCOLIH@detpack?1explosion?4efx?$AA@ 300ad070     cg_main.obj
 0002:00014088       ??_C@_0BH@LGEKJMJF@tripMine?1explosion?4efx?$AA@ 300ad088     cg_main.obj
 0002:000140a0       ??_C@_0BL@GALBHNII@sparks?1spark_explosion?4efx?$AA@ 300ad0a0     cg_main.obj
 0002:000140bc       ??_C@_0BD@CIEJDHGF@turret?1explode?4efx?$AA@ 300ad0bc     cg_main.obj
 0002:000140d0       ??_C@_0BF@JBOEDKLA@emplaced?1explode?4efx?$AA@ 300ad0d0     cg_main.obj
 0002:000140e8       ??_C@_0BI@DFPFFJME@emplaced?1dead_smoke?4efx?$AA@ 300ad0e8     cg_main.obj
 0002:00014100       ??_C@_0M@DOBEFLEE@turret?1shot?$AA@ 300ad100     cg_main.obj
 0002:0001410c       ??_C@_0BC@DOELBOML@gfx?1misc?1blueLine?$AA@ 300ad10c     cg_main.obj
 0002:00014120       ??_C@_0L@GLPNNMED@gfx?12d?1net?$AA@ 300ad120     cg_main.obj
 0002:0001412c       ??_C@_0L@KHBCPNIG@gfx?12d?1lag?$AA@ 300ad12c     cg_main.obj
 0002:00014138       ??_C@_0CD@DBDCHJGE@gfx?1mp_automap?1mpauto_frame_bott@ 300ad138     cg_main.obj
 0002:0001415c       ??_C@_0CA@KDPBNNGB@gfx?1mp_automap?1mpauto_frame_top?$AA@ 300ad15c     cg_main.obj
 0002:0001417c       ??_C@_0CC@BNMEAIIP@gfx?1mp_automap?1mpauto_frame_righ@ 300ad17c     cg_main.obj
 0002:000141a0       ??_C@_0CB@FGMDPPAE@gfx?1mp_automap?1mpauto_frame_left@ 300ad1a0     cg_main.obj
 0002:000141c4       ??_C@_0BH@BPNHLMKG@gfx?1menus?1radar?1rocket?$AA@ 300ad1c4     cg_main.obj
 0002:000141dc       ??_C@_0BI@FIOLLEHN@gfx?1menus?1radar?1arrow_w?$AA@ 300ad1dc     cg_main.obj
 0002:000141f4       ??_C@_0BJ@NPICMJA@gfx?1menus?1radar?1goalitem?$AA@ 300ad1f4     cg_main.obj
 0002:00014210       ??_C@_0BK@IEPPFEFE@gfx?1menus?1radar?1radar?4png?$AA@ 300ad210     cg_main.obj
 0002:0001422c       ??_C@_0BB@OIENEINL@gfx?12d?1defer?4tga?$AA@ 300ad22c     cg_main.obj
 0002:00014240       ??_C@_0BC@OGJIGJAP@gfx?1mp?1vchat_icon?$AA@ 300ad240     cg_main.obj
 0002:00014254       ??_C@_0BB@EPCKOLB@gfx?1mp?1chat_icon?$AA@ 300ad254     cg_main.obj
 0002:00014268       ??_C@_0BJ@CGMCGOPM@gfx?1mp?1pduel_icon_double?$AA@ 300ad268     cg_main.obj
 0002:00014284       ??_C@_0BH@HELDPHNE@gfx?1mp?1pduel_icon_lone?$AA@ 300ad284     cg_main.obj
 0002:0001429c       ??_C@_0P@MOGNKJE@levelStartTime?$AA@ 300ad29c     cg_main.obj
 0002:000142ac       ??_C@_0BM@EGCEFOFI@gfx?1effects?1saberDamageGlow?$AA@ 300ad2ac     cg_main.obj
 0002:000142c8       ??_C@_0BM@CCKANNO@gfx?1damage?1bodybigburnmark1?$AA@ 300ad2c8     cg_main.obj
 0002:000142e4       ??_C@_0BJ@PPPMPMKG@gfx?1damage?1saberglowmark?$AA@ 300ad2e4     cg_main.obj
 0002:00014300       ??_C@_0BJ@KJBKAEPO@gfx?1damage?1bodyburnmark1?$AA@ 300ad300     cg_main.obj
 0002:0001431c       ??_C@_0BG@BLLMADBO@gfx?1mp?1f_icon_ragerec?$AA@ 300ad31c     cg_main.obj
 0002:00014334       ??_C@_0BF@CKKKAJDO@gfx?1hud?1background_i?$AA@ 300ad334     cg_main.obj
 0002:0001434c       ??_C@_0BF@KNDCBFPB@gfx?1hud?1background_f?$AA@ 300ad34c     cg_main.obj
 0002:00014364       ??_C@_0BD@GDEFAJLE@gfx?1hud?1background?$AA@ 300ad364     cg_main.obj
 0002:00014378       ??_C@_0BO@FFKCLDKB@gfx?1hud?1w_icon_duallightsaber?$AA@ 300ad378     cg_main.obj
 0002:00014398       ??_C@_0BK@DOBGMPNF@gfx?1hud?1w_icon_saberstaff?$AA@ 300ad398     cg_main.obj
 0002:000143b4       ??_C@_0BA@BMAIBDM@com_buildscript?$AA@ 300ad3b4     cg_main.obj
 0002:000143c4       ??_C@_05KOPPDPO@?$CFs_na?$AA@ 300ad3c4     cg_main.obj
 0002:000143cc       ??_C@_0BF@EGEEPHON@gfx?1hud?1mp_levelload?$AA@ 300ad3cc     cg_main.obj
 0002:000143e4       ??_C@_0BG@FIEHOIIN@gfx?1hud?1load_tick_cap?$AA@ 300ad3e4     cg_main.obj
 0002:000143fc       ??_C@_0BC@EMACFANC@gfx?1hud?1load_tick?$AA@ 300ad3fc     cg_main.obj
 0002:00014410       ??_C@_0BF@NCICKGDM@gfx?12d?1charsgrid_med?$AA@ 300ad410     cg_main.obj
 0002:00014428       ??_C@_06LFGMJCKO@ergoec?$AA@ 300ad428     cg_main.obj
 0002:00014430       ??_C@_05LDDNLFDC@ocr_a?$AA@ 300ad430     cg_main.obj
 0002:00014438       ??_C@_0BL@MDCOCEP@vmMain?3?5unknown?5command?5?$CFi?$AA@ 300ad438     cg_main.obj
 0002:00014454       ??_C@_08MEIODECE@explode1?$AA@ 300ad454     cg_marks.obj
 0002:00014460       __real@c034000000000000    300ad460     cg_marks.obj
 0002:00014468       ??_C@_0CG@NBPMFGF@CG_ImpactMark?5called?5with?5?$DM?$DN?50?5r@ 300ad468     cg_marks.obj
 0002:00014490       __real@3e6147ae            300ad490     cg_marks.obj
 0002:00014494       __real@3f7ff972            300ad494     cg_marks.obj
 0002:00014498       __real@c1200000            300ad498     cg_marks.obj
 0002:0001449c       __real@42820000            300ad49c     cg_marks.obj
 0002:000144a0       ??_C@_08BENANNLH@KILLEDBY?$AA@ 300ad4a0     cg_newDraw.obj
 0002:000144ac       ??_C@_0L@DPNLFBAA@BLUE_LEADS?$AA@ 300ad4ac     cg_newDraw.obj
 0002:000144b8       ??_C@_0M@HFOGODEL@?$CFs?0?5?$CFi?5?1?5?$CFi?$AA@ 300ad4b8     cg_newDraw.obj
 0002:000144c4       ??_C@_09GAPPNLAA@RED_LEADS?$AA@ 300ad4c4     cg_newDraw.obj
 0002:000144d0       ??_C@_06LGLENBHF@TIEDAT?$AA@ 300ad4d0     cg_newDraw.obj
 0002:000144d8       ??_C@_08PPGKHGBD@?$CFs?5?$CFs?5?$CFi?$AA@ 300ad4d8     cg_newDraw.obj
 0002:000144e4       ??_C@_0M@EBAJNKPF@Jedi?5Master?$AA@ 300ad4e4     cg_newDraw.obj
 0002:000144f0       ??_C@_07LFFEFFPB@getMenu?$AA@ 300ad4f0     cg_newDraw.obj
 0002:000144f8       ??_C@_08JIDHMNC@teamMenu?$AA@ 300ad4f8     cg_newDraw.obj
 0002:00014504       __real@3e2e147b            300ad504     cg_newDraw.obj
 0002:00014508       ??_C@_07LFJCPKGE@lfemurX?$AA@ 300ad508     cg_players.obj
 0002:00014510       ??_C@_07NMKDNJHN@rfemurX?$AA@ 300ad510     cg_players.obj
 0002:00014518       ??_C@_08BPGGEBNG@lradiusX?$AA@ 300ad518     cg_players.obj
 0002:00014524       ??_C@_06DNLMNPAP@ltalus?$AA@ 300ad524     cg_players.obj
 0002:0001452c       ??_C@_06KFNDIJM@rtalus?$AA@ 300ad52c     cg_players.obj
 0002:00014534       ??_C@_09HCJINJLP@?$CKpushfail?$AA@ 300ad534     cg_players.obj
 0002:00014540       ??_C@_07PMCHDGAE@?$CKgloat3?$AA@ 300ad540     cg_players.obj
 0002:00014548       ??_C@_07OFDMAHEF@?$CKgloat2?$AA@ 300ad548     cg_players.obj
 0002:00014550       ??_C@_07MOBBFEIG@?$CKgloat1?$AA@ 300ad550     cg_players.obj
 0002:00014558       ??_C@_09JFAMMJHF@?$CKdeflect3?$AA@ 300ad558     cg_players.obj
 0002:00014564       ??_C@_09IMBHPIDE@?$CKdeflect2?$AA@ 300ad564     cg_players.obj
 0002:00014570       ??_C@_09KHDKKLPH@?$CKdeflect1?$AA@ 300ad570     cg_players.obj
 0002:0001457c       ??_C@_07GHOAMINA@?$CKjlost3?$AA@ 300ad57c     cg_players.obj
 0002:00014584       ??_C@_07HOPLPJJB@?$CKjlost2?$AA@ 300ad584     cg_players.obj
 0002:0001458c       ??_C@_07FFNGKKFC@?$CKjlost1?$AA@ 300ad58c     cg_players.obj
 0002:00014594       ??_C@_08HGFELJCE@?$CKjchase3?$AA@ 300ad594     cg_players.obj
 0002:000145a0       ??_C@_08GPEPIIGF@?$CKjchase2?$AA@ 300ad5a0     cg_players.obj
 0002:000145ac       ??_C@_08EEGCNLKG@?$CKjchase1?$AA@ 300ad5ac     cg_players.obj
 0002:000145b8       ??_C@_07GELMDMPM@?$CKtaunt3?$AA@ 300ad5b8     cg_players.obj
 0002:000145c0       ??_C@_07HNKHANLN@?$CKtaunt2?$AA@ 300ad5c0     cg_players.obj
 0002:000145c8       ??_C@_07FGIKFOHO@?$CKtaunt1?$AA@ 300ad5c8     cg_players.obj
 0002:000145d0       ??_C@_0M@MOEEGCHK@?$CKjdetected3?$AA@ 300ad5d0     cg_players.obj
 0002:000145dc       ??_C@_0M@NHFPFDDL@?$CKjdetected2?$AA@ 300ad5dc     cg_players.obj
 0002:000145e8       ??_C@_0M@PMHCAAPI@?$CKjdetected1?$AA@ 300ad5e8     cg_players.obj
 0002:000145f4       ??_C@_08FOCCHFEL@?$CKcombat3?$AA@ 300ad5f4     cg_players.obj
 0002:00014600       ??_C@_08EHDJEEAK@?$CKcombat2?$AA@ 300ad600     cg_players.obj
 0002:0001460c       ??_C@_08GMBEBHMJ@?$CKcombat1?$AA@ 300ad60c     cg_players.obj
 0002:00014618       ??_C@_0N@KBNCNDKC@?$CKsuspicious5?$AA@ 300ad618     cg_players.obj
 0002:00014628       ??_C@_0N@LIMJOCOD@?$CKsuspicious4?$AA@ 300ad628     cg_players.obj
 0002:00014638       ??_C@_0N@PHIIHECE@?$CKsuspicious3?$AA@ 300ad638     cg_players.obj
 0002:00014648       ??_C@_0N@OOJDEFGF@?$CKsuspicious2?$AA@ 300ad648     cg_players.obj
 0002:00014658       ??_C@_0N@MFLOBGKG@?$CKsuspicious1?$AA@ 300ad658     cg_players.obj
 0002:00014668       ??_C@_07IHDHMAHC@?$CKsound3?$AA@ 300ad668     cg_players.obj
 0002:00014670       ??_C@_07JOCMPBDD@?$CKsound2?$AA@ 300ad670     cg_players.obj
 0002:00014678       ??_C@_07LFABKCPA@?$CKsound1?$AA@ 300ad678     cg_players.obj
 0002:00014680       ??_C@_07HCADBLCB@?$CKsight3?$AA@ 300ad680     cg_players.obj
 0002:00014688       ??_C@_07GLBICKGA@?$CKsight2?$AA@ 300ad688     cg_players.obj
 0002:00014690       ??_C@_07EADFHJKD@?$CKsight1?$AA@ 300ad690     cg_players.obj
 0002:00014698       ??_C@_06KHLNPOAL@?$CKlook2?$AA@ 300ad698     cg_players.obj
 0002:000146a0       ??_C@_06IMJAKNMI@?$CKlook1?$AA@ 300ad6a0     cg_players.obj
 0002:000146a8       ??_C@_08PFLKJOBA@?$CKgiveup4?$AA@ 300ad6a8     cg_players.obj
 0002:000146b4       ??_C@_08LKPLAINH@?$CKgiveup3?$AA@ 300ad6b4     cg_players.obj
 0002:000146c0       ??_C@_08KDOADJJG@?$CKgiveup2?$AA@ 300ad6c0     cg_players.obj
 0002:000146cc       ??_C@_08IIMNGKFF@?$CKgiveup1?$AA@ 300ad6cc     cg_players.obj
 0002:000146d8       ??_C@_0L@IAAEGJDF@?$CKescaping3?$AA@ 300ad6d8     cg_players.obj
 0002:000146e4       ??_C@_0L@JJBPFIHE@?$CKescaping2?$AA@ 300ad6e4     cg_players.obj
 0002:000146f0       ??_C@_0L@LCDCALLH@?$CKescaping1?$AA@ 300ad6f0     cg_players.obj
 0002:000146fc       ??_C@_0L@DIAMHMO@?$CKoutflank2?$AA@ 300ad6fc     cg_players.obj
 0002:00014708       ??_C@_0L@CIKNJEAN@?$CKoutflank1?$AA@ 300ad708     cg_players.obj
 0002:00014714       ??_C@_06IBCFKBKC@?$CKlost1?$AA@ 300ad714     cg_players.obj
 0002:0001471c       ??_C@_0L@KMACJIAJ@?$CKdetected5?$AA@ 300ad71c     cg_players.obj
 0002:00014728       ??_C@_0L@LFBJKJEI@?$CKdetected4?$AA@ 300ad728     cg_players.obj
 0002:00014734       ??_C@_0L@PKFIDPIP@?$CKdetected3?$AA@ 300ad734     cg_players.obj
 0002:00014740       ??_C@_0L@ODEDAOMO@?$CKdetected2?$AA@ 300ad740     cg_players.obj
 0002:0001474c       ??_C@_0L@MIGOFNAN@?$CKdetected1?$AA@ 300ad74c     cg_players.obj
 0002:00014758       ??_C@_07DOLJNJCJ@?$CKcover5?$AA@ 300ad758     cg_players.obj
 0002:00014760       ??_C@_07CHKCOIGI@?$CKcover4?$AA@ 300ad760     cg_players.obj
 0002:00014768       ??_C@_07GIODHOKP@?$CKcover3?$AA@ 300ad768     cg_players.obj
 0002:00014770       ??_C@_07HBPIEPOO@?$CKcover2?$AA@ 300ad770     cg_players.obj
 0002:00014778       ??_C@_07FKNFBMCN@?$CKcover1?$AA@ 300ad778     cg_players.obj
 0002:00014780       ??_C@_07MLDNLIDD@?$CKchase3?$AA@ 300ad780     cg_players.obj
 0002:00014788       ??_C@_07NCCGIJHC@?$CKchase2?$AA@ 300ad788     cg_players.obj
 0002:00014790       ??_C@_07PJALNKLB@?$CKchase1?$AA@ 300ad790     cg_players.obj
 0002:00014798       ??_C@_07DIBICHCG@?$CKffturn?$AA@ 300ad798     cg_players.obj
 0002:000147a0       ??_C@_07KAMDJNDO@?$CKffwarn?$AA@ 300ad7a0     cg_players.obj
 0002:000147a8       ??_C@_08IPJAMPGO@?$CKpushed3?$AA@ 300ad7a8     cg_players.obj
 0002:000147b4       ??_C@_08JGILPOCP@?$CKpushed2?$AA@ 300ad7b4     cg_players.obj
 0002:000147c0       ??_C@_08LNKGKNOM@?$CKpushed1?$AA@ 300ad7c0     cg_players.obj
 0002:000147cc       ??_C@_09NPMENMCP@?$CKconfuse3?$AA@ 300ad7cc     cg_players.obj
 0002:000147d8       ??_C@_09MGNPONGO@?$CKconfuse2?$AA@ 300ad7d8     cg_players.obj
 0002:000147e4       ??_C@_09ONPCLOKN@?$CKconfuse1?$AA@ 300ad7e4     cg_players.obj
 0002:000147f0       ??_C@_09FHOFKCJE@?$CKvictory3?$AA@ 300ad7f0     cg_players.obj
 0002:000147fc       ??_C@_09EOPOJDNF@?$CKvictory2?$AA@ 300ad7fc     cg_players.obj
 0002:00014808       ??_C@_09GFNDMABG@?$CKvictory1?$AA@ 300ad808     cg_players.obj
 0002:00014814       ??_C@_07GJKAACBB@?$CKanger3?$AA@ 300ad814     cg_players.obj
 0002:0001481c       ??_C@_07HALLDDFA@?$CKanger2?$AA@ 300ad81c     cg_players.obj
 0002:00014824       ??_C@_07FLJGGAJD@?$CKanger1?$AA@ 300ad824     cg_players.obj
 0002:0001482c       ??_C@_06GIEEFNAP@?$CKtaunt?$AA@ 300ad82c     cg_players.obj
 0002:00014834       ??_C@_06IAEADDPB@?$CKland1?$AA@ 300ad834     cg_players.obj
 0002:0001483c       ??_C@_05DJAKOMMI@?$CKgasp?$AA@ 300ad83c     cg_players.obj
 0002:00014844       ??_C@_07OBKAHJCC@?$CKchoke3?$AA@ 300ad844     cg_players.obj
 0002:0001484c       ??_C@_07PILLEIGD@?$CKchoke2?$AA@ 300ad84c     cg_players.obj
 0002:00014854       ??_C@_07NDJGBLKA@?$CKchoke1?$AA@ 300ad854     cg_players.obj
 0002:0001485c       ??_C@_09IAAMPKDA@?$CKfalling1?$AA@ 300ad85c     cg_players.obj
 0002:00014868       ??_C@_08DFPLOOLE@?$CKpain100?$AA@ 300ad868     cg_players.obj
 0002:00014874       ??_C@_07BBGFPGHD@?$CKpain75?$AA@ 300ad874     cg_players.obj
 0002:0001487c       ??_C@_07GPJGNGFI@?$CKpain50?$AA@ 300ad87c     cg_players.obj
 0002:00014884       ??_C@_07BHKODEJI@?$CKpain25?$AA@ 300ad884     cg_players.obj
 0002:0001488c       ??_C@_06MKODEFOM@?$CKjump1?$AA@ 300ad88c     cg_players.obj
 0002:00014894       ??_C@_07CHALDOIJ@?$CKdeath3?$AA@ 300ad894     cg_players.obj
 0002:0001489c       ??_C@_07DOBAAPMI@?$CKdeath2?$AA@ 300ad89c     cg_players.obj
 0002:000148a4       ??_C@_07BFDNFMAL@?$CKdeath1?$AA@ 300ad8a4     cg_players.obj
 0002:000148ac       ??_C@_06PJBLOBOB@surfOn?$AA@ 300ad8ac     cg_players.obj
 0002:000148b4       ??_C@_01IHBHIGKO@?0?$AA@   300ad8b4     cg_players.obj
 0002:000148b8       ??_C@_07OKEAFEJG@surfOff?$AA@ 300ad8b8     cg_players.obj
 0002:000148c0       ??_C@_0CA@ILAKKBMK@models?1players?1?$CFs?1model_?$CFs?4surf?$AA@ 300ad8c0     cg_players.obj
 0002:000148e0       ??_C@_0EG@ONAEEHHL@Failed?5to?5load?5animation?5file?5mo@ 300ad8e0     cg_players.obj
 0002:00014928       ??_C@_0DA@JJDBLPFJ@Model?5does?5not?5use?5supported?5ani@ 300ad928     cg_players.obj
 0002:00014958       ??_C@_0BF@PKIKNPLA@models?1players?1?$CFs?1?$CFs?$AA@ 300ad958     cg_players.obj
 0002:00014970       ??_C@_05KDHLENLH@icon_?$AA@ 300ad970     cg_players.obj
 0002:00014978       ??_C@_0BK@DLHLILP@models?1players?1?$CFs?1icon_?$CFs?$AA@ 300ad978     cg_players.obj
 0002:00014994       ??_C@_0L@ILNFPDID@torso_ljet?$AA@ 300ad994     cg_players.obj
 0002:000149a0       ??_C@_0L@JIFGEFC@torso_cjet?$AA@ 300ad9a0     cg_players.obj
 0002:000149ac       ??_C@_0L@FEAFNKGA@torso_rjet?$AA@ 300ad9ac     cg_players.obj
 0002:000149b8       ??_C@_09KELKOKG@boba_fett?$AA@ 300ad9b8     cg_players.obj
 0002:000149c4       ??_C@_06EMGELNAF@Motion?$AA@ 300ad9c4     cg_players.obj
 0002:000149cc       ??_C@_08MEOLNMOI@ceyebrow?$AA@ 300ad9cc     cg_players.obj
 0002:000149d8       ??_C@_09LHLEBJNE@?$CKhead_top?$AA@ 300ad9d8     cg_players.obj
 0002:000149e4       ??_C@_0BC@BGMHBOJP@?$CKl_hand_cap_l_arm?$AA@ 300ad9e4     cg_players.obj
 0002:000149f8       ??_C@_07PNIOEPOE@?$CKchestg?$AA@ 300ad9f8     cg_players.obj
 0002:00014a00       ??_C@_07CKKFCGNI@?$CKl_hand?$AA@ 300ada00     cg_players.obj
 0002:00014a08       ??_C@_0BK@HAPHLECL@models?1players?1_humanoid?1?$AA@ 300ada08     cg_players.obj
 0002:00014a24       ??_C@_0CH@JMNIMDPG@models?1players?1_humanoid?1animati@ 300ada24     cg_players.obj
 0002:00014a4c       ??_C@_0P@BNFHKDFH@?1animation?4cfg?$AA@ 300ada4c     cg_players.obj
 0002:00014a5c       ??_C@_0CF@FIHHFCC@models?1players?1?$CFs?1model_default?4@ 300ada5c     cg_players.obj
 0002:00014a84       ??_C@_0BG@BBLNABEM@models?1players?1?$CFs?1?$HM?$CFs?$AA@ 300ada84     cg_players.obj
 0002:00014aa0       ??_C@_0HG@JDBGMCOG@WARNING?3?5Attempted?5to?5load?5an?5un@ 300adaa0     cg_players.obj
 0002:00014b18       ??_C@_0M@NGJBOEHI@sound?1?$CFs?1?$CFs?$AA@ 300adb18     cg_players.obj
 0002:00014b24       ??_C@_0BL@JMBOPOOA@chars?1mp_generic_male?1misc?$AA@ 300adb24     cg_players.obj
 0002:00014b40       ??_C@_0BN@JCOIBIKF@chars?1mp_generic_female?1misc?$AA@ 300adb40     cg_players.obj
 0002:00014b60       ??_C@_0BH@FNMNDJNM@sound?1chars?1?$CFs?1misc?1?$CFs?$AA@ 300adb60     cg_players.obj
 0002:00014b78       ??_C@_0CF@NEPCHIHA@models?1players?1?$CFs?1sounds_default@ 300adb78     cg_players.obj
 0002:00014ba0       ??_C@_0BN@CHNFAMLI@models?1players?1?$CFs?1sounds?4cfg?$AA@ 300adba0     cg_players.obj
 0002:00014bc0       ??_C@_0CA@JPONKMJK@models?1players?1?$CFs?1sounds_?$CFs?4cfg?$AA@ 300adbc0     cg_players.obj
 0002:00014be0       ??_C@_06PDDIJHJI@?$CKflash?$AA@ 300adbe0     cg_players.obj
 0002:00014be8       ??_C@_08PJKKDMJN@?$CKblade?$CFi?$AA@ 300adbe8     cg_players.obj
 0002:00014bf4       __real@40e00000            300adbf4     cg_players.obj
 0002:00014bf8       __real@c0e00000            300adbf8     cg_players.obj
 0002:00014bfc       ??_C@_0M@HEAHHNIP@?$CKr_leg_foot?$AA@ 300adbfc     cg_players.obj
 0002:00014c08       ??_C@_0M@IIIHJCEC@?$CKl_leg_foot?$AA@ 300adc08     cg_players.obj
 0002:00014c14       ??_C@_06MEGOBODG@?$CKblade?$AA@ 300adc14     cg_players.obj
 0002:00014c1c       ??_C@_0CE@GDIPEJOP@sound?1weapons?1saber?1saberspin?$CFd?4@ 300adc1c     cg_players.obj
 0002:00014c40       ??_C@_0CD@FMKCFIAG@sound?1weapons?1saber?1saberspin3?4w@ 300adc40     cg_players.obj
 0002:00014c64       ??_C@_0CD@JHPOILKD@sound?1weapons?1saber?1saberspin2?4w@ 300adc64     cg_players.obj
 0002:00014c88       ??_C@_0CD@BBGKPJAN@sound?1weapons?1saber?1saberspin1?4w@ 300adc88     cg_players.obj
 0002:00014cac       ??_C@_0CC@JLAJJOPN@sound?1weapons?1saber?1saberspin?4wa@ 300adcac     cg_players.obj
 0002:00014cd0       ??_C@_0CF@NMGCPJNB@sound?1weapons?1saber?1saberspinoff@ 300adcd0     cg_players.obj
 0002:00014cf8       ??_C@_0BM@FOJNPCCA@?$CFd?3?5?$CFd?5LEGS?5Anim?3?5?$CFi?0?5?8?$CFs?8?6?$AA@ 300adcf8     cg_players.obj
 0002:00014d14       ??_C@_0BN@MKPFOCIE@?$CFd?3?5?$CFd?5TORSO?5Anim?3?5?$CFi?0?5?8?$CFs?8?6?$AA@ 300add14     cg_players.obj
 0002:00014d34       ??_C@_0BJ@OHDPKGG@Bad?5animation?5number?3?5?$CFi?$AA@ 300add34     cg_players.obj
 0002:00014d50       __real@3fd9999a            300add50     cg_players.obj
 0002:00014d54       __real@3fa66666            300add54     cg_players.obj
 0002:00014d58       __real@c1c80000            300add58     cg_players.obj
 0002:00014d5c       __real@c2200000            300add5c     cg_players.obj
 0002:00014d60       __real@c2800000            300add60     cg_players.obj
 0002:00014d64       __real@bdcccccd            300add64     cg_players.obj
 0002:00014d68       __real@40a0000000000000    300add68     cg_players.obj
 0002:00014d70       __real@4479c000            300add70     cg_players.obj
 0002:00014d74       __real@c479c000            300add74     cg_players.obj
 0002:00014d78       ??_C@_08IFLEIKA@rhumerus?$AA@ 300add78     cg_players.obj
 0002:00014d84       ??_C@_09KELMCPPM@rhumerusX?$AA@ 300add84     cg_players.obj
 0002:00014d90       ??_C@_08HLGENIDF@rradiusX?$AA@ 300add90     cg_players.obj
 0002:00014da0       __real@3fee666660000000    300adda0     cg_players.obj
 0002:00014da8       ??_C@_04CKENFJKC@leye?$AA@ 300adda8     cg_players.obj
 0002:00014db0       ??_C@_04PFJNHAEB@reye?$AA@ 300addb0     cg_players.obj
 0002:00014db8       ??_C@_04POCOPAPC@face?$AA@ 300addb8     cg_players.obj
 0002:00014dc0       __real@45dac000            300addc0     cg_players.obj
 0002:00014dc8       __real@4197d78400000000    300addc8     cg_players.obj
 0002:00014dd0       __real@45bb8000            300addd0     cg_players.obj
 0002:00014dd4       __real@457a0000            300addd4     cg_players.obj
 0002:00014dd8       __real@45fa0000            300addd8     cg_players.obj
 0002:00014de0       __real@4070e00000000000    300adde0     cg_players.obj
 0002:00014de8       __real@c04b800000000000    300adde8     cg_players.obj
 0002:00014df0       __real@404b800000000000    300addf0     cg_players.obj
 0002:00014df8       __real@43740000            300addf8     cg_players.obj
 0002:00014e00       __real@406e800000000000    300ade00     cg_players.obj
 0002:00014e08       __real@3fdf3b6460000000    300ade08     cg_players.obj
 0002:00014e10       __real@3f70624de0000000    300ade10     cg_players.obj
 0002:00014e18       __real@3ff6666666666666    300ade18     cg_players.obj
 0002:00014e20       __real@3f59b34ce68019b4    300ade20     cg_players.obj
 0002:00014e28       __real@3fb3333340000000    300ade28     cg_players.obj
 0002:00014e30       __real@3ff6666660000000    300ade30     cg_players.obj
 0002:00014e38       __real@406ae00000000000    300ade38     cg_players.obj
 0002:00014e40       __real@40c8f5c3            300ade40     cg_players.obj
 0002:00014e44       __real@435c0000            300ade44     cg_players.obj
 0002:00014e48       ??_C@_0BC@GCOANANI@effects?1refract_2?$AA@ 300ade48     cg_players.obj
 0002:00014e5c       ??_C@_0BB@HCAEDMI@?$CFs?1model_?$CFs?4skin?$AA@ 300ade5c     cg_players.obj
 0002:00014e70       ??_C@_06CKEMEABK@?$CFs?1?$HM?$CFs?$AA@ 300ade70     cg_players.obj
 0002:00014e78       ??_C@_08FNEKKBCI@?$CKflash?$CFi?$AA@ 300ade78     cg_players.obj
 0002:00014e84       ??_C@_09DFLEJFMN@?$CKmuzzle?$CFi?$AA@ 300ade84     cg_players.obj
 0002:00014e90       ??_C@_0L@CJEIKOKF@?$CKexhaust?$CFi?$AA@ 300ade90     cg_players.obj
 0002:00014e9c       ??_C@_0L@JEAMIDKG@?$CKdroidunit?$AA@ 300ade9c     cg_players.obj
 0002:00014ea8       ??_C@_0BJ@OHOJGDLI@sound?1weapons?1noammo?4wav?$AA@ 300adea8     cg_players.obj
 0002:00014ec4       ??_C@_0M@ODMGMNB@?$CKnosedamage?$AA@ 300adec4     cg_players.obj
 0002:00014ed0       ??_C@_0O@FEKOMMCJ@?$CKl_wingdamage?$AA@ 300aded0     cg_players.obj
 0002:00014ee0       ??_C@_0O@BKEPGGED@?$CKr_wingdamage?$AA@ 300adee0     cg_players.obj
 0002:00014ef0       ??_C@_09ILKHDDNA@?$CKexhaust1?$AA@ 300adef0     cg_players.obj
 0002:00014f00       __real@3fee147ae0000000    300adf00     cg_players.obj
 0002:00014f08       ??_C@_08HOAENDHG@?$CKfoot_rg?$AA@ 300adf08     cg_players.obj
 0002:00014f14       ??_C@_08GILMFNAM@?$CKfoot_lg?$AA@ 300adf14     cg_players.obj
 0002:00014f20       ??_C@_09KGHBHJLF@?$CKthigh_rg?$AA@ 300adf20     cg_players.obj
 0002:00014f2c       ??_C@_09LAMJPHMP@?$CKthigh_lg?$AA@ 300adf2c     cg_players.obj
 0002:00014f38       ??_C@_07PEAFBKBB@?$CKweapon?$AA@ 300adf38     cg_players.obj
 0002:00014f40       ??_C@_07LFHEGECL@?$CKhand_l?$AA@ 300adf40     cg_players.obj
 0002:00014f48       ??_C@_09MCJGANG@?$CKbicep_rg?$AA@ 300adf48     cg_players.obj
 0002:00014f54       ??_C@_09BKJBOOKM@?$CKbicep_lg?$AA@ 300adf54     cg_players.obj
 0002:00014f60       ??_C@_0N@CKKOJGGC@?$CKhips_r_knee?$AA@ 300adf60     cg_players.obj
 0002:00014f70       ??_C@_0N@BNEPHBPB@?$CKhips_l_knee?$AA@ 300adf70     cg_players.obj
 0002:00014f80       ??_C@_0N@JCLPFCAP@?$CKr_arm_elbow?$AA@ 300adf80     cg_players.obj
 0002:00014f90       ??_C@_0N@HHJGGMON@?$CKl_arm_elbow?$AA@ 300adf90     cg_players.obj
 0002:00014fa0       ??_C@_0CC@JOOHECEC@models?1weapons2?1jetpack?1model?4gl@ 300adfa0     cg_players.obj
 0002:00014fc4       ??_C@_08EEKJBGNE@?$CKtrail?$CFd?$AA@ 300adfc4     cg_players.obj
 0002:00014fd0       ??_C@_0BN@FKDGBGEH@?$CFi?5ResetPlayerEntity?5yaw?$DN?$CFi?6?$AA@ 300adfd0     cg_players.obj
 0002:00014ff0       ??_C@_08BPBKIHMF@tag_flag?$AA@ 300adff0     cg_players.obj
 0002:00014ffc       ??_C@_0CG@NFMPGJHJ@DEFAULT_MODEL?5?$CI?$CFs?$CJ?5failed?5to?5reg@ 300adffc     cg_players.obj
 0002:00015024       ??_C@_0DA@IABNNPOG@DEFAULT_MODEL?5?1?5skin?5?$CI?$CFs?1?$CFs?$CJ?5fai@ 300ae024     cg_players.obj
 0002:00015054       ??_C@_01KMDKNFGN@?1?$AA@   300ae054     cg_players.obj
 0002:00015058       ??_C@_02EDDPJOD@dt?$AA@    300ae058     cg_players.obj
 0002:0001505c       ??_C@_03BJLJLLGM@st2?$AA@  300ae05c     cg_players.obj
 0002:00015060       ??_C@_02BNFKEMBG@st?$AA@   300ae060     cg_players.obj
 0002:00015064       ??_C@_03KDLMPAJP@sdt?$AA@  300ae064     cg_players.obj
 0002:00015068       ??_C@_02JKAOMCMK@tl?$AA@   300ae068     cg_players.obj
 0002:0001506c       ??_C@_02BIBFFKJD@tt?$AA@   300ae06c     cg_players.obj
 0002:00015070       ??_C@_07EHHPJLF@ui_team?$AA@ 300ae070     cg_players.obj
 0002:00015078       ??_C@_01PFHFFBPC@t?$AA@    300ae078     cg_players.obj
 0002:0001507c       ??_C@_01HHGOMJKL@l?$AA@    300ae07c     cg_players.obj
 0002:00015080       ??_C@_01NOFIACDB@w?$AA@    300ae080     cg_players.obj
 0002:00015084       ??_C@_02IKKIEBB@hc?$AA@    300ae084     cg_players.obj
 0002:00015088       ??_C@_05ODMCMJAJ@skill?$AA@ 300ae088     cg_players.obj
 0002:00015090       ??_C@_02KHFPAHOF@c2?$AA@   300ae090     cg_players.obj
 0002:00015094       ??_C@_02IMHCFECG@c1?$AA@   300ae094     cg_players.obj
 0002:00015098       __real@447f0000            300ae098     cg_players.obj
 0002:000150a0       __real@3ff921fb60000000    300ae0a0     cg_players.obj
 0002:000150a8       ??_C@_0BN@PLJLAFDF@sound?1weapons?1baton?1idle?4wav?$AA@ 300ae0a8     cg_players.obj
 0002:000150c8       __real@3f70624dd2f1a9fc    300ae0c8     cg_players.obj
 0002:000150d0       __real@425c0000            300ae0d0     cg_players.obj
 0002:000150d4       ??_C@_0BE@ONCAFADF@sound?1boba?1JETHOVER?$AA@ 300ae0d4     cg_players.obj
 0002:000150e8       ??_C@_0BG@ECFPMGGA@sound?1effects?1fire_lp?$AA@ 300ae0e8     cg_players.obj
 0002:00015100       __real@402b000000000000    300ae100     cg_players.obj
 0002:00015108       __real@4023000000000000    300ae108     cg_players.obj
 0002:00015110       ??_C@_0BP@EEHJJPLA@Bad?5clientNum?5on?5player?5entity?$AA@ 300ae110     cg_players.obj
 0002:00015130       __real@4ab71b00            300ae130     cg_players.obj
 0002:00015138       __real@417cd94100000000    300ae138     cg_predict.obj
 0002:00015140       ??_C@_0BH@JOJLKMBP@WARNING?3?5double?5event?6?$AA@ 300ae140     cg_predict.obj
 0002:00015158       ??_C@_0BI@ELMKHMCD@WARNING?3?5dropped?5event?6?$AA@ 300ae158     cg_predict.obj
 0002:00015170       ??_C@_0L@DOJHFFNN@not?5moved?6?$AA@ 300ae170     cg_predict.obj
 0002:0001517c       ??_C@_0L@NKHFPHNI@?$FL?$CFi?5?3?5?$CFi?$FN?5?$AA@ 300ae17c     cg_predict.obj
 0002:00015188       ??_C@_0BN@HNLMAFPF@Double?5prediction?5decay?3?5?$CFf?6?$AA@ 300ae188     cg_predict.obj
 0002:000151a8       ??_C@_0BF@BBGFLFIG@Prediction?5miss?3?5?$CFf?6?$AA@ 300ae1a8     cg_predict.obj
 0002:000151c0       ??_C@_0BC@GIKLPGML@prediction?5error?6?$AA@ 300ae1c0     cg_predict.obj
 0002:000151d4       ??_C@_0BE@DPKKIGLP@PredictionTeleport?6?$AA@ 300ae1d4     cg_predict.obj
 0002:000151e8       ??_C@_0BO@EJDICJHE@VEH?5roll?5prediction?5miss?3?5?$CFf?6?$AA@ 300ae1e8     cg_predict.obj
 0002:00015208       ??_C@_0BN@FDMMHJCM@VEH?5yaw?5prediction?5miss?3?5?$CFf?6?$AA@ 300ae208     cg_predict.obj
 0002:00015228       ??_C@_0BP@EMNHCEKM@VEH?5pitch?5prediction?5miss?3?5?$CFf?6?$AA@ 300ae228     cg_predict.obj
 0002:00015248       ??_C@_0BN@PFOHEJFJ@VEH?5orient?5prediction?5error?6?$AA@ 300ae248     cg_predict.obj
 0002:00015268       ??_C@_0CB@NOHEDLOG@VEH?5Double?5prediction?5decay?3?5?$CFf?6@ 300ae268     cg_predict.obj
 0002:0001528c       ??_C@_0BJ@HCFMGHKL@VEH?5Prediction?5miss?3?5?$CFf?6?$AA@ 300ae28c     cg_predict.obj
 0002:000152a8       ??_C@_0BG@EBLEHBAE@VEH?5prediction?5error?6?$AA@ 300ae2a8     cg_predict.obj
 0002:000152c0       ??_C@_0BI@BEHCKC@VEH?5PredictionTeleport?6?$AA@ 300ae2c0     cg_predict.obj
 0002:000152d8       ??_C@_02NCPIBIBE@33?$AA@   300ae2d8     cg_predict.obj
 0002:000152dc       ??_C@_0CE@JCAHPAJ@exceeded?5PACKET_BACKUP?5on?5comman@ 300ae2dc     cg_predict.obj
 0002:00015300       ??_C@_0M@NNMBIECO@donemapicon?$AA@ 300ae300     cg_saga.obj
 0002:0001530c       ??_C@_0L@CGECIPJA@litmapicon?$AA@ 300ae30c     cg_saga.obj
 0002:00015318       ??_C@_07PCJEFIIJ@mapicon?$AA@ 300ae318     cg_saga.obj
 0002:00015320       ??_C@_06IEJOFGOG@objgfx?$AA@ 300ae320     cg_saga.obj
 0002:00015328       ??_C@_0M@POKLAABB@sound_team2?$AA@ 300ae328     cg_saga.obj
 0002:00015334       ??_C@_0M@NFIGFDNC@sound_team1?$AA@ 300ae334     cg_saga.obj
 0002:00015340       ??_C@_0M@IHDPCFPD@Objective?$CFi?$AA@ 300ae340     cg_saga.obj
 0002:0001534c       ??_C@_0CG@DGOPCHAC@Siege?5data?5does?5not?5exist?5on?5cli@ 300ae34c     cg_saga.obj
 0002:00015374       ??_C@_0BH@GEPPMNBP@roundover_sound_welost?$AA@ 300ae374     cg_saga.obj
 0002:0001538c       ??_C@_0BG@LLHJNGLO@roundover_sound_wewon?$AA@ 300ae38c     cg_saga.obj
 0002:000153a4       ??_C@_09CMDNALDI@lostround?$AA@ 300ae3a4     cg_saga.obj
 0002:000153b0       ??_C@_08BNMHJEJD@wonround?$AA@ 300ae3b0     cg_saga.obj
 0002:000153bc       ??_C@_0CN@BEHJJGAC@ERROR?3?5Siege?5data?5does?5not?5exist@ 300ae3bc     cg_saga.obj
 0002:000153ec       ??_C@_08IHNFKDIA@goalname?$AA@ 300ae3ec     cg_saga.obj
 0002:000153f8       ??_C@_05FPBGKCKL@final?$AA@ 300ae3f8     cg_saga.obj
 0002:00015400       ??_C@_0BH@FIILMDFJ@siege_objective?$CFi_desc?$AA@ 300ae400     cg_saga.obj
 0002:00015418       ??_C@_0BJ@KPHOGGCB@team?$CFi_objective?$CFi_inuse?$AA@ 300ae418     cg_saga.obj
 0002:00015434       ??_C@_0BI@PIGGCDBC@siege_objective?$CFi_inuse?$AA@ 300ae434     cg_saga.obj
 0002:0001544c       ??_C@_0BD@GEFALHLI@siege_primobj_desc?$AA@ 300ae44c     cg_saga.obj
 0002:00015460       ??_C@_0BJ@CFIIAONA@siege_objective?$CFi_mappos?$AA@ 300ae460     cg_saga.obj
 0002:0001547c       ??_C@_0BF@DFIFEFID@siege_primobj_mappos?$AA@ 300ae47c     cg_saga.obj
 0002:00015494       ??_C@_0BK@JKAPHHID@team?$CFi_objective?$CFi_mappos?$AA@ 300ae494     cg_saga.obj
 0002:000154b0       ??_C@_0BK@EPJCAMKM@siege_objective?$CFi_mapicon?$AA@ 300ae4b0     cg_saga.obj
 0002:000154cc       ??_C@_0BG@LNOAABKJ@siege_primobj_mapicon?$AA@ 300ae4cc     cg_saga.obj
 0002:000154e4       ??_C@_0BL@LNEPILJL@team?$CFi_objective?$CFi_mapicon?$AA@ 300ae4e4     cg_saga.obj
 0002:00015500       ??_C@_0BG@MEDDLAKD@siege_objective?$CFi_gfx?$AA@ 300ae500     cg_saga.obj
 0002:00015518       ??_C@_0BC@BMKDIAIH@siege_primobj_gfx?$AA@ 300ae518     cg_saga.obj
 0002:0001552c       ??_C@_0BH@FONBELKG@team?$CFi_objective?$CFi_gfx?$AA@ 300ae52c     cg_saga.obj
 0002:00015544       ??_C@_0BL@FHIGMJGO@siege_objective?$CFi_longdesc?$AA@ 300ae544     cg_saga.obj
 0002:00015560       ??_C@_0BH@CHBOEPOM@siege_primobj_longdesc?$AA@ 300ae560     cg_saga.obj
 0002:00015578       ??_C@_0BM@OPMJLBOG@team?$CFi_objective?$CFi_longdesc?$AA@ 300ae578     cg_saga.obj
 0002:00015594       ??_C@_0BC@ONOHELI@siege_objective?$CFi?$AA@ 300ae594     cg_saga.obj
 0002:000155a8       ??_C@_0O@EMONNPOK@siege_primobj?$AA@ 300ae5a8     cg_saga.obj
 0002:000155b8       ??_C@_0BE@CPFHCKII@siege_primobj_inuse?$AA@ 300ae5b8     cg_saga.obj
 0002:000155cc       ??_C@_0O@JGJOOINN@message_team2?$AA@ 300ae5cc     cg_saga.obj
 0002:000155dc       ??_C@_0O@LNLDLLBO@message_team1?$AA@ 300ae5dc     cg_saga.obj
 0002:000155ec       ??_C@_0O@EBADDJCE@ui_siegeTimer?$AA@ 300ae5ec     cg_saga.obj
 0002:000155fc       ??_C@_07FFDCCNEB@?$CFi?3?$CFi?$CFi?$AA@ 300ae5fc     cg_saga.obj
 0002:00015604       ??_C@_07FKIPFDKM@UseTeam?$AA@ 300ae604     cg_saga.obj
 0002:0001560c       ??_C@_0CJ@KLKCMJCL@Couldn?8t?5find?5any?5player?5teams?5f@ 300ae60c     cg_saga.obj
 0002:00015638       ??_C@_0CL@BBGLILIJ@Couldn?8t?5find?5any?5player?5classes@ 300ae638     cg_saga.obj
 0002:00015664       ??_C@_0L@CKNLAJGH@team2_icon?$AA@ 300ae664     cg_saga.obj
 0002:00015670       ??_C@_0BC@CBHHMAJO@siege_missionname?$AA@ 300ae670     cg_saga.obj
 0002:00015684       ??_C@_0M@LAKHEKCN@missionname?$AA@ 300ae684     cg_saga.obj
 0002:00015690       ??_C@_0BB@BJLPFOEO@siege_mapgraphic?$AA@ 300ae690     cg_saga.obj
 0002:000156a4       ??_C@_0BJ@MIDFBPDP@gfx?1mplevels?1siege1_hoth?$AA@ 300ae6a4     cg_saga.obj
 0002:000156c0       ??_C@_0L@KNFJHKAA@mapgraphic?$AA@ 300ae6c0     cg_saga.obj
 0002:000156cc       ??_C@_0BI@HADAPHEO@No?5team?5entry?5for?5?8?$CFs?8?6?$AA@ 300ae6cc     cg_saga.obj
 0002:000156e4       ??_C@_05MLMBIJDH@Timed?$AA@ 300ae6e4     cg_saga.obj
 0002:000156ec       ??_C@_0L@BLDDBDPK@team1_icon?$AA@ 300ae6ec     cg_saga.obj
 0002:000156f8       ??_C@_08PDGNKGMA@TeamIcon?$AA@ 300ae6f8     cg_saga.obj
 0002:00015704       ??_C@_0BI@IFMEDMFB@Siege?5teams?5not?5defined?$AA@ 300ae704     cg_saga.obj
 0002:0001571c       ??_C@_0BC@POBHMPDH@cg_siegeTeam2Name?$AA@ 300ae71c     cg_saga.obj
 0002:00015730       ??_C@_05KBLJHFNC@team2?$AA@ 300ae730     cg_saga.obj
 0002:00015738       ??_C@_0O@FENJAOEK@cg_siegeTeam2?$AA@ 300ae738     cg_saga.obj
 0002:00015748       ??_C@_0BC@HIIDLNJJ@cg_siegeTeam1Name?$AA@ 300ae748     cg_saga.obj
 0002:0001575c       ??_C@_05IKJECGBB@team1?$AA@ 300ae75c     cg_saga.obj
 0002:00015764       ??_C@_0O@HPPEFNIJ@cg_siegeTeam1?$AA@ 300ae764     cg_saga.obj
 0002:00015774       ??_C@_05EPHHAOKA@Teams?$AA@ 300ae774     cg_saga.obj
 0002:0001577c       ??_C@_09NLJHHKAB@?$CFs?4siege?$AA?$AA@ 300ae77c     cg_saga.obj
 0002:00015788       ??_C@_03BPOAKJOG@?$CFs?$AA?$AA@ 300ae788     cg_saga.obj
 0002:0001578c       ??_C@_09IOGHMDJA@0?50?532?532?$AA@ 300ae78c     cg_saga.obj
 0002:00015798       ??_C@_06JOCODHCA@mappos?$AA@ 300ae798     cg_saga.obj
 0002:000157a0       ??_C@_0BP@CMLBNAIG@team?$CFi_objective?$CFi_donemapicon?$AA@ 300ae7a0     cg_saga.obj
 0002:000157c0       ??_C@_0BO@ICPEGFEB@team?$CFi_objective?$CFi_litmapicon?$AA@ 300ae7c0     cg_saga.obj
 0002:000157e0       ??_C@_0M@GLJPNNOF@UNSPECIFIED?$AA@ 300ae7e0     cg_saga.obj
 0002:000157ec       ??_C@_07FOHNNLKA@objdesc?$AA@ 300ae7ec     cg_saga.obj
 0002:000157f4       ??_C@_0BH@DLHNHBEG@Bad?5score?9?$DOclient?3?5?$CFi?6?$AA@ 300ae7f4     cg_scoreboard.obj
 0002:0001580c       __real@42100000            300ae80c     cg_scoreboard.obj
 0002:00015810       ??_C@_05KACKNMMA@READY?$AA@ 300ae810     cg_scoreboard.obj
 0002:00015818       __real@43ed0000            300ae818     cg_scoreboard.obj
 0002:0001581c       __real@43cc0000            300ae81c     cg_scoreboard.obj
 0002:00015820       __real@43ab0000            300ae820     cg_scoreboard.obj
 0002:00015824       __real@42be0000            300ae824     cg_scoreboard.obj
 0002:00015828       __real@43e10000            300ae828     cg_scoreboard.obj
 0002:0001582c       ??_C@_04OHBONDIN@TIME?$AA@ 300ae82c     cg_scoreboard.obj
 0002:00015834       ??_C@_04CCOOKJJG@PING?$AA@ 300ae834     cg_scoreboard.obj
 0002:0001583c       ??_C@_0O@EACMMGLJ@MP_INGAME_W_L?$AA@ 300ae83c     cg_scoreboard.obj
 0002:0001584c       ??_C@_0O@KEEFDKDA@SIEGETEAM1WIN?$AA@ 300ae84c     cg_scoreboard.obj
 0002:0001585c       __real@42ac0000            300ae85c     cg_scoreboard.obj
 0002:00015860       ??_C@_04IPKHEEB@NAME?$AA@  300ae860     cg_scoreboard.obj
 0002:00015868       __real@42a20000            300ae868     cg_scoreboard.obj
 0002:0001586c       ??_C@_0BO@OHCPGADJ@gfx?1menus?1menu_buttonback?4tga?$AA@ 300ae86c     cg_scoreboard.obj
 0002:0001588c       ??_C@_0O@ODOFEAOA@SIEGETEAM2WIN?$AA@ 300ae88c     cg_scoreboard.obj
 0002:0001589c       ??_C@_0BE@NFGIJENK@?$CFs?5?$CFs?5?$CI?$CFs?5?$CFi?$CJ?5?$CFs?5?$CFi?$AA@ 300ae89c     cg_scoreboard.obj
 0002:000158b0       ??_C@_0P@ONBKBIGI@MP_INGAME_WITH?$AA@ 300ae8b0     cg_scoreboard.obj
 0002:000158c0       ??_C@_0N@FJCIJIB@MP_INGAME_OF?$AA@ 300ae8c0     cg_scoreboard.obj
 0002:000158d0       ??_C@_0BA@HAPNLPLG@MP_INGAME_PLACE?$AA@ 300ae8d0     cg_scoreboard.obj
 0002:000158e0       ??_C@_07EJOIIKAD@?$CFs?$FO7?5?$CFs?$AA@ 300ae8e0     cg_scoreboard.obj
 0002:000158e8       ??_C@_09CLFCPHPN@DUEL_WINS?$AA@ 300ae8e8     cg_scoreboard.obj
 0002:000158f4       ??_C@_0M@IFFNJHPN@RMG_weather?$AA@ 300ae8f4     cg_servercmds.obj
 0002:00015900       ??_C@_03HIMFCAJL@RMG?$AA@  300ae900     cg_servercmds.obj
 0002:00015904       ??_C@_0N@HKKKJLPN@g_siegeTeam2?$AA@ 300ae904     cg_servercmds.obj
 0002:00015914       ??_C@_0N@FBIHMIDO@g_siegeTeam1?$AA@ 300ae914     cg_servercmds.obj
 0002:00015924       ??_C@_0P@IGNPDGBD@bot_minplayers?$AA@ 300ae924     cg_servercmds.obj
 0002:00015934       ??_C@_0L@MLCEEGBP@g_needpass?$AA@ 300ae934     cg_servercmds.obj
 0002:00015940       ??_C@_0M@DKNJHPLK@maps?1?$CFs?4bsp?$AA@ 300ae940     cg_servercmds.obj
 0002:0001594c       ??_C@_0P@KFLGMOAC@g_siegeRespawn?$AA@ 300ae94c     cg_servercmds.obj
 0002:0001595c       ??_C@_0O@OCOCOONB@sv_maxclients?$AA@ 300ae95c     cg_servercmds.obj
 0002:0001596c       ??_C@_09ELHMOKHN@teamflags?$AA@ 300ae96c     cg_servercmds.obj
 0002:00015978       ??_C@_07GMGCLCAP@dmflags?$AA@ 300ae978     cg_servercmds.obj
 0002:00015980       ??_C@_08JNIMAHLE@fdisable?$AA@ 300ae980     cg_servercmds.obj
 0002:0001598c       ??_C@_08CGDHFBIG@wdisable?$AA@ 300ae98c     cg_servercmds.obj
 0002:00015998       ??_C@_0M@HDALJKN@g_jediVmerc?$AA@ 300ae998     cg_servercmds.obj
 0002:000159a4       ??_C@_08HHFKLNCD@needpass?$AA@ 300ae9a4     cg_servercmds.obj
 0002:000159b0       ??_C@_0BC@FPNNEGCD@g_showDuelHealths?$AA@ 300ae9b0     cg_servercmds.obj
 0002:000159c4       ??_C@_0BC@HHPGHHIK@g_siegeTeamSwitch?$AA@ 300ae9c4     cg_servercmds.obj
 0002:000159d8       ??_C@_0N@NEBLEAPN@g_noSpecMove?$AA@ 300ae9d8     cg_servercmds.obj
 0002:000159e8       ??_C@_0P@HJKJKMBJ@g_stepSlideFix?$AA@ 300ae9e8     cg_servercmds.obj
 0002:000159f8       ??_C@_0N@HGBPBCI@g_debugMelee?$AA@ 300ae9f8     cg_servercmds.obj
 0002:00015a08       ??_C@_01EOFPKCAF@?$EA?$AA@ 300aea08     cg_servercmds.obj
 0002:00015a0c       ??_C@_01JLIPDDHJ@?3?$AA@   300aea0c     cg_servercmds.obj
 0002:00015a10       ??_C@_01NEMOKFLO@?$DN?$AA@ 300aea10     cg_servercmds.obj
 0002:00015a14       ??_C@_05DJHCPMHD@1?4wav?$AA@ 300aea14     cg_servercmds.obj
 0002:00015a1c       ??_C@_0P@HFBEHELF@CG_MapRestart?6?$AA@ 300aea1c     cg_servercmds.obj
 0002:00015a2c       ??_C@_0CB@KPHIIGNM@Unknown?5client?5game?5command?3?5?$CFs?6@ 300aea2c     cg_servercmds.obj
 0002:00015a50       ??_C@_0BA@GNMFKLDC@clientLevelShot?$AA@ 300aea50     cg_servercmds.obj
 0002:00015a60       ??_C@_0M@BLBAMFDN@remapShader?$AA@ 300aea60     cg_servercmds.obj
 0002:00015a6c       ??_C@_05DPGKEEHN@tinfo?$AA@ 300aea6c     cg_servercmds.obj
 0002:00015a74       ??_C@_06KBCJDMLG@scores?$AA@ 300aea74     cg_servercmds.obj
 0002:00015a7c       ??_C@_0N@GMGFOMKM@?$CFs?$DM?$CFs?$DO?5?$FO?$CFs?$CFs?$AA@ 300aea7c     cg_servercmds.obj
 0002:00015a8c       ??_C@_06JMHAIGFD@ltchat?$AA@ 300aea8c     cg_servercmds.obj
 0002:00015a94       ??_C@_0M@HPOJCEBD@?$CFs?$DM?$CFs?$DO?$FO?$CFs?$CFs?$AA@ 300aea94     cg_servercmds.obj
 0002:00015aa0       ??_C@_05BDENFOOJ@lchat?$AA@ 300aeaa0     cg_servercmds.obj
 0002:00015aa8       ??_C@_05PMMINOBP@tchat?$AA@ 300aeaa8     cg_servercmds.obj
 0002:00015ab0       ??_C@_04IJBIFOMI@?$CK?$CFs?6?$AA@ 300aeab0     cg_servercmds.obj
 0002:00015ab8       ??_C@_04BLJLMHHG@chat?$AA@ 300aeab8     cg_servercmds.obj
 0002:00015ac0       ??_C@_05IJDJACGD@print?$AA@ 300aeac0     cg_servercmds.obj
 0002:00015ac8       ??_C@_02EODNHJKB@cs?$AA@   300aeac8     cg_servercmds.obj
 0002:00015acc       ??_C@_03KHMLDKGL@cps?$AA@  300aeacc     cg_servercmds.obj
 0002:00015ad0       ??_C@_02GFBACKGC@cp?$AA@   300aead0     cg_servercmds.obj
 0002:00015ad4       ??_C@_03HPKAMAON@rcg?$AA@  300aead4     cg_servercmds.obj
 0002:00015ad8       ??_C@_04MOEPNNA@ircg?$AA@  300aead8     cg_servercmds.obj
 0002:00015ae0       ??_C@_03HHEDEIJA@kls?$AA@  300aeae0     cg_servercmds.obj
 0002:00015ae4       ??_C@_03JCHENJDF@kg2?$AA@  300aeae4     cg_servercmds.obj
 0002:00015ae8       ??_C@_03FEBBAMDF@nfr?$AA@  300aeae8     cg_servercmds.obj
 0002:00015aec       ??_C@_03LNBAHPKF@spc?$AA@  300aeaec     cg_servercmds.obj
 0002:00015af0       ??_C@_03CEOIHOED@scl?$AA@  300aeaf0     cg_servercmds.obj
 0002:00015af4       ??_C@_02BMCPJMB@sb?$AA@    300aeaf4     cg_servercmds.obj
 0002:00015af8       ??_C@_03PMECLINK@sxd?$AA@  300aeaf8     cg_servercmds.obj
 0002:00015afc       ??_C@_0CI@JDFDPIEH@CG_TransitionSnapshot?3?5NULL?5cg?4n@ 300aeafc     cg_snapshot.obj
 0002:00015b24       ??_C@_0CE@BCLPNDDL@CG_TransitionSnapshot?3?5NULL?5cg?4s@ 300aeb24     cg_snapshot.obj
 0002:00015b48       ??_C@_0DI@DABDJKNL@WARNING?3?5CG_ReadNextSnapshot?3?5wa@ 300aeb48     cg_snapshot.obj
 0002:00015b80       ??_C@_0DI@NCDIEGIG@CG_ProcessSnapshots?3?5cg?4nextSnap@ 300aeb80     cg_snapshot.obj
 0002:00015bb8       ??_C@_0CF@EPBFNJFD@CG_ProcessSnapshots?3?5cg?4snap?5?$DN?$DN?5@ 300aebb8     cg_snapshot.obj
 0002:00015be0       ??_C@_0DA@GODLLJKJ@CG_ProcessSnapshots?3?5Server?5time@ 300aebe0     cg_snapshot.obj
 0002:00015c10       ??_C@_0CO@FFJEMNFE@CG_ProcessSnapshots?3?5n?5?$DM?5cg?4late@ 300aec10     cg_snapshot.obj
 0002:00015c40       ??_C@_0EA@DHHAIPGM@WARNING?3?5trap_TrueMalloc?5failed?5@ 300aec40     cg_syscalls.obj
 0002:00015c80       __real@4076900000000000    300aec80     cg_turret.obj
 0002:00015c88       __real@3f9eb851eb851eb8    300aec88     cg_turret.obj
 0002:00015c90       ??_C@_0M@MMECMPFA@bone_barrel?$AA@ 300aec90     cg_turret.obj
 0002:00015c9c       ??_C@_0L@NMBKBPBM@bone_gback?$AA@ 300aec9c     cg_turret.obj
 0002:00015ca8       ??_C@_0L@JLHFAJNM@bone_hinge?$AA@ 300aeca8     cg_turret.obj
 0002:00015cb4       ??_C@_0BG@GCFGCMGP@Can?8t?5register?5model?6?$AA@ 300aecb4     cg_view.obj
 0002:00015ccc       ??_C@_09FLAEHDCJ@frame?5?$CFi?6?$AA@ 300aeccc     cg_view.obj
 0002:00015cd8       ??_C@_08JKENKHJN@skin?5?$CFi?6?$AA@ 300aecd8     cg_view.obj
 0002:00015ce4       ??_C@_02PJNFELNH@30?$AA@   300aece4     cg_view.obj
 0002:00015ce8       __real@43020000            300aece8     cg_view.obj
 0002:00015cec       __real@c32a0000            300aecec     cg_view.obj
 0002:00015cf0       __real@4060400000000000    300aecf0     cg_view.obj
 0002:00015cf8       __real@c2b20000            300aecf8     cg_view.obj
 0002:00015cfc       __real@42b20000            300aecfc     cg_view.obj
 0002:00015d00       __real@3f947ae147ae147b    300aed00     cg_view.obj
 0002:00015d08       __real@405cc00000000000    300aed08     cg_view.obj
 0002:00015d10       __real@40200000            300aed10     cg_view.obj
 0002:00015d14       __real@c2a00000            300aed14     cg_view.obj
 0002:00015d18       __real@bfe8000000000000    300aed18     cg_view.obj
 0002:00015d20       __real@43200000            300aed20     cg_view.obj
 0002:00015d24       __real@42c20000            300aed24     cg_view.obj
 0002:00015d28       __real@c020000000000000    300aed28     cg_view.obj
 0002:00015d30       ??_C@_0EH@HBCAEGHH@CG_DrawSkyBoxPortal?3?5error?5parsi@ 300aed30     cg_view.obj
 0002:00015d78       ??_C@_0EE@LOKCLBCB@CG_DrawSkyBoxPortal?3?5error?5parsi@ 300aed78     cg_view.obj
 0002:00015dc0       ??_C@_0EE@KMBHBOMP@CG_DrawSkyBoxPortal?3?5error?5parsi@ 300aedc0     cg_view.obj
 0002:00015e08       ??_C@_0EE@BEKLHJKK@CG_DrawSkyBoxPortal?3?5error?5parsi@ 300aee08     cg_view.obj
 0002:00015e4c       ??_C@_0DI@FBMMMHLO@CG_DrawSkyBoxPortal?3?5error?5parsi@ 300aee4c     cg_view.obj
 0002:00015e84       ??_C@_0M@OGBIOKHN@s_musicMult?$AA@ 300aee84     cg_view.obj
 0002:00015e90       ??_C@_0BE@MOEMNEGA@gfx?1effects?1redLine?$AA@ 300aee90     cg_view.obj
 0002:00015ea4       ??_C@_0BD@PLOBIDP@cg?4clientFrame?3?$CFi?6?$AA@ 300aeea4     cg_view.obj
 0002:00015eb8       ??_C@_0BH@KAAACBHO@End?5of?5ghost?5reached?4?6?$AA@ 300aeeb8     cg_view.obj
 0002:00015ed0       __real@c066800000000000    300aeed0     cg_view.obj
 0002:00015ed8       ??_C@_0BA@NOFPOCEH@ui_mySiegeClass?$AA@ 300aeed8     cg_view.obj
 0002:00015ee8       ??_C@_06PAOMPDJH@?$DMnone?$DO?$AA@ 300aeee8     cg_view.obj
 0002:00015ef0       ??_C@_0DH@EPAFHPPF@Time?3?5?$CFlf?0?5NumCams?$DN?$CFd?0?5Position?5@ 300aeef0     cg_view.obj
 0002:00015f28       ??_C@_08HCGCKAMG@s_volume?$AA@ 300aef28     cg_view.obj
 0002:00015f34       ??_C@_0L@EFFMDGHC@cl_avidemo?$AA@ 300aef34     cg_view.obj
 0002:00015f40       ??_C@_0L@POOEHJHK@recordonly?$AA@ 300aef40     cg_view.obj
 0002:00015f4c       ??_C@_0CC@OIFCIFP@sound?1weapons?1rocket?1rocklf1a?4wa@ 300aef4c     cg_weaponinit.obj
 0002:00015f70       ??_C@_0CB@PHAPEPNK@effects?1blaster?1flesh_impact?4efx@ 300aef70     cg_weaponinit.obj
 0002:00015f94       ??_C@_0CA@JPEAOPNB@effects?1blaster?1wall_impact?4efx?$AA@ 300aef94     cg_weaponinit.obj
 0002:00015fb4       ??_C@_0CG@KEDFKHHA@sound?1weapons?1explosions?1explode@ 300aefb4     cg_weaponinit.obj
 0002:00015fdc       ??_C@_0CC@BKBDOFHP@sound?1weapons?1detpack?1warning?4wa@ 300aefdc     cg_weaponinit.obj
 0002:00016000       ??_C@_0CA@IPNCHNFD@sound?1weapons?1detpack?1stick?4wav?$AA@ 300af000     cg_weaponinit.obj
 0002:00016020       ??_C@_0BP@IHNCLMHN@sound?1weapons?1detpack?1fire?4wav?$AA@ 300af020     cg_weaponinit.obj
 0002:00016040       ??_C@_0CF@GJBNPGFB@sound?1weapons?1laser_trap?1warning@ 300af040     cg_weaponinit.obj
 0002:00016068       ??_C@_0CD@IHPKAHHF@sound?1weapons?1laser_trap?1stick?4w@ 300af068     cg_weaponinit.obj
 0002:0001608c       ??_C@_0BD@NFNOIGGP@tripMine?1explosion?$AA@ 300af08c     cg_weaponinit.obj
 0002:000160a0       ??_C@_0BF@BCFHNODM@tripMine?1glowbit?4efx?$AA@ 300af0a0     cg_weaponinit.obj
 0002:000160b8       ??_C@_0BF@MMIBFHCA@tripMine?1laserMP?4efx?$AA@ 300af0b8     cg_weaponinit.obj
 0002:000160d0       ??_C@_0CC@MCJFLHDA@sound?1weapons?1laser_trap?1fire?4wa@ 300af0d0     cg_weaponinit.obj
 0002:000160f4       ??_C@_0CB@IPONPKH@sound?1weapons?1detpack?1select?4wav@ 300af0f4     cg_weaponinit.obj
 0002:00016118       ??_C@_0CC@LCFKGMMC@sound?1weapons?1thermal?1warning?4wa@ 300af118     cg_weaponinit.obj
 0002:0001613c       ??_C@_0CE@MDLOFNAP@sound?1weapons?1thermal?1thermloop?4@ 300af13c     cg_weaponinit.obj
 0002:00016160       ??_C@_0CC@FJMPBHCH@sound?1weapons?1thermal?1bounce2?4wa@ 300af160     cg_weaponinit.obj
 0002:00016184       ??_C@_0CC@NPFLGFIJ@sound?1weapons?1thermal?1bounce1?4wa@ 300af184     cg_weaponinit.obj
 0002:000161a8       ??_C@_0BC@FJJANHJJ@thermal?1shockwave?$AA@ 300af1a8     cg_weaponinit.obj
 0002:000161bc       ??_C@_0BC@NHJFLKCE@thermal?1explosion?$AA@ 300af1bc     cg_weaponinit.obj
 0002:000161d0       ??_C@_0CJ@BFFBHEKC@models?1weapons2?1thermal?1thermal_@ 300af1d0     cg_weaponinit.obj
 0002:000161fc       ??_C@_0CB@MGFEFCDJ@sound?1weapons?1thermal?1charge?4wav@ 300af1fc     cg_weaponinit.obj
 0002:00016220       ??_C@_0BP@NKIENFLE@sound?1weapons?1thermal?1fire?4wav?$AA@ 300af220     cg_weaponinit.obj
 0002:00016240       ??_C@_0CB@CGKIDHAK@sound?1weapons?1thermal?1select?4wav@ 300af240     cg_weaponinit.obj
 0002:00016264       ??_C@_0BB@KFJJMFBH@rocket?1explosion?$AA@ 300af264     cg_weaponinit.obj
 0002:00016278       ??_C@_0M@FFHPHMBH@rocket?1shot?$AA@ 300af278     cg_weaponinit.obj
 0002:00016284       ??_C@_0BH@OECPONON@rocket?1altmuzzle_flash?$AA@ 300af284     cg_weaponinit.obj
 0002:0001629c       ??_C@_0CC@DEHPHGHB@sound?1weapons?1rocket?1alt_fire?4wa@ 300af29c     cg_weaponinit.obj
 0002:000162c0       __real@42fa0000            300af2c0     cg_weaponinit.obj
 0002:000162c4       ??_C@_0CE@IOBLFLKH@sound?1weapons?1rocket?1missleloop?4@ 300af2c4     cg_weaponinit.obj
 0002:000162e8       ??_C@_0CJ@EIJKNCLJ@models?1weapons2?1merr_sonn?1projec@ 300af2e8     cg_weaponinit.obj
 0002:00016314       ??_C@_0BE@EHKIPHHK@rocket?1muzzle_flash?$AA@ 300af314     cg_weaponinit.obj
 0002:00016328       ??_C@_0BO@KGPOLMAP@sound?1weapons?1rocket?1fire?4wav?$AA@ 300af328     cg_weaponinit.obj
 0002:00016348       ??_C@_0CA@BFPHOFPP@sound?1weapons?1rocket?1select?4wav?$AA@ 300af348     cg_weaponinit.obj
 0002:00016368       ??_C@_0BH@DMFAKLHB@flechette?1flesh_impact?$AA@ 300af368     cg_weaponinit.obj
 0002:00016380       ??_C@_0BG@HOJKOENE@flechette?1wall_impact?$AA@ 300af380     cg_weaponinit.obj
 0002:00016398       ??_C@_0BD@JJNBCJJJ@flechette?1alt_shot?$AA@ 300af398     cg_weaponinit.obj
 0002:000163ac       ??_C@_0P@JNBALAPP@flechette?1shot?$AA@ 300af3ac     cg_weaponinit.obj
 0002:000163bc       ??_C@_0CK@KOEFLOG@models?1weapons2?1golan_arms?1proje@ 300af3bc     cg_weaponinit.obj
 0002:000163e8       ??_C@_0CF@OBMKIODN@sound?1weapons?1flechette?1alt_fire@ 300af3e8     cg_weaponinit.obj
 0002:00016410       ??_C@_0CO@KGLEGKPD@models?1weapons2?1golan_arms?1proje@ 300af410     cg_weaponinit.obj
 0002:00016440       ??_C@_0BH@DMOHCCME@flechette?1muzzle_flash?$AA@ 300af440     cg_weaponinit.obj
 0002:00016458       ??_C@_0CB@IPAGIIKJ@sound?1weapons?1flechette?1fire?4wav@ 300af458     cg_weaponinit.obj
 0002:0001647c       ??_C@_0CD@MMBOCDNN@sound?1weapons?1flechette?1select?4w@ 300af47c     cg_weaponinit.obj
 0002:000164a0       ??_C@_0BI@BPJONCHM@gfx?1misc?1lightningFlash?$AA@ 300af4a0     cg_weaponinit.obj
 0002:000164b8       ??_C@_0BH@IBMEBMI@gfx?1effects?1demp2shell?$AA@ 300af4b8     cg_weaponinit.obj
 0002:000164d0       ??_C@_0BI@EMCCKEMO@models?1items?1sphere?4md3?$AA@ 300af4d0     cg_weaponinit.obj
 0002:000164e8       ??_C@_0BD@OAAONNDP@demp2?1flesh_impact?$AA@ 300af4e8     cg_weaponinit.obj
 0002:000164fc       ??_C@_0BC@PGOBGFPK@demp2?1wall_impact?$AA@ 300af4fc     cg_weaponinit.obj
 0002:00016510       ??_C@_0BB@KGIAAOJD@demp2?1projectile?$AA@ 300af510     cg_weaponinit.obj
 0002:00016524       ??_C@_0CC@MPIGNLMI@sound?1weapons?1demp2?1altCharge?4wa@ 300af524     cg_weaponinit.obj
 0002:00016548       ??_C@_0CA@PGAHJLAO@sound?1weapons?1demp2?1altfire?4wav?$AA@ 300af548     cg_weaponinit.obj
 0002:00016568       ??_C@_0BD@OALJFEIK@demp2?1muzzle_flash?$AA@ 300af568     cg_weaponinit.obj
 0002:0001657c       ??_C@_0BN@IMCKPCBD@sound?1weapons?1demp2?1fire?4wav?$AA@ 300af57c     cg_weaponinit.obj
 0002:0001659c       ??_C@_0BP@GCOEPOOB@sound?1weapons?1demp2?1select?4wav?$AA@ 300af59c     cg_weaponinit.obj
 0002:000165bc       ??_C@_0BE@BNCJIELK@repeater?1concussion?$AA@ 300af5bc     cg_weaponinit.obj
 0002:000165d0       ??_C@_0BG@IKLJPBEK@repeater?1flesh_impact?$AA@ 300af5d0     cg_weaponinit.obj
 0002:000165e8       ??_C@_0BF@PBONOCOL@repeater?1wall_impact?$AA@ 300af5e8     cg_weaponinit.obj
 0002:00016600       ??_C@_0BI@KJBEKPOJ@repeater?1alt_projectile?$AA@ 300af600     cg_weaponinit.obj
 0002:00016618       ??_C@_0BE@MHMDAGJH@repeater?1projectile?$AA@ 300af618     cg_weaponinit.obj
 0002:0001662c       ??_C@_0CE@CLKLGDMM@sound?1weapons?1repeater?1alt_fire?4@ 300af62c     cg_weaponinit.obj
 0002:00016650       ??_C@_0BG@IKAOHIPP@repeater?1muzzle_flash?$AA@ 300af650     cg_weaponinit.obj
 0002:00016668       ??_C@_0CA@EFALOJAJ@sound?1weapons?1repeater?1fire?4wav?$AA@ 300af668     cg_weaponinit.obj
 0002:00016688       ??_C@_0CC@FIKMAEPH@sound?1weapons?1repeater?1select?4wa@ 300af688     cg_weaponinit.obj
 0002:000166ac       ??_C@_0BM@GFMCAJED@gfx?1effects?1greenFrontFlash?$AA@ 300af6ac     cg_weaponinit.obj
 0002:000166c8       ??_C@_0BC@DONAAMN@bowcaster?1deflect?$AA@ 300af6c8     cg_weaponinit.obj
 0002:000166dc       ??_C@_0BE@KNDAKNMI@bowcaster?1explosion?$AA@ 300af6dc     cg_weaponinit.obj
 0002:000166f0       ??_C@_0P@PMMDLPAJ@bowcaster?1shot?$AA@ 300af6f0     cg_weaponinit.obj
 0002:00016700       ??_C@_0CG@GINKIFIO@sound?1weapons?1bowcaster?1altcharg@ 300af700     cg_weaponinit.obj
 0002:00016728       ??_C@_0BH@MDFDHPJM@bowcaster?1muzzle_flash?$AA@ 300af728     cg_weaponinit.obj
 0002:00016740       ??_C@_0CB@LHPHEBPN@sound?1weapons?1bowcaster?1fire?4wav@ 300af740     cg_weaponinit.obj
 0002:00016764       ??_C@_0CD@PAHBPJGI@sound?1weapons?1bowcaster?1select?4w@ 300af764     cg_weaponinit.obj
 0002:00016788       ??_C@_0CF@DBNAAJNN@sound?1weapons?1disruptor?1zoomloop@ 300af788     cg_weaponinit.obj
 0002:000167b0       ??_C@_0BD@FIJJMHEA@gfx?12d?1crop_charge?$AA@ 300af7b0     cg_weaponinit.obj
 0002:000167c4       ??_C@_0BC@MNEMOCHO@gfx?12d?1insertTick?$AA@ 300af7c4     cg_weaponinit.obj
 0002:000167d8       ??_C@_0BG@CGNKPPMN@gfx?12d?1cropCircleGlow?$AA@ 300af7d8     cg_weaponinit.obj
 0002:000167f0       ??_C@_0BC@GJGBLKGG@gfx?12d?1cropCircle?$AA@ 300af7f0     cg_weaponinit.obj
 0002:00016804       ??_C@_0BD@EJMIPBKG@gfx?12d?1cropCircle2?$AA@ 300af804     cg_weaponinit.obj
 0002:00016818       ??_C@_0BH@MMADONKH@gfx?1effects?1smokeTrail?$AA@ 300af818     cg_weaponinit.obj
 0002:00016830       ??_C@_0BC@CJGMPDCH@disruptor?1alt_hit?$AA@ 300af830     cg_weaponinit.obj
 0002:00016844       ??_C@_0BH@CPJIBLKN@disruptor?1flesh_impact?$AA@ 300af844     cg_weaponinit.obj
 0002:0001685c       ??_C@_0BG@NKLCGOMM@disruptor?1wall_impact?$AA@ 300af85c     cg_weaponinit.obj
 0002:00016874       ??_C@_0BF@CMBFLDCN@disruptor?1projectile?$AA@ 300af874     cg_weaponinit.obj
 0002:0001688c       ??_C@_0BA@CPFGKGDJ@disruptor?1rings?$AA@ 300af88c     cg_weaponinit.obj
 0002:0001689c       ??_C@_0CG@EHPDBIN@sound?1weapons?1disruptor?1altCharg@ 300af89c     cg_weaponinit.obj
 0002:000168c4       ??_C@_0CF@PCACDOOB@sound?1weapons?1disruptor?1alt_fire@ 300af8c4     cg_weaponinit.obj
 0002:000168ec       ??_C@_0BH@CPCPJCBI@disruptor?1muzzle_flash?$AA@ 300af8ec     cg_weaponinit.obj
 0002:00016904       ??_C@_0CB@EHFIEJDN@sound?1weapons?1disruptor?1fire?4wav@ 300af904     cg_weaponinit.obj
 0002:00016928       ??_C@_0CD@DFFAFGLL@sound?1weapons?1disruptor?1select?4w@ 300af928     cg_weaponinit.obj
 0002:0001694c       ??_C@_0BF@IPIIKMBD@blaster?1droid_impact?$AA@ 300af94c     cg_weaponinit.obj
 0002:00016964       ??_C@_0BF@DOOKJNAL@blaster?1flesh_impact?$AA@ 300af964     cg_weaponinit.obj
 0002:0001697c       ??_C@_0BE@KJDPJEBH@blaster?1wall_impact?$AA@ 300af97c     cg_weaponinit.obj
 0002:00016990       ??_C@_0N@MPCJLPHJ@blaster?1shot?$AA@ 300af990     cg_weaponinit.obj
 0002:000169a0       ??_C@_0BA@BHMDGDMI@blaster?1deflect?$AA@ 300af9a0     cg_weaponinit.obj
 0002:000169b0       ??_C@_0CD@MLKAHCED@sound?1weapons?1blaster?1alt_fire?4w@ 300af9b0     cg_weaponinit.obj
 0002:000169d4       ??_C@_0BF@DOFNBELO@blaster?1muzzle_flash?$AA@ 300af9d4     cg_weaponinit.obj
 0002:000169ec       ??_C@_0BP@GFLHELND@sound?1weapons?1blaster?1fire?4wav?$AA@ 300af9ec     cg_weaponinit.obj
 0002:00016a0c       ??_C@_0CB@BLKDMLBK@sound?1weapons?1blaster?1select?4wav@ 300afa0c     cg_weaponinit.obj
 0002:00016a30       ??_C@_0BJ@JOIPHIFH@blaster?1flesh_impact?4efx?$AA@ 300afa30     cg_weaponinit.obj
 0002:00016a4c       ??_C@_0BI@BJLFJMEC@blaster?1wall_impact?4efx?$AA@ 300afa4c     cg_weaponinit.obj
 0002:00016a64       ??_C@_0BM@JKHHLDPP@gfx?1effects?1bryarFrontFlash?$AA@ 300afa64     cg_weaponinit.obj
 0002:00016a80       ??_C@_0BD@OFNANLII@bryar?1droid_impact?$AA@ 300afa80     cg_weaponinit.obj
 0002:00016a94       ??_C@_0BD@FELCOKJA@bryar?1flesh_impact?$AA@ 300afa94     cg_weaponinit.obj
 0002:00016aa8       ??_C@_0BD@BNEJKIPI@bryar?1wall_impact3?$AA@ 300afaa8     cg_weaponinit.obj
 0002:00016abc       ??_C@_0BD@EFCJJLJ@bryar?1wall_impact2?$AA@ 300afabc     cg_weaponinit.obj
 0002:00016ad0       ??_C@_0BC@EBGIPNAG@bryar?1wall_impact?$AA@ 300afad0     cg_weaponinit.obj
 0002:00016ae4       ??_C@_0BC@BOLKNOFJ@bryar?1crackleShot?$AA@ 300afae4     cg_weaponinit.obj
 0002:00016af8       ??_C@_0L@OLAIOCBJ@bryar?1shot?$AA@ 300afaf8     cg_weaponinit.obj
 0002:00016b04       ??_C@_0CB@NOOHMAPO@sound?1weapons?1bryar?1alt_fire?4wav@ 300afb04     cg_weaponinit.obj
 0002:00016b28       ??_C@_0BD@FEAFGDCF@bryar?1muzzle_flash?$AA@ 300afb28     cg_weaponinit.obj
 0002:00016b3c       ??_C@_0BN@JIOEMEHN@sound?1weapons?1bryar?1fire?4wav?$AA@ 300afb3c     cg_weaponinit.obj
 0002:00016b5c       ??_C@_0BP@FGCADJJP@sound?1weapons?1bryar?1select?4wav?$AA@ 300afb5c     cg_weaponinit.obj
 0002:00016b7c       ??_C@_0BE@DCALKONJ@gfx?1misc?1whiteline2?$AA@ 300afb7c     cg_weaponinit.obj
 0002:00016b90       ??_C@_0BF@JPNAFPJM@gfx?1effects?1blueLine?$AA@ 300afb90     cg_weaponinit.obj
 0002:00016ba8       ??_C@_0BF@IMIJKLAL@concussion?1explosion?$AA@ 300afba8     cg_weaponinit.obj
 0002:00016bc0       ??_C@_0BA@LLBDOLLK@concussion?1shot?$AA@ 300afbc0     cg_weaponinit.obj
 0002:00016bd0       ??_C@_0BD@GMJOGKFI@disruptor?1alt_miss?$AA@ 300afbd0     cg_weaponinit.obj
 0002:00016be4       ??_C@_0BL@NBLMMMNB@concussion?1altmuzzle_flash?$AA@ 300afbe4     cg_weaponinit.obj
 0002:00016c00       ??_C@_0CC@PMHFGFB@sound?1weapons?1bryar?1altcharge?4wa@ 300afc00     cg_weaponinit.obj
 0002:00016c24       ??_C@_0BI@LEFNPLAK@concussion?1muzzle_flash?$AA@ 300afc24     cg_weaponinit.obj
 0002:00016c3c       ??_C@_0CE@KGGFKOKK@sound?1weapons?1concussion?1select?4@ 300afc3c     cg_weaponinit.obj
 0002:00016c60       ??_C@_0BN@CHIIPNFK@sound?1weapons?1baton?1fire?4mp3?$AA@ 300afc60     cg_weaponinit.obj
 0002:00016c80       ??_C@_0BH@HJDNBHMB@stunBaton?1flesh_impact?$AA@ 300afc80     cg_weaponinit.obj
 0002:00016c98       ??_C@_09OLHEALFG@_hand?4md3?$AA@ 300afc98     cg_weaponinit.obj
 0002:00016ca4       ??_C@_0M@GGMINFPA@_barrel?4md3?$AA@ 300afca4     cg_weaponinit.obj
 0002:00016cb0       ??_C@_0CN@GMECDHEJ@models?1weapons2?1stun_baton?1baton@ 300afcb0     cg_weaponinit.obj
 0002:00016ce0       ??_C@_0CN@KHBOOEOM@models?1weapons2?1stun_baton?1baton@ 300afce0     cg_weaponinit.obj
 0002:00016d10       ??_C@_0CM@BAIIJBLO@models?1weapons2?1stun_baton?1baton@ 300afd10     cg_weaponinit.obj
 0002:00016d3c       ??_C@_0BI@JJFMDMDC@Couldn?8t?5find?5weapon?5?$CFi?$AA@ 300afd3c     cg_weaponinit.obj
 0002:00016d54       ??_C@_0DH@ECKDIILO@CG_RegisterItemVisuals?3?5itemNum?5@ 300afd54     cg_weapons.obj
 0002:00016d8c       __real@3fe00000            300afd8c     cg_weapons.obj
 0002:00016d90       ??_C@_09FNBKMGLL@tag_flash?$AA@ 300afd90     cg_weapons.obj
 0002:00016d9c       ??_C@_0M@GPEFPEPK@tag_barrel3?$AA@ 300afd9c     cg_weapons.obj
 0002:00016da8       ??_C@_0M@HGFOMFLL@tag_barrel2?$AA@ 300afda8     cg_weapons.obj
 0002:00016db4       ??_C@_0L@EKFDHKMA@tag_barrel?$AA@ 300afdb4     cg_weapons.obj
 0002:00016dc0       ??_C@_0L@FGMMEJDC@tag_weapon?$AA@ 300afdc0     cg_weapons.obj
 0002:00016dd0       __real@bfc999999999999a    300afdd0     cg_weapons.obj
 0002:00016dd8       __real@3df7ced9            300afdd8     cg_weapons.obj
 0002:00016ddc       __real@3f37ced9            300afddc     cg_weapons.obj
 0002:00016de0       __real@3f600000            300afde0     cg_weapons.obj
 0002:00016de4       ??_C@_0BA@FIDILDHD@sv_saberswitch?6?$AA@ 300afde4     cg_weapons.obj
 0002:00016df4       ??_C@_0CN@NBNBAPF@CG_FireWeapon?3?5ent?9?$DOweapon?5?$DO?$DN?5WP@ 300afdf4     cg_weapons.obj
 0002:00016e28       __real@402c000000000000    300afe28     cg_weapons.obj
 0002:00016e30       __real@4047000000000000    300afe30     cg_weapons.obj
 0002:00016e38       ??_C@_07JCDPMDF@?$CKblade1?$AA@ 300afe38     cg_weapons.obj
 0002:00016e40       ??_C@_0CB@LNGBPGCI@NULL?5PS?5in?5BG_FighterUpdate?5?$CI?$CFs?$CJ@ 300afe40     FighterNPC.obj
 0002:00016e68       __real@c09f400000000000    300afe68     FighterNPC.obj
 0002:00016e70       __real@40c3240000000000    300afe70     FighterNPC.obj
 0002:00016e78       __real@3ff5555560000000    300afe78     FighterNPC.obj
 0002:00016e80       __real@4029000000000000    300afe80     FighterNPC.obj
 0002:00016e88       __real@c04e000000000000    300afe88     FighterNPC.obj
 0002:00016e90       __real@3f6e147b            300afe90     FighterNPC.obj
 0002:00016e94       __real@3f547ae1            300afe94     FighterNPC.obj
 0002:00016e98       __real@3f733333            300afe98     FighterNPC.obj
 0002:00016e9c       __real@3eb33333            300afe9c     fx_rocketlauncher.obj
 0002:00016ea0       __real@3f0c8b44            300afea0     fx_rocketlauncher.obj
 0002:00016ea4       __real@3f3fbe77            300afea4     fx_rocketlauncher.obj
 0002:00016ea8       __real@3e3cb924            300afea8     fx_rocketlauncher.obj
 0002:00016eac       __real@3eb8bac7            300afeac     fx_rocketlauncher.obj
 0002:00016eb0       __real@3f2fb15b            300afeb0     fx_rocketlauncher.obj
 0002:00016eb4       __real@3f56d5d0            300afeb4     fx_rocketlauncher.obj
 0002:00016eb8       __real@3f34b5dd            300afeb8     fx_rocketlauncher.obj
 0002:00016ebc       __real@3e808312            300afebc     fx_rocketlauncher.obj
 0002:00016ec0       __real@3f008312            300afec0     fx_rocketlauncher.obj
 0002:00016ec4       __real@3e70f27c            300afec4     fx_rocketlauncher.obj
 0002:00016ec8       __real@3f098c7e            300afec8     fx_rocketlauncher.obj
 0002:00016ecc       __real@3f41c433            300afecc     fx_rocketlauncher.obj
 0002:00016ed0       __real@3f37b4a2            300afed0     fx_rocketlauncher.obj
 0002:00016ed4       __real@3f38bac7            300afed4     fx_rocketlauncher.obj
 0002:00016ed8       __real@3f57d567            300afed8     fx_rocketlauncher.obj
 0002:00016edc       __real@3f28f5c3            300afedc     fx_rocketlauncher.obj
 0002:00016ee0       __real@3ef0000000000000    300afee0     q_math.obj
 0002:00016ee8       __real@c3340000            300afee8     q_math.obj
 0002:00016ef0       __real@4066c16c16c16c17    300afef0     q_math.obj
 0002:00016ef8       __real@3f91df46a0000000    300afef8     q_math.obj
 0002:00016f00       __real@3f00000000000000    300aff00     q_math.obj
 0002:00016f08       __real@4f800000            300aff08     q_math.obj
 0002:00016f0c       ??_C@_0BJ@OLBOPICM@Q_strncpyz?3?5destsize?5?$DM?51?$AA@ 300aff0c     q_shared.obj
 0002:00016f28       ??_C@_0BF@BJHHBLMD@Q_strncpyz?3?5NULL?5src?$AA@ 300aff28     q_shared.obj
 0002:00016f40       ??_C@_0BG@EKAPNPCH@Q_strncpyz?3?5NULL?5dest?$AA@ 300aff40     q_shared.obj
 0002:00016f58       ??_C@_0BN@EFOOAHFL@Q_strcat?3?5already?5overflowed?$AA@ 300aff58     q_shared.obj
 0002:00016f78       ??_C@_0CD@GIPJKOOD@Com_sprintf?3?5overflow?5of?5?$CFi?5in?5?$CF@ 300aff78     q_shared.obj
 0002:00016f9c       ??_C@_0CC@GMEFDOKA@Com_sprintf?3?5overflowed?5bigbuffe@ 300aff9c     q_shared.obj
 0002:00016fc0       ??_C@_0CG@FLHABLN@Info_ValueForKey?3?5oversize?5infos@ 300affc0     q_shared.obj
 0002:00016fe8       ??_C@_05EIEHMANA@popup?$AA@ 300affe8     ui_shared.obj
 0002:00016ff0       ??_C@_06CJGNFCEB@onOpen?$AA@ 300afff0     ui_shared.obj
 0002:00016ff8       ??_C@_0BB@FOHPFLED@outOfBoundsClick?$AA@ 300afff8     ui_shared.obj
 0002:0001700c       ??_C@_05IIPJAONP@onESC?$AA@ 300b000c     ui_shared.obj
 0002:00017014       ??_C@_08POJJMKJK@onAccept?$AA@ 300b0014     ui_shared.obj
 0002:00017020       ??_C@_07LAOJOJAJ@onClose?$AA@ 300b0020     ui_shared.obj
 0002:00017028       ??_C@_07BNAIEIKL@itemDef?$AA@ 300b0028     ui_shared.obj
 0002:00017030       ??_C@_0L@GIACNHMO@fullscreen?$AA@ 300b0030     ui_shared.obj
 0002:0001703c       ??_C@_0L@OKFLOHAM@focuscolor?$AA@ 300b003c     ui_shared.obj
 0002:00017048       ??_C@_0N@EEPADJLO@disablecolor?$AA@ 300b0048     ui_shared.obj
 0002:00017058       ??_C@_09MEFJHNGH@descScale?$AA@ 300b0058     ui_shared.obj
 0002:00017064       ??_C@_05NEOIHHDL@descY?$AA@ 300b0064     ui_shared.obj
 0002:0001706c       ??_C@_05MNPDEGHK@descX?$AA@ 300b006c     ui_shared.obj
 0002:00017074       ??_C@_09PAHMHFNJ@desccolor?$AA@ 300b0074     ui_shared.obj
 0002:00017080       ??_C@_0O@COCPBLJA@descAlignment?$AA@ 300b0080     ui_shared.obj
 0002:00017090       ??_C@_0L@NBMNMLHL@borderSize?$AA@ 300b0090     ui_shared.obj
 0002:0001709c       ??_C@_0BE@MBDLAKDH@appearanceIncrement?$AA@ 300b009c     ui_shared.obj
 0002:000170b0       ??_C@_09GCPJPMCM@xoffset?7?7?$AA@ 300b00b0     ui_shared.obj
 0002:000170bc       ??_C@_0N@OJPOMGGP@scrollhidden?$AA@ 300b00bc     ui_shared.obj
 0002:000170cc       ??_C@_0M@IMNLLLNC@invertyesno?$AA@ 300b00cc     ui_shared.obj
 0002:000170d8       ??_C@_0L@PPHHMIKE@lineHeight?$AA@ 300b00d8     ui_shared.obj
 0002:000170e4       ??_C@_0N@NGJINDLF@maxLineChars?$AA@ 300b00e4     ui_shared.obj
 0002:000170f4       ??_C@_07FJHHECNJ@wrapped?$AA@ 300b00f4     ui_shared.obj
 0002:000170fc       ??_C@_07DPDAEJMK@visible?$AA@ 300b00fc     ui_shared.obj
 0002:00017104       ??_C@_0M@NBEMMMLH@text2aligny?$AA@ 300b0104     ui_shared.obj
 0002:00017110       ??_C@_0M@MIFHPNPG@text2alignx?$AA@ 300b0110     ui_shared.obj
 0002:0001711c       ??_C@_05JPFPPFDI@text2?$AA@ 300b011c     ui_shared.obj
 0002:00017124       ??_C@_09FMCFHDEN@textstyle?$AA@ 300b0124     ui_shared.obj
 0002:00017130       ??_C@_09BLEIEHKP@textscale?$AA@ 300b0130     ui_shared.obj
 0002:0001713c       ??_C@_0L@FCLMCIJC@textaligny?$AA@ 300b013c     ui_shared.obj
 0002:00017148       ??_C@_0L@ELKHBJND@textalignx?$AA@ 300b0148     ui_shared.obj
 0002:00017154       ??_C@_09PNBDGNCL@textalign?$AA@ 300b0154     ui_shared.obj
 0002:00017160       ??_C@_04CIMGMMMG@text?$AA@ 300b0160     ui_shared.obj
 0002:00017168       ??_C@_05IAKJCFIM@style?$AA@ 300b0168     ui_shared.obj
 0002:00017170       ??_C@_07BELCMIIP@special?$AA@ 300b0170     ui_shared.obj
 0002:00017178       ??_C@_08LNBEMJIA@showCvar?$AA@ 300b0178     ui_shared.obj
 0002:00017184       ??_C@_08LBJPPPMM@rectcvar?$AA@ 300b0184     ui_shared.obj
 0002:00017190       ??_C@_04LHPFHFPH@rect?$AA@ 300b0190     ui_shared.obj
 0002:00017198       ??_C@_0O@DACAJCLK@ownerdrawFlag?$AA@ 300b0198     ui_shared.obj
 0002:000171a8       ??_C@_09HGLBOMNF@ownerdraw?$AA@ 300b01a8     ui_shared.obj
 0002:000171b4       ??_C@_0N@LGJOCBPD@outlinecolor?$AA@ 300b01b4     ui_shared.obj
 0002:000171c4       ??_C@_07PFEHHELH@onFocus?$AA@ 300b01c4     ui_shared.obj
 0002:000171cc       ??_C@_0O@FDEIBLKE@notselectable?$AA@ 300b01cc     ui_shared.obj
 0002:000171dc       ??_C@_0O@GFPABKKP@mouseExitText?$AA@ 300b01dc     ui_shared.obj
 0002:000171ec       ??_C@_09OIHCIOIA@mouseExit?$AA@ 300b01ec     ui_shared.obj
 0002:000171f8       ??_C@_0P@BCEPHLNB@mouseEnterText?$AA@ 300b01f8     ui_shared.obj
 0002:00017208       ??_C@_0L@KAGOMOPN@mouseEnter?$AA@ 300b0208     ui_shared.obj
 0002:00017214       ??_C@_0N@ONFNKGDF@model_g2anim?$AA@ 300b0214     ui_shared.obj
 0002:00017224       ??_C@_0N@OLIOMBCG@model_g2skin?$AA@ 300b0224     ui_shared.obj
 0002:00017234       ??_C@_0O@DMCMCDJO@model_g2scale?$AA@ 300b0234     ui_shared.obj
 0002:00017244       ??_C@_0N@LJGLKNPK@model_g2maxs?$AA@ 300b0244     ui_shared.obj
 0002:00017254       ??_C@_0N@GEHEFKNH@model_g2mins?$AA@ 300b0254     ui_shared.obj
 0002:00017264       ??_C@_0P@NOKHMHPD@model_rotation?$AA@ 300b0264     ui_shared.obj
 0002:00017274       ??_C@_0N@LHLPLFLG@model_origin?$AA@ 300b0274     ui_shared.obj
 0002:00017284       ??_C@_0L@NMCIJLPA@model_fovy?$AA@ 300b0284     ui_shared.obj
 0002:00017290       ??_C@_0L@MFDDKKLB@model_fovx?$AA@ 300b0290     ui_shared.obj
 0002:0001729c       ??_C@_0M@HHMGANAM@model_angle?$AA@ 300b029c     ui_shared.obj
 0002:000172a8       ??_C@_0O@HPCOAMJM@maxPaintChars?$AA@ 300b02a8     ui_shared.obj
 0002:000172b8       ??_C@_08IHGPPBOI@maxChars?$AA@ 300b02b8     ui_shared.obj
 0002:000172c4       ??_C@_0L@LMAJDKOE@leaveFocus?$AA@ 300b02c4     ui_shared.obj
 0002:000172d0       ??_C@_08EPHDKOFL@isSaber2?$AA@ 300b02d0     ui_shared.obj
 0002:000172dc       ??_C@_07GEILFICD@isSaber?$AA@ 300b02dc     ui_shared.obj
 0002:000172e4       ??_C@_0M@JODFBNF@isCharacter?$AA@ 300b02e4     ui_shared.obj
 0002:000172f0       ??_C@_0BB@EIBMEDHI@horizontalscroll?$AA@ 300b02f0     ui_shared.obj
 0002:00017304       ??_C@_08BDDCOCNI@hideCvar?$AA@ 300b0304     ui_shared.obj
 0002:00017310       ??_C@_05MGJOOGAJ@group?$AA@ 300b0310     ui_shared.obj
 0002:00017318       ??_C@_09MONNBKNO@forecolor?$AA@ 300b0318     ui_shared.obj
 0002:00017324       ??_C@_0L@NOGKCHFE@focusSound?$AA@ 300b0324     ui_shared.obj
 0002:00017330       ??_C@_04DNPGJOMD@flag?$AA@ 300b0330     ui_shared.obj
 0002:00017338       ??_C@_06GEEPENGB@feeder?$AA@ 300b0338     ui_shared.obj
 0002:00017340       ??_C@_0L@LCDHKNEJ@enableCvar?$AA@ 300b0340     ui_shared.obj
 0002:0001734c       ??_C@_0N@MILKKPGL@elementwidth?$AA@ 300b034c     ui_shared.obj
 0002:0001735c       ??_C@_0M@HBNIAHKL@elementtype?$AA@ 300b035c     ui_shared.obj
 0002:00017368       ??_C@_0O@MNJDKOBB@elementheight?$AA@ 300b0368     ui_shared.obj
 0002:00017378       ??_C@_0M@IHJKFHF@doubleclick?$AA@ 300b0378     ui_shared.obj
 0002:00017384       ??_C@_0M@FBHLBFCC@disableCvar?$AA@ 300b0384     ui_shared.obj
 0002:00017390       ??_C@_0L@GFEIECKE@decoration?$AA@ 300b0390     ui_shared.obj
 0002:0001739c       ??_C@_08MCIJOGEA@desctext?$AA@ 300b039c     ui_shared.obj
 0002:000173a8       ??_C@_08KBIDCBHN@cvarTest?$AA@ 300b03a8     ui_shared.obj
 0002:000173b4       ??_C@_0M@GOKMFACI@cvarStrList?$AA@ 300b03b4     ui_shared.obj
 0002:000173c0       ??_C@_0O@IKNDJMDK@cvarFloatList?$AA@ 300b03c0     ui_shared.obj
 0002:000173d0       ??_C@_09CGGKHKAP@cvarFloat?$AA@ 300b03d0     ui_shared.obj
 0002:000173dc       ??_C@_04PNAHEAFM@cvar?$AA@ 300b03dc     ui_shared.obj
 0002:000173e4       ??_C@_07HIFEPIJN@columns?$AA@ 300b03e4     ui_shared.obj
 0002:000173ec       ??_C@_09DHDJHDLH@cinematic?$AA@ 300b03ec     ui_shared.obj
 0002:000173f8       ??_C@_0L@BAAMOEHP@bordersize?$AA@ 300b03f8     ui_shared.obj
 0002:00017404       ??_C@_0M@CJNAABJD@bordercolor?$AA@ 300b0404     ui_shared.obj
 0002:00017410       ??_C@_06ODFLABIG@border?$AA@ 300b0410     ui_shared.obj
 0002:00017418       ??_C@_09OPNKCLNO@backcolor?$AA@ 300b0418     ui_shared.obj
 0002:00017424       ??_C@_0N@HLFJAKEA@asset_shader?$AA@ 300b0424     ui_shared.obj
 0002:00017434       ??_C@_0M@DKAIGAGN@asset_model?$AA@ 300b0434     ui_shared.obj
 0002:00017440       ??_C@_0BA@HJNHMKEG@appearance_slot?$AA@ 300b0440     ui_shared.obj
 0002:00017450       ??_C@_0M@HHKOOJO@autowrapped?$AA@ 300b0450     ui_shared.obj
 0002:0001745c       ??_C@_05CBJPDLOK@align?$AA@ 300b045c     ui_shared.obj
 0002:00017464       ??_C@_0O@BGFKBLBI@addColorRange?$AA@ 300b0464     ui_shared.obj
 0002:00017474       ??_C@_06DDLLCOJG@action?$AA@ 300b0474     ui_shared.obj
 0002:0001747c       ??_C@_09GLHNJALG@voicechat?$AA@ 300b047c     ui_shared.obj
 0002:00017488       ??_C@_0P@HBEPEMGI@automap_toggle?$AA@ 300b0488     ui_shared.obj
 0002:00017498       ??_C@_0P@FDFCLGNA@automap_button?$AA@ 300b0498     ui_shared.obj
 0002:000174a8       ??_C@_0BB@IOOMJMJB@cg_thirdperson?5?$CB?$AA@ 300b04a8     ui_shared.obj
 0002:000174bc       ??_C@_09LMEPJCFC@?$CLuseforce?$AA@ 300b04bc     ui_shared.obj
 0002:000174c8       ??_C@_0N@FFCOOBHL@?$CLforce_drain?$AA@ 300b04c8     ui_shared.obj
 0002:000174d8       ??_C@_0BB@PDNGOECE@?$CLforce_lightning?$AA@ 300b04d8     ui_shared.obj
 0002:000174ec       ??_C@_0M@FDHOJKJI@?$CLforce_grip?$AA@ 300b04ec     ui_shared.obj
 0002:000174f8       ??_C@_0M@DBDAMOEM@?$CLforce_jump?$AA@ 300b04f8     ui_shared.obj
 0002:00017504       ??_C@_0N@NFNJCLFL@messagemode4?$AA@ 300b0504     ui_shared.obj
 0002:00017514       ??_C@_0N@JKJILNJM@messagemode3?$AA@ 300b0514     ui_shared.obj
 0002:00017524       ??_C@_0N@IDIDIMNN@messagemode2?$AA@ 300b0524     ui_shared.obj
 0002:00017534       ??_C@_0M@JINOELJH@messagemode?$AA@ 300b0534     ui_shared.obj
 0002:00017540       ??_C@_0O@BNPKDDEF@tauntGauntlet?$AA@ 300b0540     ui_shared.obj
 0002:00017550       ??_C@_0BB@DHLHLJJP@tauntDeathInsult?$AA@ 300b0550     ui_shared.obj
 0002:00017564       ??_C@_0L@OFGCNOGN@tauntTaunt?$AA@ 300b0564     ui_shared.obj
 0002:00017570       ??_C@_0M@FHJJKLIB@tauntPraise?$AA@ 300b0570     ui_shared.obj
 0002:0001757c       ??_C@_0BA@LAKLAIKA@tauntKillInsult?$AA@ 300b057c     ui_shared.obj
 0002:0001758c       ??_C@_0M@HEJOPHDA@taskSuicide?$AA@ 300b058c     ui_shared.obj
 0002:00017598       ??_C@_0M@NPBCACOK@taskOwnFlag?$AA@ 300b0598     ui_shared.obj
 0002:000175a4       ??_C@_0L@JKHNIMGE@taskEscort?$AA@ 300b05a4     ui_shared.obj
 0002:000175b0       ??_C@_0N@DNLIECKN@taskRetrieve?$AA@ 300b05b0     ui_shared.obj
 0002:000175c0       ??_C@_0L@HALHAPMG@taskFollow?$AA@ 300b05c0     ui_shared.obj
 0002:000175cc       ??_C@_08OELCHPPI@taskCamp?$AA@ 300b05cc     ui_shared.obj
 0002:000175d8       ??_C@_0L@HNDPADH@taskPatrol?$AA@ 300b05d8     ui_shared.obj
 0002:000175e4       ??_C@_0M@JPJGJJPF@taskDefense?$AA@ 300b05e4     ui_shared.obj
 0002:000175f0       ??_C@_0M@PDBEJPDO@taskOffense?$AA@ 300b05f0     ui_shared.obj
 0002:000175fc       ??_C@_09PEFBKJOE@denyOrder?$AA@ 300b05fc     ui_shared.obj
 0002:00017608       ??_C@_0N@KJLGMAFH@confirmOrder?$AA@ 300b0608     ui_shared.obj
 0002:00017618       ??_C@_09DIHAGAEB@nextOrder?$AA@ 300b0618     ui_shared.obj
 0002:00017624       ??_C@_0P@GJIGAACM@nextTeamMember?$AA@ 300b0624     ui_shared.obj
 0002:00017634       ??_C@_0P@NMPIEJIB@prevTeamMember?$AA@ 300b0634     ui_shared.obj
 0002:00017644       ??_C@_05GGANABEC@gloat?$AA@ 300b0644     ui_shared.obj
 0002:0001764c       ??_C@_08KJHFDKHF@flourish?$AA@ 300b064c     ui_shared.obj
 0002:00017658       ??_C@_08LIGJJMBO@meditate?$AA@ 300b0658     ui_shared.obj
 0002:00017664       ??_C@_03GMGBHMEH@bow?$AA@  300b0664     ui_shared.obj
 0002:00017668       ??_C@_05CPCHEFAA@taunt?$AA@ 300b0668     ui_shared.obj
 0002:00017670       ??_C@_04JNBAAPLC@?$CLuse?$AA@ 300b0670     ui_shared.obj
 0002:00017678       ??_C@_0L@GDIPNNOO@?$CLaltattack?$AA@ 300b0678     ui_shared.obj
 0002:00017684       ??_C@_07MAODEHGM@?$CLattack?$AA@ 300b0684     ui_shared.obj
 0002:0001768c       ??_C@_09EAGNIMIH@weapon?513?$AA@ 300b068c     ui_shared.obj
 0002:00017698       ??_C@_09FJHGLNMG@weapon?512?$AA@ 300b0698     ui_shared.obj
 0002:000176a4       ??_C@_09HCFLOOAF@weapon?511?$AA@ 300b06a4     ui_shared.obj
 0002:000176b0       ??_C@_09GLEANPEE@weapon?510?$AA@ 300b06b0     ui_shared.obj
 0002:000176bc       ??_C@_08MFIOAKPE@weapon?59?$AA@ 300b06bc     ui_shared.obj
 0002:000176c8       ??_C@_08NMJFDLLF@weapon?58?$AA@ 300b06c8     ui_shared.obj
 0002:000176d4       ??_C@_08FLANCHHK@weapon?57?$AA@ 300b06d4     ui_shared.obj
 0002:000176e0       ??_C@_08ECBGBGDL@weapon?56?$AA@ 300b06e0     ui_shared.obj
 0002:000176ec       ??_C@_08GJDLEFPI@weapon?55?$AA@ 300b06ec     ui_shared.obj
 0002:000176f8       ??_C@_08HACAHELJ@weapon?54?$AA@ 300b06f8     ui_shared.obj
 0002:00017704       ??_C@_08DPGBOCHO@weapon?53?$AA@ 300b0704     ui_shared.obj
 0002:00017710       ??_C@_08CGHKNDDP@weapon?52?$AA@ 300b0710     ui_shared.obj
 0002:0001771c       ??_C@_08NFHIAPM@weapon?51?$AA@ 300b071c     ui_shared.obj
 0002:00017728       ??_C@_0L@FHIBDANG@centerview?$AA@ 300b0728     ui_shared.obj
 0002:00017734       ??_C@_06OBEGBCAL@?$CLmlook?$AA@ 300b0734     ui_shared.obj
 0002:0001773c       ??_C@_09KCKOGCLI@?$CLlookdown?$AA@ 300b073c     ui_shared.obj
 0002:00017748       ??_C@_07BDFIGFL@?$CLlookup?$AA@ 300b0748     ui_shared.obj
 0002:00017750       ??_C@_07CHKKNAEO@?$CLstrafe?$AA@ 300b0750     ui_shared.obj
 0002:00017758       ??_C@_06NGIHBNMB@?$CLright?$AA@ 300b0758     ui_shared.obj
 0002:00017760       ??_C@_05HEGFDNLE@?$CLleft?$AA@ 300b0760     ui_shared.obj
 0002:00017768       ??_C@_09HNJJMOJG@?$CLmovedown?$AA@ 300b0768     ui_shared.obj
 0002:00017774       ??_C@_07CKGNAPCP@?$CLmoveup?$AA@ 300b0774     ui_shared.obj
 0002:0001777c       ??_C@_0L@FMBJCMEG@?$CLmoveright?$AA@ 300b077c     ui_shared.obj
 0002:00017788       ??_C@_09IPJNFGKP@?$CLmoveleft?$AA@ 300b0788     ui_shared.obj
 0002:00017794       ??_C@_05IPKGNIPH@?$CLback?$AA@ 300b0794     ui_shared.obj
 0002:0001779c       ??_C@_08KKEOHAPB@?$CLforward?$AA@ 300b079c     ui_shared.obj
 0002:000177a8       ??_C@_06JIDIHCBO@?$CLspeed?$AA@ 300b07a8     ui_shared.obj
 0002:000177b0       ??_C@_08GFFBPDLD@?$CLbutton2?$AA@ 300b07b0     ui_shared.obj
 0002:000177bc       ??_C@_0M@FLLAMNPB@transition2?$AA@ 300b07bc     ui_shared.obj
 0002:000177c8       ??_C@_0M@CIHCAJBI@rundeferred?$AA@ 300b07c8     ui_shared.obj
 0002:000177d4       ??_C@_05MBNCFBEN@defer?$AA@ 300b07d4     ui_shared.obj
 0002:000177dc       ??_C@_07DBNODEFN@disable?$AA@ 300b07dc     ui_shared.obj
 0002:000177e4       ??_C@_05MHMEBBGO@scale?$AA@ 300b07e4     ui_shared.obj
 0002:000177ec       ??_C@_05KJPHCDKJ@orbit?$AA@ 300b07ec     ui_shared.obj
 0002:000177f4       ??_C@_0L@NDOCJLDE@playlooped?$AA@ 300b07f4     ui_shared.obj
 0002:00017800       ??_C@_04GBHMDDO@play?$AA@  300b0800     ui_shared.obj
 0002:00017808       ??_C@_04MGEIEJAD@exec?$AA@ 300b0808     ui_shared.obj
 0002:00017810       ??_C@_0O@DOIJMEIF@setcvartocvar?$AA@ 300b0810     ui_shared.obj
 0002:00017820       ??_C@_07DFOFNCMO@setcvar?$AA@ 300b0820     ui_shared.obj
 0002:00017828       ??_C@_0L@KGLELNDP@transition?$AA@ 300b0828     ui_shared.obj
 0002:00017834       ??_C@_0P@COHLPKKB@setplayermodel?$AA@ 300b0834     ui_shared.obj
 0002:00017844       ??_C@_08OKIAJKBO@setfocus?$AA@ 300b0844     ui_shared.obj
 0002:00017850       ??_C@_0N@KMLJLNON@setteamcolor?$AA@ 300b0850     ui_shared.obj
 0002:00017860       ??_C@_0M@DCMJNPEK@setitemrect?$AA@ 300b0860     ui_shared.obj
 0002:0001786c       ??_C@_0BB@HMPBEODN@setitemcolorcvar?$AA@ 300b086c     ui_shared.obj
 0002:00017880       ??_C@_0N@EBBIOPHN@setitemcolor?$AA@ 300b0880     ui_shared.obj
 0002:00017890       ??_C@_0M@KNPKGGHL@setitemtext?$AA@ 300b0890     ui_shared.obj
 0002:0001789c       ??_C@_0BC@IHOKDANM@setitembackground?$AA@ 300b089c     ui_shared.obj
 0002:000178b0       ??_C@_0BA@GEEJLPGN@setitemrectcvar?$AA@ 300b08b0     ui_shared.obj
 0002:000178c0       ??_C@_0O@FOIIKEEB@setbackground?$AA@ 300b08c0     ui_shared.obj
 0002:000178d0       ??_C@_08FBOLLCAN@setasset?$AA@ 300b08d0     ui_shared.obj
 0002:000178dc       ??_C@_05LBOHBHFK@close?$AA@ 300b08dc     ui_shared.obj
 0002:000178e4       ??_C@_04PMOCAHAA@open?$AA@ 300b08e4     ui_shared.obj
 0002:000178ec       ??_C@_08OKIEAMBM@setcolor?$AA@ 300b08ec     ui_shared.obj
 0002:000178f8       ??_C@_04IBOFHAPJ@hide?$AA@ 300b08f8     ui_shared.obj
 0002:00017900       ??_C@_04FKMICODN@show?$AA@ 300b0900     ui_shared.obj
 0002:00017908       ??_C@_07BJADIKJG@fadeout?$AA@ 300b0908     ui_shared.obj
 0002:00017910       ??_C@_06JFGPOFJL@fadein?$AA@ 300b0910     ui_shared.obj
 0002:00017918       ??_C@_0BF@GHBOAADB@ITEM_TYPE_TEXTSCROLL?$AA@ 300b0918     ui_shared.obj
 0002:00017930       ??_C@_0P@LFNHJNLI@ITEM_TYPE_BIND?$AA@ 300b0930     ui_shared.obj
 0002:00017940       ??_C@_0BA@GNNLLMC@ITEM_TYPE_MULTI?$AA@ 300b0940     ui_shared.obj
 0002:00017950       ??_C@_0BA@LBOLKKCE@ITEM_TYPE_YESNO?$AA@ 300b0950     ui_shared.obj
 0002:00017960       ??_C@_0BB@HPDKNELK@ITEM_TYPE_SLIDER?$AA@ 300b0960     ui_shared.obj
 0002:00017974       ??_C@_0BH@GLLADPJF@ITEM_TYPE_NUMERICFIELD?$AA@ 300b0974     ui_shared.obj
 0002:0001798c       ??_C@_0BE@EAPBKGDL@ITEM_TYPE_OWNERDRAW?$AA@ 300b098c     ui_shared.obj
 0002:000179a0       ??_C@_0BA@IJKKCBAM@ITEM_TYPE_MODEL?$AA@ 300b09a0     ui_shared.obj
 0002:000179b0       ??_C@_0BC@OFIOAFNP@ITEM_TYPE_LISTBOX?$AA@ 300b09b0     ui_shared.obj
 0002:000179c4       ??_C@_0BA@OAMKEKLA@ITEM_TYPE_COMBO?$AA@ 300b09c4     ui_shared.obj
 0002:000179d4       ??_C@_0BE@MNNMOPPO@ITEM_TYPE_EDITFIELD?$AA@ 300b09d4     ui_shared.obj
 0002:000179e8       ??_C@_0BD@ILDGMNNN@ITEM_TYPE_CHECKBOX?$AA@ 300b09e8     ui_shared.obj
 0002:000179fc       ??_C@_0BG@BAAHBGEB@ITEM_TYPE_RADIOBUTTON?$AA@ 300b09fc     ui_shared.obj
 0002:00017a14       ??_C@_0BB@LJMDMMLE@ITEM_TYPE_BUTTON?$AA@ 300b0a14     ui_shared.obj
 0002:00017a28       ??_C@_0P@ECMIINLB@ITEM_TYPE_TEXT?$AA@ 300b0a28     ui_shared.obj
 0002:00017a38       ??_C@_0BB@MDDHAHGK@ITEM_ALIGN_RIGHT?$AA@ 300b0a38     ui_shared.obj
 0002:00017a4c       ??_C@_0BC@JJHJJEIH@ITEM_ALIGN_CENTER?$AA@ 300b0a4c     ui_shared.obj
 0002:00017a60       ??_C@_0BA@CFDMPPCB@ITEM_ALIGN_LEFT?$AA@ 300b0a60     ui_shared.obj
 0002:00017a70       ??_C@_0BH@CDGHPFEH@WINDOW_STYLE_CINEMATIC?$AA@ 300b0a70     ui_shared.obj
 0002:00017a88       ??_C@_0BH@KNCNDPMK@WINDOW_STYLE_TEAMCOLOR?$AA@ 300b0a88     ui_shared.obj
 0002:00017aa0       ??_C@_0BE@HECCLBFC@WINDOW_STYLE_SHADER?$AA@ 300b0aa0     ui_shared.obj
 0002:00017ab4       ??_C@_0BG@IEFBEMMN@WINDOW_STYLE_GRADIENT?$AA@ 300b0ab4     ui_shared.obj
 0002:00017acc       ??_C@_0BE@KLCEIIBH@WINDOW_STYLE_FILLED?$AA@ 300b0acc     ui_shared.obj
 0002:00017ae0       ??_C@_0BD@BJJNFIHK@WINDOW_STYLE_EMPTY?$AA@ 300b0ae0     ui_shared.obj
 0002:00017af4       ??_C@_0BA@NNDAHIHE@WINDOW_INACTIVE?$AA@ 300b0af4     ui_shared.obj
 0002:00017b28       ??_C@_0CD@LBKPCJLM@UI_Alloc?3?5Failure?4?5Out?5of?5memory@ 300b0b28     ui_shared.obj
 0002:00017b4c       ??_C@_0BK@OKFEFFGN@?$FO1ERROR?3?5?$CFs?0?5line?5?$CFd?3?5?$CFs?6?$AA@ 300b0b4c     ui_shared.obj
 0002:00017b68       ??_C@_0BN@CKJPOGNB@expected?5float?5but?5found?5?$CFs?6?$AA@ 300b0b68     ui_shared.obj
 0002:00017b88       ??_C@_0BP@FLADEANJ@expected?5integer?5but?5found?5?$CFs?6?$AA@ 300b0b88     ui_shared.obj
 0002:00017ba8       ??_C@_04OEDFLLKD@?$CC?$CFs?$CC?$AA@ 300b0ba8     ui_shared.obj
 0002:00017bb0       ??_C@_0CL@IDBGDCGN@?$FO3WARNING?3?5item?5has?5neither?5name@ 300b0bb0     ui_shared.obj
 0002:00017bdc       ??_C@_0DD@ICNKGIM@?$FO3WARNING?3?5Script_Transition2?3?5e@ 300b0bdc     ui_shared.obj
 0002:00017c10       ??_C@_05LKKGNBCL@?$CFs?5?$DL?5?$AA@ 300b0c10     ui_shared.obj
 0002:00017c18       ??_C@_0BI@MLGEDDNA@slider?5handle?5key?5exit?6?$AA@ 300b0c18     ui_shared.obj
 0002:00017c30       __real@42cc0000            300b0c30     ui_shared.obj
 0002:00017c34       __real@3f0ccccd            300b0c34     ui_shared.obj
 0002:00017c38       ??_C@_0CH@JIJGKJHM@Could?5not?5find?5?8?$CFs?8?5in?5the?5anim?5@ 300b0c38     ui_shared.obj
 0002:00017c60       ??_C@_0CA@MBEPFCBH@?$FO3Unknown?5item?5style?5value?5?8?$CFs?8?$AA@ 300b0c60     ui_shared.obj
 0002:00017c80       ??_C@_0BL@LEGNDHIH@?$FO3Unknown?5item?5style?5value?$AA@ 300b0c80     ui_shared.obj
 0002:00017c9c       ??_C@_0BP@JDCINHG@?$FO3Unknown?5text?5alignment?5value?$AA@ 300b0c9c     ui_shared.obj
 0002:00017cbc       ??_C@_0BO@GKGLOPGG@end?5of?5file?5inside?5menu?5item?6?$AA@ 300b0cbc     ui_shared.obj
 0002:00017cdc       ??_C@_0CE@OIGKMGKE@couldn?8t?5parse?5menu?5item?5keyword@ 300b0cdc     ui_shared.obj
 0002:00017d00       ??_C@_0BN@JHFMAPJL@unknown?5menu?5item?5keyword?5?$CFs?$AA@ 300b0d00     ui_shared.obj
 0002:00017d20       ??_C@_02HAOIJKIC@?$CFc?$AA@ 300b0d20     ui_shared.obj
 0002:00017d24       ??_C@_04GJDJEMBE@?$CFc?$CFc?$AA@ 300b0d24     ui_shared.obj
 0002:00017d2c       ??_C@_04GHJNJNPO@main?$AA@ 300b0d2c     ui_shared.obj
 0002:00017d34       ??_C@_0BL@EDFDLOD@?$FO3Unknown?5menu?5style?5value?$AA@ 300b0d34     ui_shared.obj
 0002:00017d50       ??_C@_0BP@CHKMFCMK@?$FO3Unknown?5desc?5alignment?5value?$AA@ 300b0d50     ui_shared.obj
 0002:00017d70       ??_C@_0BP@HJCDHJDP@couldn?8t?5parse?5menu?5keyword?5?$CFs?$AA@ 300b0d70     ui_shared.obj
 0002:00017d90       ??_C@_0BJ@MPIMCBOA@end?5of?5file?5inside?5menu?6?$AA@ 300b0d90     ui_shared.obj
 0002:00017dac       ??_C@_0BI@PALCAEGK@unknown?5menu?5keyword?5?$CFs?$AA@ 300b0dac     ui_shared.obj
 0002:00017dc4       ??_C@_03NFKEKGGK@all?$AA@  300b0dc4     ui_shared.obj
 0002:00017dc8       ??_C@_0M@FHKEBODE@screenshot?6?$AA@ 300b0dc8     ui_shared.obj
 0002:00017e04       ??_C@_0CD@PGGPKBFM@Potential?5overflow?5in?5png_zalloc@ 300b0e04     libpng:png.obj
 0002:00017e28       ??_C@_0DJ@CKKHAMBA@Ignoring?5attempt?5to?5set?5cHRM?5RGB@ 300b0e28     libpng:png.obj
 0002:00017e64       ??_C@_0BI@GNBEGBIO@Invalid?5cHRM?5blue?5point?$AA@ 300b0e64     libpng:png.obj
 0002:00017e7c       ??_C@_0BJ@OMNHHNBI@Invalid?5cHRM?5green?5point?$AA@ 300b0e7c     libpng:png.obj
 0002:00017e98       ??_C@_0BH@MNPFDHMO@Invalid?5cHRM?5red?5point?$AA@ 300b0e98     libpng:png.obj
 0002:00017eb0       ??_C@_0BJ@FAHLKGEB@Invalid?5cHRM?5white?5point?$AA@ 300b0eb0     libpng:png.obj
 0002:00017ecc       ??_C@_0DO@EEGLKLJK@Ignoring?5attempt?5to?5set?5chromati@ 300b0ecc     libpng:png.obj
 0002:00017f0c       ??_C@_0DE@IIKHIEFN@Ignoring?5attempt?5to?5set?5negative@ 300b0f0c     libpng:png.obj
 0002:00017f40       ??_C@_0BC@MEPNMCAI@Invalid?5IHDR?5data?$AA@ 300b0f40     libpng:png.obj
 0002:00017f54       ??_C@_0BO@PAJOKPHG@Invalid?5filter?5method?5in?5IHDR?$AA@ 300b0f54     libpng:png.obj
 0002:00017f74       ??_C@_0BO@KOOEGEDO@Unknown?5filter?5method?5in?5IHDR?$AA@ 300b0f74     libpng:png.obj
 0002:00017f94       ??_C@_0DB@CJBLKABO@MNG?5features?5are?5not?5allowed?5in?5@ 300b0f94     libpng:png.obj
 0002:00017fc8       ??_C@_0CD@DDOOCEDP@Unknown?5compression?5method?5in?5IH@ 300b0fc8     libpng:png.obj
 0002:00017fec       ??_C@_0CB@EMHJMLOA@Unknown?5interlace?5method?5in?5IHDR@ 300b0fec     libpng:png.obj
 0002:00018010       ??_C@_0DB@FGMBGHOJ@Invalid?5color?5type?1bit?5depth?5com@ 300b1010     libpng:png.obj
 0002:00018044       ??_C@_0BL@KPIFPGMP@Invalid?5color?5type?5in?5IHDR?$AA@ 300b1044     libpng:png.obj
 0002:00018060       ??_C@_0BK@OAKOLNFJ@Invalid?5bit?5depth?5in?5IHDR?$AA@ 300b1060     libpng:png.obj
 0002:0001807c       ??_C@_0DA@KJHOLOOI@Width?5is?5too?5large?5for?5libpng?5to@ 300b107c     libpng:png.obj
 0002:000180ac       ??_C@_0BN@NOEKCPOM@Invalid?5image?5height?5in?5IHDR?$AA@ 300b10ac     libpng:png.obj
 0002:000180cc       ??_C@_0BM@KHHGCJLE@Invalid?5image?5width?5in?5IHDR?$AA@ 300b10cc     libpng:png.obj
 0002:000180e8       ??_C@_0CI@HDNDADNB@Image?5height?5exceeds?5user?5limit?5@ 300b10e8     libpng:png.obj
 0002:00018110       ??_C@_0CH@COHNFPDF@Image?5width?5exceeds?5user?5limit?5i@ 300b1110     libpng:png.obj
 0002:00018138       ??_C@_0BN@CMEOFBLN@Image?5height?5is?5zero?5in?5IHDR?$AA@ 300b1138     libpng:png.obj
 0002:00018158       ??_C@_0BM@CEAELHL@Image?5width?5is?5zero?5in?5IHDR?$AA@ 300b1158     libpng:png.obj
 0002:00018174       ??_C@_0CC@MDLFHCPJ@Writing?5zero?9length?5unknown?5chun@ 300b1174     libpng:pngwrite.obj
 0002:00018198       ??_C@_0CL@BBINJHDH@Valid?5palette?5required?5for?5palet@ 300b1198     libpng:pngwrite.obj
 0002:000181c4       ??_C@_0BL@LMBFPIMK@No?5IDATs?5written?5into?5file?$AA@ 300b11c4     libpng:pngwrite.obj
 0002:000181e0       ??_C@_0DF@HCKCLABC@png_write_info?5was?5never?5called?5@ 300b11e0     libpng:pngwrite.obj
 0002:00018218       ??_C@_0L@KKACNLAH@zlib?5error?$AA@ 300b1218     libpng:pngwrite.obj
 0002:00018224       ??_C@_0CA@OPOKNKIO@Unknown?5filter?5heuristic?5method?$AA@ 300b1224     libpng:pngwrite.obj
 0002:00018244       ??_C@_0CJ@GBBOAMKD@Compression?5window?5is?5being?5rese@ 300b1244     libpng:pngwrite.obj
 0002:00018270       ??_C@_0DB@FJDHLPIN@Only?5compression?5windows?5?$DO?$DN?5256?5@ 300b1270     libpng:pngwrite.obj
 0002:000182a4       ??_C@_0DB@JHPDBBJC@Only?5compression?5windows?5?$DM?$DN?532k?5@ 300b12a4     libpng:pngwrite.obj
 0002:000182d8       ??_C@_0CO@BHFFHNIH@Only?5compression?5method?58?5is?5sup@ 300b12d8     libpng:pngwrite.obj
 0002:00018308       ??_C@_0DH@LDFDLODO@Incompatible?5libpng?5version?5in?5a@ 300b1308     libpng:pngwrite.obj
 0002:00018340       ??_C@_0DG@CCNLMKFB@Application?5?5is?5?5running?5with?5pn@ 300b1340     libpng:pngwrite.obj
 0002:00018378       ??_C@_0DG@OGOEMJOC@Application?5was?5compiled?5with?5pn@ 300b1378     libpng:pngwrite.obj
 0002:000186b0       __real@40f86a0000000000    300b16b0     libpng:pngset.obj
 0002:000186b8       ??_C@_0BM@HGGPCIDB@Call?5to?5NULL?5write?5function?$AA@ 300b16b8     libpng:pngwio.obj
 0002:000186d4       ??_C@_0M@POLPJMAP@Write?5Error?$AA@ 300b16d4     libpng:pngwio.obj
 0002:000186e0       ??_C@_0DE@NDOGAKKN@the?5same?5structure?4?5?5Resetting?5r@ 300b16e0     libpng:pngwio.obj
 0002:00018714       ??_C@_0DI@HLGELEHE@Attempted?5to?5set?5both?5read_data_@ 300b1714     libpng:pngwio.obj
 0002:0001875c       ??_C@_0BB@FHIOKKKG@libpng?5error?3?5?$CFs?$AA@ 300b175c     libpng:pngerror.obj
 0002:00018770       ??_C@_0BD@OLJIBHNB@libpng?5warning?3?5?$CFs?$AA@ 300b1770     libpng:pngerror.obj
 0002:00018784       ??_C@_0O@BPALFKAJ@Out?5of?5Memory?$AA@ 300b1784     libpng:pngmem.obj
 0002:00018794       ??_C@_0BM@FELMNLDL@Unknown?5compression?5type?5?$CFd?$AA@ 300b1794     libpng:pngwutil.obj
 0002:000187b0       ??_C@_0DI@EOMIECBC@Ignoring?5request?5to?5write?5a?5PLTE@ 300b17b0     libpng:pngwutil.obj
 0002:000187e8       ??_C@_0CE@HMOECEJ@Invalid?5number?5of?5colors?5in?5pale@ 300b17e8     libpng:pngwutil.obj
 0002:0001880c       ??_C@_0CO@KLGKHOE@Invalid?5number?5of?5histogram?5entr@ 300b180c     libpng:pngwutil.obj
 0002:0001883c       ??_C@_0BE@PMDOJLFC@zero?5length?5keyword?$AA@ 300b183c     libpng:pngwutil.obj
 0002:00018850       ??_C@_0CJ@IDAIANNL@keyword?5length?5must?5be?51?5?9?579?5ch@ 300b1850     libpng:pngwutil.obj
 0002:0001887c       ??_C@_0BE@OGMCMLFJ@Zero?5length?5keyword?$AA@ 300b187c     libpng:pngwutil.obj
 0002:00018890       ??_C@_0CL@HHFCBFIC@extra?5interior?5spaces?5removed?5fr@ 300b1890     libpng:pngwutil.obj
 0002:000188bc       ??_C@_0CE@JDFMMCPJ@leading?5spaces?5removed?5from?5keyw@ 300b18bc     libpng:pngwutil.obj
 0002:000188e0       ??_C@_0CF@FJBLBIB@trailing?5spaces?5removed?5from?5key@ 300b18e0     libpng:pngwutil.obj
 0002:00018908       ??_C@_0CB@BHOANKPI@invalid?5keyword?5character?50x?$CF02X@ 300b1908     libpng:pngwutil.obj
 0002:0001892c       ??_C@_0CG@BDAAAKEB@Out?5of?5memory?5while?5procesing?5ke@ 300b192c     libpng:pngwutil.obj
 0002:00018954       ??_C@_0CD@ONPNEICD@Empty?5language?5field?5in?5iTXt?5chu@ 300b1954     libpng:pngwutil.obj
 0002:00018978       ??_C@_0CK@GBCGFDCK@Unrecognized?5equation?5type?5for?5p@ 300b1978     libpng:pngwutil.obj
 0002:000189a4       ??_C@_0CF@GLLAGGOD@zlib?5failed?5to?5initialize?5compre@ 300b19a4     libpng:pngwutil.obj
 0002:000189cc       ??_C@_0DC@GJKFMIBM@zlib?5failed?5to?5initialize?5compre@ 300b19cc     libpng:pngwutil.obj
 0002:00018a00       ??_C@_0DF@FOHAPBEB@zlib?5failed?5to?5initialize?5compre@ 300b1a00     libpng:pngwutil.obj
 0002:00018a38       ??_C@_0DG@IKGGKAI@zlib?5failed?5to?5initialize?5compre@ 300b1a38     libpng:pngwutil.obj
 0002:00018a70       ??_C@_05DFCKICEH@1?42?45?$AA@ 300b1a70     libpng:pngwutil.obj
 0002:00018a78       ??_C@_0CB@INFMBLLB@Invalid?5interlace?5type?5specified@ 300b1a78     libpng:pngwutil.obj
 0002:00018a9c       ??_C@_0BO@NHOMDFKG@Invalid?5filter?5type?5specified?$AA@ 300b1a9c     libpng:pngwutil.obj
 0002:00018abc       ??_C@_0CD@KAANFJDM@Invalid?5compression?5type?5specifi@ 300b1abc     libpng:pngwutil.obj
 0002:00018ae0       ??_C@_0CD@BMDFBAM@Invalid?5image?5color?5type?5specifi@ 300b1ae0     libpng:pngwutil.obj
 0002:00018b04       ??_C@_0CB@KFCOJLNF@Invalid?5bit?5depth?5for?5RGBA?5image@ 300b1b04     libpng:pngwutil.obj
 0002:00018b28       ??_C@_0CM@FPEKKHEM@Invalid?5bit?5depth?5for?5grayscale?$CL@ 300b1b28     libpng:pngwutil.obj
 0002:00018b54       ??_C@_0CF@KCHGLJIB@Invalid?5bit?5depth?5for?5paletted?5i@ 300b1b54     libpng:pngwutil.obj
 0002:00018b7c       ??_C@_0CA@JFINDAEN@Invalid?5bit?5depth?5for?5RGB?5image?$AA@ 300b1b7c     libpng:pngwutil.obj
 0002:00018b9c       ??_C@_0CG@NMBHOEGJ@Invalid?5bit?5depth?5for?5grayscale?5@ 300b1b9c     libpng:pngwutil.obj
 0002:00018bc4       ??_C@_0DB@EIEMKDIH@Invalid?5zlib?5compression?5method?5@ 300b1bc4     libpng:pngwutil.obj
 0002:00018bf8       ??_C@_0CI@CGCNKNIG@Invalid?5sRGB?5rendering?5intent?5sp@ 300b1bf8     libpng:pngwutil.obj
 0002:00018c20       ??_C@_0DC@BMAKFJHJ@Truncating?5profile?5to?5actual?5len@ 300b1c20     libpng:pngwutil.obj
 0002:00018c54       ??_C@_0DA@ICOIOAKN@Embedded?5profile?5length?5too?5larg@ 300b1c54     libpng:pngwutil.obj
 0002:00018c84       ??_C@_0DC@BNBCCGOO@Embedded?5profile?5length?5in?5iCCP?5@ 300b1c84     libpng:pngwutil.obj
 0002:00018cb8       ??_C@_0CH@GLHAJEH@Unknown?5compression?5type?5in?5iCCP@ 300b1cb8     libpng:pngwutil.obj
 0002:00018ce0       ??_C@_0BN@EBBMENIF@Invalid?5sBIT?5depth?5specified?$AA@ 300b1ce0     libpng:pngwutil.obj
 0002:00018d00       ??_C@_0CH@JCFDIEK@Can?8t?5write?5tRNS?5with?5an?5alpha?5c@ 300b1d00     libpng:pngwutil.obj
 0002:00018d28       ??_C@_0EA@JIMPJFKJ@Ignoring?5attempt?5to?5write?516?9bit@ 300b1d28     libpng:pngwutil.obj
 0002:00018d68       ??_C@_0EA@GMIFOPEM@Ignoring?5attempt?5to?5write?5tRNS?5c@ 300b1d68     libpng:pngwutil.obj
 0002:00018da8       ??_C@_0CP@PFJBFCBG@Invalid?5number?5of?5transparent?5co@ 300b1da8     libpng:pngwutil.obj
 0002:00018dd8       ??_C@_0EA@NFOOLGHI@Ignoring?5attempt?5to?5write?5bKGD?5c@ 300b1dd8     libpng:pngwutil.obj
 0002:00018e18       ??_C@_0EA@PGJGJFFB@Ignoring?5attempt?5to?5write?516?9bit@ 300b1e18     libpng:pngwutil.obj
 0002:00018e58       ??_C@_0CB@BIGCBPLL@Invalid?5background?5palette?5index@ 300b1e58     libpng:pngwutil.obj
 0002:00018e7c       ??_C@_0CG@LALPJLHA@Unrecognized?5unit?5type?5for?5oFFs?5@ 300b1e7c     libpng:pngwutil.obj
 0002:00018ea4       ??_C@_07GFOOOEFJ@?$CF12?412e?$AA@ 300b1ea4     libpng:pngwutil.obj
 0002:00018eac       ??_C@_0CG@OAABBGGO@Unrecognized?5unit?5type?5for?5pHYs?5@ 300b1eac     libpng:pngwutil.obj
 0002:00018ed4       ??_C@_0CG@IADLICLG@Invalid?5time?5specified?5for?5tIME?5@ 300b1ed4     libpng:pngwutil.obj
 0002:0001b7a8       _deflate_copyright         300b47a8     zlib:deflate.obj
 0002:0001b870       ??_C@_0BF@CJFPCCEG@incompatible?5version?$AA@ 300b4870     zlib:zutil.obj
 0002:0001b888       ??_C@_0N@DFPGLBGC@buffer?5error?$AA@ 300b4888     zlib:zutil.obj
 0002:0001b898       ??_C@_0BE@OGGJBMCE@insufficient?5memory?$AA@ 300b4898     zlib:zutil.obj
 0002:0001b8ac       ??_C@_0L@HAHMBNLP@data?5error?$AA@ 300b48ac     zlib:zutil.obj
 0002:0001b8b8       ??_C@_0N@MKKNPMJD@stream?5error?$AA@ 300b48b8     zlib:zutil.obj
 0002:0001b8c8       ??_C@_0L@KIJFAKBJ@file?5error?$AA@ 300b48c8     zlib:zutil.obj
 0002:0001b8d4       ??_C@_0L@FNAOCBOG@stream?5end?$AA@ 300b48d4     zlib:zutil.obj
 0002:0001b8e0       ??_C@_0BA@MOKMMFOD@need?5dictionary?$AA@ 300b48e0     zlib:zutil.obj
 0002:0001b8f0       _z_errmsg                  300b48f0     zlib:zutil.obj
 0002:0001b918       _inflate_copyright         300b4918     zlib:inftrees.obj
 0002:0001c090       __dist_code                300b5090     zlib:trees.obj
 0002:0001c290       __length_code              300b5290     zlib:trees.obj
 0002:0001c480       __FPinit                   300b5480     LIBCMT:_fpinit_.obj
 0002:0001c530       __OP_FMODjmptab            300b5530     LIBCMT:_87fmod_.obj
 0002:0001c580       __pRawDllMain              300b5580     LIBCMT:dllcrt0.obj
 0002:0001c580       __pDefaultRawDllMain       300b5580     LIBCMT:dllcrt0.obj
 0002:0001c588       ??_7bad_alloc@std@@6B@     300b5588     LIBCMT:new.obj
 0002:0001c590       ??_C@_0P@GHFPNOJB@bad?5allocation?$AA@ 300b5590     LIBCMT:new.obj
 0002:0001c5a0       ??_C@_05KLBDPFGC@e?$CL000?$AA@ 300b55a0     LIBCMT:cvt.obj
 0002:0001c5a8       ??_C@_1BC@GDGBMEMK@?$AAH?$AAH?$AA?3?$AAm?$AAm?$AA?3?$AAs?$AAs?$AA?$AA@ 300b55a8     LIBCMT:nlsdata2.obj
 0002:0001c5bc       ??_C@_1CI@KNAKOEBC@?$AAd?$AAd?$AAd?$AAd?$AA?0?$AA?5?$AAM?$AAM?$AAM?$AAM?$AA?5?$AAd?$AAd?$AA?0?$AA?5?$AAy?$AAy?$AAy?$AAy?$AA?$AA@ 300b55bc     LIBCMT:nlsdata2.obj
 0002:0001c5e4       ??_C@_1BC@IEBCMHCM@?$AAM?$AAM?$AA?1?$AAd?$AAd?$AA?1?$AAy?$AAy?$AA?$AA@ 300b55e4     LIBCMT:nlsdata2.obj
 0002:0001c5f8       ??_C@_15CLMNNGEL@?$AAP?$AAM?$AA?$AA@ 300b55f8     LIBCMT:nlsdata2.obj
 0002:0001c600       ??_C@_15ODEHAHHF@?$AAA?$AAM?$AA?$AA@ 300b5600     LIBCMT:nlsdata2.obj
 0002:0001c608       ??_C@_1BC@FEMKIFH@?$AAD?$AAe?$AAc?$AAe?$AAm?$AAb?$AAe?$AAr?$AA?$AA@ 300b5608     LIBCMT:nlsdata2.obj
 0002:0001c61c       ??_C@_1BC@BGLIFPF@?$AAN?$AAo?$AAv?$AAe?$AAm?$AAb?$AAe?$AAr?$AA?$AA@ 300b561c     LIBCMT:nlsdata2.obj
 0002:0001c630       ??_C@_1BA@EPANDLNG@?$AAO?$AAc?$AAt?$AAo?$AAb?$AAe?$AAr?$AA?$AA@ 300b5630     LIBCMT:nlsdata2.obj
 0002:0001c640       ??_C@_1BE@DKAAMBJL@?$AAS?$AAe?$AAp?$AAt?$AAe?$AAm?$AAb?$AAe?$AAr?$AA?$AA@ 300b5640     LIBCMT:nlsdata2.obj
 0002:0001c654       ??_C@_1O@PAHLKOAC@?$AAA?$AAu?$AAg?$AAu?$AAs?$AAt?$AA?$AA@ 300b5654     LIBCMT:nlsdata2.obj
 0002:0001c664       ??_C@_19BIFMLPCD@?$AAJ?$AAu?$AAl?$AAy?$AA?$AA@ 300b5664     LIBCMT:nlsdata2.obj
 0002:0001c670       ??_C@_19EPFLPGAP@?$AAJ?$AAu?$AAn?$AAe?$AA?$AA@ 300b5670     LIBCMT:nlsdata2.obj
 0002:0001c67c       ??_C@_1M@GJNLMHFD@?$AAA?$AAp?$AAr?$AAi?$AAl?$AA?$AA@ 300b567c     LIBCMT:nlsdata2.obj
 0002:0001c688       ??_C@_1M@IKEENEDF@?$AAM?$AAa?$AAr?$AAc?$AAh?$AA?$AA@ 300b5688     LIBCMT:nlsdata2.obj
 0002:0001c694       ??_C@_1BC@JGDDFFAM@?$AAF?$AAe?$AAb?$AAr?$AAu?$AAa?$AAr?$AAy?$AA?$AA@ 300b5694     LIBCMT:nlsdata2.obj
 0002:0001c6a8       ??_C@_1BA@EFMEIEBA@?$AAJ?$AAa?$AAn?$AAu?$AAa?$AAr?$AAy?$AA?$AA@ 300b56a8     LIBCMT:nlsdata2.obj
 0002:0001c6b8       ??_C@_17EGKACKIF@?$AAD?$AAe?$AAc?$AA?$AA@ 300b56b8     LIBCMT:nlsdata2.obj
 0002:0001c6c0       ??_C@_17BBDMLCIG@?$AAN?$AAo?$AAv?$AA?$AA@ 300b56c0     LIBCMT:nlsdata2.obj
 0002:0001c6c8       ??_C@_17FNLKOI@?$AAO?$AAc?$AAt?$AA?$AA@ 300b56c8     LIBCMT:nlsdata2.obj
 0002:0001c6d0       ??_C@_17HCHCOKMG@?$AAS?$AAe?$AAp?$AA?$AA@ 300b56d0     LIBCMT:nlsdata2.obj
 0002:0001c6d8       ??_C@_17ICPELBCN@?$AAA?$AAu?$AAg?$AA?$AA@ 300b56d8     LIBCMT:nlsdata2.obj
 0002:0001c6e0       ??_C@_17IJPCKHK@?$AAJ?$AAu?$AAl?$AA?$AA@ 300b56e0     LIBCMT:nlsdata2.obj
 0002:0001c6e8       ??_C@_17KCJGOCPB@?$AAJ?$AAu?$AAn?$AA?$AA@ 300b56e8     LIBCMT:nlsdata2.obj
 0002:0001c6f0       ??_C@_17PNNKMEED@?$AAM?$AAa?$AAy?$AA?$AA@ 300b56f0     LIBCMT:nlsdata2.obj
 0002:0001c6f8       ??_C@_17LFPOIHDD@?$AAA?$AAp?$AAr?$AA?$AA@ 300b56f8     LIBCMT:nlsdata2.obj
 0002:0001c700       ??_C@_17CKNLEDEC@?$AAM?$AAa?$AAr?$AA?$AA@ 300b5700     LIBCMT:nlsdata2.obj
 0002:0001c708       ??_C@_17LMDJEKJN@?$AAF?$AAe?$AAb?$AA?$AA@ 300b5708     LIBCMT:nlsdata2.obj
 0002:0001c710       ??_C@_17DKNBKCHM@?$AAJ?$AAa?$AAn?$AA?$AA@ 300b5710     LIBCMT:nlsdata2.obj
 0002:0001c718       ??_C@_1BC@ENMNNPAJ@?$AAS?$AAa?$AAt?$AAu?$AAr?$AAd?$AAa?$AAy?$AA?$AA@ 300b5718     LIBCMT:nlsdata2.obj
 0002:0001c72c       ??_C@_1O@PDICJHAG@?$AAF?$AAr?$AAi?$AAd?$AAa?$AAy?$AA?$AA@ 300b572c     LIBCMT:nlsdata2.obj
 0002:0001c73c       ??_C@_1BC@HHMNLIHE@?$AAT?$AAh?$AAu?$AAr?$AAs?$AAd?$AAa?$AAy?$AA?$AA@ 300b573c     LIBCMT:nlsdata2.obj
 0002:0001c750       ??_C@_1BE@EBOGMDOH@?$AAW?$AAe?$AAd?$AAn?$AAe?$AAs?$AAd?$AAa?$AAy?$AA?$AA@ 300b5750     LIBCMT:nlsdata2.obj
 0002:0001c764       ??_C@_1BA@ENFBFFEK@?$AAT?$AAu?$AAe?$AAs?$AAd?$AAa?$AAy?$AA?$AA@ 300b5764     LIBCMT:nlsdata2.obj
 0002:0001c774       ??_C@_1O@MMNBFLIA@?$AAM?$AAo?$AAn?$AAd?$AAa?$AAy?$AA?$AA@ 300b5774     LIBCMT:nlsdata2.obj
 0002:0001c784       ??_C@_1O@IHNHDHPB@?$AAS?$AAu?$AAn?$AAd?$AAa?$AAy?$AA?$AA@ 300b5784     LIBCMT:nlsdata2.obj
 0002:0001c794       ??_C@_17GGIBDPIH@?$AAS?$AAa?$AAt?$AA?$AA@ 300b5794     LIBCMT:nlsdata2.obj
 0002:0001c79c       ??_C@_17HFOLPPLP@?$AAF?$AAr?$AAi?$AA?$AA@ 300b579c     LIBCMT:nlsdata2.obj
 0002:0001c7a4       ??_C@_17PDPHAADD@?$AAT?$AAh?$AAu?$AA?$AA@ 300b57a4     LIBCMT:nlsdata2.obj
 0002:0001c7ac       ??_C@_17CJEDCEPE@?$AAW?$AAe?$AAd?$AA?$AA@ 300b57ac     LIBCMT:nlsdata2.obj
 0002:0001c7b4       ??_C@_17BMKGEGOJ@?$AAT?$AAu?$AAe?$AA?$AA@ 300b57b4     LIBCMT:nlsdata2.obj
 0002:0001c7bc       ??_C@_17KBOMKBF@?$AAM?$AAo?$AAn?$AA?$AA@ 300b57bc     LIBCMT:nlsdata2.obj
 0002:0001c7c4       ??_C@_17MBGCMIPB@?$AAS?$AAu?$AAn?$AA?$AA@ 300b57c4     LIBCMT:nlsdata2.obj
 0002:0001c7cc       ??_C@_08JCCMCCIL@HH?3mm?3ss?$AA@ 300b57cc     LIBCMT:nlsdata2.obj
 0002:0001c7d8       ??_C@_0BE@CKGJFCPC@dddd?0?5MMMM?5dd?0?5yyyy?$AA@ 300b57d8     LIBCMT:nlsdata2.obj
 0002:0001c7ec       ??_C@_08BPBNCDIB@MM?1dd?1yy?$AA@ 300b57ec     LIBCMT:nlsdata2.obj
 0002:0001c7f8       ??_C@_02CJNFDJBF@PM?$AA@   300b57f8     LIBCMT:nlsdata2.obj
 0002:0001c7fc       ??_C@_02DEDBPAFC@AM?$AA@   300b57fc     LIBCMT:nlsdata2.obj
 0002:0001c800       ??_C@_08EDHMEBNP@December?$AA@ 300b5800     LIBCMT:nlsdata2.obj
 0002:0001c80c       ??_C@_08HCHEGEOA@November?$AA@ 300b580c     LIBCMT:nlsdata2.obj
 0002:0001c818       ??_C@_07JJNFCEND@October?$AA@ 300b5818     LIBCMT:nlsdata2.obj
 0002:0001c820       ??_C@_09BHHEALKD@September?$AA@ 300b5820     LIBCMT:nlsdata2.obj
 0002:0001c82c       ??_C@_06LBBHFDDG@August?$AA@ 300b582c     LIBCMT:nlsdata2.obj
 0002:0001c834       ??_C@_04MIEPOIFP@July?$AA@ 300b5834     LIBCMT:nlsdata2.obj
 0002:0001c83c       ??_C@_04CNLMGBGM@June?$AA@ 300b583c     LIBCMT:nlsdata2.obj
 0002:0001c844       ??_C@_05DMJDNLEJ@April?$AA@ 300b5844     LIBCMT:nlsdata2.obj
 0002:0001c84c       ??_C@_05HPCKOFNC@March?$AA@ 300b584c     LIBCMT:nlsdata2.obj
 0002:0001c854       ??_C@_08GNJGEPFN@February?$AA@ 300b5854     LIBCMT:nlsdata2.obj
 0002:0001c860       ??_C@_07CGJPFGJA@January?$AA@ 300b5860     LIBCMT:nlsdata2.obj
 0002:0001c868       ??_C@_03MKABNOCG@Dec?$AA@  300b5868     LIBCMT:nlsdata2.obj
 0002:0001c86c       ??_C@_03JPJOFNIA@Nov?$AA@  300b586c     LIBCMT:nlsdata2.obj
 0002:0001c870       ??_C@_03BMAOKBAD@Oct?$AA@  300b5870     LIBCMT:nlsdata2.obj
 0002:0001c874       ??_C@_03GGCAPAJC@Sep?$AA@  300b5874     LIBCMT:nlsdata2.obj
 0002:0001c878       ??_C@_03IFJFEIGA@Aug?$AA@  300b5878     LIBCMT:nlsdata2.obj
 0002:0001c87c       ??_C@_03LBGABGKK@Jul?$AA@  300b587c     LIBCMT:nlsdata2.obj
 0002:0001c880       ??_C@_03IDFGHECI@Jun?$AA@  300b5880     LIBCMT:nlsdata2.obj
 0002:0001c884       ??_C@_03CNMDKL@May?$AA@    300b5884     LIBCMT:nlsdata2.obj
 0002:0001c888       ??_C@_03LEOLGMJP@Apr?$AA@  300b5888     LIBCMT:nlsdata2.obj
 0002:0001c88c       ??_C@_03ODNJBKGA@Mar?$AA@  300b588c     LIBCMT:nlsdata2.obj
 0002:0001c890       ??_C@_03HJBDCHOM@Feb?$AA@  300b5890     LIBCMT:nlsdata2.obj
 0002:0001c894       ??_C@_03JIHJHPIE@Jan?$AA@  300b5894     LIBCMT:nlsdata2.obj
 0002:0001c898       ??_C@_08INBOOONO@Saturday?$AA@ 300b5898     LIBCMT:nlsdata2.obj
 0002:0001c8a4       ??_C@_06JECMNKMI@Friday?$AA@ 300b58a4     LIBCMT:nlsdata2.obj
 0002:0001c8ac       ??_C@_08HACCIKIA@Thursday?$AA@ 300b58ac     LIBCMT:nlsdata2.obj
 0002:0001c8b8       ??_C@_09DLIGFAKA@Wednesday?$AA@ 300b58b8     LIBCMT:nlsdata2.obj
 0002:0001c8c4       ??_C@_07BAAGCFCM@Tuesday?$AA@ 300b58c4     LIBCMT:nlsdata2.obj
 0002:0001c8cc       ??_C@_06JLEDEDGH@Monday?$AA@ 300b58cc     LIBCMT:nlsdata2.obj
 0002:0001c8d4       ??_C@_06OOPIFAJ@Sunday?$AA@ 300b58d4     LIBCMT:nlsdata2.obj
 0002:0001c8dc       ??_C@_03FEFJNEK@Sat?$AA@   300b58dc     LIBCMT:nlsdata2.obj
 0002:0001c8e0       ??_C@_03IDIOELNC@Fri?$AA@  300b58e0     LIBCMT:nlsdata2.obj
 0002:0001c8e4       ??_C@_03IOFIKPDN@Thu?$AA@  300b58e4     LIBCMT:nlsdata2.obj
 0002:0001c8e8       ??_C@_03MHOMLAJA@Wed?$AA@  300b58e8     LIBCMT:nlsdata2.obj
 0002:0001c8ec       ??_C@_03NAGEINEP@Tue?$AA@  300b58ec     LIBCMT:nlsdata2.obj
 0002:0001c8f0       ??_C@_03PDAGKDH@Mon?$AA@   300b58f0     LIBCMT:nlsdata2.obj
 0002:0001c8f4       ??_C@_03KOEHGMDN@Sun?$AA@  300b58f4     LIBCMT:nlsdata2.obj
 0002:0001c8f8       ??_C@_1BK@DBDEIDLH@?$AAK?$AAE?$AAR?$AAN?$AAE?$AAL?$AA3?$AA2?$AA?4?$AAD?$AAL?$AAL?$AA?$AA@ 300b58f8     LIBCMT:tidtable.obj
 0002:0001c914       ??_C@_07PEJMOBNF@FlsFree?$AA@ 300b5914     LIBCMT:tidtable.obj
 0002:0001c91c       ??_C@_0M@JCPCPOEF@FlsSetValue?$AA@ 300b591c     LIBCMT:tidtable.obj
 0002:0001c928       ??_C@_0M@GDNOONDI@FlsGetValue?$AA@ 300b5928     LIBCMT:tidtable.obj
 0002:0001c934       ??_C@_08KNHFBNJ@FlsAlloc?$AA@ 300b5934     LIBCMT:tidtable.obj
 0002:0001c940       __OP_ATAN2jmptab           300b5940     LIBCMT:_87triga_.obj
 0002:0001d270       __indefinite               300b6270     LIBCMT:_87disp_.obj
 0002:0001d27a       __piby2                    300b627a     LIBCMT:_87disp_.obj
 0002:0001d2a8       __DEFAULT_CW_in_mem        300b62a8     LIBCMT:_common_.obj
 0002:0001d2aa       __pi_by_2_to_61            300b62aa     LIBCMT:_common_.obj
 0002:0001dbf8       ??_C@_03IIINPABG@tan?$AA@  300b6bf8     LIBCMT:_libm_error_.obj
 0002:0001dbfc       ??_C@_03LALBNOCG@cos?$AA@  300b6bfc     LIBCMT:_libm_error_.obj
 0002:0001dc00       ??_C@_03BLEJJJBH@sin?$AA@  300b6c00     LIBCMT:_libm_error_.obj
 0002:0001dc04       ??_C@_04EHEDPDJG@modf?$AA@ 300b6c04     LIBCMT:_libm_error_.obj
 0002:0001dc0c       ??_C@_05PBJFFIGL@floor?$AA@ 300b6c0c     LIBCMT:_libm_error_.obj
 0002:0001dc14       ??_C@_04GFPJNGEK@ceil?$AA@ 300b6c14     LIBCMT:_libm_error_.obj
 0002:0001dc1c       ??_C@_04MLLJIGOK@atan?$AA@ 300b6c1c     LIBCMT:_libm_error_.obj
 0002:0001dc24       ??_C@_05EOHGHCHD@exp10?$AA@ 300b6c24     LIBCMT:_libm_error_.obj
 0002:0001dc2c       ??_C@_04PDIFKINK@acos?$AA@ 300b6c2c     LIBCMT:_libm_error_.obj
 0002:0001dc34       ??_C@_04FIHNOPOL@asin?$AA@ 300b6c34     LIBCMT:_libm_error_.obj
 0002:0001dc3c       ??_C@_03MGHMBJCF@log?$AA@  300b6c3c     LIBCMT:_libm_error_.obj
 0002:0001dc40       ??_C@_05HGHHAHAP@log10?$AA@ 300b6c40     LIBCMT:_libm_error_.obj
 0002:0001dc48       ??_C@_03KHJOGHMM@exp?$AA@  300b6c48     LIBCMT:_libm_error_.obj
 0002:0001dc4c       ??_C@_03JGHBODFD@pow?$AA@  300b6c4c     LIBCMT:_libm_error_.obj
 0002:0001e170       __infinity                 300b7170     LIBCMT:_87tran_.obj
 0002:0001e17a       __minfinity                300b717a     LIBCMT:_87tran_.obj
 0002:0001e184       __logemax                  300b7184     LIBCMT:_87tran_.obj
 0002:0001e1aa       __OP_EXPjmptab             300b71aa     LIBCMT:_87tran_.obj
 0002:0001e1cc       ??_C@_1O@CEDCILHN@?$AA?$CI?$AAn?$AAu?$AAl?$AAl?$AA?$CJ?$AA?$AA@ 300b71cc     LIBCMT:output.obj
 0002:0001e1dc       ??_C@_06OJHGLDPL@?$CInull?$CJ?$AA@ 300b71dc     LIBCMT:output.obj
 0002:0001e1e8       ___lookuptable             300b71e8     LIBCMT:output.obj
 0002:00024ad0       ??_C@_0P@MIGLKIOC@CorExitProcess?$AA@ 300bdad0     LIBCMT:crt0dat.obj
 0002:00024ae0       ??_C@_1BI@BGOHAHKC@?$AAm?$AAs?$AAc?$AAo?$AAr?$AAe?$AAe?$AA?4?$AAd?$AAl?$AAl?$AA?$AA@ 300bdae0     LIBCMT:crt0dat.obj
 0002:00024af8       __XcptActTab               300bdaf8     LIBCMT:winxfltr.obj
 0002:00024b88       __First_FPE_Indx           300bdb88     LIBCMT:winxfltr.obj
 0002:00024b8c       __Num_FPE                  300bdb8c     LIBCMT:winxfltr.obj
 0002:00024b90       __XcptActTabSize           300bdb90     LIBCMT:winxfltr.obj
 0002:00024b94       __XcptActTabCount          300bdb94     LIBCMT:winxfltr.obj
 0002:00024ba0       ??_C@_1BO@BKOMIGKJ@?$AAr?$AAu?$AAn?$AAt?$AAi?$AAm?$AAe?$AA?5?$AAe?$AAr?$AAr?$AAo?$AAr?$AA?5?$AA?$AA@ 300bdba0     LIBCMT:crt0msg.obj
 0002:00024bc0       ??_C@_15JNBOKNOG@?$AA?$AN?$AA?6?$AA?$AA@ 300bdbc0     LIBCMT:crt0msg.obj
 0002:00024bc8       ??_C@_1BM@JBBEPPHI@?$AAT?$AAL?$AAO?$AAS?$AAS?$AA?5?$AAe?$AAr?$AAr?$AAo?$AAr?$AA?$AN?$AA?6?$AA?$AA@ 300bdbc8     LIBCMT:crt0msg.obj
 0002:00024be4       ??_C@_1BK@KMOMNAAI@?$AAS?$AAI?$AAN?$AAG?$AA?5?$AAe?$AAr?$AAr?$AAo?$AAr?$AA?$AN?$AA?6?$AA?$AA@ 300bdbe4     LIBCMT:crt0msg.obj
 0002:00024c00       ??_C@_1BO@BFCDCGC@?$AAD?$AAO?$AAM?$AAA?$AAI?$AAN?$AA?5?$AAe?$AAr?$AAr?$AAo?$AAr?$AA?$AN?$AA?6?$AA?$AA@ 300bdc00     LIBCMT:crt0msg.obj
 0002:00024c20       ??_C@_1BOO@KGEDBGAJ@?$AAR?$AA6?$AA0?$AA3?$AA3?$AA?$AN?$AA?6?$AA?9?$AA?5?$AAA?$AAt?$AAt?$AAe?$AAm?$AAp?$AAt?$AA?5?$AAt?$AAo?$AA?5?$AAu?$AAs?$AAe?$AA?5?$AAM?$AAS?$AAI?$AAL?$AA?5?$AAc?$AAo?$AAd@ 300bdc20     LIBCMT:crt0msg.obj
 0002:00024e10       ??_C@_1GG@GOPILAJP@?$AAR?$AA6?$AA0?$AA3?$AA2?$AA?$AN?$AA?6?$AA?9?$AA?5?$AAn?$AAo?$AAt?$AA?5?$AAe?$AAn?$AAo?$AAu?$AAg?$AAh?$AA?5?$AAs?$AAp?$AAa?$AAc?$AAe?$AA?5?$AAf?$AAo?$AAr?$AA?5?$AAl?$AAo@ 300bde10     LIBCMT:crt0msg.obj
 0002:00024e78       ??_C@_1MG@ENCOOIDF@?$AAR?$AA6?$AA0?$AA3?$AA1?$AA?$AN?$AA?6?$AA?9?$AA?5?$AAA?$AAt?$AAt?$AAe?$AAm?$AAp?$AAt?$AA?5?$AAt?$AAo?$AA?5?$AAi?$AAn?$AAi?$AAt?$AAi?$AAa?$AAl?$AAi?$AAz?$AAe?$AA?5?$AAt@ 300bde78     LIBCMT:crt0msg.obj
 0002:00024f40       ??_C@_1DO@BMFCDCD@?$AAR?$AA6?$AA0?$AA3?$AA0?$AA?$AN?$AA?6?$AA?9?$AA?5?$AAC?$AAR?$AAT?$AA?5?$AAn?$AAo?$AAt?$AA?5?$AAi?$AAn?$AAi?$AAt?$AAi?$AAa?$AAl?$AAi?$AAz?$AAe?$AAd?$AA?$AN?$AA?6?$AA?$AA@ 300bdf40     LIBCMT:crt0msg.obj
 0002:00024f80       ??_C@_1EK@HHFLMAOL@?$AAR?$AA6?$AA0?$AA2?$AA8?$AA?$AN?$AA?6?$AA?9?$AA?5?$AAu?$AAn?$AAa?$AAb?$AAl?$AAe?$AA?5?$AAt?$AAo?$AA?5?$AAi?$AAn?$AAi?$AAt?$AAi?$AAa?$AAl?$AAi?$AAz?$AAe?$AA?5?$AAh?$AAe@ 300bdf80     LIBCMT:crt0msg.obj
 0002:00024fd0       ??_C@_1GK@MFGOKLAG@?$AAR?$AA6?$AA0?$AA2?$AA7?$AA?$AN?$AA?6?$AA?9?$AA?5?$AAn?$AAo?$AAt?$AA?5?$AAe?$AAn?$AAo?$AAu?$AAg?$AAh?$AA?5?$AAs?$AAp?$AAa?$AAc?$AAe?$AA?5?$AAf?$AAo?$AAr?$AA?5?$AAl?$AAo@ 300bdfd0     LIBCMT:crt0msg.obj
 0002:00025040       ??_C@_1GK@MCAAGJMO@?$AAR?$AA6?$AA0?$AA2?$AA6?$AA?$AN?$AA?6?$AA?9?$AA?5?$AAn?$AAo?$AAt?$AA?5?$AAe?$AAn?$AAo?$AAu?$AAg?$AAh?$AA?5?$AAs?$AAp?$AAa?$AAc?$AAe?$AA?5?$AAf?$AAo?$AAr?$AA?5?$AAs?$AAt@ 300be040     LIBCMT:crt0msg.obj
 0002:000250b0       ??_C@_1EM@MAADIHMB@?$AAR?$AA6?$AA0?$AA2?$AA5?$AA?$AN?$AA?6?$AA?9?$AA?5?$AAp?$AAu?$AAr?$AAe?$AA?5?$AAv?$AAi?$AAr?$AAt?$AAu?$AAa?$AAl?$AA?5?$AAf?$AAu?$AAn?$AAc?$AAt?$AAi?$AAo?$AAn?$AA?5?$AAc@ 300be0b0     LIBCMT:crt0msg.obj
 0002:00025100       ??_C@_1GK@FHCKBEFA@?$AAR?$AA6?$AA0?$AA2?$AA4?$AA?$AN?$AA?6?$AA?9?$AA?5?$AAn?$AAo?$AAt?$AA?5?$AAe?$AAn?$AAo?$AAu?$AAg?$AAh?$AA?5?$AAs?$AAp?$AAa?$AAc?$AAe?$AA?5?$AAf?$AAo?$AAr?$AA?5?$AA_?$AAo@ 300be100     LIBCMT:crt0msg.obj
 0002:00025170       ??_C@_1FC@ECHBIFBC@?$AAR?$AA6?$AA0?$AA1?$AA9?$AA?$AN?$AA?6?$AA?9?$AA?5?$AAu?$AAn?$AAa?$AAb?$AAl?$AAe?$AA?5?$AAt?$AAo?$AA?5?$AAo?$AAp?$AAe?$AAn?$AA?5?$AAc?$AAo?$AAn?$AAs?$AAo?$AAl?$AAe?$AA?5@ 300be170     LIBCMT:crt0msg.obj
 0002:000251c8       ??_C@_1EC@JIBHAOPH@?$AAR?$AA6?$AA0?$AA1?$AA8?$AA?$AN?$AA?6?$AA?9?$AA?5?$AAu?$AAn?$AAe?$AAx?$AAp?$AAe?$AAc?$AAt?$AAe?$AAd?$AA?5?$AAh?$AAe?$AAa?$AAp?$AA?5?$AAe?$AAr?$AAr?$AAo?$AAr?$AA?$AN?$AA?6@ 300be1c8     LIBCMT:crt0msg.obj
 0002:00025210       ??_C@_1FK@BEOGODMC@?$AAR?$AA6?$AA0?$AA1?$AA7?$AA?$AN?$AA?6?$AA?9?$AA?5?$AAu?$AAn?$AAe?$AAx?$AAp?$AAe?$AAc?$AAt?$AAe?$AAd?$AA?5?$AAm?$AAu?$AAl?$AAt?$AAi?$AAt?$AAh?$AAr?$AAe?$AAa?$AAd?$AA?5@ 300be210     LIBCMT:crt0msg.obj
 0002:00025270       ??_C@_1FI@LOGNIKDM@?$AAR?$AA6?$AA0?$AA1?$AA6?$AA?$AN?$AA?6?$AA?9?$AA?5?$AAn?$AAo?$AAt?$AA?5?$AAe?$AAn?$AAo?$AAu?$AAg?$AAh?$AA?5?$AAs?$AAp?$AAa?$AAc?$AAe?$AA?5?$AAf?$AAo?$AAr?$AA?5?$AAt?$AAh@ 300be270     LIBCMT:crt0msg.obj
 0002:000252c8       ??_C@_1EG@BEHAGFJD@?$AAR?$AA6?$AA0?$AA1?$AA0?$AA?$AN?$AA?6?$AA?9?$AA?5?$AAa?$AAb?$AAo?$AAr?$AAt?$AA?$CI?$AA?$CJ?$AA?5?$AAh?$AAa?$AAs?$AA?5?$AAb?$AAe?$AAe?$AAn?$AA?5?$AAc?$AAa?$AAl?$AAl?$AAe?$AAd@ 300be2c8     LIBCMT:crt0msg.obj
 0002:00025310       ??_C@_1FI@HONFMGBI@?$AAR?$AA6?$AA0?$AA0?$AA9?$AA?$AN?$AA?6?$AA?9?$AA?5?$AAn?$AAo?$AAt?$AA?5?$AAe?$AAn?$AAo?$AAu?$AAg?$AAh?$AA?5?$AAs?$AAp?$AAa?$AAc?$AAe?$AA?5?$AAf?$AAo?$AAr?$AA?5?$AAe?$AAn@ 300be310     LIBCMT:crt0msg.obj
 0002:00025368       ??_C@_1FE@LLNEDJMD@?$AAR?$AA6?$AA0?$AA0?$AA8?$AA?$AN?$AA?6?$AA?9?$AA?5?$AAn?$AAo?$AAt?$AA?5?$AAe?$AAn?$AAo?$AAu?$AAg?$AAh?$AA?5?$AAs?$AAp?$AAa?$AAc?$AAe?$AA?5?$AAf?$AAo?$AAr?$AA?5?$AAa?$AAr@ 300be368     LIBCMT:crt0msg.obj
 0002:000253c0       ??_C@_1FK@PGACCAFB@?$AAR?$AA6?$AA0?$AA0?$AA2?$AA?$AN?$AA?6?$AA?9?$AA?5?$AAf?$AAl?$AAo?$AAa?$AAt?$AAi?$AAn?$AAg?$AA?5?$AAp?$AAo?$AAi?$AAn?$AAt?$AA?5?$AAs?$AAu?$AAp?$AAp?$AAo?$AAr?$AAt?$AA?5@ 300be3c0     LIBCMT:crt0msg.obj
 0002:000254d0       ??_C@_1EK@MBDPDCGA@?$AAM?$AAi?$AAc?$AAr?$AAo?$AAs?$AAo?$AAf?$AAt?$AA?5?$AAV?$AAi?$AAs?$AAu?$AAa?$AAl?$AA?5?$AAC?$AA?$CL?$AA?$CL?$AA?5?$AAR?$AAu?$AAn?$AAt?$AAi?$AAm?$AAe?$AA?5?$AAL?$AAi?$AAb@ 300be4d0     LIBCMT:crt0msg.obj
 0002:0002551c       ??_C@_15IABLJNFO@?$AA?6?$AA?6?$AA?$AA@ 300be51c     LIBCMT:crt0msg.obj
 0002:00025524       ??_C@_17LGKOMLJ@?$AA?4?$AA?4?$AA?4?$AA?$AA@ 300be524     LIBCMT:crt0msg.obj
 0002:0002552c       ??_C@_1CO@EAEJAADC@?$AA?$DM?$AAp?$AAr?$AAo?$AAg?$AAr?$AAa?$AAm?$AA?5?$AAn?$AAa?$AAm?$AAe?$AA?5?$AAu?$AAn?$AAk?$AAn?$AAo?$AAw?$AAn?$AA?$DO?$AA?$AA@ 300be52c     LIBCMT:crt0msg.obj
 0002:0002555c       ??_C@_1DE@JNGNBFGO@?$AAR?$AAu?$AAn?$AAt?$AAi?$AAm?$AAe?$AA?5?$AAE?$AAr?$AAr?$AAo?$AAr?$AA?$CB?$AA?6?$AA?6?$AAP?$AAr?$AAo?$AAg?$AAr?$AAa?$AAm?$AA?3?$AA?5?$AA?$AA@ 300be55c     LIBCMT:crt0msg.obj
 0002:00025594       ??_7exception@std@@6B@     300be594     LIBCMT:stdexcpt.obj
 0002:0002559c       ??_C@_0BC@EOODALEL@Unknown?5exception?$AA@ 300be59c     LIBCMT:stdexcpt.obj
 0002:000255b4       ??_7type_info@@6B@         300be5b4     LIBCMT:typinfo.obj
 0002:000255d8       ___newctype                300be5d8     LIBCMT:ctype.obj
 0002:000258d8       __wctype                   300be8d8     LIBCMT:ctype.obj
 0002:00025ae0       ___newclmap                300beae0     LIBCMT:ctype.obj
 0002:00025c60       ___newcumap                300bec60     LIBCMT:ctype.obj
 0002:00025de0       ??_C@_0L@KDOEJCKC@_nextafter?$AA@ 300bede0     LIBCMT:_fpexcept_.obj
 0002:00025dec       ??_C@_05JGDBENOH@_logb?$AA@ 300bedec     LIBCMT:_fpexcept_.obj
 0002:00025df4       ??_C@_03ONILCKOB@_yn?$AA@  300bedf4     LIBCMT:_fpexcept_.obj
 0002:00025df8       ??_C@_03NAKIGLHK@_y1?$AA@  300bedf8     LIBCMT:_fpexcept_.obj
 0002:00025dfc       ??_C@_03MJLDFKDL@_y0?$AA@  300bedfc     LIBCMT:_fpexcept_.obj
 0002:00025e00       ??_C@_05GKKHEGJL@frexp?$AA@ 300bee00     LIBCMT:_fpexcept_.obj
 0002:00025e08       ??_C@_04KEPJIHGP@fmod?$AA@ 300bee08     LIBCMT:_fpexcept_.obj
 0002:00025e10       ??_C@_06MEIMCGCF@_hypot?$AA@ 300bee10     LIBCMT:_fpexcept_.obj
 0002:00025e18       ??_C@_05KBKMEMPO@_cabs?$AA@ 300bee18     LIBCMT:_fpexcept_.obj
 0002:00025e20       ??_C@_05CEJMAHNP@ldexp?$AA@ 300bee20     LIBCMT:_fpexcept_.obj
 0002:00025e28       ??_C@_04ODHECPBC@fabs?$AA@ 300bee28     LIBCMT:_fpexcept_.obj
 0002:00025e30       ??_C@_04EIAKFFMI@sqrt?$AA@ 300bee30     LIBCMT:_fpexcept_.obj
 0002:00025e38       ??_C@_05KNGEOGJB@atan2?$AA@ 300bee38     LIBCMT:_fpexcept_.obj
 0002:00025e40       ??_C@_04FJHINJAO@tanh?$AA@ 300bee40     LIBCMT:_fpexcept_.obj
 0002:00025e48       ??_C@_04HPJJNFIM@cosh?$AA@ 300bee48     LIBCMT:_fpexcept_.obj
 0002:00025e50       ??_C@_04COOMCNPB@sinh?$AA@ 300bee50     LIBCMT:_fpexcept_.obj
 0002:00025e58       ___lookuptable_s           300bee58     LIBCMT:outputs.obj
 0002:00025eb4       ??_C@_0BI@DFKBFLJE@GetProcessWindowStation?$AA@ 300beeb4     LIBCMT:crtmboxw.obj
 0002:00025ecc       ??_C@_0BK@DEKFELLI@GetUserObjectInformationW?$AA@ 300beecc     LIBCMT:crtmboxw.obj
 0002:00025ee8       ??_C@_0BD@HHGDFDBJ@GetLastActivePopup?$AA@ 300beee8     LIBCMT:crtmboxw.obj
 0002:00025efc       ??_C@_0BA@HNOPNCHB@GetActiveWindow?$AA@ 300beefc     LIBCMT:crtmboxw.obj
 0002:00025f0c       ??_C@_0M@DLDCCGNP@MessageBoxW?$AA@ 300bef0c     LIBCMT:crtmboxw.obj
 0002:00025f18       ??_C@_1BG@GOEBHBDC@?$AAU?$AAS?$AAE?$AAR?$AA3?$AA2?$AA?4?$AAD?$AAL?$AAL?$AA?$AA@ 300bef18     LIBCMT:crtmboxw.obj
 0002:00025f30       ??_C@_06IMKFLFPG@1?$CDQNAN?$AA@ 300bef30     LIBCMT:_x10fout_.obj
 0002:00025f38       ??_C@_05DNEBIAHO@1?$CDINF?$AA@ 300bef38     LIBCMT:_x10fout_.obj
 0002:00025f40       ??_C@_05PHHOCPM@1?$CDIND?$AA@ 300bef40     LIBCMT:_x10fout_.obj
 0002:00025f48       ??_C@_06PGGFOGJG@1?$CDSNAN?$AA@ 300bef48     LIBCMT:_x10fout_.obj
 0002:00025f50       ??_C@_1BA@BALFACEM@?$AAC?$AAO?$AAN?$AAO?$AAU?$AAT?$AA$?$AA?$AA@ 300bef50     LIBCMT:initcon.obj
 0002:00025f60       ??_C@_0BK@CFCOFLF@?5Complete?5Object?5Locator?8?$AA@ 300bef60     LIBCMT:undname.obj
 0002:00025f7c       ??_C@_0BN@MECKDCOJ@?5Class?5Hierarchy?5Descriptor?8?$AA@ 300bef7c     LIBCMT:undname.obj
 0002:00025f9c       ??_C@_0BD@LGICGFMM@?5Base?5Class?5Array?8?$AA@ 300bef9c     LIBCMT:undname.obj
 0002:00025fb0       ??_C@_0BM@LDKODKLH@?5Base?5Class?5Descriptor?5at?5?$CI?$AA@ 300befb0     LIBCMT:undname.obj
 0002:00025fcc       ??_C@_0BC@DAFEJGAK@?5Type?5Descriptor?8?$AA@ 300befcc     LIBCMT:undname.obj
 0002:00025fe0       ??_C@_0BM@PMGGMLDN@?$GAlocal?5static?5thread?5guard?8?$AA@ 300befe0     LIBCMT:undname.obj
 0002:00025ffc       ??_C@_0CL@FGIJHLCE@?$GAmanaged?5vector?5copy?5constructor@ 300beffc     LIBCMT:undname.obj
 0002:00026028       ??_C@_0CJ@GJELGAMM@?$GAvector?5vbase?5copy?5constructor?5i@ 300bf028     LIBCMT:undname.obj
 0002:00026054       ??_C@_0CD@CGAJBKEJ@?$GAvector?5copy?5constructor?5iterato@ 300bf054     LIBCMT:undname.obj
 0002:00026078       ??_C@_0CB@PDBIFEP@?$GAdynamic?5atexit?5destructor?5for?5?8@ 300bf078     LIBCMT:undname.obj
 0002:0002609c       ??_C@_0BL@CLIPGLGB@?$GAdynamic?5initializer?5for?5?8?$AA@ 300bf09c     LIBCMT:undname.obj
 0002:000260b8       ??_C@_0CM@FCBBDIGB@?$GAeh?5vector?5vbase?5copy?5constructo@ 300bf0b8     LIBCMT:undname.obj
 0002:000260e4       ??_C@_0CG@HLDDJMAG@?$GAeh?5vector?5copy?5constructor?5iter@ 300bf0e4     LIBCMT:undname.obj
 0002:0002610c       ??_C@_0CF@IMGKMJNO@?$GAmanaged?5vector?5destructor?5itera@ 300bf10c     LIBCMT:undname.obj
 0002:00026134       ??_C@_0CG@CFDHKGGD@?$GAmanaged?5vector?5constructor?5iter@ 300bf134     LIBCMT:undname.obj
 0002:0002615c       ??_C@_0BN@CKNJLHMB@?$GAplacement?5delete?$FL?$FN?5closure?8?$AA@ 300bf15c     LIBCMT:undname.obj
 0002:0002617c       ??_C@_0BL@CNOONJFP@?$GAplacement?5delete?5closure?8?$AA@ 300bf17c     LIBCMT:undname.obj
 0002:00026198       ??_C@_0P@HJKNJFNN@?$GAomni?5callsig?8?$AA@ 300bf198     LIBCMT:undname.obj
 0002:000261a8       ??_C@_09LBNFPBCA@?5delete?$FL?$FN?$AA@ 300bf1a8     LIBCMT:undname.obj
 0002:000261b4       ??_C@_06FHBGPFGH@?5new?$FL?$FN?$AA@ 300bf1b4     LIBCMT:undname.obj
 0002:000261bc       ??_C@_0CE@IIHCMGGL@?$GAlocal?5vftable?5constructor?5closu@ 300bf1bc     LIBCMT:undname.obj
 0002:000261e0       ??_C@_0BA@KKLDJDLB@?$GAlocal?5vftable?8?$AA@ 300bf1e0     LIBCMT:undname.obj
 0002:000261f0       ??_C@_05KHLCHHI@?$GARTTI?$AA@ 300bf1f0     LIBCMT:undname.obj
 0002:000261f8       ??_C@_03KLGMFNMG@?$GAEH?$AA@ 300bf1f8     LIBCMT:undname.obj
 0002:000261fc       ??_C@_0BA@KBCDOMBN@?$GAudt?5returning?8?$AA@ 300bf1fc     LIBCMT:undname.obj
 0002:0002620c       ??_C@_0BL@LLKPOHJI@?$GAcopy?5constructor?5closure?8?$AA@ 300bf20c     LIBCMT:undname.obj
 0002:00026228       ??_C@_0CH@OOJPLCPH@?$GAeh?5vector?5vbase?5constructor?5ite@ 300bf228     LIBCMT:undname.obj
 0002:00026250       ??_C@_0CA@GCEOPDGL@?$GAeh?5vector?5destructor?5iterator?8?$AA@ 300bf250     LIBCMT:undname.obj
 0002:00026270       ??_C@_0CB@JONCMFFK@?$GAeh?5vector?5constructor?5iterator?8@ 300bf270     LIBCMT:undname.obj
 0002:00026294       ??_C@_0BL@NILFHHPC@?$GAvirtual?5displacement?5map?8?$AA@ 300bf294     LIBCMT:undname.obj
 0002:000262b0       ??_C@_0CE@IKBNEHA@?$GAvector?5vbase?5constructor?5iterat@ 300bf2b0     LIBCMT:undname.obj
 0002:000262d4       ??_C@_0BN@LFPFMEDL@?$GAvector?5destructor?5iterator?8?$AA@ 300bf2d4     LIBCMT:undname.obj
 0002:000262f4       ??_C@_0BO@PFGOCPJJ@?$GAvector?5constructor?5iterator?8?$AA@ 300bf2f4     LIBCMT:undname.obj
 0002:00026314       ??_C@_0BN@IMDCHIKM@?$GAscalar?5deleting?5destructor?8?$AA@ 300bf314     LIBCMT:undname.obj
 0002:00026334       ??_C@_0BO@OBMKPJIG@?$GAdefault?5constructor?5closure?8?$AA@ 300bf334     LIBCMT:undname.obj
 0002:00026354       ??_C@_0BN@DEGPLNFK@?$GAvector?5deleting?5destructor?8?$AA@ 300bf354     LIBCMT:undname.obj
 0002:00026374       ??_C@_0BD@JDLKDPAB@?$GAvbase?5destructor?8?$AA@ 300bf374     LIBCMT:undname.obj
 0002:00026388       ??_C@_08OBABFOLI@?$GAstring?8?$AA@ 300bf388     LIBCMT:undname.obj
 0002:00026394       ??_C@_0BF@KDPPACIK@?$GAlocal?5static?5guard?8?$AA@ 300bf394     LIBCMT:undname.obj
 0002:000263ac       ??_C@_08LLFFHHDJ@?$GAtypeof?8?$AA@ 300bf3ac     LIBCMT:undname.obj
 0002:000263b8       ??_C@_07FEEIOKP@?$GAvcall?8?$AA@ 300bf3b8     LIBCMT:undname.obj
 0002:000263c0       ??_C@_09BLBHBJP@?$GAvbtable?8?$AA@ 300bf3c0     LIBCMT:undname.obj
 0002:000263cc       ??_C@_09IFPLHPGF@?$GAvftable?8?$AA@ 300bf3cc     LIBCMT:undname.obj
 0002:000263d8       ??_C@_02MHEGNOJ@?$FO?$DN?$AA@ 300bf3d8     LIBCMT:undname.obj
 0002:000263dc       ??_C@_02DHLNPPGH@?$HM?$DN?$AA@ 300bf3dc     LIBCMT:undname.obj
 0002:000263e0       ??_C@_02FGJGFEAB@?$CG?$DN?$AA@ 300bf3e0     LIBCMT:undname.obj
 0002:000263e4       ??_C@_03CDNPDDLA@?$DM?$DM?$DN?$AA@ 300bf3e4     LIBCMT:undname.obj
 0002:000263e8       ??_C@_03IKFCCPFF@?$DO?$DO?$DN?$AA@ 300bf3e8     LIBCMT:undname.obj
 0002:000263ec       ??_C@_02FENAOKFI@?$CF?$DN?$AA@ 300bf3ec     LIBCMT:undname.obj
 0002:000263f0       ??_C@_02FJEHGPIO@?1?$DN?$AA@ 300bf3f0     LIBCMT:undname.obj
 0002:000263f4       ??_C@_02FKMDLLOA@?9?$DN?$AA@ 300bf3f4     LIBCMT:undname.obj
 0002:000263f8       ??_C@_02FOEOMHFC@?$CL?$DN?$AA@ 300bf3f8     LIBCMT:undname.obj
 0002:000263fc       ??_C@_02FPIMKNGF@?$CK?$DN?$AA@ 300bf3fc     LIBCMT:undname.obj
 0002:00026400       ??_C@_02NONPIBCD@?$HM?$HM?$AA@ 300bf400     LIBCMT:undname.obj
 0002:00026404       ??_C@_02PPKAJPJL@?$CG?$CG?$AA@ 300bf404     LIBCMT:undname.obj
 0002:00026408       ??_C@_01DNKMNLPK@?$HM?$AA@ 300bf408     LIBCMT:undname.obj
 0002:0002640c       ??_C@_01JKBOJNNK@?$FO?$AA@ 300bf40c     LIBCMT:undname.obj
 0002:00026410       ??_C@_01PJKLJHI@?$HO?$AA@  300bf410     LIBCMT:undname.obj
 0002:00026414       ??_C@_02HCKGKOFO@?$CI?$CJ?$AA@ 300bf414     LIBCMT:undname.obj
 0002:00026418       ??_C@_02EEKDKGMJ@?$DO?$DN?$AA@ 300bf418     LIBCMT:undname.obj
 0002:0002641c       ??_C@_01PPODPGHN@?$DO?$AA@ 300bf41c     LIBCMT:undname.obj
 0002:00026420       ??_C@_02EHCHHCKH@?$DM?$DN?$AA@ 300bf420     LIBCMT:undname.obj
 0002:00026424       ??_C@_01MNNFJEPP@?$DM?$AA@ 300bf424     LIBCMT:undname.obj
 0002:00026428       ??_C@_01FGNFDNOH@?$CF?$AA@ 300bf428     LIBCMT:undname.obj
 0002:0002642c       ??_C@_03MNHNFDLC@?9?$DO?$CK?$AA@ 300bf42c     LIBCMT:undname.obj
 0002:00026430       ??_C@_01HNPIGOCE@?$CG?$AA@ 300bf430     LIBCMT:undname.obj
 0002:00026434       ??_C@_01MIFGBAGJ@?$CL?$AA@ 300bf434     LIBCMT:undname.obj
 0002:00026438       ??_C@_02ECNGHCIF@?$CL?$CL?$AA@ 300bf438     LIBCMT:undname.obj
 0002:0002643c       ??_C@_01NBENCBCI@?$CK?$AA@ 300bf43c     LIBCMT:undname.obj
 0002:00026440       ??_C@_02HBOOOICD@?9?$DO?$AA@ 300bf440     LIBCMT:undname.obj
 0002:00026444       ??_C@_08LHJFAFGD@operator?$AA@ 300bf444     LIBCMT:undname.obj
 0002:00026450       ??_C@_02GPECMEKF@?$FL?$FN?$AA@ 300bf450     LIBCMT:undname.obj
 0002:00026454       ??_C@_02FDNJECIE@?$CB?$DN?$AA@ 300bf454     LIBCMT:undname.obj
 0002:00026458       ??_C@_02EGOFBIJA@?$DN?$DN?$AA@ 300bf458     LIBCMT:undname.obj
 0002:0002645c       ??_C@_02FODMEDOG@?$DM?$DM?$AA@ 300bf45c     LIBCMT:undname.obj
 0002:00026460       ??_C@_02GPIOPFAK@?$DO?$DO?$AA@ 300bf460     LIBCMT:undname.obj
 0002:00026464       ??_C@_07FPCDHGMM@?5delete?$AA@ 300bf464     LIBCMT:undname.obj
 0002:0002646c       ??_C@_04NIHEBCM@?5new?$AA@ 300bf46c     LIBCMT:undname.obj
 0002:00026474       ??_C@_0M@GFIIJFMG@__unaligned?$AA@ 300bf474     LIBCMT:undname.obj
 0002:00026480       ??_C@_0L@PILCLIHE@__restrict?$AA@ 300bf480     LIBCMT:undname.obj
 0002:0002648c       ??_C@_07JOMMBBKO@__ptr64?$AA@ 300bf48c     LIBCMT:undname.obj
 0002:00026494       ??_C@_06GHPCKEAG@__eabi?$AA@ 300bf494     LIBCMT:undname.obj
 0002:0002649c       ??_C@_09HIJEGCPM@__clrcall?$AA@ 300bf49c     LIBCMT:undname.obj
 0002:000264a8       ??_C@_0L@JMKHOMEK@__fastcall?$AA@ 300bf4a8     LIBCMT:undname.obj
 0002:000264b4       ??_C@_0L@NPHFGOKO@__thiscall?$AA@ 300bf4b4     LIBCMT:undname.obj
 0002:000264c0       ??_C@_09IFJBGAPI@__stdcall?$AA@ 300bf4c0     LIBCMT:undname.obj
 0002:000264cc       ??_C@_08GHMPAG@__pascal?$AA@ 300bf4cc     LIBCMT:undname.obj
 0002:000264d8       ??_C@_07KOLFKCDI@__cdecl?$AA@ 300bf4d8     LIBCMT:undname.obj
 0002:000264e0       ??_C@_08EHJDFFNH@__based?$CI?$AA@ 300bf4e0     LIBCMT:undname.obj
 0002:00026678       ?s_rbModRm@CDetourDis@@1QBEB 300bf678     detours:disasm.obj
 0002:00026778       ?s_rceCopyTable@CDetourDis@@1QBUCOPYENTRY@1@B 300bf778     detours:disasm.obj
 0002:00026f80       ?s_rceCopyTable0F@CDetourDis@@1QBUCOPYENTRY@1@B 300bff80     detours:disasm.obj
 0002:00027788       _DETOUR_EXE_RESTORE_GUID   300c0788     detours:modules.obj
 0002:00027798       ??_C@_01DCLJPIOD@?$CB?$AA@ 300c0798     detours:modules.obj
 0002:0002779c       ??_C@_07HBMFLGHI@?4detour?$AA@ 300c079c     detours:modules.obj
 0002:000277a8       __load_config_used         300c07a8     LIBCMT:loadcfg.obj
 0002:000277f0       ??_R4bad_alloc@std@@6B@    300c07f0     LIBCMT:new.obj
 0002:00027804       ??_R3bad_alloc@std@@8      300c0804     LIBCMT:new.obj
 0002:00027814       ??_R2bad_alloc@std@@8      300c0814     LIBCMT:new.obj
 0002:00027820       ??_R1A@?0A@EA@bad_alloc@std@@8 300c0820     LIBCMT:new.obj
 0002:0002783c       ??_R1A@?0A@EA@exception@std@@8 300c083c     LIBCMT:new.obj
 0002:00027858       ??_R3exception@std@@8      300c0858     LIBCMT:new.obj
 0002:00027868       ??_R2exception@std@@8      300c0868     LIBCMT:new.obj
 0002:00027870       ??_R4exception@std@@6B@    300c0870     LIBCMT:stdexcpt.obj
 0002:00027884       ??_R4type_info@@6B@        300c0884     LIBCMT:typinfo.obj
 0002:00027898       ??_R3type_info@@8          300c0898     LIBCMT:typinfo.obj
 0002:000278a8       ??_R2type_info@@8          300c08a8     LIBCMT:typinfo.obj
 0002:000278b0       ??_R1A@?0A@EA@type_info@@8 300c08b0     LIBCMT:typinfo.obj
 0002:000278d0       ___safe_se_handler_table   300c08d0     <linker-defined>
 0002:000278dc       ___rtc_iaa                 300c08dc     LIBCMT:_initsect_.obj
 0002:000278e0       ___rtc_izz                 300c08e0     LIBCMT:_initsect_.obj
 0002:000278e4       ___rtc_taa                 300c08e4     LIBCMT:_initsect_.obj
 0002:000278e8       ___rtc_tzz                 300c08e8     LIBCMT:_initsect_.obj
 0002:00027a34       __TI2?AVbad_alloc@std@@    300c0a34     LIBCMT:new.obj
 0002:00027a44       __CTA2?AVbad_alloc@std@@   300c0a44     LIBCMT:new.obj
 0002:00027a50       __CT??_R0?AVbad_alloc@std@@@8??0bad_alloc@std@@QAE@ABV01@@Z12 300c0a50     LIBCMT:new.obj
 0002:00027a6c       __CT??_R0?AVexception@std@@@8??0exception@std@@QAE@ABV01@@Z12 300c0a6c     LIBCMT:new.obj
 0002:00027e5c       __IMPORT_DESCRIPTOR_OPENGL32 300c0e5c     opengl32:OPENGL32.dll
 0002:00027e70       __IMPORT_DESCRIPTOR_KERNEL32 300c0e70     kernel32:KERNEL32.dll
 0002:00027e84       __NULL_IMPORT_DESCRIPTOR   300c0e84     opengl32:OPENGL32.dll
 0003:00000000       _bgToggleableSurfaces      300c2000     bg_misc.obj
 0003:0000007c       _bg_numItems               300c207c     bg_misc.obj
 0003:00000080       _bg_customSiegeSoundNames  300c2080     bg_misc.obj
 0003:000000f8       _forceMasteryLevels        300c20f8     bg_misc.obj
 0003:00000118       _forceMasteryPoints        300c2118     bg_misc.obj
 0003:00000138       _bgForcePowerCost          300c2138     bg_misc.obj
 0003:00000258       _forcePowerSorted          300c2258     bg_misc.obj
 0003:000002a0       _forcePowerDarkLight       300c22a0     bg_misc.obj
 0003:000002e8       _WeaponReadyAnim           300c22e8     bg_misc.obj
 0003:00000338       _WeaponReadyLegsAnim       300c2338     bg_misc.obj
 0003:00000388       _WeaponAttackAnim          300c2388     bg_misc.obj
 0003:000003d8       _bg_itemlist               300c23d8     bg_misc.obj
 0003:00000f38       _eventnames                300c2f38     bg_misc.obj
 0003:00001108       _animTable                 300c3108     bg_panimate.obj
 0003:00004148       _bgNumAllAnims             300c6148     bg_panimate.obj
 0003:0000414c       _bgNumAnimEvents           300c614c     bg_panimate.obj
 0003:00004150       _animEventTypeTable        300c6150     bg_panimate.obj
 0003:00004ab8       _footstepTypeTable         300c6ab8     bg_panimate.obj
 0003:00004ae0       _pm_stopspeed              300c6ae0     bg_pmove.obj
 0003:00004ae4       _pm_duckScale              300c6ae4     bg_pmove.obj
 0003:00004ae8       _pm_swimScale              300c6ae8     bg_pmove.obj
 0003:00004aec       _pm_wadeScale              300c6aec     bg_pmove.obj
 0003:00004af0       _pm_vehicleaccelerate      300c6af0     bg_pmove.obj
 0003:00004af4       _pm_accelerate             300c6af4     bg_pmove.obj
 0003:00004af8       _pm_airaccelerate          300c6af8     bg_pmove.obj
 0003:00004afc       _pm_wateraccelerate        300c6afc     bg_pmove.obj
 0003:00004b00       _pm_flyaccelerate          300c6b00     bg_pmove.obj
 0003:00004b04       _pm_friction               300c6b04     bg_pmove.obj
 0003:00004b08       _pm_waterfriction          300c6b08     bg_pmove.obj
 0003:00004b0c       _pm_flightfriction         300c6b0c     bg_pmove.obj
 0003:00004b10       _pm_spectatorfriction      300c6b10     bg_pmove.obj
 0003:00004b14       _forceSpeedLevels          300c6b14     bg_pmove.obj
 0003:00004b30       _forcePowerNeeded          300c6b30     bg_pmove.obj
 0003:00004c50       _forceJumpHeight           300c6c50     bg_pmove.obj
 0003:00004c60       _forceJumpStrength         300c6c60     bg_pmove.obj
 0003:00004c70       _forceJumpHeightMax        300c6c70     bg_pmove.obj
 0003:00004cb0       _saberMoveData             300c6cb0     bg_saber.obj
 0003:00006600       _transitionMove            300c8600     bg_saber.obj
 0003:00006700       _saberMoveTransitionAngle  300c8700     bg_saber.obj
 0003:00006800       _bg_parryDebounce          300c8800     bg_saber.obj
 0003:00006810       _SaberTable                300c8810     bg_saberLoad.obj
 0003:00006878       _SaberMoveTable            300c8878     bg_saberLoad.obj
 0003:00006a58       _bgSiegeClassFlagNames     300c8a58     bg_saga.obj
 0003:00006aa0       _StanceTable               300c8aa0     bg_saga.obj
 0003:00006ae8       _WPTable                   300c8ae8     bg_saga.obj
 0003:00006b98       _FPTable                   300c8b98     bg_saga.obj
 0003:00006c30       _HoldableTable             300c8c30     bg_saga.obj
 0003:00006c98       _PowerupTable              300c8c98     bg_saga.obj
 0003:00006d20       _classTitles               300c8d20     bg_saga.obj
 0003:00006d38       _numVehicleWeapons         300c8d38     bg_vehicleLoad.obj
 0003:00006d40       _vehWeaponFields           300c8d40     bg_vehicleLoad.obj
 0003:00006e70       _vehicleFields             300c8e70     bg_vehicleLoad.obj
 0003:000076a4       _VehicleTable              300c96a4     bg_vehicleLoad.obj
 0003:000076e0       _WP_MuzzlePoint            300c96e0     bg_weapons.obj
 0003:000077c8       _weaponData                300c97c8     bg_weapons.obj
 0003:00007bf0       _ammoData                  300c9bf0     bg_weapons.obj
 0003:00007c18       _showCam                   300c9c18     cg_consolecmds.obj
 0003:00007c20       _my_mode                   300c9c20     cg_consolecmds.obj
 0003:00007de8       _bluehudtint               300c9de8     cg_draw.obj
 0003:00007df8       _redhudtint                300c9df8     cg_draw.obj
 0003:00007e08       _armorTicName              300c9e08     cg_draw.obj
 0003:00007e18       _healthTicName             300c9e18     cg_draw.obj
 0003:00007e28       _forceTicName              300c9e28     cg_draw.obj
 0003:00007e38       _ammoTicName               300c9e38     cg_draw.obj
 0003:00007e48       _showPowersName            300c9e48     cg_draw.obj
 0003:00007e98       _cg_targVeh                300c9e98     cg_draw.obj
 0003:00007e9c       _vehDamageData             300c9e9c     cg_draw.obj
 0003:00007ebc       _cg_radarRange             300c9ebc     cg_draw.obj
 0003:00007ec8       _forceHolocronModels       300c9ec8     cg_ents.obj
 0003:00007f10       _hitLocName                300c9f10     cg_ents.obj
 0003:00007f6c       _CG_BMS_MID                300c9f6c     cg_ents.obj
 0003:00007f70       _CG_BMS_END                300c9f70     cg_ents.obj
 0003:00007f78       _cg_stringEdVoiceChatTable 300c9f78     cg_event.obj
 0003:00007ff0       _colorTable                300c9ff0     cg_main.obj
 0003:00008420       _HolocronIcons             300ca420     cg_main.obj
 0003:00008468       _forceModelModificationCount 300ca468     cg_main.obj
 0003:0000846c       _friendModelModificationCount 300ca46c     cg_main.obj
 0003:00008470       _enemyModelModificationCount 300ca470     cg_main.obj
 0003:00008f74       _trueglFrustum             300caf74     cg_main.obj
 0003:00008f78       _cg_spawnFields            300caf78     cg_main.obj
 0003:00009058       _trueglMatrixMode          300cb058     cg_main.obj
 0003:0000905c       _trueglLoadMatrixf         300cb05c     cg_main.obj
 0003:000091e0       _cl_numparticles           300cb1e0     cg_marks.obj
 0003:000091f0       _cg_customSoundNames       300cb1f0     cg_players.obj
 0003:00009290       _cg_customCombatSoundNames 300cb290     cg_players.obj
 0003:00009330       _cg_customExtraSoundNames  300cb330     cg_players.obj
 0003:000093d0       _cg_customJediSoundNames   300cb3d0     cg_players.obj
 0003:00009470       _cg_customDuelSoundNames   300cb470     cg_players.obj
 0003:00009578       _cg_autoMapZoom            300cb578     cg_view.obj
 0003:0000957c       _cg_autoMapAngle           300cb57c     cg_view.obj
 0003:000095d0       _axisDefault               300cb5d0     q_math.obj
 0003:000095f4       _colorBlack                300cb5f4     q_math.obj
 0003:00009604       _colorRed                  300cb604     q_math.obj
 0003:00009614       _colorGreen                300cb614     q_math.obj
 0003:00009624       _colorBlue                 300cb624     q_math.obj
 0003:00009634       _colorYellow               300cb634     q_math.obj
 0003:00009644       _colorMagenta              300cb644     q_math.obj
 0003:00009654       _colorCyan                 300cb654     q_math.obj
 0003:00009664       _colorWhite                300cb664     q_math.obj
 0003:00009674       _colorLtGrey               300cb674     q_math.obj
 0003:00009684       _colorMdGrey               300cb684     q_math.obj
 0003:00009694       _colorDkGrey               300cb694     q_math.obj
 0003:000096a4       _colorLtBlue               300cb6a4     q_math.obj
 0003:000096b4       _colorDkBlue               300cb6b4     q_math.obj
 0003:000096c8       _g_color_table             300cb6c8     q_math.obj
 0003:00009748       _bytedirs                  300cb748     q_math.obj
 0003:00009ee0       _itemFlags                 300cbee0     ui_shared.obj
 0003:00009ef0       _styles                    300cbef0     ui_shared.obj
 0003:00009f0c       _alignment                 300cbf0c     ui_shared.obj
 0003:00009f20       _types                     300cbf20     ui_shared.obj
 0003:00009f64       _scriptCommandCount        300cbf64     ui_shared.obj
 0003:00009f68       _commandList               300cbf68     ui_shared.obj
 0003:0000a958       _itemParseKeywords         300cc958     ui_shared.obj
 0003:0000ad48       _menuParseKeywords         300ccd48     ui_shared.obj
 0003:0000af34       __fltused                  300ccf34     LIBCMT:_fpinit_.obj
 0003:0000af38       __ldused                   300ccf38     LIBCMT:_fpinit_.obj
 0003:0000af80       __half                     300ccf80     LIBCMT:_pow_.obj
 0003:0000afa0       ___security_cookie         300ccfa0     LIBCMT:gs_cookie.obj
 0003:0000afa4       ___security_cookie_complement 300ccfa4     LIBCMT:gs_cookie.obj
 0003:0000afa8       ___abort_behavior          300ccfa8     LIBCMT:abort.obj
 0003:0000afb0       __iob                      300ccfb0     LIBCMT:_file.obj
 0003:0000b230       ??_R0?AVbad_alloc@std@@@8  300cd230     LIBCMT:new.obj
 0003:0000b24c       ??_R0?AVexception@std@@@8  300cd24c     LIBCMT:new.obj
 0003:0000b268       __cfltcvt_tab              300cd268     LIBCMT:cmiscdat.obj
 0003:0000b290       ___initialmbcinfo          300cd290     LIBCMT:mbctype.obj
 0003:0000b4b0       __mbctype                  300cd4b0     LIBCMT:mbctype.obj
 0003:0000b5b8       __mbcasemap                300cd5b8     LIBCMT:mbctype.obj
 0003:0000b6b8       ___ptmbcinfo               300cd6b8     LIBCMT:mbctype.obj
 0003:0000b7b0       ___globallocalestatus      300cd7b0     LIBCMT:glstatus.obj
 0003:0000b7b4       ___clocalestr              300cd7b4     LIBCMT:nlsdata2.obj
 0003:0000b7b8       ___lc_time_c               300cd7b8     LIBCMT:nlsdata2.obj
 0003:0000b920       ___initiallocinfo          300cd920     LIBCMT:nlsdata2.obj
 0003:0000b9f8       ___ptlocinfo               300cd9f8     LIBCMT:nlsdata2.obj
 0003:0000b9fc       ___initiallocalestructinfo 300cd9fc     LIBCMT:nlsdata2.obj
 0003:0000ba04       ___flsindex                300cda04     LIBCMT:tidtable.obj
 0003:0000ba08       ___getvalueindex           300cda08     LIBCMT:tidtable.obj
 0003:0000bb90       ___nullstring              300cdb90     LIBCMT:output.obj
 0003:0000bb94       ___wnullstring             300cdb94     LIBCMT:output.obj
 0003:0000bba0       __lookuptrailbytes         300cdba0     LIBCMT:read.obj
 0003:0000bca0       ___badioinfo               300cdca0     LIBCMT:ioinit.obj
 0003:0000bce4       __lpdays                   300cdce4     LIBCMT:days.obj
 0003:0000bd18       __days                     300cdd18     LIBCMT:days.obj
 0003:0000bd50       __NLG_Destination          300cdd50     LIBCMT:exsup.obj
 0003:0000be80       ??_R0?AVtype_info@@@8      300cde80     LIBCMT:typinfo.obj
 0003:0000bea0       ___lconv_static_decimal    300cdea0     LIBCMT:lconv.obj
 0003:0000bea4       ___lconv_static_W_decimal  300cdea4     LIBCMT:lconv.obj
 0003:0000bea8       ___lconv_c                 300cdea8     LIBCMT:lconv.obj
 0003:0000bef8       ___lconv                   300cdef8     LIBCMT:lconv.obj
 0003:0000befc       __pctype                   300cdefc     LIBCMT:ctype.obj
 0003:0000bf00       __pwctype                  300cdf00     LIBCMT:ctype.obj
 0003:0000bf38       __pow10pos                 300cdf38     LIBCMT:_constpow_.obj
 0003:0000c098       __pow10neg                 300ce098     LIBCMT:_constpow_.obj
 0003:0000c200       __matherr_flag             300ce200     LIBCMT:_matherr_.obj
 0003:0000c2f0       __d_inf                    300ce2f0     LIBCMT:_util_.obj
 0003:0000c2f8       __d_ind                    300ce2f8     LIBCMT:_util_.obj
 0003:0000c300       __d_max                    300ce300     LIBCMT:_util_.obj
 0003:0000c308       __d_min                    300ce308     LIBCMT:_util_.obj
 0003:0000c310       __d_mzero                  300ce310     LIBCMT:_util_.obj
 0003:0000c340       ___mb_cur_max              300ce340     LIBCMT:nlsdata1.obj
 0003:0000c344       ___decimal_point           300ce344     LIBCMT:nlsdata1.obj
 0003:0000c348       ___decimal_point_length    300ce348     LIBCMT:nlsdata1.obj
 0003:0000c350       __confh                    300ce350     LIBCMT:initcon.obj
 0003:00200374       _BGPAFtextLoaded           302c2374     bg_panimate.obj
 0003:00200438       _pm_entSelf                302c2438     bg_pmove.obj
 0003:0020043c       _pm_entVeh                 302c243c     bg_pmove.obj
 0003:00200440       _gPMDoSlowFall             302c2440     bg_pmove.obj
 0003:00200444       _pm_cancelOutZoom          302c2444     bg_pmove.obj
 0003:00200448       _c_pmove                   302c2448     bg_pmove.obj
 0003:00300470       _siege_valid               303c2470     bg_saga.obj
 0003:00300474       _team1Theme                303c2474     bg_saga.obj
 0003:00300478       _team2Theme                303c2478     bg_saga.obj
 0003:0030047c       _bgNumSiegeClasses         303c247c     bg_saga.obj
 0003:00300480       _bgNumSiegeTeams           303c2480     bg_saga.obj
 0003:0030048c       _numVehicles               303c248c     bg_vehicleLoad.obj
 0003:0033bed8       _gotime                    303fded8     cg_consolecmds.obj
 0003:0033bedc       _curCam                    303fdedc     cg_consolecmds.obj
 0003:0033bee0       _numRows                   303fdee0     cg_consolecmds.obj
 0003:0033bee4       _numCols                   303fdee4     cg_consolecmds.obj
 0003:0033bee8       _ghostFile                 303fdee8     cg_consolecmds.obj
 0003:0033beec       _ghostMode                 303fdeec     cg_consolecmds.obj
 0003:0033bef8       _my_zFar                   303fdef8     cg_consolecmds.obj
 0003:0033befc       _my_zNear                  303fdefc     cg_consolecmds.obj
 0003:0033bf68       _menuScoreboard            303fdf68     cg_draw.obj
 0003:0033bf6c       _cg_siegeDeathTime         303fdf6c     cg_draw.obj
 0003:0033bf70       _cg_targVehLastTime        303fdf70     cg_draw.obj
 0003:0033bf74       _cg_vehicleAmmoWarning     303fdf74     cg_draw.obj
 0003:0033bf78       _cg_vehicleAmmoWarningTime 303fdf78     cg_draw.obj
 0003:0033bf7c       _cg_drawLink               303fdf7c     cg_draw.obj
 0003:0033bf98       _cg_genericTimerBar        303fdf98     cg_draw.obj
 0003:0033bf9c       _cg_genericTimerDur        303fdf9c     cg_draw.obj
 0003:0033bfa0       _cg_crosshairPrevPosX      303fdfa0     cg_draw.obj
 0003:0033bfa4       _cg_crosshairPrevPosY      303fdfa4     cg_draw.obj
 0003:0033bfa8       _cg_crosshairPos           303fdfa8     cg_draw.obj
 0003:0033bfb4       _cg_saberFlashTime         303fdfb4     cg_draw.obj
 0003:0033bfb8       _cg_saberFlashPos          303fdfb8     cg_draw.obj
 0003:0033bfc8       _cgRageTime                303fdfc8     cg_draw.obj
 0003:0033bfcc       _cgRageFadeTime            303fdfcc     cg_draw.obj
 0003:0033bfd0       _cgRageFadeVal             303fdfd0     cg_draw.obj
 0003:0033bfd4       _cgRageRecTime             303fdfd4     cg_draw.obj
 0003:0033bfd8       _cgRageRecFadeTime         303fdfd8     cg_draw.obj
 0003:0033bfdc       _cgRageRecFadeVal          303fdfdc     cg_draw.obj
 0003:0033bfe0       _cgAbsorbTime              303fdfe0     cg_draw.obj
 0003:0033bfe4       _cgAbsorbFadeTime          303fdfe4     cg_draw.obj
 0003:0033bfe8       _cgAbsorbFadeVal           303fdfe8     cg_draw.obj
 0003:0033bfec       _cgProtectTime             303fdfec     cg_draw.obj
 0003:0033bff0       _cgProtectFadeTime         303fdff0     cg_draw.obj
 0003:0033bff4       _cgProtectFadeVal          303fdff4     cg_draw.obj
 0003:0033bff8       _cgYsalTime                303fdff8     cg_draw.obj
 0003:0033bffc       _cgYsalFadeTime            303fdffc     cg_draw.obj
 0003:0033c000       _cgYsalFadeVal             303fe000     cg_draw.obj
 0003:0033c004       _gCGHasFallVector          303fe004     cg_draw.obj
 0003:0033c008       _cg_beatingSiegeTime       303fe008     cg_draw.obj
 0003:0033c00c       _cgSiegeRoundBeganTime     303fe00c     cg_draw.obj
 0003:0033c010       _cgSiegeRoundCountTime     303fe010     cg_draw.obj
 0003:0033c014       _cgSiegeEntityRender       303fe014     cg_draw.obj
 0003:003b40e0       _CG_BMS_START              304760e0     cg_ents.obj
 0003:004a1ed8       _cgWeatherOverride         30563ed8     cg_main.obj
 0003:004a1ee0       _doFX                      30563ee0     cg_main.obj
 0003:004a1ee4       _cg_numpermanents          30563ee4     cg_main.obj
 0003:004a26f0       _cg_noFogOutsidePortal     305646f0     cg_main.obj
 0003:004a26f4       _cg_skyOri                 305646f4     cg_main.obj
 0003:004a26f8       _cg_skyOriScale            305646f8     cg_main.obj
 0003:004a4b10       _initparticles             30566b10     cg_marks.obj
 0003:004a4b20       _cgQueueLoad               30566b20     cg_players.obj
 0003:004a4b24       _cg_g2JetpackInstance      30566b24     cg_players.obj
 0003:004a5b28       _cg_lastHyperSpaceEffectTime 30567b28     cg_players.obj
 0003:004a5b34       _cgAnnouncerTime           30567b34     cg_playerstate.obj
 0003:004a6474       _cg_vehPmoveSet            30568474     cg_predict.obj
 0003:004ac880       _cgSiegeRoundState         3056e880     cg_saga.obj
 0003:004ac884       _cgSiegeRoundTime          3056e884     cg_saga.obj
 0003:004ac888       _team1Timed                3056e888     cg_saga.obj
 0003:004ac88c       _team2Timed                3056e88c     cg_saga.obj
 0003:004ac890       _cgSiegeTeam1PlShader      3056e890     cg_saga.obj
 0003:004ac894       _cgSiegeTeam2PlShader      3056e894     cg_saga.obj
 0003:004ac8a4       _cg_siegeWinTeam           3056e8a4     cg_scoreboard.obj
 0003:004ac8b0       _initted                   3056e8b0     cg_syscalls.obj
 0003:004ac8f8       _cameraCurTarget           3056e8f8     cg_view.obj
 0003:004ac904       _cameraCurLoc              3056e904     cg_view.obj
 0003:004ac910       _cameraOldLoc              3056e910     cg_view.obj
 0003:004ac91c       _cameraNewLoc              3056e91c     cg_view.obj
 0003:004ac928       _cameraLastFrame           3056e928     cg_view.obj
 0003:004ac92c       _cameraLastYaw             3056e92c     cg_view.obj
 0003:004ac930       _cameraStiffFactor         3056e930     cg_view.obj
 0003:004ac938       _cg_actionCamLastTime      3056e938     cg_view.obj
 0003:004ac93c       _cg_lastTurretViewAngles   3056e93c     cg_view.obj
 0003:004ac948       _cg_autoMapZoomMainOffset  3056e948     cg_view.obj
 0003:004ac94c       _cg_autoMapInputTime       3056e94c     cg_view.obj
 0003:004ac954       _cg_linearFogOverride      3056e954     cg_view.obj
 0003:004ac958       _camPreviewTime            3056e958     cg_view.obj
 0003:004aca48       _vec3_origin               3056ea48     q_math.obj
 0003:00506cac       _DC                        305c8cac     ui_shared.obj
 0003:00506cc0       _menuCount                 305c8cc0     ui_shared.obj
 0003:00506cc4       _openMenuCount             305c8cc4     ui_shared.obj
 0003:00506cd8       _FPMessageTime             305c8cd8     ui_shared.obj
 0003:00506cdc       _ui_deferredScriptItem     305c8cdc     ui_shared.obj
 0003:00506ce4       _ui_G2PtrTracker           305c8ce4     ui_shared.obj
 0003:00506ce8       ___fastflag                305c8ce8     LIBCMT:_fpinit_.obj
 0003:00506cf0       __aenvptr                  305c8cf0     LIBCMT:dllcrt0.obj
 0003:00506cf4       __wenvptr                  305c8cf4     LIBCMT:dllcrt0.obj
 0003:00506cf8       ___error_mode              305c8cf8     LIBCMT:dllcrt0.obj
 0003:00506cfc       ___app_type                305c8cfc     LIBCMT:dllcrt0.obj
 0003:00506d00       __cflush                   305c8d00     LIBCMT:_file.obj
 0003:00506d18       ___mbulinfo                305c8d18     LIBCMT:mbctype.obj
 0003:00506d24       ___mbcodepage              305c8d24     LIBCMT:mbctype.obj
 0003:00506d28       ___ismbcodepage            305c8d28     LIBCMT:mbctype.obj
 0003:00506d2c       ___mblcid                  305c8d2c     LIBCMT:mbctype.obj
 0003:00506d30       _gpFlsAlloc                305c8d30     LIBCMT:tidtable.obj
 0003:00506d34       _gpFlsGetValue             305c8d34     LIBCMT:tidtable.obj
 0003:00506d38       _gpFlsSetValue             305c8d38     LIBCMT:tidtable.obj
 0003:00506d3c       _gpFlsFree                 305c8d3c     LIBCMT:tidtable.obj
 0003:00506d40       ___pInvalidArgHandler      305c8d40     LIBCMT:invarg.obj
 0003:00506d48       ___locale_changed          305c8d48     LIBCMT:setlocal.obj
 0003:00506d4c       __maxwait                  305c8d4c     LIBCMT:crtheap.obj
 0003:00506d50       __umaskval                 305c8d50     LIBCMT:crt0dat.obj
 0003:00506d54       ___argc                    305c8d54     LIBCMT:crt0dat.obj
 0003:00506d58       ___argv                    305c8d58     LIBCMT:crt0dat.obj
 0003:00506d5c       ___wargv                   305c8d5c     LIBCMT:crt0dat.obj
 0003:00506d60       __environ                  305c8d60     LIBCMT:crt0dat.obj
 0003:00506d64       ___initenv                 305c8d64     LIBCMT:crt0dat.obj
 0003:00506d68       __wenviron                 305c8d68     LIBCMT:crt0dat.obj
 0003:00506d6c       ___winitenv                305c8d6c     LIBCMT:crt0dat.obj
 0003:00506d70       __pgmptr                   305c8d70     LIBCMT:crt0dat.obj
 0003:00506d74       __wpgmptr                  305c8d74     LIBCMT:crt0dat.obj
 0003:00506d78       __exitflag                 305c8d78     LIBCMT:crt0dat.obj
 0003:00506d7c       __C_Termination_Done       305c8d7c     LIBCMT:crt0dat.obj
 0003:00506d80       __C_Exit_Done              305c8d80     LIBCMT:crt0dat.obj
 0003:00506e90       __crtheap                  305c8e90     LIBCMT:heapinit.obj
 0003:00507320       __stdbuf                   305c9320     LIBCMT:_sftbuf.obj
 0003:00507950       ?_pnhHeap@@3P6AHI@ZA       305c9950     LIBCMT:handler.obj
 0003:00507954       __newmode                  305c9954     LIBCMT:_newmode.obj
 0003:00507958       __outputformat             305c9958     LIBCMT:outputformat.obj
 0003:0050795c       ___lconv_static_null       305c995c     LIBCMT:lconv.obj
 0003:00507960       ___lconv_static_W_null     305c9960     LIBCMT:lconv.obj
 0003:00507964       __commode                  305c9964     LIBCMT:ncommode.obj
 0003:0050796c       ?__pInconsistency@@3P6AXXZA 305c996c     LIBCMT:hooks.obj
 0003:00507974       ___pPurecall               305c9974     LIBCMT:inithelp.obj
 0003:005079a8       ?pArgList@UnDecorator@@0PAVReplicator@@A 305c99a8     LIBCMT:undname.obj
 0003:005079ac       ?pZNameList@UnDecorator@@0PAVReplicator@@A 305c99ac     LIBCMT:undname.obj
 0003:005079b0       ?pTemplateArgList@UnDecorator@@0PAVReplicator@@A 305c99b0     LIBCMT:undname.obj
 0003:005079b4       ?gName@UnDecorator@@0PBDB  305c99b4     LIBCMT:undname.obj
 0003:005079b8       ?name@UnDecorator@@0PBDB   305c99b8     LIBCMT:undname.obj
 0003:005079bc       ?outputString@UnDecorator@@0PADA 305c99bc     LIBCMT:undname.obj
 0003:005079c0       ?maxStringLength@UnDecorator@@0HA 305c99c0     LIBCMT:undname.obj
 0003:005079c4       ?disableFlags@UnDecorator@@0KA 305c99c4     LIBCMT:undname.obj
 0003:005079c8       ?m_pGetParameter@UnDecorator@@0P6APADJ@ZA 305c99c8     LIBCMT:undname.obj
 0003:005079cc       ?fExplicitTemplateParams@UnDecorator@@0_NA 305c99cc     LIBCMT:undname.obj
 0003:005079cd       ?fGetTemplateArgumentList@UnDecorator@@0_NA 305c99cd     LIBCMT:undname.obj
 0003:005079d0       __fmode                    305c99d0     LIBCMT:txtmode.obj
 0003:00507a00       _itemParseKeywordHash      305c9a00     <common>
 0003:00508200       _Menus                     305ca200     <common>
 0003:0051cf00       _menuParseKeywordHash      305def00     <common>
 0003:0051d700       _menuStack                 305df700     <common>
 0003:0051d740       _ui_deferredScript         305df740     <common>
 0003:0051df40       _cgScreenEffects           305dff40     <common>
 0003:0051df60       _cameraIdealLoc            305dff60     <common>
 0003:0051df70       _cg_actionCamLastPos       305dff70     <common>
 0003:0051df80       _cameraIdealTarget         305dff80     <common>
 0003:0051df90       _cameraFocusAngles         305dff90     <common>
 0003:0051dfa0       _cameraFocusLoc            305dffa0     <common>
 0003:0051dfb0       _cameraup                  305dffb0     <common>
 0003:0051dfbc       _zoomFov                   305dffbc     <common>
 0003:0051dfc0       _cg_autoMapInput           305dffc0     <common>
 0003:0051dfe0       _camerafwd                 305dffe0     <common>
 0003:0051e000       _fxCount                   305e0000     <common>
 0003:0051e180       _cg_siegeExtendedData      305e0180     <common>
 0003:0051e400       _cgSendPS                  305e0400     <common>
 0003:0051f400       _cg_vehPmove               305e1400     <common>
 0003:0051f540       _cgSendPSPool              305e1540     <common>
 0003:006a3540       _cg_freeMarkPolys          30765540     <common>
 0003:006a3544       _active_particles          30765544     <common>
 0003:006a3560       _cg_markPolys              30765560     <common>
 0003:006b5560       _oldtime                   30777560     <common>
 0003:006b5570       _rup                       30777570     <common>
 0003:006b5580       _particles                 30777580     <common>
 0003:006d4580       _rright                    30796580     <common>
 0003:006d458c       _free_particles            3079658c     <common>
 0003:006d4590       _rforward                  30796590     <common>
 0003:006d45a0       _pvright                   307965a0     <common>
 0003:006d45b0       _pvforward                 307965b0     <common>
 0003:006d45c0       _cg_activeMarkPolys        307965c0     <common>
 0003:006d46e0       _pvup                      307966e0     <common>
 0003:006d4700       _cg_saberContact           30796700     <common>
 0003:006d4820       _cg_dynamicCrosshairPrecision 30796820     <common>
 0003:006d4940       _mme_skykey                30796940     <common>
 0003:006d4a60       _mme_tgaCompression        30796a60     <common>
 0003:006d4b80       _cg_weapons                30796b80     <common>
 0003:006d5b40       _cg_timescaleFadeEnd       30797b40     <common>
 0003:006d5c60       _cg_drawTeamOverlay        30797c60     <common>
 0003:006d5d80       _cg_gun_y                  30797d80     <common>
 0003:006d5ea0       _cg_noTaunt                30797ea0     <common>
 0003:006d5fc0       _cg_drawSvFPS              30797fc0     <common>
 0003:006d60e0       _cg_noChatSound            307980e0     <common>
 0003:006d6200       _cg_animSpeed              30798200     <common>
 0003:006d6320       _cgDC                      30798320     <common>
 0003:006d65a0       _cg_thirdPersonTargetDamp  307985a0     <common>
 0003:006d66c0       _cg_stats                  307986c0     <common>
 0003:006d67e0       _mme_depthRange            307987e0     <common>
 0003:006d6900       _cg_optvehtrace            30798900     <common>
 0003:006d6a20       _cg_drawRewards            30798a20     <common>
 0003:006d6b40       _cg_auraShell              30798b40     <common>
 0003:006d6c60       _cg_scorePlum              30798c60     <common>
 0003:006d6d80       _cg_oldPainSounds          30798d80     <common>
 0003:006d6ea0       _cgs                       30798ea0     <common>
 0003:0070ede0       _mme_pngCompression        307d0de0     <common>
 0003:0070ef00       _cg_jumpSounds             307d0f00     <common>
 0003:0070f020       _cg_drawFPS                307d1020     <common>
 0003:0070f140       _debug_cvar                307d1140     <common>
 0003:0070f260       _cg_thirdPerson            307d1260     <common>
 0003:0070f380       _cg_debugBB                307d1380     <common>
 0003:0070f4a0       _cg_currentSelectedPlayer  307d14a0     <common>
 0003:0070f5c0       _cg_zoomFov                307d15c0     <common>
 0003:0070f6e0       _cg_fixRocket              307d16e0     <common>
 0003:0070f800       _cg_drawCrosshair          307d1800     <common>
 0003:0070f920       _mme_aviFormat             307d1920     <common>
 0003:0070fa40       _cg_saberDynamicMarks      307d1a40     <common>
 0003:0070fb60       _mme_screenShotGamma       307d1b60     <common>
 0003:0070fc80       _cg_cameraOrbitDelay       307d1c80     <common>
 0003:0070fda0       _cg_shadows                307d1da0     <common>
 0003:0070fec0       _mme_jpegDownsampleChroma  307d1ec0     <common>
 0003:0070ffe0       _cg_thirdPersonVertOffset  307d1fe0     <common>
 0003:00710100       _cg_debugAnim              307d2100     <common>
 0003:00710220       _cg_timescale              307d2220     <common>
 0003:00710340       _cam_autosound             307d2340     <common>
 0003:00710460       _cg_addMarks               307d2460     <common>
 0003:00710580       _cg_gun_z                  307d2580     <common>
 0003:007106a0       _pmove_msec                307d26a0     <common>
 0003:007107c0       _cg_autoswitch             307d27c0     <common>
 0003:007108e0       _cg_recordSPDemoName       307d28e0     <common>
 0003:00710a00       _cg_thirdPersonSpecialCam  307d2a00     <common>
 0003:00710b20       _bg_fighterAltControl      307d2b20     <common>
 0003:00710c40       _cg_drawStatus             307d2c40     <common>
 0003:00710d60       _mme_renderWidth           307d2d60     <common>
 0003:00710e80       _pug_demos_UnlockThirdpersonPitch 307d2e80     <common>
 0003:00710fa0       _cg_drawSnapshot           307d2fa0     <common>
 0003:007110b0       _fxT                       307d30b0     <common>
 0003:007110c0       _cg_gun_frame              307d30c0     <common>
 0003:007111e0       _pug_demos_cameraMode      307d31e0     <common>
 0003:00711300       _cg_drawEnemyInfo          307d3300     <common>
 0003:00711420       _cg_runpitch               307d3420     <common>
 0003:00711540       _cg_ghoul2Marks            307d3540     <common>
 0003:00711660       _cg_drawTimer              307d3660     <common>
 0003:00711780       _cg_drawSpeed              307d3780     <common>
 0003:007118a0       _cg_autoMapX               307d38a0     <common>
 0003:007119c0       _cg_drawFriend             307d39c0     <common>
 0003:00711ae0       _cg_enemyModel             307d3ae0     <common>
 0003:00711c00       _cg_debugSaber             307d3c00     <common>
 0003:00711d20       _mme_blurGamma             307d3d20     <common>
 0003:00711e40       _mme_renderHeight          307d3e40     <common>
 0003:00711f60       _cg_duelHeadAngles         307d3f60     <common>
 0003:00712080       _mme_screenshotName        307d4080     <common>
 0003:007121a0       _cg_g2TraceLod             307d41a0     <common>
 0003:007122c0       _cg_draw2D                 307d42c0     <common>
 0003:007123e0       _ui_fragsOnly              307d43e0     <common>
 0003:00712500       _cg_drawScores             307d4500     <common>
 0003:00712620       _cg_gun_x                  307d4620     <common>
 0003:00712740       _cam_autorecord            307d4740     <common>
 0003:00712860       _cg_autoMapW               307d4860     <common>
 0003:00712980       _pug_demos_Timescalelesscams 307d4980     <common>
 0003:00712aa0       _mme_workMegs              307d4aa0     <common>
 0003:00712bc0       _cg_forceTeamModel         307d4bc0     <common>
 0003:00712ce0       _cg_drawAmmoWarning        307d4ce0     <common>
 0003:00712e00       _cg_debugPosition          307d4e00     <common>
 0003:00712f20       _cg_animBlend              307d4f20     <common>
 0003:00713040       _cg_cameraMode             307d5040     <common>
 0003:00713160       _cg_permanents             307d5160     <common>
 0003:00714160       _cg_friendModel            307d6160     <common>
 0003:00714280       _cg_drawGun                307d6280     <common>
 0003:007143a0       _cg_recordSPDemo           307d63a0     <common>
 0003:007144c0       _cg_blendScreenshots       307d64c0     <common>
 0003:007145e0       _pug_demos_HideLocalEntities 307d65e0     <common>
 0003:00714700       _cg_centertime             307d6700     <common>
 0003:00714820       _cg_forceModel             307d6820     <common>
 0003:00714940       _cg_ragDoll                307d6940     <common>
 0003:00714a60       _cg_items                  307d6a60     <common>
 0003:00718260       _cg_speedTrail             307da260     <common>
 0003:00718380       _cg_crosshairHealth        307da380     <common>
 0003:007184a0       _cg_noProjectileTrail      307da4a0     <common>
 0003:007185c0       _cg_renderToTextureFX      307da5c0     <common>
 0003:007186e0       _cg_crosshairY             307da6e0     <common>
 0003:00718800       _cg_dynamicCrosshair       307da800     <common>
 0003:00718920       _cg_draw3dIcons            307da920     <common>
 0003:00718a30       _cg_skyOriPos              307daa30     <common>
 0003:00718a40       _cg_simpleItems            307daa40     <common>
 0003:00718b60       _cg_hudFiles               307dab60     <common>
 0003:00718c80       _ui_myteam                 307dac80     <common>
 0003:00718da0       _mme_screenShotFormat      307dada0     <common>
 0003:00718ec0       _mme_blurType              307daec0     <common>
 0003:00718fe0       _cg_repeaterOrb            307dafe0     <common>
 0003:00719100       _cg_thirdPersonRange       307db100     <common>
 0003:00719220       _cg_showVehBounds          307db220     <common>
 0003:00719340       _cg_thirdPersonHorzOffset  307db340     <common>
 0003:00719460       _cg_debugEvents            307db460     <common>
 0003:00719580       _cg_stereoSeparation       307db580     <common>
 0003:007196a0       _cg_smoothClients          307db6a0     <common>
 0003:007197c0       _cg_bobroll                307db7c0     <common>
 0003:007198e0       _cg_saberModelTraceEffect  307db8e0     <common>
 0003:00719a00       _cg_ignore                 307dba00     <common>
 0003:00719b20       _cg_snapshotTimeout        307dbb20     <common>
 0003:00719c40       _mme_blurFrames            307dbc40     <common>
 0003:00719d60       _mme_saveDepth             307dbd60     <common>
 0003:00719e80       _mme_saveStencil           307dbe80     <common>
 0003:00719fa0       _cg_drawCrosshairNames     307dbfa0     <common>
 0003:0071a0c0       _cg_thirdPersonAlpha       307dc0c0     <common>
 0003:0071a1e0       _cg_crosshairX             307dc1e0     <common>
 0003:0071a300       _cg_footsteps              307dc300     <common>
 0003:0071a420       _cg_drawRadar              307dc420     <common>
 0003:0071a540       _cg_saberTrail             307dc540     <common>
 0003:0071a660       _cg_chatBox                307dc660     <common>
 0003:0071a780       _cg_nopredict              307dc780     <common>
 0003:0071a8a0       _mme_jpegOptimizeHuffman   307dc8a0     <common>
 0003:0071a9c0       _pug_demos_autoChaseCam    307dc9c0     <common>
 0003:0071aae0       _cg_buildScript            307dcae0     <common>
 0003:0071ac00       _cg_autoMap                307dcc00     <common>
 0003:0071ad20       _pug_demospec              307dcd20     <common>
 0003:0071ae40       _cg_synchronousClients     307dce40     <common>
 0003:0071af60       _cg_autoMapH               307dcf60     <common>
 0003:0071b080       _cg_thirdPersonCameraDamp  307dd080     <common>
 0003:0071b1a0       _ui_noScope                307dd1a0     <common>
 0003:0071b2c0       _cg_bobpitch               307dd2c0     <common>
 0003:0071b3e0       _mme_saveShot              307dd3e0     <common>
 0003:0071b500       _cg_lagometer              307dd500     <common>
 0003:0071b620       _cg_errorDecay             307dd620     <common>
 0003:0071b740       _cg_chatBoxHeight          307dd740     <common>
 0003:0071b860       _cg_runroll                307dd860     <common>
 0003:0071b980       _cg_showVehMiss            307dd980     <common>
 0003:0071baa0       _cg_drawVehLeadIndicator   307ddaa0     <common>
 0003:0071bbc0       _cg                        307ddbc0     <common>
 0003:007643c0       _cg_cameraOrbit            308263c0     <common>
 0003:007644e0       _cg_bobup                  308264e0     <common>
 0003:00764600       _cg_fpls                   30826600     <common>
 0003:00764720       _cg_timescaleFadeSpeed     30826720     <common>
 0003:00764840       _cg_entities               30826840     <common>
 0003:00941840       _pmove_fixed               30a03840     <common>
 0003:00941960       _cg_saberDynamicMarkTime   30a03960     <common>
 0003:00941a80       _cg_swingAngles            30a03a80     <common>
 0003:00941ba0       _cg_teamOverlayUserinfo    30a03ba0     <common>
 0003:00941cc0       _cg_saberClientVisualCompensation 30a03cc0     <common>
 0003:00941de0       _cg_blood                  30a03de0     <common>
 0003:00941f00       _cg_teamChatsOnly          30a03f00     <common>
 0003:00942020       _cg_viewsize               30a04020     <common>
 0003:00942140       _cg_deferPlayers           30a04140     <common>
 0003:00942260       _cg_showmiss               30a04260     <common>
 0003:00942380       _cg_noPlayerAnims          30a04380     <common>
 0003:009424a0       _mme_blurOverlap           30a044a0     <common>
 0003:009425c0       _cg_crosshairSize          30a045c0     <common>
 0003:009426e0       _cg_drawIcons              30a046e0     <common>
 0003:00942800       _cg_predictItems           30a04800     <common>
 0003:00942920       _cg_thirdPersonPitchOffset 30a04920     <common>
 0003:00942a40       _mme_depthFocus            30a04a40     <common>
 0003:00942b60       _cg_fov                    30a04b60     <common>
 0003:00942c80       _fx_vfps                   30a04c80     <common>
 0003:00942da0       _pug_demos_HidePacketEntities 30a04da0     <common>
 0003:00942ec0       _mme_jpegQuality           30a04ec0     <common>
 0003:00942fe0       _cg_dismember              30a04fe0     <common>
 0003:00943100       _cg_paused                 30a05100     <common>
 0003:00943220       _cg_thirdPersonAngle       30a05220     <common>
 0003:00943340       _cg_currentSelectedPlayerName 30a05340     <common>
 0003:00943460       _cg_autoMapY               30a05460     <common>
 0003:00943580       _cg_localEntities          30a05580     <common>
 0003:00a29580       _cg_freeLocalEntities      30aeb580     <common>
 0003:00a295a0       _cg_activeLocalEntities    30aeb5a0     <common>
 0003:00a29770       _cg_genericTimerColor      30aeb770     <common>
 0003:00a29780       _lagometer                 30aeb780     <common>
 0003:00a29d88       _hudTintColor              30aebd88     <common>
 0003:00a29d90       _gCGFallVector             30aebd90     <common>
 0003:00a29d9c       _lastvalidlockdif          30aebd9c     <common>
 0003:00a29da0       _sortedTeamPlayers         30aebda0     <common>
 0003:00a29e20       _numSortedTeamPlayers      30aebe20     <common>
 0003:00a29e40       _theMatrix                 30aebe40     <common>
 0003:00a9adc0       _cam                       30b5cdc0     <common>
 0003:00a9c6c0       _newcam                    30b5e6c0     <common>
 0003:00a9cea0       _VehicleParms              30b5eea0     <common>
 0003:00aacea0       _VehWeaponParms            30b6eea0     <common>
 0003:00ab0ea0       _g_vehicleInfo             30b72ea0     <common>
 0003:00ab4120       _g_vehWeaponInfo           30b76120     <common>
 0003:00ab4760       _bgSiegeClasses            30b76760     <common>
 0003:00ae4d60       _bgSiegeTeams              30ba6d60     <common>
 0003:00ae71e0       _siege_info                30ba91e0     <common>
 0003:00aeb1e0       _pml                       30bad1e0     <common>
 0003:00aeb264       _pm                        30bad264     <common>
 0003:00aeb280       _bgAllEvents               30bad280     <common>
 0003:00b23ac0       _bgAllAnims                30be5ac0     <common>
 0003:00b23f00       _bgHumanoidAnimations      30be5f00     <common>
 0003:00b26938       __debugger_hook_dummy      30be8938     <common>
 0003:00b2693c       ___env_initialized         30be893c     <common>
 0003:00b26940       ___onexitend               30be8940     <common>
 0003:00b26944       ___onexitbegin             30be8944     <common>
 0003:00b26948       ___mbctype_initialized     30be8948     <common>
 0003:00b2694c       ___dyn_tls_init_callback   30be894c     <common>
 0003:00b26950       __nhandle                  30be8950     <common>
 0003:00b26960       ___pioinfo                 30be8960     <common>
 0003:00b26a60       __pDestructExceptionObject 30be8a60     <common>
 0003:00b26a64       __pmatherr                 30be8a64     <common>
 0003:00b26a68       ___use_sse2_mathfcns       30be8a68     <common>
 0003:00b26a6c       ___sse2_available          30be8a6c     <common>
 0003:00b26a70       ___piob                    30be8a70     <common>
 0003:00b26a80       __bufin                    30be8a80     <common>
 0003:00b27a80       __nstream                  30be9a80     <common>
 0003:00b27a84       __acmdln                   30be9a84     <common>

 entry point at        0001:000870cb

 Static symbols

 0001:00000000       ?detour_is_imported@@YA_NPAE0@Z 30001000 f    CIL library: CIL module
 0001:00000140       ?detour_alloc_trampoline@@YAPAU_DETOUR_TRAMPOLINE@@PAE@Z 30001140 f    CIL library: CIL module
 0001:00000350       ?detour_free_trampoline@@YAXPAU_DETOUR_TRAMPOLINE@@@Z 30001350 f    CIL library: CIL module
 0001:00000380       ?detour_find_header@@YAPAU_IMAGE_DOS_HEADER@@PAE@Z 30001380 f    CIL library: CIL module
 0001:00000e20       ?GetPayloadSectionFromModule@@YGPAXPAUHINSTANCE__@@@Z 30001e20 f    CIL library: CIL module
 0001:00001710       _ProcessMoveCommands       30002710 f   AnimalNPC.obj
 0001:00001930       _ProcessOrientCommands     30002930 f   AnimalNPC.obj
 0001:00001cd0       _SnapVector                30002cd0 f   bg_misc.obj
 0001:000043b0       _PNG_flush_data            300053b0 f   bg_panimate.obj
 0001:00004fc0       _BG_StartLegsAnim          30005fc0 f   bg_panimate.obj
 0001:00005720       _Distance                  30006720 f   bg_pmove.obj
 0001:00005720       _Distance                  30006720 f   bg_pmove.obj
 0001:00005720       _Distance                  30006720 f   bg_pmove.obj
 0001:00005720       _Distance                  30006720 f   bg_pmove.obj
 0001:00005c50       _PM_SetVehicleAngles       30006c50 f   bg_pmove.obj
 0001:00006210       _PM_Friction               30007210 f   bg_pmove.obj
 0001:00006460       _PM_Accelerate             30007460 f   bg_pmove.obj
 0001:00006600       _PM_CmdScale               30007600 f   bg_pmove.obj
 0001:00006690       _PM_SetMovementDir         30007690 f   bg_pmove.obj
 0001:00006870       _PM_JumpForDir             30007870 f   bg_pmove.obj
 0001:00007510       _PM_CheckJump              30008510 f   bg_pmove.obj
 0001:00008cc0       _PM_CheckWaterJump         30009cc0 f   bg_pmove.obj
 0001:00008de0       _PM_WaterJumpMove          30009de0 f   bg_pmove.obj
 0001:00008e40       _PM_WaterMove              30009e40 f   bg_pmove.obj
 0001:00009030       _PM_FlyVehicleMove         3000a030 f   bg_pmove.obj
 0001:000091b0       _PM_FlyMove                3000a1b0 f   bg_pmove.obj
 0001:000092e0       _PM_AirMove                3000a2e0 f   bg_pmove.obj
 0001:00009580       _PM_WalkMove               3000a580 f   bg_pmove.obj
 0001:000099c0       _PM_DeadMove               3000a9c0 f   bg_pmove.obj
 0001:00009a60       _PM_NoclipMove             3000aa60 f   bg_pmove.obj
 0001:00009c70       _PM_TryRoll                3000ac70 f   bg_pmove.obj
 0001:00009f50       _PM_CrashLand              3000af50 f   bg_pmove.obj
 0001:0000a540       _PM_CorrectAllSolid        3000b540 f   bg_pmove.obj
 0001:0000a6f0       _PM_GroundTraceMissed      3000b6f0 f   bg_pmove.obj
 0001:0000a950       _PM_GroundTrace            3000b950 f   bg_pmove.obj
 0001:0000ac30       _PM_SetWaterLevel          3000bc30 f   bg_pmove.obj
 0001:0000afe0       _PM_CheckDuck              3000bfe0 f   bg_pmove.obj
 0001:0000bc50       _PM_Footsteps              3000cc50 f   bg_pmove.obj
 0001:0000c4a0       _PM_WaterEvents            3000d4a0 f   bg_pmove.obj
 0001:0000cc40       _PM_DoChargedWeapons       3000dc40 f   bg_pmove.obj
 0001:0000d4c0       _PM_Weapon                 3000e4c0 f   bg_pmove.obj
 0001:0000e9e0       _PM_Animate                3000f9e0 f   bg_pmove.obj
 0001:0000ea80       _PM_DropTimers             3000fa80 f   bg_pmove.obj
 0001:0000fab0       _BG_G2ClientNeckAngles     30010ab0 f   bg_pmove.obj
 0001:0000fc80       _BG_G2ClientSpineAngles    30010c80 f   bg_pmove.obj
 0001:00010000       _BG_SwingAngles            30011000 f   bg_pmove.obj
 0001:00010de0       _PM_CmdForSaberMoves       30011de0 f   bg_pmove.obj
 0001:000155c0       _PM_CanDoDualDoubleAttacks 300165c0 f   bg_saber.obj
 0001:0001d3b0       _VectorCompare             3001e3b0 f   bg_slidemove.obj
 0001:0001d3b0       _VectorCompare             3001e3b0 f   bg_slidemove.obj
 0001:0001d3b0       _VectorCompare             3001e3b0 f   bg_slidemove.obj
 0001:0001d3b0       _VectorCompare             3001e3b0 f   bg_slidemove.obj
 0001:0001e6f0       _BG_ParseVehWeaponParm     3001f6f0 f   bg_vehicleLoad.obj
 0001:0001ed20       _BG_ParseVehicleParm       3001fd20 f   bg_vehicleLoad.obj
 0001:0001fdc0       _CG_SizeUp_f               30020dc0 f   cg_consolecmds.obj
 0001:0001fdf0       _CG_SizeDown_f             30020df0 f   cg_consolecmds.obj
 0001:0001fe20       _CG_Viewpos_f              30020e20 f   cg_consolecmds.obj
 0001:0001fe80       _CG_ScoresDown_f           30020e80 f   cg_consolecmds.obj
 0001:0001fed0       _CG_ScoresUp_f             30020ed0 f   cg_consolecmds.obj
 0001:0001fef0       _CG_scrollScoresDown_f     30020ef0 f   cg_consolecmds.obj
 0001:0001ff30       _CG_scrollScoresUp_f       30020f30 f   cg_consolecmds.obj
 0001:0001ff70       _CG_spWin_f                30020f70 f   cg_consolecmds.obj
 0001:0001fff0       _CG_spLose_f               30020ff0 f   cg_consolecmds.obj
 0001:00020070       _CG_TellTarget_f           30021070 f   cg_consolecmds.obj
 0001:000200d0       _CG_TellAttacker_f         300210d0 f   cg_consolecmds.obj
 0001:00020130       _CG_StartOrbit_f           30021130 f   cg_consolecmds.obj
 0001:000201e0       _CG_SiegeBriefing_f        300211e0 f   cg_consolecmds.obj
 0001:00020210       _CG_SiegeCvarUpdate_f      30021210 f   cg_consolecmds.obj
 0001:00020240       _CG_SiegeCompleteCvarUpdate_f 30021240 f   cg_consolecmds.obj
 0001:00020260       _CG_clientserverstatus_f   30021260 f   cg_consolecmds.obj
 0001:000202b0       _CG_demopos_f              300212b0 f   cg_consolecmds.obj
 0001:00020380       _pivot                     30021380 f   cg_consolecmds.obj
 0001:00020510       _swapRows                  30021510 f   cg_consolecmds.obj
 0001:000205d0       _rowReduce                 300215d0 f   cg_consolecmds.obj
 0001:000206f0       _factorial                 300216f0 f   cg_consolecmds.obj
 0001:00021570       _CG_smoothcam_f            30022570 f   cg_consolecmds.obj
 0001:00021750       _CG_insertcam_f            30022750 f   cg_consolecmds.obj
 0001:00021910       _CG_removecam_f            30022910 f   cg_consolecmds.obj
 0001:000219a0       _CG_removeallcams_f        300229a0 f   cg_consolecmds.obj
 0001:000219e0       _CG_savecamcfg_f           300229e0 f   cg_consolecmds.obj
 0001:00021b90       _CG_showcam_f              30022b90 f   cg_consolecmds.obj
 0001:00021f40       _CG_AddLoc_f               30022f40 f   cg_consolecmds.obj
 0001:00022050       _CG_InsLoc_f               30023050 f   cg_consolecmds.obj
 0001:00022180       _CG_ReplLoc_f              30023180 f   cg_consolecmds.obj
 0001:000222e0       _CG_demospec_f             300232e0 f   cg_consolecmds.obj
 0001:00022340       _CG_RotateCam360_f         30023340 f   cg_consolecmds.obj
 0001:000223b0       _CG_RotateCamn360_f        300233b0 f   cg_consolecmds.obj
 0001:00022420       _CG_ListFiles_f            30023420 f   cg_consolecmds.obj
 0001:00022470       _FS_CreatePath             30023470 f   cg_consolecmds.obj
 0001:000224e0       _CG_GhostClose_f           300234e0 f   cg_consolecmds.obj
 0001:00022510       _Q_isdigit                 30023510 f   cg_consolecmds.obj
 0001:00022540       _CG_VarMath_f              30023540 f   cg_consolecmds.obj
 0001:00023520       _CG_Rename_f               30024520 f   cg_consolecmds.obj
 0001:00023660       _SaveTGA_RLERGB            30024660 f   cg_consolecmds.obj
 0001:00023780       _SaveTGA_RLEGray           30024780 f   cg_consolecmds.obj
 0001:00023990       _PNG_write_data            30024990 f   cg_consolecmds.obj
 0001:00023da0       _accumCreateMultiply       30024da0 f   cg_consolecmds.obj
 0001:00023fd0       _accumClearMultiply        30024fd0 f   cg_consolecmds.obj
 0001:00024020       _accumAddMultiply          30025020 f   cg_consolecmds.obj
 0001:00024080       _accumShift                30025080 f   cg_consolecmds.obj
 0001:00024a10       _CG_PreviewCam_f           30025a10 f   cg_consolecmds.obj
 0001:00024a30       _CG_StopPreviewCam_f       30025a30 f   cg_consolecmds.obj
 0001:00024ca0       _CG_GhostSave_f            30025ca0 f   cg_consolecmds.obj
 0001:00024d80       _CG_GhostLoad_f            30025d80 f   cg_consolecmds.obj
 0001:00024fd0       _CG_DrawZoomMask           30025fd0 f   cg_draw.obj
 0001:00025db0       _CG_DrawSaberStyle         30026db0 f   cg_draw.obj
 0001:00025eb0       _CG_DrawAmmo               30026eb0 f   cg_draw.obj
 0001:000281e0       _CG_DrawStats              300291e0 f   cg_draw.obj
 0001:00028220       _CG_DrawPickupItem         30029220 f   cg_draw.obj
 0001:00028320       _CG_DrawMiniScoreboard     30029320 f   cg_draw.obj
 0001:00028480       _CG_DrawSnapshot           30029480 f   cg_draw.obj
 0001:00028500       _CG_DrawFPS                30029500 f   cg_draw.obj
 0001:00029830       _CG_DrawTimer              3002a830 f   cg_draw.obj
 0001:000298e0       _CG_DrawSpeed              3002a8e0 f   cg_draw.obj
 0001:00029a50       _CG_DrawTeamOverlay        3002aa50 f   cg_draw.obj
 0001:00029e50       _CG_DrawPowerupIcons       3002ae50 f   cg_draw.obj
 0001:0002a070       _CG_DrawDisconnect         3002b070 f   cg_draw.obj
 0001:0002a1c0       _CG_DrawLagometer          3002b1c0 f   cg_draw.obj
 0001:0002a650       _CG_DrawCenterString       3002b650 f   cg_draw.obj
 0001:0002b9f0       _CG_DrawHolocronIcons      3002c9f0 f   cg_draw.obj
 0001:0002bab0       _CG_DrawActivePowers       3002cab0 f   cg_draw.obj
 0001:0002bbe0       _CG_DrawRocketLocking      3002cbe0 f   cg_draw.obj
 0001:0002c3b0       _CG_DrawSpectator          3002d3b0 f   cg_draw.obj
 0001:0002c8d0       _CG_DrawVote               3002d8d0 f   cg_draw.obj
 0001:0002cdc0       _CG_DrawTeamVote           3002ddc0 f   cg_draw.obj
 0001:0002cf30       _CG_DrawFollow             3002df30 f   cg_draw.obj
 0001:0002d120       _CG_DrawWarmup             3002e120 f   cg_draw.obj
 0001:0002da60       _CG_DrawSiegeTimer         3002ea60 f   cg_draw.obj
 0001:0002db80       _CG_DrawSiegeDeathTimer    3002eb80 f   cg_draw.obj
 0001:0002dcb0       _CG_DrawSiegeHUDItem       3002ecb0 f   cg_draw.obj
 0001:0002e010       _CG_ChatBox_DrawStrings    3002f010 f   cg_draw.obj
 0001:0002e160       _CG_Draw2DScreenTints      3002f160 f   cg_draw.obj
 0001:0002ed00       _CG_DrawEnemyInfo          3002fd00 f   cg_draw.obj
 0001:0002f1e0       _CG_DrawUpperRight         300301e0 f   cg_draw.obj
 0001:0002f340       _CG_DrawCrosshair          30030340 f   cg_draw.obj
 0001:0002fb40       _CG_ScanForCrosshairEntity 30030b40 f   cg_draw.obj
 0001:00030200       _CG_DrawCrosshairNames     30031200 f   cg_draw.obj
 0001:00030460       _CG_Draw2D                 30031460 f   cg_draw.obj
 0001:000312c0       _CG_TileClearBox           300322c0 f   cg_drawtools.obj
 0001:00031f10       _CG_DoGlassQuad            30032f10 f   cg_effects.obj
 0001:00032130       _CG_CalcBiLerp             30033130 f   cg_effects.obj
 0001:00032460       _CG_CalcHeightWidth        30033460 f   cg_effects.obj
 0001:00033510       _DistanceSquared           30034510 f   cg_ents.obj
 0001:000339f0       _CG_EntityEffects          300349f0 f   cg_ents.obj
 0001:000341d0       _CG_RenderTimeEntBolt      300351d0 f   cg_ents.obj
 0001:00034980       _CG_General                30035980 f   cg_ents.obj
 0001:000369e0       _CG_Speaker                300379e0 f   cg_ents.obj
 0001:00036ad0       _CG_Item                   30037ad0 f   cg_ents.obj
 0001:000374e0       _CG_Missile                300384e0 f   cg_ents.obj
 0001:00037e00       _CG_Mover                  30038e00 f   cg_ents.obj
 0001:00038190       _CG_Portal                 30039190 f   cg_ents.obj
 0001:000383d0       _CG_InterpolateEntityPosition 300393d0 f   cg_ents.obj
 0001:00038640       _CG_TeamBase               30039640 f   cg_ents.obj
 0001:00038720       _CG_FX                     30039720 f   cg_ents.obj
 0001:00038880       _CG_AddCEntity             30039880 f   cg_ents.obj
 0001:000394f0       _CG_Obituary               3003a4f0 f   cg_event.obj
 0001:00039ce0       _CG_UseItem                3003ace0 f   cg_event.obj
 0001:00039e20       _CG_ItemPickup             3003ae20 f   cg_event.obj
 0001:0003faa0       _CG_AddFadeScaleModel      30040aa0 f   cg_localents.obj
 0001:0003fc40       _CG_AddMoveScaleFade       30040c40 f   cg_localents.obj
 0001:0003fd90       _CG_AddPuff                30040d90 f   cg_localents.obj
 0001:0003ff00       _CG_AddScaleFade           30040f00 f   cg_localents.obj
 0001:00040010       _CG_AddSmoke               30041010 f   cg_localents.obj
 0001:00040140       _CG_AddTrail               30041140 f   cg_localents.obj
 0001:00040600       _CG_AddFallScaleFade       30041600 f   cg_localents.obj
 0001:00040710       _CG_AddExplosion           30041710 f   cg_localents.obj
 0001:000407d0       _CG_AddSpriteExplosion     300417d0 f   cg_localents.obj
 0001:00040f60       _C_GetLerpData             30041f60 f   cg_main.obj
 0001:00041020       _C_Trace                   30042020 f   cg_main.obj
 0001:00041050       _C_G2Trace                 30042050 f   cg_main.obj
 0001:00041080       _C_G2Mark                  30042080 f   cg_main.obj
 0001:00041170       _CG_DebugBoxLines          30042170 f   cg_main.obj
 0001:00041390       _C_ImpactMark              30042390 f   cg_main.obj
 0001:00041920       _CG_RegisterItemSounds     30042920 f   cg_main.obj
 0001:00041b50       _CG_RegisterEffects        30042b50 f   cg_main.obj
 0001:00042540       _CG_FeederCount            30043540 f   cg_main.obj
 0001:00042680       _CG_InfoFromScoreIndex     30043680 f   cg_main.obj
 0001:00042700       _CG_FeederItemText         30043700 f   cg_main.obj
 0001:00042910       _CG_FeederItemImage        30043910 f   cg_main.obj
 0001:00042910       _CG_OwnerDrawHandleKey     30043910 f   cg_main.obj
 0001:00042920       _CG_FeederSelection        30043920 f   cg_main.obj
 0001:00042ab0       _CG_OwnerDrawWidth         30043ab0 f   cg_main.obj
 0001:00042b80       _CG_PlayCinematic          30043b80 f   cg_main.obj
 0001:00042bc0       _CG_StopCinematic          30043bc0 f   cg_main.obj
 0001:00042bd0       _CG_DrawCinematic          30043bd0 f   cg_main.obj
 0001:00042c10       _CG_RunCinematicFrame      30043c10 f   cg_main.obj
 0001:00043a00       _CG_RagCallback            30044a00 f   cg_main.obj
 0001:00043c60       _CG_ForceModelChange       30044c60 f   cg_main.obj
 0001:00043df0       _CG_AS_Register            30044df0 f   cg_main.obj
 0001:00043e90       _CG_RegisterSounds         30044e90 f   cg_main.obj
 0001:00044c20       _CG_RegisterGraphics       30045c20 f   cg_main.obj
 0001:00045a40       _CG_RegisterClients        30046a40 f   cg_main.obj
 0001:00048fe0       _CrossProduct              30049fe0 f   cg_players.obj
 0001:00049530       _CG_RegisterClientModelname 3004a530 f   cg_players.obj
 0001:0004a040       _CG_InitG2SaberData        3004b040 f   cg_players.obj
 0001:0004a140       _CG_CopyClientInfoModel    3004b140 f   cg_players.obj
 0001:0004a2a0       _CG_ScanForExistingClientInfo 3004b2a0 f   cg_players.obj
 0001:0004a520       __PlayerFootStep           3004b520 f   cg_players.obj
 0001:0004a8a0       _CG_PlayerFootsteps        3004b8a0 f   cg_players.obj
 0001:0004b1b0       _CG_SetLerpFrameAnimation  3004c1b0 f   cg_players.obj
 0001:0004b710       _CG_RunLerpFrame           3004c710 f   cg_players.obj
 0001:0004b8e0       _CG_PlayerAnimation        3004c8e0 f   cg_players.obj
 0001:0004ba40       _CG_RagAnimForPositioning  3004ca40 f   cg_players.obj
 0001:0004ca20       _CG_G2SetHeadBlink         3004da20 f   cg_players.obj
 0001:0004cb20       _CG_G2SetHeadAnim          3004db20 f   cg_players.obj
 0001:0004cf40       _CG_G2PlayerAngles         3004df40 f   cg_players.obj
 0001:0004d3d0       _CG_PlayerFlag             3004e3d0 f   cg_players.obj
 0001:0004d5f0       _CG_PlayerPowerups         3004e5f0 f   cg_players.obj
 0001:0004d730       _CG_PlayerFloatSprite      3004e730 f   cg_players.obj
 0001:0004d7e0       _CG_PlayerSplash           3004e7e0 f   cg_players.obj
 0001:0004d980       _CG_ForcePushBlur          3004e980 f   cg_players.obj
 0001:0004de70       _CG_ForceGripEffect        3004ee70 f   cg_players.obj
 0001:0004e270       _CG_RGBForSaberColor       3004f270 f   cg_players.obj
 0001:0004e310       _CG_DoSaberLight           3004f310 f   cg_players.obj
 0001:00051530       _CG_CreateSurfaceDebris    30052530 f   cg_players.obj
 0001:000516d0       _CG_CreateSurfaceSmoke     300526d0 f   cg_players.obj
 0001:00051940       _CG_ForceElectrocution     30052940 f   cg_players.obj
 0001:00051fd0       _CG_VehicleEffects         30052fd0 f   cg_players.obj
 0001:00053130       _CG_SetDeferredClientInfo  30054130 f   cg_players.obj
 0001:000540a0       _CG_PlayerSprites          300550a0 f   cg_players.obj
 0001:00054140       _CG_PlayerShadow           30055140 f   cg_players.obj
 0001:00054360       _CG_ForcePushBodyBlur      30055360 f   cg_players.obj
 0001:000591d0       _VectorLength              3005a1d0 f   cg_predict.obj
 0001:000591d0       _VectorLength              3005a1d0 f   cg_predict.obj
 0001:000591d0       _VectorLength              3005a1d0 f   cg_predict.obj
 0001:00059200       _CG_Piloting               3005a200 f   cg_predict.obj
 0001:000593b0       _CG_VehicleClipCheck       3005a3b0 f   cg_predict.obj
 0001:00059460       _CG_ClipMoveToEntities     3005a460 f   cg_predict.obj
 0001:000599c0       _CG_InterpolatePlayerState 3005a9c0 f   cg_predict.obj
 0001:00059b20       _CG_InterpolateVehiclePlayerState 3005ab20 f   cg_predict.obj
 0001:00059c90       _CG_TouchItem              3005ac90 f   cg_predict.obj
 0001:00059dd0       _CG_TouchTriggerPrediction 3005add0 f   cg_predict.obj
 0001:0005b940       _CG_SiegeObjectiveBuffer   3005c940 f   cg_saga.obj
 0001:0005ce70       _CG_DrawClientScore        3005de70 f   cg_scoreboard.obj
 0001:0005d460       _CG_TeamScoreboard         3005e460 f   cg_scoreboard.obj
 0001:0005dfa0       _CG_ParseScores            3005efa0 f   cg_servercmds.obj
 0001:0005e170       _CG_ParseTeamInfo          3005f170 f   cg_servercmds.obj
 0001:0005e8b0       _CG_RegisterCustomSounds   3005f8b0 f   cg_servercmds.obj
 0001:0005f0a0       _CG_ConfigStringModified   300600a0 f   cg_servercmds.obj
 0001:0005f8f0       _CG_MapRestart             300608f0 f   cg_servercmds.obj
 0001:0005f9b0       _CG_RemoveChatEscapeChar   300609b0 f   cg_servercmds.obj
 0001:0005fb60       _CG_BodyQueueCopy          30060b60 f   cg_servercmds.obj
 0001:0005fdc0       _CG_ServerCommand          30060dc0 f   cg_servercmds.obj
 0001:00060990       _CG_ResetEntity            30061990 f   cg_snapshot.obj
 0001:00060bb0       _CG_TransitionSnapshot     30061bb0 f   cg_snapshot.obj
 0001:00060d90       _CG_SetNextSnap            30061d90 f   cg_snapshot.obj
 0001:00060ea0       _CG_ReadNextSnapshot       30061ea0 f   cg_snapshot.obj
 0001:000632c0       _CG_AddTestModel           300642c0 f   cg_view.obj
 0001:00063430       _CG_CalcVrect              30064430 f   cg_view.obj
 0001:000634f0       _CG_StepOffset             300644f0 f   cg_view.obj
 0001:00063540       _CG_CalcIdealThirdPersonViewTarget 30064540 f   cg_view.obj
 0001:00063750       _CG_CalcIdealThirdPersonViewLocation 30064750 f   cg_view.obj
 0001:00063850       _CG_ResetThirdPersonViewDamp 30064850 f   cg_view.obj
 0001:000639d0       _CG_UpdateThirdPersonTargetDamp 300649d0 f   cg_view.obj
 0001:00063b70       _CG_UpdateThirdPersonCameraDamp 30064b70 f   cg_view.obj
 0001:00063e90       _CG_OffsetThirdPersonView  30064e90 f   cg_view.obj
 0001:000643a0       _CG_OffsetFirstPersonView  300653a0 f   cg_view.obj
 0001:000647a0       _CG_OffsetFighterView      300657a0 f   cg_view.obj
 0001:000649f0       _CG_CalcFov                300659f0 f   cg_view.obj
 0001:00064dc0       _CG_DamageBlendBlob        30065dc0 f   cg_view.obj
 0001:00065090       _CG_ThirdPersonActionCam   30066090 f   cg_view.obj
 0001:00065a10       _CG_PlayBufferedSounds     30066a10 f   cg_view.obj
 0001:00065fa0       _CG_AddRefentForAutoMap    30066fa0 f   cg_view.obj
 0001:00066710       _swapPlayerstates          30067710 f   cg_view.obj
 0001:00066cf0       _CG_CalcViewValues         30067cf0 f   cg_view.obj
 0001:0006a4a0       _CG_MapTorsoToWeaponFrame  3006b4a0 f   cg_weapons.obj
 0001:0006a5b0       _CG_CalculateWeaponPosition 3006b5b0 f   cg_weapons.obj
 0001:0006a6f0       _CG_AddWeaponWithPowerups  3006b6f0 f   cg_weapons.obj
 0001:0006b400       _CG_WeaponSelectable       3006c400 f   cg_weapons.obj
 0001:0006d010       _PredictedAngularDecrement 3006e010 f   FighterNPC.obj
 0001:0006d220       _ProcessMoveCommands       3006e220 f   FighterNPC.obj
 0001:0006db40       _FighterWingMalfunctionCheck 3006eb40 f   FighterNPC.obj
 0001:0006dc60       _FighterNoseMalfunctionCheck 3006ec60 f   FighterNPC.obj
 0001:0006dcf0       _FighterDamageRoutine      3006ecf0 f   FighterNPC.obj
 0001:0006e1b0       _ProcessOrientCommands     3006f1b0 f   FighterNPC.obj
 0001:0006f3d0       _CG_DistortionOrb          300703d0 f   fx_heavyrepeater.obj
 0001:0006f680       _CG_RocketTrail            30070680 f   fx_rocketlauncher.obj
 0001:00071890       _ProcessMoveCommands       30072890 f   SpeederNPC.obj
 0001:00071d90       _hashForString             30072d90 f   ui_shared.obj
 0001:00074b60       _Scroll_TextScroll_AutoFunc 30075b60 f   ui_shared.obj
 0001:00074bd0       _Scroll_TextScroll_ThumbFunc 30075bd0 f   ui_shared.obj
 0001:00074d00       _Scroll_ListBox_AutoFunc   30075d00 f   ui_shared.obj
 0001:00074d70       _Scroll_ListBox_ThumbFunc  30075d70 f   ui_shared.obj
 0001:00074f80       _Scroll_Slider_ThumbFunc   30075f80 f   ui_shared.obj
 0001:000754a0       _Display_CloseCinematics   300764a0 f   ui_shared.obj
 0001:00077560       _Item_TextScroll_BuildLines 30078560 f   ui_shared.obj
 0001:00078470       _Menu_OverActiveItem       30079470 f   ui_shared.obj
 0001:0007a880       _ProcessMoveCommands       3007b880 f   WalkerNPC.obj
 0001:0007ab60       _ProcessOrientCommands     3007bb60 f   WalkerNPC.obj
 0001:0007d170       _png_default_error         3007e170 f   libpng:pngerror.obj
 0001:0007d1c0       _png_default_warning       3007e1c0 f   libpng:pngerror.obj
 0001:0007d730       _png_text_compress         3007e730 f   libpng:pngwutil.obj
 0001:0007d9c0       _png_write_compressed_data_out 3007e9c0 f   libpng:pngwutil.obj
 0001:00080ea0       _crc32_little              30081ea0 f   zlib:crc32.obj
 0001:00081180       _putShortMSB               30082180 f   zlib:deflate.obj
 0001:000811b0       _flush_pending             300821b0 f   zlib:deflate.obj
 0001:000812e0       _read_buf                  300822e0 f   zlib:deflate.obj
 0001:00081350       _lm_init                   30082350 f   zlib:deflate.obj
 0001:000813e0       _longest_match             300823e0 f   zlib:deflate.obj
 0001:00081540       _fill_window               30082540 f   zlib:deflate.obj
 0001:00081690       _deflate_stored            30082690 f   zlib:deflate.obj
 0001:000817d0       _deflate_fast              300827d0 f   zlib:deflate.obj
 0001:00081ab0       _deflate_slow              30082ab0 f   zlib:deflate.obj
 0001:00081e70       _deflate_rle               30082e70 f   zlib:deflate.obj
 0001:000820f0       _deflate_huff              300830f0 f   zlib:deflate.obj
 0001:00083000       _init_block                30084000 f   zlib:trees.obj
 0001:00083080       _pqdownheap                30084080 f   zlib:trees.obj
 0001:00083160       _gen_bitlen                30084160 f   zlib:trees.obj
 0001:00083360       _scan_tree                 30084360 f   zlib:trees.obj
 0001:00083440       _send_tree                 30084440 f   zlib:trees.obj
 0001:000839c0       _send_all_trees            300849c0 f   zlib:trees.obj
 0001:00083c10       _compress_block            30084c10 f   zlib:trees.obj
 0001:00084020       _detect_data_type          30085020 f   zlib:trees.obj
 0001:00084090       _bi_reverse                30085090 f   zlib:trees.obj
 0001:000840b0       _bi_flush                  300850b0 f   zlib:trees.obj
 0001:00084130       _bi_windup                 30085130 f   zlib:trees.obj
 0001:00084190       _copy_block                30085190 f   zlib:trees.obj
 0001:00084290       _gen_codes                 30085290 f   zlib:trees.obj
 0001:00084310       _build_tree                30085310 f   zlib:trees.obj
 0001:00084510       _build_bl_tree             30085510 f   zlib:trees.obj
 0001:00084cf0       _vscan_fn                  30085cf0 f   LIBCMT:sscanf.obj
 0001:00086fd5       ___DllMainCRTStartup       30087fd5 f   LIBCMT:dllcrt0.obj
 0001:000873cb       _flsall                    300883cb f   LIBCMT:fflush.obj
 0001:00087ad8       __shift                    30088ad8 f   LIBCMT:cvt.obj
 0001:00087b1d       __cftoe2_l                 30088b1d f   LIBCMT:cvt.obj
 0001:000880db       __cftof2_l                 300890db f   LIBCMT:cvt.obj
 0001:0008854c       ?CPtoLCID@@YAHH@Z          3008954c f   LIBCMT:mbctype.obj
 0001:0008857b       ?setSBCS@@YAXPAUthreadmbcinfostruct@@@Z 3008957b f   LIBCMT:mbctype.obj
 0001:000885df       ?setSBUpLow@@YAXPAUthreadmbcinfostruct@@@Z 300895df f   LIBCMT:mbctype.obj
 0001:00088813       ?getSystemCP@@YAHH@Z       30089813 f   LIBCMT:mbctype.obj
 0001:00089eab       ?strtoxl@@YAKPAUlocaleinfo_struct@@PBDPAPBDHH@Z 3008aeab f   LIBCMT:strtol.obj
 0001:0008a19b       ___check_float_string      3008b19b f   LIBCMT:input.obj
 0001:0008a1f2       __hextodec                 3008b1f2 f   LIBCMT:input.obj
 0001:0008a212       __inc                      3008b212 f   LIBCMT:input.obj
 0001:0008a228       __whiteout                 3008b228 f   LIBCMT:input.obj
 0001:0008c960       __unwind_handler4          3008d960 f   LIBCMT:exsup4.obj
 0001:0008d917       _write_char                3008e917 f   LIBCMT:output.obj
 0001:0008d94a       _write_string              3008e94a f   LIBCMT:output.obj
 0001:00090644       ?__crtLCMapStringA_stat@@YAHPAUlocaleinfo_struct@@KKPBDHPADHHH@Z 30091644 f   LIBCMT:a_map.obj
 0001:00090b30       _doexit                    30091b30 f   LIBCMT:crt0dat.obj
 0001:00090d8f       _parse_cmdline             30091d8f f   LIBCMT:stdargv.obj
 0001:00091518       _siglookup                 30092518 f   LIBCMT:winsig.obj
 0001:00091720       __unwind_handler           30092720 f   LIBCMT:exsup.obj
 0001:00091ffe       __onexit_nolock            30092ffe f   LIBCMT:onexit.obj
 0001:00092857       ?__crtGetStringTypeA_stat@@YAHPAUlocaleinfo_struct@@KPBDHPAGHHH@Z 30093857 f   LIBCMT:a_str.obj
 0001:00094d7c       __tsopen_nolock            30095d7c f   LIBCMT:open.obj
 0001:000960e5       ?x_ismbbtype_l@@YAHPAUlocaleinfo_struct@@IHH@Z 300970e5 f   LIBCMT:ismbbyte.obj
 0001:00096e56       __hw_cw                    30097e56 f   LIBCMT:_ieee87_.obj
 0001:00096ee4       ___hw_cw_sse2              30097ee4 f   LIBCMT:_ieee87_.obj
 0001:00097848       ??__Fnomem@?5???2@YAPAXI@Z@YAXXZ 30098848 f   LIBCMT:new.obj
