 uix86

 Timestamp is 4c7b4a1d (Mon Aug 30 02:05:17 2010)

 Preferred load address is 40000000

 Start         Length     Name                   Class
 0001:00000000 00035f7bH .text                   CODE
 0002:00000000 00000104H .idata$5                DATA
 0002:00000104 00000004H .CRT$XCA                DATA
 0002:00000108 00000004H .CRT$XCZ                DATA
 0002:0000010c 00000004H .CRT$XIA                DATA
 0002:00000110 00000014H .CRT$XIC                DATA
 0002:00000124 00000004H .CRT$XIZ                DATA
 0002:00000128 00000004H .CRT$XPA                DATA
 0002:0000012c 00000004H .CRT$XPX                DATA
 0002:00000130 00000004H .CRT$XPXA               DATA
 0002:00000134 00000004H .CRT$XPZ                DATA
 0002:00000138 00000004H .CRT$XTA                DATA
 0002:0000013c 00000004H .CRT$XTZ                DATA
 0002:00000140 000158f8H .rdata                  DATA
 0002:00015a40 0000000cH .rdata$sxdata           DATA
 0002:00015a4c 00000004H .rtc$IAA                DATA
 0002:00015a50 00000004H .rtc$IZZ                DATA
 0002:00015a54 00000004H .rtc$TAA                DATA
 0002:00015a58 00000004H .rtc$TZZ                DATA
 0002:00015a60 000002d4H .xdata$x                DATA
 0002:00015d34 00000014H .idata$2                DATA
 0002:00015d48 00000014H .idata$3                DATA
 0002:00015d5c 00000104H .idata$4                DATA
 0002:00015e60 000004a0H .idata$6                DATA
 0002:00016300 00000056H .edata                  DATA
 0003:00000000 00008ec0H .data                   DATA
 0003:00008ec0 004d5f84H .bss                    DATA
 0004:00000000 00000058H .rsrc$01                DATA
 0004:00000060 00000328H .rsrc$02                DATA

  Address         Publics by Value              Rva+Base       Lib:Object

 0000:00000000       __except_list              00000000     <absolute>
 0000:00000003       ___safe_se_handler_count   00000003     <absolute>
 0000:00000000       ___ImageBase               40000000     <linker-defined>
 0001:00000000       _BG_LegalizedForcePowers   40001000 f   bg_misc.obj
 0001:00000470       _BG_FindItemForHoldable    40001470 f   bg_misc.obj
 0001:000004d0       _BG_FindItemForWeapon      400014d0 f   bg_misc.obj
 0001:00000520       _BG_Alloc                  40001520 f   bg_misc.obj
 0001:00000570       _BG_SiegeStripTabs         40001570 f   bg_saga.obj
 0001:000005b0       _BG_SiegeGetValueGroup     400015b0 f   bg_saga.obj
 0001:000008c0       _BG_SiegeGetPairedValue    400018c0 f   bg_saga.obj
 0001:00000b30       _BG_SiegeTranslateForcePowers 40001b30 f   bg_saga.obj
 0001:00000d10       _BG_SiegeTranslateGenericTable 40001d10 f   bg_saga.obj
 0001:00000e00       _BG_SiegeParseClassFile    40001e00 f   bg_saga.obj
 0001:00001700       _BG_SiegeLoadClasses       40002700 f   bg_saga.obj
 0001:00001810       _BG_SiegeLoadTeams         40002810 f   bg_saga.obj
 0001:00001b00       _BG_SiegeFindThemeForTeam  40002b00 f   bg_saga.obj
 0001:00001b30       _BG_SiegeFindTeamForTheme  40002b30 f   bg_saga.obj
 0001:00001b90       _BG_SiegeSetTeamTheme      40002b90 f   bg_saga.obj
 0001:00001bc0       _BG_SiegeCountBaseClass    40002bc0 f   bg_saga.obj
 0001:00001c20       _BG_GetUIPortraitFile      40002c20 f   bg_saga.obj
 0001:00001cb0       _BG_GetUIPortrait          40002cb0 f   bg_saga.obj
 0001:00001d40       _BG_GetClassOnBaseClass    40002d40 f   bg_saga.obj
 0001:00001dd0       _AxisClear                 40002dd0 f   q_math.obj
 0001:00001e00       _VectorNormalize           40002e00 f   q_math.obj
 0001:00001e70       _AngleVectors              40002e70 f   q_math.obj
 0001:00001fd0       _Q_irand                   40002fd0 f   q_math.obj
 0001:00002010       _AnglesToAxis              40003010 f   q_math.obj
 0001:00002060       _Com_Clamp                 40003060 f   q_shared.obj
 0001:00002090       _COM_StripExtension        40003090 f   q_shared.obj
 0001:000020c0       _COM_Compress              400030c0 f   q_shared.obj
 0001:000021c0       _COM_ParseExt              400031c0 f   q_shared.obj
 0001:00002330       _COM_ParseString           40003330 f   q_shared.obj
 0001:00002370       _COM_ParseFloat            40003370 f   q_shared.obj
 0001:000023b0       _SkipBracedSection         400033b0 f   q_shared.obj
 0001:000024f0       _SkipRestOfLine            400034f0 f   q_shared.obj
 0001:00002520       _Q_strrchr                 40003520 f   q_shared.obj
 0001:00002550       _Q_strncpyz                40003550 f   q_shared.obj
 0001:000025b0       _Q_stricmpn                400035b0 f   q_shared.obj
 0001:00002630       _Q_stricmp                 40003630 f   q_shared.obj
 0001:00002660       _Q_strupr                  40003660 f   q_shared.obj
 0001:00002690       _Q_strcat                  40003690 f   q_shared.obj
 0001:000026e0       _Q_CleanStr                400036e0 f   q_shared.obj
 0001:00002730       _Com_sprintf               40003730 f   q_shared.obj
 0001:000027d0       _va                        400037d0 f   q_shared.obj
 0001:00002810       _Info_ValueForKey          40003810 f   q_shared.obj
 0001:00002900       _Info_RemoveKey            40003900 f   q_shared.obj
 0001:00002a00       _Info_SetValueForKey       40003a00 f   q_shared.obj
 0001:00002bb0       _GetIDForString            40003bb0 f   q_shared.obj
 0001:00002c00       _COM_BeginParseSession     40003c00 f   q_shared.obj
 0001:00002c30       _COM_Parse                 40003c30 f   q_shared.obj
 0001:00002c50       _Com_Error                 40003c50 f   ui_atoms.obj
 0001:00002c90       _Com_Printf                40003c90 f   ui_atoms.obj
 0001:00002cd0       _UI_Cvar_VariableString    40003cd0 f   ui_atoms.obj
 0001:00002cf0       _UI_SetBestScores          40003cf0 f   ui_atoms.obj
 0001:00003030       _UI_LoadBestScores         40004030 f   ui_atoms.obj
 0001:00003130       _UI_ClearScores            40004130 f   ui_atoms.obj
 0001:000038b0       _UI_ConsoleCommand         400048b0 f   ui_atoms.obj
 0001:00003a40       _UI_DrawHandlePic          40004a40 f   ui_atoms.obj
 0001:00003ae0       _UI_FillRect               40004ae0 f   ui_atoms.obj
 0001:00003b40       _UI_SetColor               40004b40 f   ui_atoms.obj
 0001:00003b50       _UI_InitForceShaders       40004b50 f   ui_force.obj
 0001:00003cc0       _UI_DrawForceStars         40004cc0 f   ui_force.obj
 0001:00003de0       _UI_UpdateClientForcePowers 40004de0 f   ui_force.obj
 0001:00003ee0       _UI_SaveForceTemplate      40004ee0 f   ui_force.obj
 0001:000040c0       _UpdateForceUsed           400050c0 f   ui_force.obj
 0001:00004390       _UI_ReadLegalForce         40005390 f   ui_force.obj
 0001:00004720       _UI_UpdateForcePowers      40005720 f   ui_force.obj
 0001:00004960       _UI_SkinColor_HandleKey    40005960 f   ui_force.obj
 0001:000049e0       _UI_ForceSide_HandleKey    400059e0 f   ui_force.obj
 0001:00004ae0       _UI_JediNonJedi_HandleKey  40005ae0 f   ui_force.obj
 0001:00004c60       _UI_ForceMaxRank_HandleKey 40005c60 f   ui_force.obj
 0001:00004ce0       _UI_ForcePowerRank_HandleKey 40005ce0 f   ui_force.obj
 0001:00004e10       _UI_ForceConfigHandle      40005e10 f   ui_force.obj
 0001:00005310       _UI_ParseInfos             40006310 f   ui_gameinfo.obj
 0001:000055b0       _UI_LoadArenas             400065b0 f   ui_gameinfo.obj
 0001:00005a20       _UI_LoadBots               40006a20 f   ui_gameinfo.obj
 0001:00005b20       _UI_GetNumBots             40006b20 f   ui_gameinfo.obj
 0001:00005b30       _UI_GetBotNameByNumber     40006b30 f   ui_gameinfo.obj
 0001:00005b80       _UI_AnimsetAlloc           40006b80 f   ui_main.obj
 0001:00005bb0       _UI_ParseAnimationFile     40006bb0 f   ui_main.obj
 0001:00005e80       _UI_TeamName               40006e80 f   ui_main.obj
 0001:00005eb0       _AssetCache                40006eb0 f   ui_main.obj
 0001:00006040       __UI_DrawSides             40007040 f   ui_main.obj
 0001:000060e0       __UI_DrawTopBottom         400070e0 f   ui_main.obj
 0001:00006180       __UI_DrawRect              40007180 f   ui_main.obj
 0001:000061f0       _Text_Width                400071f0 f   ui_main.obj
 0001:00006250       _Text_Height               40007250 f   ui_main.obj
 0001:000062d0       _Text_Paint                400072d0 f   ui_main.obj
 0001:00006390       _Text_PaintWithCursor      40007390 f   ui_main.obj
 0001:00006700       _UI_GetStringEdString      40007700 f   ui_main.obj
 0001:00006740       _GetMenuBuffer             40007740 f   ui_main.obj
 0001:000067e0       _Asset_Parse               400077e0 f   ui_main.obj
 0001:00006fa0       _UI_Report                 40007fa0 f   ui_main.obj
 0001:00006fb0       _UI_ParseMenu              40007fb0 f   ui_main.obj
 0001:00007080       _UI_LoadMenus              40008080 f   ui_main.obj
 0001:00008280       _UI_HasSetSaberOnly        40009280 f   ui_main.obj
 0001:00008350       _UI_TrueJediEnabled        40009350 f   ui_main.obj
 0001:00008b90       _UpdateBotButtons          40009b90 f   ui_main.obj
 0001:00008bf0       _UpdateForceStatus         40009bf0 f   ui_main.obj
 0001:0000c350       _UI_UpdateVideoSetup       4000d350 f   ui_main.obj
 0001:0000c4b0       _UI_GetVideoSetup          4000d4b0 f   ui_main.obj
 0001:0000cad0       _UI_SetSiegeObjectiveGraphicPos 4000dad0 f   ui_main.obj
 0001:0000cbc0       _UI_FindCurrentSiegeTeamClass 4000dbc0 f   ui_main.obj
 0001:0000ccb0       _UI_UpdateSiegeObjectiveGraphics 4000dcb0 f   ui_main.obj
 0001:0000d1b0       _UI_UpdateCharacterSkin    4000e1b0 f   ui_main.obj
 0001:0000d340       _UI_ClampMaxPlayers        4000e340 f   ui_main.obj
 0001:0000d3f0       _UI_UpdateSiegeStatusIcons 4000e3f0 f   ui_main.obj
 0001:0000e030       _UI_SiegeClassNum          4000f030 f   ui_main.obj
 0001:0000e060       _UI_SetSiegeTeams          4000f060 f   ui_main.obj
 0001:0000f8c0       _UI_SiegeSetCvarsForClass  400108c0 f   ui_main.obj
 0001:0000fce0       _UI_UpdateCvarsForClass    40010ce0 f   ui_main.obj
 0001:0000fdc0       _UI_FeederSelection        40010dc0 f   ui_main.obj
 0001:00010d00       _UI_LoadForceConfig_List   40011d00 f   ui_main.obj
 0001:000116c0       __UI_KeyEvent              400126c0 f   ui_main.obj
 0001:00011740       __UI_MouseEvent            40012740 f   ui_main.obj
 0001:000117c0       __UI_SetActiveMenu         400127c0 f   ui_main.obj
 0001:00011c00       _Text_PaintCenter          40012c00 f   ui_main.obj
 0001:00011ce0       _UI_RegisterCvars          40012ce0 f   ui_main.obj
 0001:00011ed0       _UI_ShowPostGame           40012ed0 f   ui_main.obj
 0001:00011f30       _UI_Load                   40012f30 f   ui_main.obj
 0001:00014880       _UI_DrawConnectScreen      40015880 f   ui_main.obj
 0001:00014e80       __UI_Refresh               40015e80 f   ui_main.obj
 0001:00017b80       __UI_Init                  40018b80 f   ui_main.obj
 0001:00018080       _vmMain                    40019080 f   ui_main.obj
 0001:00018170       _UI_CacheSaberGlowGraphics 40019170 f   ui_saber.obj
 0001:00018230       _UI_ParseLiteral           40019230 f   ui_saber.obj
 0001:00018290       _UI_SaberParseParm         40019290 f   ui_saber.obj
 0001:000183c0       _UI_SaberModelForSaber     400193c0 f   ui_saber.obj
 0001:000183e0       _UI_SaberSkinForSaber      400193e0 f   ui_saber.obj
 0001:00018400       _UI_SaberTypeForSaber      40019400 f   ui_saber.obj
 0001:00018420       _UI_SaberShouldDrawBlade   40019420 f   ui_saber.obj
 0001:000184d0       _UI_SaberBladeLengthForSaber 400194d0 f   ui_saber.obj
 0001:00018590       _UI_SaberBladeRadiusForSaber 40019590 f   ui_saber.obj
 0001:00018650       _UI_SaberProperNameForSaber 40019650 f   ui_saber.obj
 0001:000186d0       _UI_SaberValidForPlayerInMP 400196d0 f   ui_saber.obj
 0001:00018730       _UI_SaberLoadParms         40019730 f   ui_saber.obj
 0001:000188f0       _UI_DoSaber                400198f0 f   ui_saber.obj
 0001:00018b40       _SaberColorToString        40019b40 f   ui_saber.obj
 0001:00018ba0       _TranslateSaberColor       40019ba0 f   ui_saber.obj
 0001:00018c60       _TranslateSaberType        40019c60 f   ui_saber.obj
 0001:00018da0       _UI_SaberDrawBlade         40019da0 f   ui_saber.obj
 0001:00019660       _UI_GetSaberForMenu        4001a660 f   ui_saber.obj
 0001:00019780       _UI_SaberDrawBlades        4001a780 f   ui_saber.obj
 0001:000199e0       _UI_SaberAttachToChar      4001a9e0 f   ui_saber.obj
 0001:00019b30       _UI_SaberGetHiltInfo       4001ab30 f   ui_saber.obj
 0001:00019cb0       _UI_Alloc                  4001acb0 f   ui_shared.obj
 0001:00019d10       _UI_InitMemory             4001ad10 f   ui_shared.obj
 0001:00019d20       _UI_OutOfMemory            4001ad20 f   ui_shared.obj
 0001:00019d70       _String_Alloc              4001ad70 f   ui_shared.obj
 0001:00019e90       _String_Report             4001ae90 f   ui_shared.obj
 0001:00019f30       _PC_SourceError            4001af30 f   ui_shared.obj
 0001:00019f90       _LerpColor                 4001af90 f   ui_shared.obj
 0001:0001a0a0       _Float_Parse               4001b0a0 f   ui_shared.obj
 0001:0001a0e0       _PC_Float_Parse            4001b0e0 f   ui_shared.obj
 0001:0001a180       _Color_Parse               4001b180 f   ui_shared.obj
 0001:0001a1d0       _PC_Color_Parse            4001b1d0 f   ui_shared.obj
 0001:0001a270       _Int_Parse                 4001b270 f   ui_shared.obj
 0001:0001a2b0       _PC_Int_Parse              4001b2b0 f   ui_shared.obj
 0001:0001a340       _Rect_Parse                4001b340 f   ui_shared.obj
 0001:0001a3d0       _String_Parse              4001b3d0 f   ui_shared.obj
 0001:0001a410       _PC_String_Parse           4001b410 f   ui_shared.obj
 0001:0001a480       _PC_Script_Parse           4001b480 f   ui_shared.obj
 0001:0001a5a0       _Init_Display              4001b5a0 f   ui_shared.obj
 0001:0001a5b0       _GradientBar_Paint         4001b5b0 f   ui_shared.obj
 0001:0001a610       _Window_Paint              4001b610 f   ui_shared.obj
 0001:0001ab00       _IsVisible                 4001bb00 f   ui_shared.obj
 0001:0001ab20       _Rect_ContainsPoint        4001bb20 f   ui_shared.obj
 0001:0001ab80       _Menu_ItemsMatchingGroup   4001bb80 f   ui_shared.obj
 0001:0001ac10       _Menu_GetMatchingItemByNumber 4001bc10 f   ui_shared.obj
 0001:0001ac90       _Script_SetColor           4001bc90 f   ui_shared.obj
 0001:0001ad70       _Script_SetAsset           4001bd70 f   ui_shared.obj
 0001:0001ada0       _Script_SetBackground      4001bda0 f   ui_shared.obj
 0001:0001adf0       _Menu_FindItemByName       4001bdf0 f   ui_shared.obj
 0001:0001ae50       _Script_SetTeamColor       4001be50 f   ui_shared.obj
 0001:0001aea0       _Script_SetItemColor       4001bea0 f   ui_shared.obj
 0001:0001b030       _Script_SetItemColorCvar   4001c030 f   ui_shared.obj
 0001:0001b2a0       _Script_SetItemRect        4001c2a0 f   ui_shared.obj
 0001:0001b350       _Menu_ShowGroup            4001c350 f   ui_shared.obj
 0001:0001b3a0       _Menu_ShowItemByName       4001c3a0 f   ui_shared.obj
 0001:0001b420       _Menu_FadeItemByName       4001c420 f   ui_shared.obj
 0001:0001b480       _Menus_FindByName          4001c480 f   ui_shared.obj
 0001:0001b4d0       _Script_Show               4001c4d0 f   ui_shared.obj
 0001:0001b520       _Script_Hide               4001c520 f   ui_shared.obj
 0001:0001b570       _Script_FadeIn             4001c570 f   ui_shared.obj
 0001:0001b5c0       _Script_FadeOut            4001c5c0 f   ui_shared.obj
 0001:0001b610       _Script_Defer              4001c610 f   ui_shared.obj
 0001:0001b660       _Menu_ItemDisable          4001c660 f   ui_shared.obj
 0001:0001b6b0       _Script_SetPlayerModel     4001c6b0 f   ui_shared.obj
 0001:0001b700       _ParseRect                 4001c700 f   ui_shared.obj
 0001:0001b760       _Script_SetCvar            4001c760 f   ui_shared.obj
 0001:0001b7e0       _Script_SetCvarToCvar      4001c7e0 f   ui_shared.obj
 0001:0001b880       _Script_Exec               4001c880 f   ui_shared.obj
 0001:0001b8e0       _Script_Play               4001c8e0 f   ui_shared.obj
 0001:0001b940       _Script_playLooped         4001c940 f   ui_shared.obj
 0001:0001b9b0       _Menu_SetItemBackground    4001c9b0 f   ui_shared.obj
 0001:0001ba10       _Item_RunScript            4001ca10 f   ui_shared.obj
 0001:0001bb00       _Item_EnableShowViaCvar    4001cb00 f   ui_shared.obj
 0001:0001bc20       _Item_TextScroll_ThumbPosition 4001cc20 f   ui_shared.obj
 0001:0001bcb0       _Item_TextScroll_ThumbDrawPosition 4001ccb0 f   ui_shared.obj
 0001:0001bd40       _Item_TextScroll_OverLB    4001cd40 f   ui_shared.obj
 0001:0001bed0       _Item_TextScroll_HandleKey 4001ced0 f   ui_shared.obj
 0001:0001c070       _Item_ListBox_MaxScroll    4001d070 f   ui_shared.obj
 0001:0001c0d0       _Item_ListBox_ThumbPosition 4001d0d0 f   ui_shared.obj
 0001:0001c1e0       _Item_ListBox_ThumbDrawPosition 4001d1e0 f   ui_shared.obj
 0001:0001c2d0       _Item_Slider_ThumbPosition 4001d2d0 f   ui_shared.obj
 0001:0001c390       _Item_Slider_OverSlider    4001d390 f   ui_shared.obj
 0001:0001c410       _Item_ListBox_OverLB       4001d410 f   ui_shared.obj
 0001:0001c7a0       _Item_ListBox_MouseEnter   4001d7a0 f   ui_shared.obj
 0001:0001c950       _Item_MouseEnter           4001d950 f   ui_shared.obj
 0001:0001cad0       _Item_MouseLeave           4001dad0 f   ui_shared.obj
 0001:0001cb20       _Item_OwnerDraw_HandleKey  4001db20 f   ui_shared.obj
 0001:0001cbb0       _Item_ListBox_HandleKey    4001dbb0 f   ui_shared.obj
 0001:0001d010       _Item_YesNo_HandleKey      4001e010 f   ui_shared.obj
 0001:0001d110       _Item_Multi_FindCvarByValue 4001e110 f   ui_shared.obj
 0001:0001d1d0       _Item_Multi_Setting        4001e1d0 f   ui_shared.obj
 0001:0001d2a0       _Item_Multi_HandleKey      4001e2a0 f   ui_shared.obj
 0001:0001d470       _Leaving_EditField         4001e470 f   ui_shared.obj
 0001:0001d990       _Item_StartCapture         4001e990 f   ui_shared.obj
 0001:0001dc20       _Item_Slider_HandleKey     4001ec20 f   ui_shared.obj
 0001:0001dd90       _Item_HandleAccept         4001ed90 f   ui_shared.obj
 0001:0001ddc0       _Item_Action               4001edc0 f   ui_shared.obj
 0001:0001ded0       _Menus_Activate            4001eed0 f   ui_shared.obj
 0001:0001df40       _Item_SetTextExtents       4001ef40 f   ui_shared.obj
 0001:0001e190       _Item_TextColor            4001f190 f   ui_shared.obj
 0001:0001e400       _Item_Text_AutoWrapped_Paint 4001f400 f   ui_shared.obj
 0001:0001e660       _Item_Text_Wrapped_Paint   4001f660 f   ui_shared.obj
 0001:0001e800       _Item_Text_Paint           4001f800 f   ui_shared.obj
 0001:0001e9b0       _Item_TextField_Paint      4001f9b0 f   ui_shared.obj
 0001:0001ec10       _Item_YesNo_Paint          4001fc10 f   ui_shared.obj
 0001:0001ee00       _Item_Multi_Paint          4001fe00 f   ui_shared.obj
 0001:0001efe0       _Controls_GetConfig        4001ffe0 f   ui_shared.obj
 0001:0001f080       _Controls_SetConfig        40020080 f   ui_shared.obj
 0001:0001f0d0       _BindingIDFromName         400200d0 f   ui_shared.obj
 0001:0001f110       _BindingFromName           40020110 f   ui_shared.obj
 0001:0001f220       _Item_Slider_Paint         40020220 f   ui_shared.obj
 0001:0001f3d0       _Item_Bind_Paint           400203d0 f   ui_shared.obj
 0001:0001f6c0       _Display_KeyBindPending    400206c0 f   ui_shared.obj
 0001:0001f6d0       _Item_Bind_HandleKey       400206d0 f   ui_shared.obj
 0001:0001f9a0       _UI_ScaleModelAxis         400209a0 f   ui_shared.obj
 0001:0001fa90       _Item_ListBox_Paint        40020a90 f   ui_shared.obj
 0001:00020790       _Item_OwnerDraw_Paint      40021790 f   ui_shared.obj
 0001:00020bd0       _Menu_Init                 40021bd0 f   ui_shared.obj
 0001:00020c50       _Menu_GetFocused           40021c50 f   ui_shared.obj
 0001:00020c90       _Menu_SetFeederSelection   40021c90 f   ui_shared.obj
 0001:00020d60       _Menus_AnyFullScreenVisible 40021d60 f   ui_shared.obj
 0001:00020d90       _Item_ValidateTypeData     40021d90 f   ui_shared.obj
 0001:00020ea0       _ItemParse_name            40021ea0 f   ui_shared.obj
 0001:00020ec0       _ItemParse_focusSound      40021ec0 f   ui_shared.obj
 0001:00020f10       _ItemParse_text            40021f10 f   ui_shared.obj
 0001:00020f30       _ItemParse_descText        40021f30 f   ui_shared.obj
 0001:00020f50       _MenuParse_soundLoop       40021f50 f   ui_shared.obj
 0001:00020f50       _ItemParse_text2           40021f50 f   ui_shared.obj
 0001:00020f70       _ItemParse_text2alignx     40021f70 f   ui_shared.obj
 0001:00020f90       _ItemParse_text2aligny     40021f90 f   ui_shared.obj
 0001:00020fb0       _ItemParse_group           40021fb0 f   ui_shared.obj
 0001:00020fd0       _UI_InsertG2Pointer        40021fd0 f   ui_shared.obj
 0001:00021020       _UI_CleanupGhoul2          40022020 f   ui_shared.obj
 0001:00021060       _ItemParse_asset_model_go  40022060 f   ui_shared.obj
 0001:000212a0       _ItemParse_asset_model     400222a0 f   ui_shared.obj
 0001:00021330       _ItemParse_asset_shader    40022330 f   ui_shared.obj
 0001:00021380       _ItemParse_model_origin    40022380 f   ui_shared.obj
 0001:000213e0       _ItemParse_model_rotation  400223e0 f   ui_shared.obj
 0001:00021410       _ItemParse_model_angle     40022410 f   ui_shared.obj
 0001:00021440       _ItemParse_model_g2mins    40022440 f   ui_shared.obj
 0001:000214a0       _ItemParse_model_g2maxs    400224a0 f   ui_shared.obj
 0001:00021500       _ItemParse_model_g2scale   40022500 f   ui_shared.obj
 0001:00021560       _ItemParse_model_g2skin    40022560 f   ui_shared.obj
 0001:000215c0       _ItemParse_model_g2anim    400225c0 f   ui_shared.obj
 0001:00021660       _ItemParse_model_g2skin_go 40022660 f   ui_shared.obj
 0001:000216d0       _ItemParse_model_g2anim_go 400226d0 f   ui_shared.obj
 0001:00021740       _ItemParse_rectcvar        40022740 f   ui_shared.obj
 0001:00021870       _ItemParse_rect            40022870 f   ui_shared.obj
 0001:000218d0       _ItemParse_flag            400228d0 f   ui_shared.obj
 0001:00021970       _ItemParse_style           40022970 f   ui_shared.obj
 0001:000219b0       _ItemParse_decoration      400229b0 f   ui_shared.obj
 0001:000219d0       _ItemParse_notselectable   400229d0 f   ui_shared.obj
 0001:00021a10       _ItemParse_scrollhidden    40022a10 f   ui_shared.obj
 0001:00021a50       _ItemParse_wrapped         40022a50 f   ui_shared.obj
 0001:00021a70       _ItemParse_autowrapped     40022a70 f   ui_shared.obj
 0001:00021a90       _ItemParse_horizontalscroll 40022a90 f   ui_shared.obj
 0001:00021ab0       _ItemParse_type            40022ab0 f   ui_shared.obj
 0001:00021af0       _ItemParse_model_fovx      40022af0 f   ui_shared.obj
 0001:00021af0       _ItemParse_elementwidth    40022af0 f   ui_shared.obj
 0001:00021b20       _ItemParse_elementheight   40022b20 f   ui_shared.obj
 0001:00021b20       _ItemParse_model_fovy      40022b20 f   ui_shared.obj
 0001:00021b50       _ItemParse_elementtype     40022b50 f   ui_shared.obj
 0001:00021b90       _ItemParse_columns         40022b90 f   ui_shared.obj
 0001:00021c50       _ItemParse_bordersize      40022c50 f   ui_shared.obj
 0001:00021c50       _MenuParse_borderSize      40022c50 f   ui_shared.obj
 0001:00021c70       _ItemParse_ownerdraw       40022c70 f   ui_shared.obj
 0001:00021ca0       _MenuParse_fadeCycle       40022ca0 f   ui_shared.obj
 0001:00021ca0       _ItemParse_align           40022ca0 f   ui_shared.obj
 0001:00021cc0       _ItemParse_isCharacter     40022cc0 f   ui_shared.obj
 0001:00021d10       _ItemParse_textalign       40022d10 f   ui_shared.obj
 0001:00021d50       _ItemParse_textalignx      40022d50 f   ui_shared.obj
 0001:00021d50       _MenuParse_fadeAmount      40022d50 f   ui_shared.obj
 0001:00021d70       _ItemParse_textaligny      40022d70 f   ui_shared.obj
 0001:00021d90       _ItemParse_textscale       40022d90 f   ui_shared.obj
 0001:00021db0       _ItemParse_textstyle       40022db0 f   ui_shared.obj
 0001:00021dd0       _ItemParse_invertyesno     40022dd0 f   ui_shared.obj
 0001:00021df0       _ItemParse_xoffset         40022df0 f   ui_shared.obj
 0001:00021e10       _ItemParse_backcolor       40022e10 f   ui_shared.obj
 0001:00021ec0       _ItemParse_forecolor       40022ec0 f   ui_shared.obj
 0001:00021fa0       _ItemParse_bordercolor     40022fa0 f   ui_shared.obj
 0001:00022060       _MenuParse_outlinecolor    40023060 f   ui_shared.obj
 0001:00022060       _ItemParse_outlinecolor    40023060 f   ui_shared.obj
 0001:00022080       _ItemParse_background      40023080 f   ui_shared.obj
 0001:00022080       _MenuParse_background      40023080 f   ui_shared.obj
 0001:000220d0       _ItemParse_doubleClick     400230d0 f   ui_shared.obj
 0001:00022110       _ItemParse_onFocus         40023110 f   ui_shared.obj
 0001:00022130       _ItemParse_leaveFocus      40023130 f   ui_shared.obj
 0001:00022150       _ItemParse_mouseEnter      40023150 f   ui_shared.obj
 0001:00022170       _ItemParse_mouseExit       40023170 f   ui_shared.obj
 0001:00022190       _ItemParse_mouseEnterText  40023190 f   ui_shared.obj
 0001:000221b0       _ItemParse_mouseExitText   400231b0 f   ui_shared.obj
 0001:000221d0       _ItemParse_action          400231d0 f   ui_shared.obj
 0001:000221f0       _ItemParse_feeder          400231f0 f   ui_shared.obj
 0001:000221f0       _ItemParse_special         400231f0 f   ui_shared.obj
 0001:00022210       _ItemParse_cvarTest        40023210 f   ui_shared.obj
 0001:00022230       _ItemParse_cvar            40023230 f   ui_shared.obj
 0001:000222b0       _ItemParse_font            400232b0 f   ui_shared.obj
 0001:000222e0       _ItemParse_maxChars        400232e0 f   ui_shared.obj
 0001:00022330       _ItemParse_maxPaintChars   40023330 f   ui_shared.obj
 0001:00022380       _ItemParse_maxLineChars    40023380 f   ui_shared.obj
 0001:000223d0       _ItemParse_lineHeight      400233d0 f   ui_shared.obj
 0001:00022420       _ItemParse_cvarFloat       40023420 f   ui_shared.obj
 0001:000224a0       _ItemParse_cvarStrList     400234a0 f   ui_shared.obj
 0001:00022700       _ItemParse_cvarFloatList   40023700 f   ui_shared.obj
 0001:00022820       _ItemParse_addColorRange   40023820 f   ui_shared.obj
 0001:000228c0       _ItemParse_enableCvar      400238c0 f   ui_shared.obj
 0001:00022900       _ItemParse_disableCvar     40023900 f   ui_shared.obj
 0001:00022940       _ItemParse_showCvar        40023940 f   ui_shared.obj
 0001:00022980       _ItemParse_hideCvar        40023980 f   ui_shared.obj
 0001:000229c0       _ItemParse_Appearance_slot 400239c0 f   ui_shared.obj
 0001:000229e0       _ItemParse_isSaber         400239e0 f   ui_shared.obj
 0001:00022a40       _ItemParse_isSaber2        40023a40 f   ui_shared.obj
 0001:00022aa0       _Item_SetupKeywordHash     40023aa0 f   ui_shared.obj
 0001:00022b40       _Item_Parse                40023b40 f   ui_shared.obj
 0001:00022ee0       _MenuParse_font            40023ee0 f   ui_shared.obj
 0001:00022f40       _MenuParse_name            40023f40 f   ui_shared.obj
 0001:00022f80       _MenuParse_fullscreen      40023f80 f   ui_shared.obj
 0001:00022fa0       _MenuParse_rect            40023fa0 f   ui_shared.obj
 0001:00023000       _MenuParse_style           40024000 f   ui_shared.obj
 0001:00023040       _ItemParse_visible         40024040 f   ui_shared.obj
 0001:00023040       _MenuParse_visible         40024040 f   ui_shared.obj
 0001:00023080       _MenuParse_onOpen          40024080 f   ui_shared.obj
 0001:000230a0       _MenuParse_onClose         400240a0 f   ui_shared.obj
 0001:000230c0       _MenuParse_onAccept        400240c0 f   ui_shared.obj
 0001:000230e0       _MenuParse_onESC           400240e0 f   ui_shared.obj
 0001:00023100       _ItemParse_border          40024100 f   ui_shared.obj
 0001:00023100       _MenuParse_border          40024100 f   ui_shared.obj
 0001:00023120       _MenuParse_backcolor       40024120 f   ui_shared.obj
 0001:000231d0       _MenuParse_descAlignment   400241d0 f   ui_shared.obj
 0001:00023210       _MenuParse_descX           40024210 f   ui_shared.obj
 0001:00023230       _MenuParse_descY           40024230 f   ui_shared.obj
 0001:00023250       _MenuParse_descScale       40024250 f   ui_shared.obj
 0001:00023270       _MenuParse_descColor       40024270 f   ui_shared.obj
 0001:00023330       _MenuParse_forecolor       40024330 f   ui_shared.obj
 0001:00023410       _MenuParse_bordercolor     40024410 f   ui_shared.obj
 0001:000234d0       _MenuParse_focuscolor      400244d0 f   ui_shared.obj
 0001:00023590       _MenuParse_disablecolor    40024590 f   ui_shared.obj
 0001:00023650       _MenuParse_cinematic       40024650 f   ui_shared.obj
 0001:00023650       _ItemParse_cinematic       40024650 f   ui_shared.obj
 0001:00023670       _MenuParse_ownerdrawFlag   40024670 f   ui_shared.obj
 0001:00023670       _ItemParse_ownerdrawFlag   40024670 f   ui_shared.obj
 0001:000236a0       _MenuParse_ownerdraw       400246a0 f   ui_shared.obj
 0001:000236c0       _MenuParse_popup           400246c0 f   ui_shared.obj
 0001:000236e0       _MenuParse_outOfBounds     400246e0 f   ui_shared.obj
 0001:00023700       _MenuParse_fadeClamp       40024700 f   ui_shared.obj
 0001:00023720       _MenuParse_itemDef         40024720 f   ui_shared.obj
 0001:00023820       _MenuParse_appearanceIncrement 40024820 f   ui_shared.obj
 0001:00023840       _Menu_SetupKeywordHash     40024840 f   ui_shared.obj
 0001:000238e0       _Menu_Parse                400248e0 f   ui_shared.obj
 0001:00023a30       _Menu_Count                40024a30 f   ui_shared.obj
 0001:00023a40       _Menu_Reset                40024a40 f   ui_shared.obj
 0001:00023a50       _Display_CacheAll          40024a50 f   ui_shared.obj
 0001:00023c30       _String_Init               40024c30 f   ui_shared.obj
 0001:00023c90       _Item_SetScreenCoords      40024c90 f   ui_shared.obj
 0001:00023d10       _Item_UpdatePosition       40024d10 f   ui_shared.obj
 0001:00023d70       _Menu_UpdatePosition       40024d70 f   ui_shared.obj
 0001:00023e80       _Menu_ClearFocus           40024e80 f   ui_shared.obj
 0001:00023fe0       _Script_SetItemRectCvar    40024fe0 f   ui_shared.obj
 0001:00024190       _Script_SetItemBackground  40025190 f   ui_shared.obj
 0001:00024210       _Menus_CloseByName         40025210 f   ui_shared.obj
 0001:00024290       _Menus_CloseAll            40025290 f   ui_shared.obj
 0001:00024320       _Script_Close              40025320 f   ui_shared.obj
 0001:00024390       _Menu_TransitionItemByName 40025390 f   ui_shared.obj
 0001:000244f0       _Script_RunDeferred        400254f0 f   ui_shared.obj
 0001:00024520       _Script_Transition         40025520 f   ui_shared.obj
 0001:000245e0       _Menu_OrbitItemByName      400255e0 f   ui_shared.obj
 0001:00024690       _Script_Disable            40025690 f   ui_shared.obj
 0001:00024730       _Script_Scale              40025730 f   ui_shared.obj
 0001:00024860       _Script_Orbit              40025860 f   ui_shared.obj
 0001:00024970       _Script_SetFocus           40025970 f   ui_shared.obj
 0001:00024a20       _Script_Transition2        40025a20 f   ui_shared.obj
 0001:00024af0       _Menu_SetItemText          40025af0 f   ui_shared.obj
 0001:00024ba0       _Item_SetFocus             40025ba0 f   ui_shared.obj
 0001:00024d30       _Item_HandleKey            40025d30 f   ui_shared.obj
 0001:00024e80       _Item_Model_Paint          40025e80 f   ui_shared.obj
 0001:000254c0       _Item_TextScroll_Paint     400264c0 f   ui_shared.obj
 0001:00025770       _Item_Paint                40026770 f   ui_shared.obj
 0001:00026090       _Menu_HandleMouseMove      40027090 f   ui_shared.obj
 0001:00026250       _Menu_Paint                40027250 f   ui_shared.obj
 0001:000263e0       _Menu_New                  400273e0 f   ui_shared.obj
 0001:00026450       _Menu_PaintAll             40027450 f   ui_shared.obj
 0001:00026700       _Display_MouseMove         40027700 f   ui_shared.obj
 0001:000267c0       _Script_SetItemText        400277c0 f   ui_shared.obj
 0001:00026840       _Menu_SetPrevCursorItem    40027840 f   ui_shared.obj
 0001:00026930       _Menu_SetNextCursorItem    40027930 f   ui_shared.obj
 0001:00026a30       _Menus_HandleOOBClick      40027a30 f   ui_shared.obj
 0001:00026b90       _Menus_ActivateByName      40027b90 f   ui_shared.obj
 0001:00026ca0       _Menus_OpenByName          40027ca0 f   ui_shared.obj
 0001:00026cb0       _Script_Open               40027cb0 f   ui_shared.obj
 0001:00026cf0       _Item_TextField_HandleKey  40027cf0 f   ui_shared.obj
 0001:00027120       _Menu_HandleKey            40028120 f   ui_shared.obj
 0001:000275f0       _dllEntry                  400285f0 f   ui_syscalls.obj
 0001:00027600       _trap_Print                40028600 f   ui_syscalls.obj
 0001:00027620       _trap_Error                40028620 f   ui_syscalls.obj
 0001:00027640       _trap_Milliseconds         40028640 f   ui_syscalls.obj
 0001:00027650       _trap_Cvar_Register        40028650 f   ui_syscalls.obj
 0001:00027670       _trap_Cvar_Update          40028670 f   ui_syscalls.obj
 0001:00027690       _trap_Cvar_Set             40028690 f   ui_syscalls.obj
 0001:000276b0       _trap_Cvar_VariableValue   400286b0 f   ui_syscalls.obj
 0001:000276d0       _trap_Cvar_VariableStringBuffer 400286d0 f   ui_syscalls.obj
 0001:000276f0       _trap_Cvar_SetValue        400286f0 f   ui_syscalls.obj
 0001:00027710       _trap_Argc                 40028710 f   ui_syscalls.obj
 0001:00027720       _trap_Argv                 40028720 f   ui_syscalls.obj
 0001:00027740       _trap_Cmd_ExecuteText      40028740 f   ui_syscalls.obj
 0001:00027760       _trap_FS_FOpenFile         40028760 f   ui_syscalls.obj
 0001:00027780       _trap_FS_Read              40028780 f   ui_syscalls.obj
 0001:000277a0       _trap_FS_Write             400287a0 f   ui_syscalls.obj
 0001:000277c0       _trap_FS_FCloseFile        400287c0 f   ui_syscalls.obj
 0001:000277e0       _trap_FS_GetFileList       400287e0 f   ui_syscalls.obj
 0001:00027800       _trap_R_RegisterModel      40028800 f   ui_syscalls.obj
 0001:00027820       _trap_R_RegisterSkin       40028820 f   ui_syscalls.obj
 0001:00027840       _trap_R_RegisterFont       40028840 f   ui_syscalls.obj
 0001:00027860       _trap_R_Font_StrLenPixels  40028860 f   ui_syscalls.obj
 0001:00027890       _trap_R_Font_StrLenChars   40028890 f   ui_syscalls.obj
 0001:000278b0       _trap_R_Font_HeightPixels  400288b0 f   ui_syscalls.obj
 0001:000278d0       _trap_R_Font_DrawString    400288d0 f   ui_syscalls.obj
 0001:00027910       _trap_Language_IsAsian     40028910 f   ui_syscalls.obj
 0001:00027920       _trap_Language_UsesSpaces  40028920 f   ui_syscalls.obj
 0001:00027930       _trap_AnyLanguage_ReadCharFromString 40028930 f   ui_syscalls.obj
 0001:00027950       _trap_R_RegisterShaderNoMip 40028950 f   ui_syscalls.obj
 0001:000279b0       _trap_R_ShaderNameFromIndex 400289b0 f   ui_syscalls.obj
 0001:000279d0       _trap_R_ClearScene         400289d0 f   ui_syscalls.obj
 0001:000279e0       _trap_R_AddRefEntityToScene 400289e0 f   ui_syscalls.obj
 0001:00027a00       _trap_R_RenderScene        40028a00 f   ui_syscalls.obj
 0001:00027a20       _trap_R_SetColor           40028a20 f   ui_syscalls.obj
 0001:00027a40       _trap_R_DrawStretchPic     40028a40 f   ui_syscalls.obj
 0001:00027ab0       _trap_R_ModelBounds        40028ab0 f   ui_syscalls.obj
 0001:00027ad0       _trap_S_StartLocalSound    40028ad0 f   ui_syscalls.obj
 0001:00027af0       _trap_S_RegisterSound      40028af0 f   ui_syscalls.obj
 0001:00027b10       _trap_Key_KeynumToStringBuf 40028b10 f   ui_syscalls.obj
 0001:00027b30       _trap_Key_GetBindingBuf    40028b30 f   ui_syscalls.obj
 0001:00027b50       _trap_Key_SetBinding       40028b50 f   ui_syscalls.obj
 0001:00027b70       _trap_Key_GetOverstrikeMode 40028b70 f   ui_syscalls.obj
 0001:00027b80       _trap_Key_SetOverstrikeMode 40028b80 f   ui_syscalls.obj
 0001:00027ba0       _trap_Key_ClearStates      40028ba0 f   ui_syscalls.obj
 0001:00027bb0       _trap_Key_GetCatcher       40028bb0 f   ui_syscalls.obj
 0001:00027bc0       _trap_Key_SetCatcher       40028bc0 f   ui_syscalls.obj
 0001:00027be0       _trap_GetClientState       40028be0 f   ui_syscalls.obj
 0001:00027c00       _trap_GetGlconfig          40028c00 f   ui_syscalls.obj
 0001:00027c20       _trap_GetConfigString      40028c20 f   ui_syscalls.obj
 0001:00027c40       _trap_LAN_GetServerCount   40028c40 f   ui_syscalls.obj
 0001:00027c60       _trap_LAN_GetServerAddressString 40028c60 f   ui_syscalls.obj
 0001:00027c80       _trap_LAN_GetServerInfo    40028c80 f   ui_syscalls.obj
 0001:00027ca0       _trap_LAN_GetServerPing    40028ca0 f   ui_syscalls.obj
 0001:00027cc0       _trap_LAN_ServerStatus     40028cc0 f   ui_syscalls.obj
 0001:00027ce0       _trap_LAN_SaveCachedServers 40028ce0 f   ui_syscalls.obj
 0001:00027cf0       _trap_LAN_LoadCachedServers 40028cf0 f   ui_syscalls.obj
 0001:00027d00       _trap_LAN_ResetPings       40028d00 f   ui_syscalls.obj
 0001:00027d20       _trap_LAN_MarkServerVisible 40028d20 f   ui_syscalls.obj
 0001:00027d40       _trap_LAN_ServerIsVisible  40028d40 f   ui_syscalls.obj
 0001:00027d60       _trap_LAN_UpdateVisiblePings 40028d60 f   ui_syscalls.obj
 0001:00027d80       _trap_LAN_AddServer        40028d80 f   ui_syscalls.obj
 0001:00027da0       _trap_LAN_RemoveServer     40028da0 f   ui_syscalls.obj
 0001:00027dc0       _trap_LAN_CompareServers   40028dc0 f   ui_syscalls.obj
 0001:00027df0       _trap_PC_LoadSource        40028df0 f   ui_syscalls.obj
 0001:00027e10       _trap_PC_FreeSource        40028e10 f   ui_syscalls.obj
 0001:00027e30       _trap_PC_ReadToken         40028e30 f   ui_syscalls.obj
 0001:00027e50       _trap_PC_SourceFileAndLine 40028e50 f   ui_syscalls.obj
 0001:00027e70       _trap_PC_LoadGlobalDefines 40028e70 f   ui_syscalls.obj
 0001:00027e90       _trap_PC_RemoveAllGlobalDefines 40028e90 f   ui_syscalls.obj
 0001:00027ea0       _trap_S_StopBackgroundTrack 40028ea0 f   ui_syscalls.obj
 0001:00027eb0       _trap_S_StartBackgroundTrack 40028eb0 f   ui_syscalls.obj
 0001:00027ed0       _trap_RealTime             40028ed0 f   ui_syscalls.obj
 0001:00027ef0       _trap_CIN_PlayCinematic    40028ef0 f   ui_syscalls.obj
 0001:00027f20       _trap_CIN_StopCinematic    40028f20 f   ui_syscalls.obj
 0001:00027f40       _trap_CIN_RunCinematic     40028f40 f   ui_syscalls.obj
 0001:00027f60       _trap_CIN_DrawCinematic    40028f60 f   ui_syscalls.obj
 0001:00027f80       _trap_CIN_SetExtents       40028f80 f   ui_syscalls.obj
 0001:00027fb0       _trap_SP_GetNumLanguages   40028fb0 f   ui_syscalls.obj
 0001:00027fc0       _trap_GetLanguageName      40028fc0 f   ui_syscalls.obj
 0001:00027fe0       _trap_SP_GetStringTextString 40028fe0 f   ui_syscalls.obj
 0001:00028000       _trap_G2_HaveWeGhoul2Models 40029000 f   ui_syscalls.obj
 0001:00028020       _trap_G2API_GetBoltMatrix  40029020 f   ui_syscalls.obj
 0001:00028060       _trap_G2API_InitGhoul2Model 40029060 f   ui_syscalls.obj
 0001:00028090       _trap_G2API_SetSkin        40029090 f   ui_syscalls.obj
 0001:000280c0       _trap_G2API_CleanGhoul2Models 400290c0 f   ui_syscalls.obj
 0001:000280e0       _trap_G2API_SetBoneAnim    400290e0 f   ui_syscalls.obj
 0001:00028130       _trap_G2API_GetGLAName     40029130 f   ui_syscalls.obj
 0001:00028150       _trap_G2API_HasGhoul2ModelOnIndex 40029150 f   ui_syscalls.obj
 0001:00028170       _trap_G2API_RemoveGhoul2Model 40029170 f   ui_syscalls.obj
 0001:00028190       _trap_G2API_AddBolt        40029190 f   ui_syscalls.obj
 0001:000281b0       _trap_G2API_SetTime        400291b0 f   ui_syscalls.obj
 0001:000281d0       _trap_G2API_AttachG2Model  400291d0 f   ui_syscalls.obj
 0001:000281f7       __cfltcvt_init             400291f7 f   LIBCMT:_fpinit_.obj
 0001:00028257       __fpmath                   40029257 f   LIBCMT:_fpinit_.obj
 0001:00028270       _atol                      40029270 f   LIBCMT:atox.obj
 0001:00028286       _atoi                      40029286 f   LIBCMT:atox.obj
 0001:000282a0       _atan2                     400292a0 f   LIBCMT:_87ctriga_.obj
 0001:000282aa       __CIatan2                  400292aa f   LIBCMT:_87ctriga_.obj
 0001:000282c0       _cos                       400292c0 f   LIBCMT:_cos_.obj
 0001:00028300       __CIcos                    40029300 f   LIBCMT:_cos_.obj
 0001:0002833b       __CIcos_default            4002933b f   LIBCMT:_cos_.obj
 0001:0002834f       __cos_default              4002934f     LIBCMT:_cos_.obj
 0001:000283f0       _sin                       400293f0 f   LIBCMT:_sin_.obj
 0001:00028430       __CIsin                    40029430 f   LIBCMT:_sin_.obj
 0001:0002846b       __CIsin_default            4002946b f   LIBCMT:_sin_.obj
 0001:0002847f       __sin_default              4002947f     LIBCMT:_sin_.obj
 0001:00028530       _strchr                    40029530 f   LIBCMT:strchr.obj
 0001:00028536       ___from_strstr_to_strchr   40029536     LIBCMT:strchr.obj
 0001:000285f0       __alloca_probe             400295f0     LIBCMT:chkstk.obj
 0001:000285f0       __chkstk                   400295f0 f   LIBCMT:chkstk.obj
 0001:0002861b       ??0_LocaleUpdate@@QAE@PAUlocaleinfo_struct@@@Z 4002961b f i LIBCMT:atof.obj
 0001:000286a2       __atof_l                   400296a2 f   LIBCMT:atof.obj
 0001:0002874d       _atof                      4002974d f   LIBCMT:atof.obj
 0001:00028760       _memset                    40029760 f   LIBCMT:memset.obj
 0001:000287e0       __CIsqrt                   400297e0 f   LIBCMT:_sqrt_.obj
 0001:000287f4       _sqrt                      400297f4     LIBCMT:_sqrt_.obj
 0001:000288a0       _fmod                      400298a0 f   LIBCMT:_87fmod_.obj
 0001:000288aa       __CIfmod                   400298aa f   LIBCMT:_87fmod_.obj
 0001:000288d0       __ftol2_sse                400298d0 f   LIBCMT:ftol2.obj
 0001:000288d9       __ftol2_pentium4           400298d9 f   LIBCMT:ftol2.obj
 0001:000288ec       __ftol2_sse_excpt          400298ec f   LIBCMT:ftol2.obj
 0001:00028906       __ftol2                    40029906 f   LIBCMT:ftol2.obj
 0001:00028980       _acos                      40029980 f   LIBCMT:_acos_.obj
 0001:000289c0       __CIacos                   400299c0 f   LIBCMT:_acos_.obj
 0001:000289fb       __CIacos_default           400299fb f   LIBCMT:_acos_.obj
 0001:00028a0f       __acos_default             40029a0f     LIBCMT:_acos_.obj
 0001:00028ac6       __vsprintf_l               40029ac6 f   LIBCMT:vsprintf.obj
 0001:00028b4a       _vsprintf                  40029b4a f   LIBCMT:vsprintf.obj
 0001:00028b70       _strncpy                   40029b70 f   LIBCMT:strncpy.obj
 0001:00028c94       __tolower_l                40029c94 f   LIBCMT:tolower.obj
 0001:00028da9       _tolower                   40029da9 f   LIBCMT:tolower.obj
 0001:00028dd5       __toupper_l                40029dd5 f   LIBCMT:toupper.obj
 0001:00028eeb       _toupper                   40029eeb f   LIBCMT:toupper.obj
 0001:00028f20       _strstr                    40029f20 f   LIBCMT:strstr.obj
 0001:00028fb0       _ceil                      40029fb0 f   LIBCMT:_ceil_pentium4_.obj
 0001:00028ff0       __ceil_pentium4            40029ff0 f   LIBCMT:_ceil_pentium4_.obj
 0001:000290d0       _floor                     4002a0d0 f   LIBCMT:_floor_pentium4_.obj
 0001:00029110       __floor_pentium4           4002a110 f   LIBCMT:_floor_pentium4_.obj
 0001:00029290       _qsort                     4002a290 f   LIBCMT:qsort.obj
 0001:00029520       _strrchr                   4002a520 f   LIBCMT:strrchr.obj
 0001:0002954d       _sprintf                   4002a54d f   LIBCMT:sprintf.obj
 0001:000295d1       _rand                      4002a5d1 f   LIBCMT:rand.obj
 0001:00029600       _tan                       4002a600 f   LIBCMT:_tan_.obj
 0001:00029640       __CItan                    4002a640 f   LIBCMT:_tan_.obj
 0001:0002967b       __CItan_default            4002a67b f   LIBCMT:_tan_.obj
 0001:0002968f       __tan_default              4002a68f     LIBCMT:_tan_.obj
 0001:00029730       _memmove                   4002a730 f   LIBCMT:memmove.obj
 0001:00029a91       __CRT_INIT@12              4002aa91 f   LIBCMT:dllcrt0.obj
 0001:00029ceb       __DllMainCRTStartup@12     4002aceb f   LIBCMT:dllcrt0.obj
 0001:00029d0e       __forcdecpt_l              4002ad0e f   LIBCMT:cvt.obj
 0001:00029d82       __cropzeros_l              4002ad82 f   LIBCMT:cvt.obj
 0001:00029e04       __positive                 4002ae04 f   LIBCMT:cvt.obj
 0001:00029e20       __fassign_l                4002ae20 f   LIBCMT:cvt.obj
 0001:00029e62       __fassign                  4002ae62 f   LIBCMT:cvt.obj
 0001:00029e9b       __forcdecpt                4002ae9b f   LIBCMT:cvt.obj
 0001:00029eae       __cropzeros                4002aeae f   LIBCMT:cvt.obj
 0001:0002a022       __cftoe_l                  4002b022 f   LIBCMT:cvt.obj
 0001:0002a0e9       __cftoe                    4002b0e9 f   LIBCMT:cvt.obj
 0001:0002a109       __cftoa_l                  4002b109 f   LIBCMT:cvt.obj
 0001:0002a582       __cftof_l                  4002b582 f   LIBCMT:cvt.obj
 0001:0002a643       __cftog_l                  4002b643 f   LIBCMT:cvt.obj
 0001:0002a730       __cfltcvt_l                4002b730 f   LIBCMT:cvt.obj
 0001:0002a7b8       __cfltcvt                  4002b7b8 f   LIBCMT:cvt.obj
 0001:0002a7db       __initp_misc_cfltcvt_tab   4002b7db f   LIBCMT:cmiscdat.obj
 0001:0002a7fe       __setdefaultprecision      4002b7fe f   LIBCMT:fp8.obj
 0001:0002aa51       _strtol                    4002ba51 f   LIBCMT:strtol.obj
 0001:0002aa9c       __fFATN2                   4002ba9c     LIBCMT:_87triga_.obj
 0001:0002aaec       __rtpiby2                  4002baec     LIBCMT:_87triga_.obj
 0001:0002ab30       __cintrindisp2             4002bb30 f   LIBCMT:_87cdisp_.obj
 0001:0002ab6e       __cintrindisp1             4002bb6e f   LIBCMT:_87cdisp_.obj
 0001:0002abab       __ctrandisp2               4002bbab f   LIBCMT:_87cdisp_.obj
 0001:0002ad3a       __ctrandisp1               4002bd3a f   LIBCMT:_87cdisp_.obj
 0001:0002ad6d       __fload                    4002bd6d f   LIBCMT:_87cdisp_.obj
 0001:0002ada9       __sse2_mathfcns_init       4002bda9 f   LIBCMT:_mathfcns_.obj
 0001:0002adc0       __CIcos_pentium4           4002bdc0 f   LIBCMT:_cos_pentium4_.obj
 0001:0002add8       __cos_pentium4             4002bdd8     LIBCMT:_cos_pentium4_.obj
 0001:0002af70       __trandisp1                4002bf70 f   LIBCMT:_87disp_.obj
 0001:0002afd7       __trandisp2                4002bfd7 f   LIBCMT:_87disp_.obj
 0001:0002b063       __rttospopde               4002c063     LIBCMT:_87disp_.obj
 0001:0002b068       __rttospop                 4002c068     LIBCMT:_87disp_.obj
 0001:0002b06a       __rtnospop                 4002c06a     LIBCMT:_87disp_.obj
 0001:0002b06c       __rttosnpop                4002c06c     LIBCMT:_87disp_.obj
 0001:0002b06d       __rtnospopde               4002c06d     LIBCMT:_87disp_.obj
 0001:0002b074       __rtzeropop                4002c074     LIBCMT:_87disp_.obj
 0001:0002b076       __rtzeronpop               4002c076     LIBCMT:_87disp_.obj
 0001:0002b07b       __rtonepop                 4002c07b     LIBCMT:_87disp_.obj
 0001:0002b07d       __rtonenpop                4002c07d     LIBCMT:_87disp_.obj
 0001:0002b082       __tosnan1                  4002c082     LIBCMT:_87disp_.obj
 0001:0002b0ad       __nosnan2                  4002c0ad     LIBCMT:_87disp_.obj
 0001:0002b0af       __tosnan2                  4002c0af     LIBCMT:_87disp_.obj
 0001:0002b0d7       __nan2                     4002c0d7     LIBCMT:_87disp_.obj
 0001:0002b116       __rtindfpop                4002c116     LIBCMT:_87disp_.obj
 0001:0002b118       __rtindfnpop               4002c118     LIBCMT:_87disp_.obj
 0001:0002b129       __rttosnpopde              4002c129     LIBCMT:_87disp_.obj
 0001:0002b133       __rtchsifneg               4002c133     LIBCMT:_87disp_.obj
 0001:0002b140       __twoToTOS                 4002c140 f   LIBCMT:_common_.obj
 0001:0002b155       __load_CW                  4002c155 f   LIBCMT:_common_.obj
 0001:0002b16c       __convertTOStoQNaN         4002c16c f   LIBCMT:_common_.obj
 0001:0002b185       __fload_withFB             4002c185 f   LIBCMT:_common_.obj
 0001:0002b1c8       __checkTOS_withFB          4002c1c8 f   LIBCMT:_common_.obj
 0001:0002b1de       __fast_exit                4002c1de f   LIBCMT:_common_.obj
 0001:0002b1eb       __math_exit                4002c1eb f   LIBCMT:_common_.obj
 0001:0002b215       __check_overflow_exit      4002c215 f   LIBCMT:_common_.obj
 0001:0002b229       __check_range_exit         4002c229 f   LIBCMT:_common_.obj
 0001:0002b2d0       __startTwoArgErrorHandling 4002c2d0 f   LIBCMT:_genexcep_.obj
 0001:0002b2e7       __startOneArgErrorHandling 4002c2e7 f   LIBCMT:_genexcep_.obj
 0001:0002b330       __CIsin_pentium4           4002c330 f   LIBCMT:_sin_pentium4_.obj
 0001:0002b348       __sin_pentium4             4002c348     LIBCMT:_sin_pentium4_.obj
 0001:0002b71b       ___updatetmbcinfo          4002c71b f   LIBCMT:mbctype.obj
 0001:0002b83b       __setmbcp_nolock           4002c83b f   LIBCMT:mbctype.obj
 0001:0002ba24       __setmbcp                  4002ca24 f   LIBCMT:mbctype.obj
 0001:0002bbbe       ___initmbctable            4002cbbe f   LIBCMT:mbctype.obj
 0001:0002bbdc       ___addlocaleref            4002cbdc f   LIBCMT:localref.obj
 0001:0002bc6b       ___removelocaleref         4002cc6b f   LIBCMT:localref.obj
 0001:0002bd04       ___freetlocinfo            4002cd04 f   LIBCMT:localref.obj
 0001:0002be4f       __updatetlocinfoEx_nolock  4002ce4f f   LIBCMT:localref.obj
 0001:0002be9c       ___updatetlocinfo          4002ce9c f   LIBCMT:localref.obj
 0001:0002bf15       __encoded_null             4002cf15 f   LIBCMT:tidtable.obj
 0001:0002bf1e       ___crtTlsAlloc@4           4002cf1e f   LIBCMT:tidtable.obj
 0001:0002bf27       ___set_flsgetvalue         4002cf27 f   LIBCMT:tidtable.obj
 0001:0002bf5b       __mtterm                   4002cf5b f   LIBCMT:tidtable.obj
 0001:0002bf98       __initptd                  4002cf98 f   LIBCMT:tidtable.obj
 0001:0002c04c       __getptd_noexit            4002d04c f   LIBCMT:tidtable.obj
 0001:0002c0c5       __getptd                   4002d0c5 f   LIBCMT:tidtable.obj
 0001:0002c0df       __freefls@4                4002d0df f   LIBCMT:tidtable.obj
 0001:0002c20e       __freeptd                  4002d20e f   LIBCMT:tidtable.obj
 0001:0002c27c       __mtinit                   4002d27c f   LIBCMT:tidtable.obj
 0001:0002c3f7       __fltin2                   4002d3f7 f   LIBCMT:_cfin_.obj
 0001:0002c49e       __isctype_l                4002d49e f   LIBCMT:isctype.obj
 0001:0002c556       __initp_misc_invarg        4002d556 f   LIBCMT:invarg.obj
 0001:0002c565       __call_reportfault         4002d565 f   LIBCMT:invarg.obj
 0001:0002c68e       __invoke_watson            4002d68e f   LIBCMT:invarg.obj
 0001:0002c6b3       __invalid_parameter        4002d6b3 f   LIBCMT:invarg.obj
 0001:0002c6e0       __invalid_parameter_noinfo 4002d6e0 f   LIBCMT:invarg.obj
 0001:0002c6f0       __get_errno_from_oserr     4002d6f0 f   LIBCMT:dosmap.obj
 0001:0002c732       __errno                    4002d732 f   LIBCMT:dosmap.obj
 0001:0002c745       ___doserrno                4002d745 f   LIBCMT:dosmap.obj
 0001:0002c758       __dosmaperr                4002d758 f   LIBCMT:dosmap.obj
 0001:0002c77b       @__security_check_cookie@4 4002d77b f   LIBCMT:secchk.obj
 0001:0002c78a       ___strgtold12_l            4002d78a f   LIBCMT:_strgtold_.obj
 0001:0002ce70       _strlen                    4002de70 f   LIBCMT:strlen.obj
 0001:0002cefb       __VEC_memzero              4002defb f   LIBCMT:p4_memset.obj
 0001:0002cfb5       ___sse2_available_init     4002dfb5 f   LIBCMT:cpu_disp.obj
 0001:0002cfd0       __CIacos_pentium4          4002dfd0 f   LIBCMT:_acos_pentium4_.obj
 0001:0002cfe8       __acos_pentium4            4002dfe8     LIBCMT:_acos_pentium4_.obj
 0001:0002d524       __flsbuf                   4002e524 f   LIBCMT:_flsbuf.obj
 0001:0002d72f       __output_l                 4002e72f f   LIBCMT:output.obj
 0001:0002e2db       __freea                    4002f2db f i LIBCMT:a_map.obj
 0001:0002e4e2       ___crtLCMapStringA         4002f4e2 f   LIBCMT:a_map.obj
 0001:0002e528       __isleadbyte_l             4002f528 f i LIBCMT:_wctype.obj
 0001:0002e560       _isleadbyte                4002f560 f i LIBCMT:_wctype.obj
 0001:0002e573       ___libm_error_support      4002f573 f   LIBCMT:_libm_error_.obj
 0001:0002e83f       __ceil_default             4002f83f f   LIBCMT:_ceil_.obj
 0001:0002e917       __floor_default            4002f917 f   LIBCMT:_floor_.obj
 0001:0002e9f0       __CItan_pentium4           4002f9f0 f   LIBCMT:_tan_pentium4_.obj
 0001:0002ea08       __tan_pentium4             4002fa08     LIBCMT:_tan_pentium4_.obj
 0001:0002ec50       __VEC_memcpy               4002fc50 f   LIBCMT:p4_memcpy.obj
 0001:0002ed53       _free                      4002fd53 f   LIBCMT:free.obj
 0001:0002ed8d       __malloc_crt               4002fd8d f   LIBCMT:crtheap.obj
 0001:0002edd2       __calloc_crt               4002fdd2 f   LIBCMT:crtheap.obj
 0001:0002ee1e       __realloc_crt              4002fe1e f   LIBCMT:crtheap.obj
 0001:0002ee6c       ___crtCorExitProcess       4002fe6c f   LIBCMT:crt0dat.obj
 0001:0002ee97       ___crtExitProcess          4002fe97 f   LIBCMT:crt0dat.obj
 0001:0002eeaf       __lockexit                 4002feaf f   LIBCMT:crt0dat.obj
 0001:0002eeb8       __unlockexit               4002feb8 f   LIBCMT:crt0dat.obj
 0001:0002eec1       __init_pointers            4002fec1 f   LIBCMT:crt0dat.obj
 0001:0002eef4       __initterm_e               4002fef4 f   LIBCMT:crt0dat.obj
 0001:0002ef18       __cinit                    4002ff18 f   LIBCMT:crt0dat.obj
 0001:0002f0ef       __exit                     400300ef f   LIBCMT:crt0dat.obj
 0001:0002f105       __cexit                    40030105 f   LIBCMT:crt0dat.obj
 0001:0002f114       __amsg_exit                40030114 f   LIBCMT:crt0dat.obj
 0001:0002f132       __ioinit                   40030132 f   LIBCMT:ioinit.obj
 0001:0002f377       __ioterm                   40030377 f   LIBCMT:ioinit.obj
 0001:0002f3ca       __setenvp                  400303ca f   LIBCMT:stdenvp.obj
 0001:0002f640       __setargv                  40030640 f   LIBCMT:stdargv.obj
 0001:0002f6fb       ___crtGetEnvironmentStringsA 400306fb f   LIBCMT:a_env.obj
 0001:0002f792       __RTC_Initialize           40030792 f   LIBCMT:_initsect_.obj
 0001:0002f7b8       __RTC_Terminate            400307b8 f   LIBCMT:_initsect_.obj
 0001:0002f7de       __heap_init                400307de f   LIBCMT:heapinit.obj
 0001:0002f7fc       __heap_term                400307fc f   LIBCMT:heapinit.obj
 0001:0002f810       __SEH_prolog4              40030810 f   LIBCMT:sehprolg4.obj
 0001:0002f855       __SEH_epilog4              40030855 f   LIBCMT:sehprolg4.obj
 0001:0002f870       __except_handler4          40030870 f   LIBCMT:chandler4.obj
 0001:0002f9ff       __XcptFilter               400309ff f   LIBCMT:winxfltr.obj
 0001:0002fb49       ___CppXcptFilter           40030b49 f   LIBCMT:winxfltr.obj
 0001:0002fb69       _DllMain@12                40030b69 f   LIBCMT:dllmain.obj
 0001:0002fb6f       ___security_init_cookie    40030b6f f   LIBCMT:gs_support.obj
 0001:0002fc0a       __isdigit_l                40030c0a f i LIBCMT:_ctype.obj
 0001:0002fc5b       _isdigit                   40030c5b f i LIBCMT:_ctype.obj
 0001:0002fc89       __atodbl_l                 40030c89 f   LIBCMT:atodbl.obj
 0001:0002fd31       __atoflt_l                 40030d31 f   LIBCMT:atodbl.obj
 0001:0002fdd9       _strcpy_s                  40030dd9 f   LIBCMT:strcpy_s.obj
 0001:0002fe38       __fptostr                  40030e38 f   LIBCMT:_fptostr.obj
 0001:0002feeb       ___dtold                   40030eeb f   LIBCMT:_cfout_.obj
 0001:0002ff9e       __fltout2                  40030f9e f   LIBCMT:_cfout_.obj
 0001:00030030       __alldvrm                  40031030 f   LIBCMT:lldvrm.obj
 0001:00030110       __aullshr                  40031110 f   LIBCMT:ullshr.obj
 0001:0003012f       __fptrap                   4003112f f   LIBCMT:crt0fp.obj
 0001:00030138       __controlfp_s              40031138 f   LIBCMT:_contrlfp_.obj
 0001:000301a0       __allmul                   400311a0 f   LIBCMT:llmul.obj
 0001:000301e0       __aulldvrm                 400311e0 f   LIBCMT:ulldvrm.obj
 0001:00030275       __87except                 40031275 f   LIBCMT:_87except_.obj
 0001:0003049b       ___crtGetStringTypeA       4003149b f   LIBCMT:a_str.obj
 0001:000304db       __mtinitlocks              400314db f   LIBCMT:mlock.obj
 0001:00030525       __mtdeletelocks            40031525 f   LIBCMT:mlock.obj
 0001:0003057c       __unlock                   4003157c f   LIBCMT:mlock.obj
 0001:00030593       __mtinitlocknum            40031593 f   LIBCMT:mlock.obj
 0001:00030655       __lock                     40031655 f   LIBCMT:mlock.obj
 0001:00030688       ___free_lc_time            40031688 f   LIBCMT:inittime.obj
 0001:000309ff       ___free_lconv_num          400319ff f   LIBCMT:initnum.obj
 0001:00030a68       ___free_lconv_mon          40031a68 f   LIBCMT:initmon.obj
 0001:00030b66       __ld12tod                  40031b66 f   LIBCMT:_intrncvt_.obj
 0001:000310b7       __ld12tof                  400320b7 f   LIBCMT:_intrncvt_.obj
 0001:00031608       __crt_debugger_hook        40032608 f   LIBCMT:dbghook.obj
 0001:00031610       ___report_gsfailure        40032610 f   LIBCMT:gs_report.obj
 0001:00031716       ___mtold12                 40032716 f   LIBCMT:_mantold_.obj
 0001:00031900       _memcpy                    40032900 f   LIBCMT:memcpy.obj
 0001:00031c61       __mbtowc_l                 40032c61 f   LIBCMT:mbtowc.obj
 0001:00031d77       _mbtowc                    40032d77 f   LIBCMT:mbtowc.obj
 0001:00031d91       __fileno                   40032d91 f   LIBCMT:fileno.obj
 0001:00031db7       __lseeki64_nolock          40032db7 f   LIBCMT:lseeki64.obj
 0001:00031e3c       __lseeki64                 40032e3c f   LIBCMT:lseeki64.obj
 0001:00031f26       __write_nolock             40032f26 f   LIBCMT:write.obj
 0001:00032623       __write                    40033623 f   LIBCMT:write.obj
 0001:000326f7       __getbuf                   400336f7 f   LIBCMT:_getbuf.obj
 0001:00032740       __isatty                   40033740 f   LIBCMT:isatty.obj
 0001:00032796       ___iob_func                40033796 f   LIBCMT:_file.obj
 0001:0003279c       ___initstdio               4003379c f   LIBCMT:_file.obj
 0001:0003284d       ___endstdio                4003384d f   LIBCMT:_file.obj
 0001:0003286d       __lock_file                4003386d f   LIBCMT:_file.obj
 0001:000328ae       __lock_file2               400338ae f   LIBCMT:_file.obj
 0001:000328e0       __unlock_file              400338e0 f   LIBCMT:_file.obj
 0001:0003291c       __unlock_file2             4003391c f   LIBCMT:_file.obj
 0001:0003294b       __get_printf_count_output  4003394b f   LIBCMT:printf.obj
 0001:00032961       __wctomb_s_l               40033961 f   LIBCMT:wctomb.obj
 0001:00032ab6       _wctomb_s                  40033ab6 f   LIBCMT:wctomb.obj
 0001:00032ad3       _malloc                    40033ad3 f   LIBCMT:malloc.obj
 0001:00032b70       __alloca_probe_16          40033b70 f   LIBCMT:alloca16.obj
 0001:00032b86       __alloca_probe_8           40033b86     LIBCMT:alloca16.obj
 0001:00032ba0       _strcspn                   40033ba0 f   LIBCMT:strcspn.obj
 0001:00032bf0       _strcmp                    40033bf0 f   LIBCMT:strcmp.obj
 0001:00032c80       _strpbrk                   40033c80 f   LIBCMT:strpbrk.obj
 0001:00032cc0       __matherr                  40033cc0 f   LIBCMT:_matherr_.obj
 0001:00032cc3       __raise_exc_ex             40033cc3 f   LIBCMT:_fpexcept_.obj
 0001:00032f9f       __raise_exc                40033f9f f   LIBCMT:_fpexcept_.obj
 0001:00032fc2       __handle_exc               40033fc2 f   LIBCMT:_fpexcept_.obj
 0001:000331a6       __set_errno_from_matherr   400341a6 f   LIBCMT:_fpexcept_.obj
 0001:000331d3       __errcode                  400341d3 f   LIBCMT:_fpexcept_.obj
 0001:00033207       __umatherr                 40034207 f   LIBCMT:_fpexcept_.obj
 0001:000332a7       __handle_qnan1             400342a7 f   LIBCMT:_fpexcept_.obj
 0001:000332fc       __except1                  400342fc f   LIBCMT:_fpexcept_.obj
 0001:000333c6       __frnd                     400343c6 f   LIBCMT:_frnd_.obj
 0001:000333da       __set_exp                  400343da f   LIBCMT:_util_.obj
 0001:00033407       __sptype                   40034407 f   LIBCMT:_util_.obj
 0001:0003346d       __decomp                   4003446d f   LIBCMT:_util_.obj
 0001:00033530       __statfp                   40034530 f   LIBCMT:_fpctrl_.obj
 0001:00033540       __clrfp                    40034540 f   LIBCMT:_fpctrl_.obj
 0001:00033551       __ctrlfp                   40034551 f   LIBCMT:_fpctrl_.obj
 0001:0003357c       __set_statfp               4003457c f   LIBCMT:_fpctrl_.obj
 0001:000335d4       ___set_fpsr_sse2           400345d4 f   LIBCMT:_fpctrl_.obj
 0001:00033646       __calloc_impl              40034646 f   LIBCMT:calloc_impl.obj
 0001:000336c8       _realloc                   400346c8 f   LIBCMT:realloc.obj
 0001:00033775       ?terminate@@YAXXZ          40034775 f   LIBCMT:hooks.obj
 0001:000337ae       __initp_eh_hooks           400347ae f   LIBCMT:hooks.obj
 0001:000337bf       __initp_misc_winsig        400347bf f   LIBCMT:winsig.obj
 0001:00033814       ___get_sigabrt             40034814 f   LIBCMT:winsig.obj
 0001:00033821       _raise                     40034821 f   LIBCMT:winsig.obj
 0001:000339c4       __initp_misc_rand_s        400349c4 f   LIBCMT:rand_s.obj
 0001:000339d3       __initp_misc_purevirt      400349d3 f   LIBCMT:inithelp.obj
 0001:000339e2       __initp_heap_handler       400349e2 f   LIBCMT:handler.obj
 0001:000339f1       __callnewh                 400349f1 f   LIBCMT:handler.obj
 0001:00033acf       ___onexitinit              40034acf f   LIBCMT:onexit.obj
 0001:00033b00       __onexit                   40034b00 f   LIBCMT:onexit.obj
 0001:00033b3c       _atexit                    40034b3c f   LIBCMT:onexit.obj
 0001:00033b60       __ValidateImageBase        40034b60 f   LIBCMT:pesect.obj
 0001:00033ba0       __FindPESection            40034ba0 f   LIBCMT:pesect.obj
 0001:00033bf0       __IsNonwritableInCurrentImage 40034bf0 f   LIBCMT:pesect.obj
 0001:00033cac       __GET_RTERRMSG             40034cac f   LIBCMT:crt0msg.obj
 0001:00033cd2       __NMSG_WRITE               40034cd2 f   LIBCMT:crt0msg.obj
 0001:00033e81       __FF_MSGBANNER             40034e81 f   LIBCMT:crt0msg.obj
 0001:00033f0d       __ismbblead                40034f0d f   LIBCMT:ismbbyte.obj
 0001:00033f30       __local_unwind4            40034f30 f   LIBCMT:exsup4.obj
 0001:00034006       __seh_longjmp_unwind4@4    40035006 f   LIBCMT:exsup4.obj
 0001:00034022       @_EH4_CallFilterFunc@8     40035022 f   LIBCMT:exsup4.obj
 0001:00034039       @_EH4_TransferToHandler@8  40035039 f   LIBCMT:exsup4.obj
 0001:00034052       @_EH4_GlobalUnwind2@8      40035052 f   LIBCMT:exsup4.obj
 0001:0003406b       @_EH4_LocalUnwind@16       4003506b f   LIBCMT:exsup4.obj
 0001:00034082       _$I10_OUTPUT               40035082 f   LIBCMT:_x10fout_.obj
 0001:00034aa8       __control87                40035aa8 f i LIBCMT:_ieee87_.obj
 0001:00034dba       __free_osfhnd              40035dba f   LIBCMT:osfinfo.obj
 0001:00034e40       __get_osfhandle            40035e40 f   LIBCMT:osfinfo.obj
 0001:00034ea9       ___lock_fhandle            40035ea9 f   LIBCMT:osfinfo.obj
 0001:00034f48       __unlock_fhandle           40035f48 f   LIBCMT:osfinfo.obj
 0001:00034f6f       __putwch_nolock            40035f6f f   LIBCMT:putwch.obj
 0001:00034fb1       __fcloseall                40035fb1 f   LIBCMT:closeall.obj
 0001:0003504d       __flush                    4003604d f   LIBCMT:fflush.obj
 0001:000350b5       __fflush_nolock            400360b5 f   LIBCMT:fflush.obj
 0001:000351d7       __flushall                 400361d7 f   LIBCMT:fflush.obj
 0001:000351e0       ___ascii_stricmp           400361e0 f   LIBCMT:stricmp.obj
 0001:00035219       __stricmp_l                40036219 f   LIBCMT:stricmp.obj
 0001:000352d9       _stricmp                   400362d9 f   LIBCMT:stricmp.obj
 0001:000352d9       __stricmp                  400362d9 f   LIBCMT:stricmp.obj
 0001:00035320       __strnicmp_l               40036320 f   LIBCMT:strnicmp.obj
 0001:00035402       _strnicmp                  40036402 f   LIBCMT:strnicmp.obj
 0001:00035402       __strnicmp                 40036402 f   LIBCMT:strnicmp.obj
 0001:00035455       __msize                    40036455 f   LIBCMT:msize.obj
 0001:00035488       _abort                     40036488 f   LIBCMT:abort.obj
 0001:000354bb       ___crtMessageBoxW          400364bb f   LIBCMT:crtmboxw.obj
 0001:00035627       _wcscat_s                  40036627 f   LIBCMT:wcscat_s.obj
 0001:0003569c       _wcsncpy_s                 4003669c f   LIBCMT:wcsncpy_s.obj
 0001:00035769       _wcslen                    40036769 f   LIBCMT:wcslen.obj
 0001:00035784       _wcscpy_s                  40036784 f   LIBCMT:wcscpy_s.obj
 0001:000357e7       __set_error_mode           400367e7 f   LIBCMT:errmode.obj
 0001:00035830       __global_unwind2           40036830 f   LIBCMT:exsup.obj
 0001:00035895       __local_unwind2            40036895 f   LIBCMT:exsup.obj
 0001:00035919       __abnormal_termination     40036919 f   LIBCMT:exsup.obj
 0001:0003593c       __NLG_Notify1              4003693c f   LIBCMT:exsup.obj
 0001:00035945       __NLG_Notify               40036945 f   LIBCMT:exsup.obj
 0001:0003595c       __NLG_Dispatch2            4003695c     LIBCMT:exsup.obj
 0001:0003595c       __NLG_Dispatch             4003695c     LIBCMT:exsup.obj
 0001:00035964       __NLG_Call                 40036964 f   LIBCMT:exsup.obj
 0001:00035966       __NLG_Return2              40036966     LIBCMT:exsup.obj
 0001:00035967       ___initconout              40036967 f   LIBCMT:initcon.obj
 0001:00035986       ___termconout              40036986 f   LIBCMT:initcon.obj
 0001:0003599d       __fclose_nolock            4003699d f   LIBCMT:fclose.obj
 0001:00035a0a       _fclose                    40036a0a f   LIBCMT:fclose.obj
 0001:00035a7e       __commit                   40036a7e f   LIBCMT:commit.obj
 0001:00035b60       ___ascii_strnicmp          40036b60 f   LIBCMT:_strnicm.obj
 0001:00035bc1       __close_nolock             40036bc1 f   LIBCMT:close.obj
 0001:00035c5d       __close                    40036c5d f   LIBCMT:close.obj
 0001:00035d21       __freebuf                  40036d21 f   LIBCMT:_freebuf.obj
 0001:00035d52       _RtlUnwind@16              40036d52 f   kernel32:KERNEL32.dll
 0001:00035ecc       __strupr_s_l               40036ecc f   LIBCMT:strupr.obj
 0001:00035f01       __strupr                   40036f01 f   LIBCMT:strupr.obj
 0001:00035f01       _strupr                    40036f01 f   LIBCMT:strupr.obj
 0001:00035f5e       _strnlen                   40036f5e f   LIBCMT:strlen_s.obj
 0002:00000000       __imp__GetCurrentThreadId@0 40037000     kernel32:KERNEL32.dll
 0002:00000004       __imp__DecodePointer@4     40037004     kernel32:KERNEL32.dll
 0002:00000008       __imp__GetCommandLineA@0   40037008     kernel32:KERNEL32.dll
 0002:0000000c       __imp__EncodePointer@4     4003700c     kernel32:KERNEL32.dll
 0002:00000010       __imp__IsProcessorFeaturePresent@4 40037010     kernel32:KERNEL32.dll
 0002:00000014       __imp__GetCPInfo@8         40037014     kernel32:KERNEL32.dll
 0002:00000018       __imp__InterlockedIncrement@4 40037018     kernel32:KERNEL32.dll
 0002:0000001c       __imp__InterlockedDecrement@4 4003701c     kernel32:KERNEL32.dll
 0002:00000020       __imp__GetACP@0            40037020     kernel32:KERNEL32.dll
 0002:00000024       __imp__GetOEMCP@0          40037024     kernel32:KERNEL32.dll
 0002:00000028       __imp__IsValidCodePage@4   40037028     kernel32:KERNEL32.dll
 0002:0000002c       __imp__TlsAlloc@0          4003702c     kernel32:KERNEL32.dll
 0002:00000030       __imp__TlsGetValue@4       40037030     kernel32:KERNEL32.dll
 0002:00000034       __imp__TlsSetValue@8       40037034     kernel32:KERNEL32.dll
 0002:00000038       __imp__TlsFree@4           40037038     kernel32:KERNEL32.dll
 0002:0000003c       __imp__GetModuleHandleW@4  4003703c     kernel32:KERNEL32.dll
 0002:00000040       __imp__SetLastError@4      40037040     kernel32:KERNEL32.dll
 0002:00000044       __imp__GetLastError@0      40037044     kernel32:KERNEL32.dll
 0002:00000048       __imp__GetProcAddress@8    40037048     kernel32:KERNEL32.dll
 0002:0000004c       __imp__UnhandledExceptionFilter@4 4003704c     kernel32:KERNEL32.dll
 0002:00000050       __imp__SetUnhandledExceptionFilter@4 40037050     kernel32:KERNEL32.dll
 0002:00000054       __imp__IsDebuggerPresent@0 40037054     kernel32:KERNEL32.dll
 0002:00000058       __imp__TerminateProcess@8  40037058     kernel32:KERNEL32.dll
 0002:0000005c       __imp__GetCurrentProcess@0 4003705c     kernel32:KERNEL32.dll
 0002:00000060       __imp__WideCharToMultiByte@32 40037060     kernel32:KERNEL32.dll
 0002:00000064       __imp__LCMapStringW@24     40037064     kernel32:KERNEL32.dll
 0002:00000068       __imp__MultiByteToWideChar@24 40037068     kernel32:KERNEL32.dll
 0002:0000006c       __imp__HeapFree@12         4003706c     kernel32:KERNEL32.dll
 0002:00000070       __imp__Sleep@4             40037070     kernel32:KERNEL32.dll
 0002:00000074       __imp__ExitProcess@4       40037074     kernel32:KERNEL32.dll
 0002:00000078       __imp__SetHandleCount@4    40037078     kernel32:KERNEL32.dll
 0002:0000007c       __imp__GetStdHandle@4      4003707c     kernel32:KERNEL32.dll
 0002:00000080       __imp__InitializeCriticalSectionAndSpinCount@8 40037080     kernel32:KERNEL32.dll
 0002:00000084       __imp__GetFileType@4       40037084     kernel32:KERNEL32.dll
 0002:00000088       __imp__GetStartupInfoW@4   40037088     kernel32:KERNEL32.dll
 0002:0000008c       __imp__DeleteCriticalSection@4 4003708c     kernel32:KERNEL32.dll
 0002:00000090       __imp__GetModuleFileNameA@12 40037090     kernel32:KERNEL32.dll
 0002:00000094       __imp__FreeEnvironmentStringsW@4 40037094     kernel32:KERNEL32.dll
 0002:00000098       __imp__GetEnvironmentStringsW@0 40037098     kernel32:KERNEL32.dll
 0002:0000009c       __imp__HeapCreate@12       4003709c     kernel32:KERNEL32.dll
 0002:000000a0       __imp__HeapDestroy@4       400370a0     kernel32:KERNEL32.dll
 0002:000000a4       __imp__QueryPerformanceCounter@4 400370a4     kernel32:KERNEL32.dll
 0002:000000a8       __imp__GetTickCount@0      400370a8     kernel32:KERNEL32.dll
 0002:000000ac       __imp__GetCurrentProcessId@0 400370ac     kernel32:KERNEL32.dll
 0002:000000b0       __imp__GetSystemTimeAsFileTime@4 400370b0     kernel32:KERNEL32.dll
 0002:000000b4       __imp__GetStringTypeW@16   400370b4     kernel32:KERNEL32.dll
 0002:000000b8       __imp__LeaveCriticalSection@4 400370b8     kernel32:KERNEL32.dll
 0002:000000bc       __imp__EnterCriticalSection@4 400370bc     kernel32:KERNEL32.dll
 0002:000000c0       __imp__SetFilePointer@16   400370c0     kernel32:KERNEL32.dll
 0002:000000c4       __imp__WriteFile@20        400370c4     kernel32:KERNEL32.dll
 0002:000000c8       __imp__GetConsoleCP@0      400370c8     kernel32:KERNEL32.dll
 0002:000000cc       __imp__GetConsoleMode@8    400370cc     kernel32:KERNEL32.dll
 0002:000000d0       __imp__HeapAlloc@12        400370d0     kernel32:KERNEL32.dll
 0002:000000d4       __imp__RaiseException@16   400370d4     kernel32:KERNEL32.dll
 0002:000000d8       __imp__HeapReAlloc@16      400370d8     kernel32:KERNEL32.dll
 0002:000000dc       __imp__LoadLibraryW@4      400370dc     kernel32:KERNEL32.dll
 0002:000000e0       __imp__GetModuleFileNameW@12 400370e0     kernel32:KERNEL32.dll
 0002:000000e4       __imp__RtlUnwind@16        400370e4     kernel32:KERNEL32.dll
 0002:000000e8       __imp__SetStdHandle@8      400370e8     kernel32:KERNEL32.dll
 0002:000000ec       __imp__WriteConsoleW@20    400370ec     kernel32:KERNEL32.dll
 0002:000000f0       __imp__HeapSize@12         400370f0     kernel32:KERNEL32.dll
 0002:000000f4       __imp__CreateFileW@28      400370f4     kernel32:KERNEL32.dll
 0002:000000f8       __imp__CloseHandle@4       400370f8     kernel32:KERNEL32.dll
 0002:000000fc       __imp__FlushFileBuffers@4  400370fc     kernel32:KERNEL32.dll
 0002:00000100       \177KERNEL32_NULL_THUNK_DATA 40037100     kernel32:KERNEL32.dll
 0002:00000104       ___xc_a                    40037104     LIBCMT:crt0init.obj
 0002:00000108       ___xc_z                    40037108     LIBCMT:crt0init.obj
 0002:0000010c       ___xi_a                    4003710c     LIBCMT:crt0init.obj
 0002:00000124       ___xi_z                    40037124     LIBCMT:crt0init.obj
 0002:00000128       ___xp_a                    40037128     LIBCMT:crt0init.obj
 0002:00000134       ___xp_z                    40037134     LIBCMT:crt0init.obj
 0002:00000138       ___xt_a                    40037138     LIBCMT:crt0init.obj
 0002:0000013c       ___xt_z                    4003713c     LIBCMT:crt0init.obj
 0002:00000140       ??_C@_08GBKLDCBE@EV_TAUNT?$AA@ 40037140     bg_misc.obj
 0002:0000014c       ??_C@_0BF@EAHNFOOG@EV_STARTLOOPINGSOUND?$AA@ 4003714c     bg_misc.obj
 0002:00000164       ??_C@_0BE@OHJHDFJH@EV_STOPLOOPINGSOUND?$AA@ 40037164     bg_misc.obj
 0002:00000178       ??_C@_0M@LDAKOPJP@EV_TESTLINE?$AA@ 40037178     bg_misc.obj
 0002:00000184       ??_C@_0O@PBPAKHP@EV_DEBUG_LINE?$AA@ 40037184     bg_misc.obj
 0002:00000194       ??_C@_0O@CBLOOGHB@EV_SHIELD_HIT?$AA@ 40037194     bg_misc.obj
 0002:000001a4       ??_C@_0BF@LLJHJACN@EV_WEAPON_CHARGE_ALT?$AA@ 400371a4     bg_misc.obj
 0002:000001bc       ??_C@_0BB@HAHOHAKJ@EV_WEAPON_CHARGE?$AA@ 400371bc     bg_misc.obj
 0002:000001d0       ??_C@_0BF@KFICFFCM@EV_SET_FORCE_DISABLE?$AA@ 400371d0     bg_misc.obj
 0002:000001e8       ??_C@_0BC@DDJADHAK@EV_SET_FREE_SABER?$AA@ 400371e8     bg_misc.obj
 0002:000001fc       ??_C@_0BB@JIHOLMBD@EV_GIVE_NEW_RANK?$AA@ 400371fc     bg_misc.obj
 0002:00000210       ??_C@_0BI@CEGPCIEH@EV_DESTROY_WEAPON_MODEL?$AA@ 40037210     bg_misc.obj
 0002:00000228       ??_C@_0BL@DNICLAEN@EV_DESTROY_GHOUL2_INSTANCE?$AA@ 40037228     bg_misc.obj
 0002:00000244       ??_C@_0BL@CGBBFEIE@EV_SIEGE_OBJECTIVECOMPLETE?$AA@ 40037244     bg_misc.obj
 0002:00000260       ??_C@_0BD@LACADBAO@EV_SIEGE_ROUNDOVER?$AA@ 40037260     bg_misc.obj
 0002:00000274       ??_C@_0M@GBGEMMKK@EV_BODYFADE?$AA@ 40037274     bg_misc.obj
 0002:00000280       ??_C@_0O@NEHCEMNJ@EV_CTFMESSAGE?$AA@ 40037280     bg_misc.obj
 0002:00000290       ??_C@_0N@GAJBP@EV_SCOREPLUM?$AA@ 40037290     bg_misc.obj
 0002:000002a0       ??_C@_0O@JLGFLKBE@EV_GIB_PLAYER?$AA@ 400372a0     bg_misc.obj
 0002:000002b0       ??_C@_0BB@KGMADNKO@EV_FORCE_DRAINED?$AA@ 400372b0     bg_misc.obj
 0002:000002c4       ??_C@_0BG@CHAMNADK@EV_POWERUP_BATTLESUIT?$AA@ 400372c4     bg_misc.obj
 0002:000002dc       ??_C@_0BA@HLHGHIIE@EV_POWERUP_QUAD?$AA@ 400372dc     bg_misc.obj
 0002:000002ec       ??_C@_0M@PPLCDPP@EV_OBITUARY?$AA@ 400372ec     bg_misc.obj
 0002:000002f8       ??_C@_09KNGHBIAK@EV_DEATH3?$AA@ 400372f8     bg_misc.obj
 0002:00000304       ??_C@_09LEHMCJEL@EV_DEATH2?$AA@ 40037304     bg_misc.obj
 0002:00000310       ??_C@_09JPFBHKII@EV_DEATH1?$AA@ 40037310     bg_misc.obj
 0002:0000031c       ??_C@_07EMHHKOOH@EV_PAIN?$AA@ 4003731c     bg_misc.obj
 0002:00000324       ??_C@_09ICDIPKFJ@EV_BULLET?$AA@ 40037324     bg_misc.obj
 0002:00000330       ??_C@_0BG@LPAHEABB@EV_MISSILE_MISS_METAL?$AA@ 40037330     bg_misc.obj
 0002:00000348       ??_C@_0BA@CAHALNAE@EV_MISSILE_MISS?$AA@ 40037348     bg_misc.obj
 0002:00000358       ??_C@_0P@JFMFNBMO@EV_MISSILE_HIT?$AA@ 40037358     bg_misc.obj
 0002:00000368       ??_C@_0BD@PIOAMKHB@EV_CONC_ALT_IMPACT?$AA@ 40037368     bg_misc.obj
 0002:0000037c       ??_C@_0BC@MLGOBNCG@EV_MISC_MODEL_EXP?$AA@ 4003737c     bg_misc.obj
 0002:00000390       ??_C@_09KLJDDMJG@EV_DEBRIS?$AA@ 40037390     bg_misc.obj
 0002:0000039c       ??_C@_0BB@HHFJBAND@EV_GLASS_SHATTER?$AA@ 4003739c     bg_misc.obj
 0002:000003b0       ??_C@_0N@BEKJCCJE@EV_PLAY_ROFF?$AA@ 400373b0     bg_misc.obj
 0002:000003c0       ??_C@_0BA@LLJGBFCE@EV_ENTITY_SOUND?$AA@ 400373c0     bg_misc.obj
 0002:000003d0       ??_C@_0BF@DDOIKLHD@EV_GLOBAL_TEAM_SOUND?$AA@ 400373d0     bg_misc.obj
 0002:000003e8       ??_C@_0BA@JAMKLOPJ@EV_GLOBAL_SOUND?$AA@ 400373e8     bg_misc.obj
 0002:000003f8       ??_C@_0BB@LJGGMAII@EV_GENERAL_SOUND?$AA@ 400373f8     bg_misc.obj
 0002:0000040c       ??_C@_0BC@GMNGJAOD@EV_VOICECMD_SOUND?$AA@ 4003740c     bg_misc.obj
 0002:00000420       ??_C@_0O@JHBKAOKG@EV_MUTE_SOUND?$AA@ 40037420     bg_misc.obj
 0002:00000430       ??_C@_0BA@EGLCGAMO@EV_BMODEL_SOUND?$AA@ 40037430     bg_misc.obj
 0002:00000440       ??_C@_0BF@BLAPJAMF@EV_PLAYDOORLOOPSOUND?$AA@ 40037440     bg_misc.obj
 0002:00000458       ??_C@_0BB@OGNONJKP@EV_PLAYDOORSOUND?$AA@ 40037458     bg_misc.obj
 0002:0000046c       ??_C@_0BJ@CGDHKBCK@EV_PLAY_PORTAL_EFFECT_ID?$AA@ 4003746c     bg_misc.obj
 0002:00000488       ??_C@_0BC@LCOMFDPL@EV_PLAY_EFFECT_ID?$AA@ 40037488     bg_misc.obj
 0002:0000049c       ??_C@_0P@PLIFONPM@EV_PLAY_EFFECT?$AA@ 4003749c     bg_misc.obj
 0002:000004ac       ??_C@_0BB@JGOOAGDJ@EV_MISSILE_STICK?$AA@ 400374ac     bg_misc.obj
 0002:000004c0       ??_C@_0BC@ECIIAFLJ@EV_GRENADE_BOUNCE?$AA@ 400374c0     bg_misc.obj
 0002:000004d4       ??_C@_0BH@FNNILPIN@EV_PLAYER_TELEPORT_OUT?$AA@ 400374d4     bg_misc.obj
 0002:000004ec       ??_C@_0BG@HBBJKNDP@EV_PLAYER_TELEPORT_IN?$AA@ 400374ec     bg_misc.obj
 0002:00000504       ??_C@_0M@ECGFPIMP@EV_ITEM_POP?$AA@ 40037504     bg_misc.obj
 0002:00000510       ??_C@_0BA@GJNCODNG@EV_ITEM_RESPAWN?$AA@ 40037510     bg_misc.obj
 0002:00000520       ??_C@_0P@JFHCOBFC@EV_ITEMUSEFAIL?$AA@ 40037520     bg_misc.obj
 0002:00000530       ??_C@_0O@HHGOLJPJ@EV_USE_ITEM15?$AA@ 40037530     bg_misc.obj
 0002:00000540       ??_C@_0O@GOHFIILI@EV_USE_ITEM14?$AA@ 40037540     bg_misc.obj
 0002:00000550       ??_C@_0O@CBDEBOHP@EV_USE_ITEM13?$AA@ 40037550     bg_misc.obj
 0002:00000560       ??_C@_0O@DICPCPDO@EV_USE_ITEM12?$AA@ 40037560     bg_misc.obj
 0002:00000570       ??_C@_0O@BDACHMPN@EV_USE_ITEM11?$AA@ 40037570     bg_misc.obj
 0002:00000580       ??_C@_0O@KBJENLM@EV_USE_ITEM10?$AA@ 40037580     bg_misc.obj
 0002:00000590       ??_C@_0N@PHODCBCK@EV_USE_ITEM9?$AA@ 40037590     bg_misc.obj
 0002:000005a0       ??_C@_0N@OOPIBAGL@EV_USE_ITEM8?$AA@ 400375a0     bg_misc.obj
 0002:000005b0       ??_C@_0N@GJGAAMKE@EV_USE_ITEM7?$AA@ 400375b0     bg_misc.obj
 0002:000005c0       ??_C@_0N@HAHLDNOF@EV_USE_ITEM6?$AA@ 400375c0     bg_misc.obj
 0002:000005d0       ??_C@_0N@FLFGGOCG@EV_USE_ITEM5?$AA@ 400375d0     bg_misc.obj
 0002:000005e0       ??_C@_0N@ECENFPGH@EV_USE_ITEM4?$AA@ 400375e0     bg_misc.obj
 0002:000005f0       ??_C@_0N@NAMMJKA@EV_USE_ITEM3?$AA@ 400375f0     bg_misc.obj
 0002:00000600       ??_C@_0N@BEBHPIOB@EV_USE_ITEM2?$AA@ 40037600     bg_misc.obj
 0002:00000610       ??_C@_0N@DPDKKLCC@EV_USE_ITEM1?$AA@ 40037610     bg_misc.obj
 0002:00000620       ??_C@_0N@CGCBJKGD@EV_USE_ITEM0?$AA@ 40037620     bg_misc.obj
 0002:00000630       ??_C@_06LBDBNJG@EV_USE?$AA@ 40037630     bg_misc.obj
 0002:00000638       ??_C@_0O@GLOAIHAI@EV_LOCALTIMER?$AA@ 40037638     bg_misc.obj
 0002:00000648       ??_C@_0P@EIHBPBOL@EV_SCREENSHAKE?$AA@ 40037648     bg_misc.obj
 0002:00000658       ??_C@_0O@GMONIJJI@EV_TEAM_POWER?$AA@ 40037658     bg_misc.obj
 0002:00000668       ??_C@_0P@MDPKBHNH@EV_PREDEFSOUND?$AA@ 40037668     bg_misc.obj
 0002:00000678       ??_C@_0BH@GCPNKPAL@EV_DISRUPTOR_ZOOMSOUND?$AA@ 40037678     bg_misc.obj
 0002:00000690       ??_C@_0BB@JNGCFFFI@EV_DISRUPTOR_HIT?$AA@ 40037690     bg_misc.obj
 0002:000006a4       ??_C@_0BJ@POMLOPMI@EV_DISRUPTOR_SNIPER_MISS?$AA@ 400376a4     bg_misc.obj
 0002:000006c0       ??_C@_0BJ@MDNKGNJN@EV_DISRUPTOR_SNIPER_SHOT?$AA@ 400376c0     bg_misc.obj
 0002:000006dc       ??_C@_0BH@KDGLLAMO@EV_DISRUPTOR_MAIN_SHOT?$AA@ 400376dc     bg_misc.obj
 0002:000006f4       ??_C@_0BF@MBILLJJH@EV_BECOME_JEDIMASTER?$AA@ 400376f4     bg_misc.obj
 0002:0000070c       ??_C@_0BD@FFJMPGGA@EV_SABER_UNHOLSTER?$AA@ 4003770c     bg_misc.obj
 0002:00000720       ??_C@_0BE@HNEOPGEL@EV_SABER_CLASHFLARE?$AA@ 40037720     bg_misc.obj
 0002:00000734       ??_C@_0P@MNCBBKHB@EV_SABER_BLOCK?$AA@ 40037734     bg_misc.obj
 0002:00000744       ??_C@_0N@IKFBFHKB@EV_SABER_HIT?$AA@ 40037744     bg_misc.obj
 0002:00000754       ??_C@_0BA@FJAFFDLF@EV_SABER_ATTACK?$AA@ 40037754     bg_misc.obj
 0002:00000764       ??_C@_0M@LKPOHPHC@EV_ALT_FIRE?$AA@ 40037764     bg_misc.obj
 0002:00000770       ??_C@_0P@PFJPAFGH@EV_FIRE_WEAPON?$AA@ 40037770     bg_misc.obj
 0002:00000780       ??_C@_0BB@ENKPHJLP@EV_CHANGE_WEAPON?$AA@ 40037780     bg_misc.obj
 0002:00000794       ??_C@_09NMIICG@EV_NOAMMO?$AA@ 40037794     bg_misc.obj
 0002:000007a0       ??_C@_0M@MNGOLNFL@EV_VEH_FIRE?$AA@ 400377a0     bg_misc.obj
 0002:000007ac       ??_C@_0BG@KFILGAMN@EV_GLOBAL_ITEM_PICKUP?$AA@ 400377ac     bg_misc.obj
 0002:000007c4       ??_C@_0P@BGIOEPCB@EV_ITEM_PICKUP?$AA@ 400377c4     bg_misc.obj
 0002:000007d4       ??_C@_0P@NIPCJOBG@EV_WATER_CLEAR?$AA@ 400377d4     bg_misc.obj
 0002:000007e4       ??_C@_0P@MIAIODEJ@EV_WATER_UNDER?$AA@ 400377e4     bg_misc.obj
 0002:000007f4       ??_C@_0P@LHDMOIIG@EV_WATER_LEAVE?$AA@ 400377f4     bg_misc.obj
 0002:00000804       ??_C@_0P@GCDBKPMP@EV_WATER_TOUCH?$AA@ 40037804     bg_misc.obj
 0002:00000814       ??_C@_07OCJFCKNN@EV_ROLL?$AA@ 40037814     bg_misc.obj
 0002:0000081c       ??_C@_07GKBEHGAP@EV_JUMP?$AA@ 4003781c     bg_misc.obj
 0002:00000824       ??_C@_0BA@NCAJLGNF@EV_PRIVATE_DUEL?$AA@ 40037824     bg_misc.obj
 0002:00000834       ??_C@_0P@MHGGNABN@EV_GLOBAL_DUEL?$AA@ 40037834     bg_misc.obj
 0002:00000844       ??_C@_0P@BMAPLDAL@EV_GHOUL2_MARK?$AA@ 40037844     bg_misc.obj
 0002:00000854       ??_C@_0M@BPNFGBOJ@EV_JUMP_PAD?$AA@ 40037854     bg_misc.obj
 0002:00000860       ??_C@_07JHCKGMKM@EV_FALL?$AA@ 40037860     bg_misc.obj
 0002:00000868       ??_C@_0L@HOOIOPKF@EV_STEP_16?$AA@ 40037868     bg_misc.obj
 0002:00000874       ??_C@_0L@BKIECKKB@EV_STEP_12?$AA@ 40037874     bg_misc.obj
 0002:00000880       ??_C@_09EHOLDGNN@EV_STEP_8?$AA@ 40037880     bg_misc.obj
 0002:0000088c       ??_C@_09OLFOHJNB@EV_STEP_4?$AA@ 4003788c     bg_misc.obj
 0002:00000898       ??_C@_07FFIIIPLH@EV_SWIM?$AA@ 40037898     bg_misc.obj
 0002:000008a0       ??_C@_0M@NPJBGELA@EV_FOOTWADE?$AA@ 400378a0     bg_misc.obj
 0002:000008ac       ??_C@_0O@HLJHKIDH@EV_FOOTSPLASH?$AA@ 400378ac     bg_misc.obj
 0002:000008bc       ??_C@_0BC@DIJMAMMI@EV_FOOTSTEP_METAL?$AA@ 400378bc     bg_misc.obj
 0002:000008d0       ??_C@_0M@HLKBOJPO@EV_FOOTSTEP?$AA@ 400378d0     bg_misc.obj
 0002:000008dc       ??_C@_0O@JHBAELOC@EV_CLIENTJOIN?$AA@ 400378dc     bg_misc.obj
 0002:000008ec       ??_C@_07JFMDDPHJ@EV_NONE?$AA@ 400378ec     bg_misc.obj
 0002:000008f4       ??_C@_0BB@JKNLMJAB@icons?1iconh_borb?$AA@ 400378f4     bg_misc.obj
 0002:00000908       ??_C@_0BO@CMJEFEFK@models?1powerups?1orb?1b_orb?4md3?$AA@ 40037908     bg_misc.obj
 0002:00000928       ??_C@_0O@NHDOFNIN@item_bluecube?$AA@ 40037928     bg_misc.obj
 0002:00000938       ??_C@_0BB@PKDLFOID@icons?1iconh_rorb?$AA@ 40037938     bg_misc.obj
 0002:0000094c       ??_C@_0BO@LDKNFLC@models?1powerups?1orb?1r_orb?4md3?$AA@ 4003794c     bg_misc.obj
 0002:0000096c       ??_C@_0N@IDOEINCB@item_redcube?$AA@ 4003796c     bg_misc.obj
 0002:0000097c       ??_C@_0BF@OGGGKBMJ@icons?1iconf_neutral1?$AA@ 4003797c     bg_misc.obj
 0002:00000994       ??_C@_0BI@FAJILPEC@models?1flags?1n_flag?4md3?$AA@ 40037994     bg_misc.obj
 0002:000009ac       ??_C@_0BF@NFGOPKAE@team_CTF_neutralflag?$AA@ 400379ac     bg_misc.obj
 0002:000009c4       ??_C@_0BC@JDBDOHJA@gfx?1hud?1mpi_bflag?$AA@ 400379c4     bg_misc.obj
 0002:000009d8       ??_C@_0BN@NABGHIBA@models?1flags?1b_flag_ysal?4md3?$AA@ 400379d8     bg_misc.obj
 0002:000009f8       ??_C@_0BI@FKICCNIF@models?1flags?1b_flag?4md3?$AA@ 400379f8     bg_misc.obj
 0002:00000a10       ??_C@_0BC@NLKCOFAB@team_CTF_blueflag?$AA@ 40037a10     bg_misc.obj
 0002:00000a24       ??_C@_0BC@JAMFOFAL@gfx?1hud?1mpi_rflag?$AA@ 40037a24     bg_misc.obj
 0002:00000a38       ??_C@_0BN@DGDBEGIO@models?1flags?1r_flag_ysal?4md3?$AA@ 40037a38     bg_misc.obj
 0002:00000a58       ??_C@_0BI@PEHEOJEO@models?1flags?1r_flag?4md3?$AA@ 40037a58     bg_misc.obj
 0002:00000a70       ??_C@_0BB@JNMMCIHG@team_CTF_redflag?$AA@ 40037a70     bg_misc.obj
 0002:00000a84       ??_C@_0BJ@DIDDNCPE@models?1items?1battery?4md3?$AA@ 40037a84     bg_misc.obj
 0002:00000aa0       ??_C@_08LLJPIFOF@ammo_all?$AA@ 40037aa0     bg_misc.obj
 0002:00000aac       ??_C@_0BE@IIEBFJHN@gfx?1mp?1ammo_rockets?$AA@ 40037aac     bg_misc.obj
 0002:00000ac0       ??_C@_0BJ@BCBNBFGD@models?1items?1rockets?4md3?$AA@ 40037ac0     bg_misc.obj
 0002:00000adc       ??_C@_0N@CLEPKBOE@ammo_rockets?$AA@ 40037adc     bg_misc.obj
 0002:00000aec       ??_C@_0BL@IPLJCMOM@gfx?1mp?1ammo_metallic_bolts?$AA@ 40037aec     bg_misc.obj
 0002:00000b08       ??_C@_0CA@POKDMLNN@models?1items?1metallic_bolts?4md3?$AA@ 40037b08     bg_misc.obj
 0002:00000b28       ??_C@_0BE@OMMGIMPN@ammo_metallic_bolts?$AA@ 40037b28     bg_misc.obj
 0002:00000b3c       ??_C@_0BH@KBMOAFPH@gfx?1mp?1ammo_power_cell?$AA@ 40037b3c     bg_misc.obj
 0002:00000b54       ??_C@_0BM@GDMBBHDI@models?1items?1power_cell?4md3?$AA@ 40037b54     bg_misc.obj
 0002:00000b70       ??_C@_0P@GBMHNHF@ammo_powercell?$AA@ 40037b70     bg_misc.obj
 0002:00000b80       ??_C@_0BH@MFDMPLPM@gfx?1hud?1i_icon_battery?$AA@ 40037b80     bg_misc.obj
 0002:00000b98       ??_C@_0N@JHBODPOG@ammo_blaster?$AA@ 40037b98     bg_misc.obj
 0002:00000ba8       ??_C@_0BN@BKBHFNLE@models?1items?1energy_cell?4md3?$AA@ 40037ba8     bg_misc.obj
 0002:00000bc8       ??_C@_0BO@EBHMDMMM@sound?1player?1pickupenergy?4wav?$AA@ 40037bc8     bg_misc.obj
 0002:00000be8       ??_C@_0L@GKDELMG@ammo_force?$AA@ 40037be8     bg_misc.obj
 0002:00000bf4       ??_C@_0BA@EENDCNMH@weapon_turretwp?$AA@ 40037bf4     bg_misc.obj
 0002:00000c04       ??_C@_0BA@PHDHEKAE@weapon_emplaced?$AA@ 40037c04     bg_misc.obj
 0002:00000c14       ??_C@_0BA@DBJEACCG@weapon_det_pack?$AA@ 40037c14     bg_misc.obj
 0002:00000c24       ??_C@_0BB@KBIODFKP@weapon_trip_mine?$AA@ 40037c24     bg_misc.obj
 0002:00000c38       ??_C@_0P@OJLAIIJD@weapon_thermal?$AA@ 40037c38     bg_misc.obj
 0002:00000c48       ??_C@_0BM@MOLHJNKH@?$EAMENUS_A_DETONATION_PACK_IS?$AA@ 40037c48     bg_misc.obj
 0002:00000c64       ??_C@_0BH@EBPPNJFB@gfx?1hud?1w_icon_detpack?$AA@ 40037c64     bg_misc.obj
 0002:00000c7c       ??_C@_0CF@NONMEFGL@models?1weapons2?1detpack?1det_pack@ 40037c7c     bg_misc.obj
 0002:00000ca4       ??_C@_0CH@KPFPNMHO@models?1weapons2?1detpack?1det_pack@ 40037ca4     bg_misc.obj
 0002:00000ccc       ??_C@_0CK@CDFEGPDE@models?1weapons2?1detpack?1det_pack@ 40037ccc     bg_misc.obj
 0002:00000cf8       ??_C@_0CI@CBJMGLP@models?1weapons2?1detpack?1det_pack@ 40037cf8     bg_misc.obj
 0002:00000d20       ??_C@_0N@CIBIOIEN@ammo_detpack?$AA@ 40037d20     bg_misc.obj
 0002:00000d30       ??_C@_0BN@CMMDBNGF@?$EAMENUS_TRIP_MINES_CONSIST_OF?$AA@ 40037d30     bg_misc.obj
 0002:00000d50       ??_C@_0BI@HEJGEJJK@gfx?1hud?1w_icon_tripmine?$AA@ 40037d50     bg_misc.obj
 0002:00000d68       ??_C@_0CK@BPCANEAG@models?1weapons2?1laser_trap?1laser@ 40037d68     bg_misc.obj
 0002:00000d94       ??_C@_0CM@PIAEKLLK@models?1weapons2?1laser_trap?1laser@ 40037d94     bg_misc.obj
 0002:00000dc0       ??_C@_0CN@JOEHJLGB@models?1weapons2?1laser_trap?1laser@ 40037dc0     bg_misc.obj
 0002:00000df0       ??_C@_0O@GAPOPCOE@ammo_tripmine?$AA@ 40037df0     bg_misc.obj
 0002:00000e00       ??_C@_0BN@FMFLLCGL@?$EAMENUS_THE_THERMAL_DETONATOR?$AA@ 40037e00     bg_misc.obj
 0002:00000e20       ??_C@_0BH@OIMKPGPF@gfx?1hud?1w_icon_thermal?$AA@ 40037e20     bg_misc.obj
 0002:00000e38       ??_C@_0CE@PJGNCPEG@models?1weapons2?1thermal?1thermal?4@ 40037e38     bg_misc.obj
 0002:00000e5c       ??_C@_0CG@CCBCCJGG@models?1weapons2?1thermal?1thermal_@ 40037e5c     bg_misc.obj
 0002:00000e84       ??_C@_0CH@BBPIBDBM@models?1weapons2?1thermal?1thermal_@ 40037e84     bg_misc.obj
 0002:00000eac       ??_C@_0N@IBCNMHOJ@ammo_thermal?$AA@ 40037eac     bg_misc.obj
 0002:00000ebc       ??_C@_0CC@EJOKBHDJ@?$EAMENUS_THE_PLX_2M_IS_AN_EXTREMEL@ 40037ebc     bg_misc.obj
 0002:00000ee0       ??_C@_0BI@DDNFEDEJ@gfx?1hud?1w_icon_merrsonn?$AA@ 40037ee0     bg_misc.obj
 0002:00000ef8       ??_C@_0CI@CPIMDKHH@models?1weapons2?1merr_sonn?1merr_s@ 40037ef8     bg_misc.obj
 0002:00000f20       ??_C@_0CK@IJJCBMNO@models?1weapons2?1merr_sonn?1merr_s@ 40037f20     bg_misc.obj
 0002:00000f4c       ??_C@_0BH@CFPMIEJH@weapon_rocket_launcher?$AA@ 40037f4c     bg_misc.obj
 0002:00000f64       ??_C@_0CE@HHDMNMLP@?$EAMENUS_WIDELY_USED_BY_THE_CORPOR@ 40037f64     bg_misc.obj
 0002:00000f88       ??_C@_0BJ@PJJJCKNF@gfx?1hud?1w_icon_flechette?$AA@ 40037f88     bg_misc.obj
 0002:00000fa4       ??_C@_0CK@CNAHGKMH@models?1weapons2?1golan_arms?1golan@ 40037fa4     bg_misc.obj
 0002:00000fd0       ??_C@_0CM@GDMOBBJ@models?1weapons2?1golan_arms?1golan@ 40037fd0     bg_misc.obj
 0002:00000ffc       ??_C@_0BB@HNIDLLLF@weapon_flechette?$AA@ 40037ffc     bg_misc.obj
 0002:00001010       ??_C@_0BM@BCDPDFEB@?$EAMENUS_COMMONLY_REFERRED_TO?$AA@ 40038010     bg_misc.obj
 0002:0000102c       ??_C@_0BF@BPEBOIFE@gfx?1hud?1w_icon_demp2?$AA@ 4003802c     bg_misc.obj
 0002:00001044       ??_C@_0CA@PKACJAPI@models?1weapons2?1demp2?1demp2?4md3?$AA@ 40038044     bg_misc.obj
 0002:00001064       ??_C@_0CC@DIKAHCC@models?1weapons2?1demp2?1demp2_w?4gl@ 40038064     bg_misc.obj
 0002:00001088       ??_C@_0N@MBLCNHPF@weapon_demp2?$AA@ 40038088     bg_misc.obj
 0002:00001098       ??_C@_0CD@FCKGGFFG@?$EAMENUS_THIS_DESTRUCTIVE_PROJECTI@ 40038098     bg_misc.obj
 0002:000010bc       ??_C@_0BI@LOPKELCD@gfx?1hud?1w_icon_repeater?$AA@ 400380bc     bg_misc.obj
 0002:000010d4       ??_C@_0DC@FAHGABEB@models?1weapons2?1heavy_repeater?1h@ 400380d4     bg_misc.obj
 0002:00001108       ??_C@_0DE@LBIFBLHF@models?1weapons2?1heavy_repeater?1h@ 40038108     bg_misc.obj
 0002:0000113c       ??_C@_0BA@BKCKPFDA@weapon_repeater?$AA@ 4003813c     bg_misc.obj
 0002:0000114c       ??_C@_0BM@MHHBLDA@?$EAMENUS_THIS_ARCHAIC_LOOKING?$AA@ 4003814c     bg_misc.obj
 0002:00001168       ??_C@_0BJ@CHKJPOAH@gfx?1hud?1w_icon_bowcaster?$AA@ 40038168     bg_misc.obj
 0002:00001184       ??_C@_0CI@MANABGJH@models?1weapons2?1bowcaster?1bowcas@ 40038184     bg_misc.obj
 0002:000011ac       ??_C@_0CK@OFDEGMIN@models?1weapons2?1bowcaster?1bowcas@ 400381ac     bg_misc.obj
 0002:000011d8       ??_C@_0BB@KDLDGPGH@weapon_bowcaster?$AA@ 400381d8     bg_misc.obj
 0002:000011ec       ??_C@_0BN@PDALGMFE@?$EAMENUS_THIS_NEFARIOUS_WEAPON?$AA@ 400381ec     bg_misc.obj
 0002:0000120c       ??_C@_0BJ@MODONBMB@gfx?1hud?1w_icon_disruptor?$AA@ 4003820c     bg_misc.obj
 0002:00001228       ??_C@_0CI@KNAINLEF@models?1weapons2?1disruptor?1disrup@ 40038228     bg_misc.obj
 0002:00001250       ??_C@_0CK@LDOPBIMF@models?1weapons2?1disruptor?1disrup@ 40038250     bg_misc.obj
 0002:0000127c       ??_C@_0BB@EKCEEAKB@weapon_disruptor?$AA@ 4003827c     bg_misc.obj
 0002:00001290       ??_C@_0BN@KLDCJACF@?$EAMENUS_THE_PRIMARY_WEAPON_OF?$AA@ 40038290     bg_misc.obj
 0002:000012b0       ??_C@_0BH@POPJAOPK@gfx?1hud?1w_icon_blaster?$AA@ 400382b0     bg_misc.obj
 0002:000012c8       ??_C@_0CG@IJILPHPH@models?1weapons2?1blaster_r?1blaste@ 400382c8     bg_misc.obj
 0002:000012f0       ??_C@_0CI@FHMEJMJP@models?1weapons2?1blaster_r?1blaste@ 400382f0     bg_misc.obj
 0002:00001318       ??_C@_0P@PPIDHAJM@weapon_blaster?$AA@ 40038318     bg_misc.obj
 0002:00001328       ??_C@_0BK@JHPMONHL@?$EASP_INGAME_BLASTER_PISTOL?$AA@ 40038328     bg_misc.obj
 0002:00001344       ??_C@_0BF@HJCHFBMO@gfx?1hud?1w_icon_briar?$AA@ 40038344     bg_misc.obj
 0002:0000135c       ??_C@_0CO@LMBDAEMJ@models?1weapons2?1briar_pistol?1bri@ 4003835c     bg_misc.obj
 0002:0000138c       ??_C@_0DA@DCLFBBNM@models?1weapons2?1briar_pistol?1bri@ 4003838c     bg_misc.obj
 0002:000013bc       ??_C@_0BE@NCEGAEHJ@weapon_bryar_pistol?$AA@ 400383bc     bg_misc.obj
 0002:000013d0       ??_C@_0BH@OEFKMKID@?$EAMENUS_CONC_RIFLE_DESC?$AA@ 400383d0     bg_misc.obj
 0002:000013e8       ??_C@_0BH@PEIIGOLA@gfx?1hud?1w_icon_c_rifle?$AA@ 400383e8     bg_misc.obj
 0002:00001400       ??_C@_0CH@PIBGBJPN@models?1weapons2?1concussion?1c_rif@ 40038400     bg_misc.obj
 0002:00001428       ??_C@_0CJ@OKJJMKPH@models?1weapons2?1concussion?1c_rif@ 40038428     bg_misc.obj
 0002:00001454       ??_C@_0BI@JFLEEDJH@weapon_concussion_rifle?$AA@ 40038454     bg_misc.obj
 0002:0000146c       ??_C@_0BL@EJPJHBLO@?$EAMENUS_BLASTER_PISTOL_DESC?$AA@ 4003846c     bg_misc.obj
 0002:00001488       ??_C@_0BO@EGOADNOO@gfx?1hud?1w_icon_blaster_pistol?$AA@ 40038488     bg_misc.obj
 0002:000014a8       ??_C@_0DC@EGNBDNKO@models?1weapons2?1blaster_pistol?1b@ 400384a8     bg_misc.obj
 0002:000014dc       ??_C@_0DE@EHAMJOHG@models?1weapons2?1blaster_pistol?1b@ 400384dc     bg_misc.obj
 0002:00001510       ??_C@_0BG@JEHALHIL@weapon_blaster_pistol?$AA@ 40038510     bg_misc.obj
 0002:00001528       ??_C@_0BN@GPMHMMHO@?$EAMENUS_AN_ELEGANT_WEAPON_FOR?$AA@ 40038528     bg_misc.obj
 0002:00001548       ??_C@_0BK@DENAAEJI@gfx?1hud?1w_icon_lightsaber?$AA@ 40038548     bg_misc.obj
 0002:00001564       ??_C@_0CC@LELHOPDH@models?1weapons2?1saber?1saber_w?4md@ 40038564     bg_misc.obj
 0002:00001588       ??_C@_0CC@PBCBCODB@models?1weapons2?1saber?1saber_w?4gl@ 40038588     bg_misc.obj
 0002:000015ac       ??_C@_0N@JIBGHNNO@weapon_saber?$AA@ 400385ac     bg_misc.obj
 0002:000015bc       ??_C@_0BC@CEFBGLCB@?$EAMENUS_MELEE_DESC?$AA@ 400385bc     bg_misc.obj
 0002:000015d0       ??_C@_0BF@GPOFHEPB@gfx?1hud?1w_icon_melee?$AA@ 400385d0     bg_misc.obj
 0002:000015e8       ??_C@_0N@LBBGELFA@weapon_melee?$AA@ 400385e8     bg_misc.obj
 0002:000015f8       ??_C@_0BJ@JFPGMAAH@gfx?1hud?1w_icon_stunbaton?$AA@ 400385f8     bg_misc.obj
 0002:00001614       ??_C@_0CF@INEBKGM@models?1weapons2?1stun_baton?1baton@ 40038614     bg_misc.obj
 0002:0000163c       ??_C@_0CH@BLMKNANE@models?1weapons2?1stun_baton?1baton@ 4003863c     bg_misc.obj
 0002:00001664       ??_C@_0BC@EJEDEKOE@weapon_stun_baton?$AA@ 40038664     bg_misc.obj
 0002:00001678       ??_C@_0BE@OEFHDNBF@gfx?1hud?1mpi_ysamari?$AA@ 40038678     bg_misc.obj
 0002:0000168c       ??_C@_0CE@KCIGBHIN@models?1map_objects?1mp?1ysalimari?4@ 4003868c     bg_misc.obj
 0002:000016b0       ??_C@_0BL@LEFKKCEP@sound?1player?1ysalimari?4wav?$AA@ 400386b0     bg_misc.obj
 0002:000016cc       ??_C@_0P@BMGIHJKN@item_ysalimari?$AA@ 400386cc     bg_misc.obj
 0002:000016dc       ??_C@_0BC@DEOLDKOL@gfx?1hud?1mpi_fboon?$AA@ 400386dc     bg_misc.obj
 0002:000016f0       ??_C@_0CF@JPDLAKMB@models?1map_objects?1mp?1force_boon@ 400386f0     bg_misc.obj
 0002:00001718       ??_C@_0BG@GFIPDGIH@sound?1player?1boon?4wav?$AA@ 40038718     bg_misc.obj
 0002:00001730       ??_C@_0BA@HALIIJIE@item_force_boon?$AA@ 40038730     bg_misc.obj
 0002:00001740       ??_C@_0BE@NFHAGLDO@gfx?1hud?1mpi_dklight?$AA@ 40038740     bg_misc.obj
 0002:00001754       ??_C@_0CL@IJLGBCPL@models?1map_objects?1mp?1dk_enlight@ 40038754     bg_misc.obj
 0002:00001780       ??_C@_0BK@JFKBFAGB@item_force_enlighten_dark?$AA@ 40038780     bg_misc.obj
 0002:0000179c       ??_C@_0BD@MPGMMGMB@gfx?1hud?1mpi_jlight?$AA@ 4003879c     bg_misc.obj
 0002:000017b0       ??_C@_0CN@DIMKCGKC@models?1map_objects?1mp?1jedi_enlig@ 400387b0     bg_misc.obj
 0002:000017e0       ??_C@_0BP@GFNNPIJO@sound?1player?1enlightenment?4wav?$AA@ 400387e0     bg_misc.obj
 0002:00001800       ??_C@_0BL@MINBJMDE@item_force_enlighten_light?$AA@ 40038800     bg_misc.obj
 0002:0000181c       ??_C@_0BC@GHMKCCIP@?$EAMENUS_CLOAK_DESC?$AA@ 4003881c     bg_misc.obj
 0002:00001830       ??_C@_0BF@JNCBPHCG@gfx?1hud?1i_icon_cloak?$AA@ 40038830     bg_misc.obj
 0002:00001848       ??_C@_0L@LGDPDIAF@item_cloak?$AA@ 40038848     bg_misc.obj
 0002:00001854       ??_C@_0BB@BOLMLFOH@?$EAMENUS_EWEB_DESC?$AA@ 40038854     bg_misc.obj
 0002:00001868       ??_C@_0BE@HACMCHO@gfx?1hud?1i_icon_eweb?$AA@ 40038868     bg_misc.obj
 0002:0000187c       ??_C@_0CH@FJBCGPDI@models?1map_objects?1hoth?1eweb_mod@ 4003887c     bg_misc.obj
 0002:000018a4       ??_C@_0CA@PCDIFNM@sound?1interface?1shieldcon_empty?$AA@ 400388a4     bg_misc.obj
 0002:000018c4       ??_C@_0BD@FNDPGFNF@item_eweb_holdable?$AA@ 400388c4     bg_misc.obj
 0002:000018d8       ??_C@_0BI@NJGLIFAN@gfx?1hud?1i_icon_ammodisp?$AA@ 400388d8     bg_misc.obj
 0002:000018f0       ??_C@_0O@FFANILHN@item_ammodisp?$AA@ 400388f0     bg_misc.obj
 0002:00001900       ??_C@_0BK@CIGOJBM@gfx?1hud?1i_icon_healthdisp?$AA@ 40038900     bg_misc.obj
 0002:0000191c       ??_C@_0BA@MKABDBIL@item_healthdisp?$AA@ 4003891c     bg_misc.obj
 0002:0000192c       ??_C@_0BE@JOMGFMAF@?$EAMENUS_JETPACK_DESC?$AA@ 4003892c     bg_misc.obj
 0002:00001940       ??_C@_0FD@EDGCAKBF@sound?1chars?1boba?1JETON?4wav?5sound@ 40038940     bg_misc.obj
 0002:00001994       ??_C@_0BF@CHFBNMLA@effects?1boba?1jet?4efx?$AA@ 40038994     bg_misc.obj
 0002:000019ac       ??_C@_0BH@PNGEEMFJ@gfx?1hud?1i_icon_jetpack?$AA@ 400389ac     bg_misc.obj
 0002:000019c4       ??_C@_0N@EIBGMPAH@item_jetpack?$AA@ 400389c4     bg_misc.obj
 0002:000019d4       ??_C@_0BN@MFHKBDDJ@?$EAMENUS_THIS_DEADLY_WEAPON_IS?$AA@ 400389d4     bg_misc.obj
 0002:000019f4       ??_C@_0BJ@JKBMBJCM@gfx?1hud?1i_icon_sentrygun?$AA@ 400389f4     bg_misc.obj
 0002:00001a10       ??_C@_0BH@PFALJFOC@models?1items?1psgun?4glm?$AA@ 40038a10     bg_misc.obj
 0002:00001a28       ??_C@_0BA@HKIJMOIG@item_sentry_gun?$AA@ 40038a28     bg_misc.obj
 0002:00001a38       ??_C@_0BL@PADDACKM@?$EASP_INGAME_LA_GOGGLES_DESC?$AA@ 40038a38     bg_misc.obj
 0002:00001a54       ??_C@_0BE@PKBACEEE@gfx?1hud?1i_icon_zoom?$AA@ 40038a54     bg_misc.obj
 0002:00001a68       ??_C@_0BM@HNHCIOH@models?1items?1binoculars?4md3?$AA@ 40038a68     bg_misc.obj
 0002:00001a84       ??_C@_0BA@KBLOKIGM@item_binoculars?$AA@ 40038a84     bg_misc.obj
 0002:00001a94       ??_C@_0BJ@DMMPEJNE@gfx?1hud?1i_icon_big_bacta?$AA@ 40038a94     bg_misc.obj
 0002:00001ab0       ??_C@_0BL@HEJMELJJ@models?1items?1big_bacta?4md3?$AA@ 40038ab0     bg_misc.obj
 0002:00001acc       ??_C@_0BA@JADGBDOO@item_medpac_big?$AA@ 40038acc     bg_misc.obj
 0002:00001adc       ??_C@_0BG@BFJBNBGL@?$EASP_INGAME_BACTA_DESC?$AA@ 40038adc     bg_misc.obj
 0002:00001af4       ??_C@_0BF@EDJNGJL@gfx?1hud?1i_icon_bacta?$AA@ 40038af4     bg_misc.obj
 0002:00001b0c       ??_C@_0CA@COCFAODK@models?1map_objects?1mp?1bacta?4md3?$AA@ 40038b0c     bg_misc.obj
 0002:00001b2c       ??_C@_0M@NLNOFNHL@item_medpac?$AA@ 40038b2c     bg_misc.obj
 0002:00001b38       ??_C@_0BO@HHEDFEHB@?$EAMENUS_THIS_STATIONARY_ENERGY?$AA@ 40038b38     bg_misc.obj
 0002:00001b58       ??_C@_0KM@PHBHELNF@sound?1weapons?1detpack?1stick?4wav?5@ 40038b58     bg_misc.obj
 0002:00001c04       ??_C@_0BK@OODCPGGP@gfx?1hud?1i_icon_shieldwall?$AA@ 40038c04     bg_misc.obj
 0002:00001c20       ??_C@_0CB@EAKHAPIK@models?1map_objects?1mp?1shield?4md3@ 40038c20     bg_misc.obj
 0002:00001c44       ??_C@_0M@IIGPMPLO@item_shield?$AA@ 40038c44     bg_misc.obj
 0002:00001c50       ??_C@_0BP@JJMOPAPI@?$EAMENUS_AN_ATTACK_DRONE_SIMILAR?$AA@ 40038c50     bg_misc.obj
 0002:00001c70       ??_C@_0BG@KANLKHLH@gfx?1hud?1i_icon_seeker?$AA@ 40038c70     bg_misc.obj
 0002:00001c88       ??_C@_0BI@PEKMFNBP@models?1items?1remote?4md3?$AA@ 40038c88     bg_misc.obj
 0002:00001ca0       ??_C@_0BJ@IBMECGJM@sound?1weapons?1w_pkup?4wav?$AA@ 40038ca0     bg_misc.obj
 0002:00001cbc       ??_C@_0M@CJHMIAK@item_seeker?$AA@ 40038cbc     bg_misc.obj
 0002:00001cc8       ??_C@_0BG@PFBKDHHG@gfx?1hud?1i_icon_medkit?$AA@ 40038cc8     bg_misc.obj
 0002:00001ce0       ??_C@_0CB@PABPOCJH@models?1map_objects?1mp?1medpac?4md3@ 40038ce0     bg_misc.obj
 0002:00001d04       ??_C@_0BO@NIGJKPEE@sound?1player?1pickuphealth?4wav?$AA@ 40038d04     bg_misc.obj
 0002:00001d24       ??_C@_0BE@MEFMIHAD@item_medpak_instant?$AA@ 40038d24     bg_misc.obj
 0002:00001d38       ??_C@_0BE@JKBNBKPH@gfx?1mp?1large_shield?$AA@ 40038d38     bg_misc.obj
 0002:00001d4c       ??_C@_0BO@JPJCNECL@models?1map_objects?1mp?1psd?4md3?$AA@ 40038d4c     bg_misc.obj
 0002:00001d6c       ??_C@_0BI@HGJKGJEB@item_shield_lrg_instant?$AA@ 40038d6c     bg_misc.obj
 0002:00001d84       ??_C@_0BE@GPDHMLPP@gfx?1mp?1small_shield?$AA@ 40038d84     bg_misc.obj
 0002:00001d98       ??_C@_0CB@FFNAAGJJ@models?1map_objects?1mp?1psd_sm?4md3@ 40038d98     bg_misc.obj
 0002:00001dbc       ??_C@_0BO@CHCEMMJK@sound?1player?1pickupshield?4wav?$AA@ 40038dbc     bg_misc.obj
 0002:00001ddc       ??_C@_0BH@DINJFPKN@item_shield_sm_instant?$AA@ 40038ddc     bg_misc.obj
 0002:00001df3       ??_C@_00CNPNBAHC@?$AA@     40038df3     bg_misc.obj
 0002:00001df4       ??_C@_08FEEDNBKC@MASTERY7?$AA@ 40038df4     bg_misc.obj
 0002:00001e00       ??_C@_08ENFIOAOD@MASTERY6?$AA@ 40038e00     bg_misc.obj
 0002:00001e0c       ??_C@_08GGHFLDCA@MASTERY5?$AA@ 40038e0c     bg_misc.obj
 0002:00001e18       ??_C@_08HPGOICGB@MASTERY4?$AA@ 40038e18     bg_misc.obj
 0002:00001e24       ??_C@_08DACPBEKG@MASTERY3?$AA@ 40038e24     bg_misc.obj
 0002:00001e30       ??_C@_08CJDECFOH@MASTERY2?$AA@ 40038e30     bg_misc.obj
 0002:00001e3c       ??_C@_08CBJHGCE@MASTERY1?$AA@ 40038e3c     bg_misc.obj
 0002:00001e48       ??_C@_08BLACEHGF@MASTERY0?$AA@ 40038e48     bg_misc.obj
 0002:00001e54       ??_C@_0O@GKPNHIOC@?$CKtac_together?$AA@ 40038e54     bg_misc.obj
 0002:00001e64       ??_C@_0L@MGMJIMAF@?$CKtac_split?$AA@ 40038e64     bg_misc.obj
 0002:00001e70       ??_C@_09DINJJNAI@?$CKtac_hold?$AA@ 40038e70     bg_misc.obj
 0002:00001e7c       ??_C@_0M@PABJGNLG@?$CKtac_follow?$AA@ 40038e7c     bg_misc.obj
 0002:00001e88       ??_C@_0O@NFGMPNBH@?$CKtac_fallback?$AA@ 40038e88     bg_misc.obj
 0002:00001e98       ??_C@_0L@EHELGHNE@?$CKtac_cover?$AA@ 40038e98     bg_misc.obj
 0002:00001ea4       ??_C@_0N@KDPAKEEJ@?$CKspot_troops?$AA@ 40038ea4     bg_misc.obj
 0002:00001eb4       ??_C@_0N@JGIPLKJE@?$CKspot_sniper?$AA@ 40038eb4     bg_misc.obj
 0002:00001ec4       ??_C@_0P@LLDGJFLE@?$CKspot_emplaced?$AA@ 40038ec4     bg_misc.obj
 0002:00001ed4       ??_C@_0P@ILGDCGKG@?$CKspot_defenses?$AA@ 40038ed4     bg_misc.obj
 0002:00001ee4       ??_C@_09KPOPDKGM@?$CKspot_air?$AA@ 40038ee4     bg_misc.obj
 0002:00001ef0       ??_C@_09FCIMPFEJ@?$CKreq_tech?$AA@ 40038ef0     bg_misc.obj
 0002:00001efc       ??_C@_08EHGAEMIC@?$CKreq_sup?$AA@ 40038efc     bg_misc.obj
 0002:00001f08       ??_C@_0L@PJEOEMHI@?$CKreq_medic?$AA@ 40038f08     bg_misc.obj
 0002:00001f14       ??_C@_08BDPMJJAM@?$CKreq_hvy?$AA@ 40038f14     bg_misc.obj
 0002:00001f20       ??_C@_09HHLDNJAG@?$CKreq_demo?$AA@ 40038f20     bg_misc.obj
 0002:00001f2c       ??_C@_0M@MJLNGIKA@?$CKreq_assist?$AA@ 40038f2c     bg_misc.obj
 0002:00001f38       ??_C@_0L@DOBCHHPE@?$CKreply_yes?$AA@ 40038f38     bg_misc.obj
 0002:00001f44       ??_C@_0M@PJKELJII@?$CKreply_stay?$AA@ 40038f44     bg_misc.obj
 0002:00001f50       ??_C@_09FGIKFCBO@?$CKreply_no?$AA@ 40038f50     bg_misc.obj
 0002:00001f5c       ??_C@_09FJFLGJJB@?$CKreply_go?$AA@ 40038f5c     bg_misc.obj
 0002:00001f68       ??_C@_0O@LCDECPIN@?$CKreply_coming?$AA@ 40038f68     bg_misc.obj
 0002:00001f78       ??_C@_0M@HJCGMPNN@?$CKdef_second?$AA@ 40038f78     bg_misc.obj
 0002:00001f84       ??_C@_0N@LBIDFACI@?$CKdef_primary?$AA@ 40038f84     bg_misc.obj
 0002:00001f94       ??_C@_0O@EGEINPEB@?$CKdef_position?$AA@ 40038f94     bg_misc.obj
 0002:00001fa4       ??_C@_09PJJIIOPG@?$CKdef_guns?$AA@ 40038fa4     bg_misc.obj
 0002:00001fb0       ??_C@_0M@ECCLODLO@?$CKatt_second?$AA@ 40038fb0     bg_misc.obj
 0002:00001fbc       ??_C@_0N@GFADGNOG@?$CKatt_primary?$AA@ 40038fbc     bg_misc.obj
 0002:00001fcc       ??_C@_0M@MHLPAMFK@?$CKatt_attack?$AA@ 40038fcc     bg_misc.obj
 0002:00001fd8       ??_C@_0BI@KPCBHBOL@head_light_blaster_cann?$AA@ 40038fd8     bg_misc.obj
 0002:00001ff0       ??_C@_0BI@FPANAMDK@head_concussion_charger?$AA@ 40038ff0     bg_misc.obj
 0002:00002008       ??_C@_04NEODDMOL@head?$AA@ 40039008     bg_misc.obj
 0002:00002010       ??_C@_06BCDCLMEB@helmet?$AA@ 40039010     bg_misc.obj
 0002:00002018       ??_C@_06INLMLPMC@r_hand?$AA@ 40039018     bg_misc.obj
 0002:00002020       ??_C@_06LKFNFIFB@l_hand?$AA@ 40039020     bg_misc.obj
 0002:00002028       ??_C@_05DAKMKCAJ@blah5?$AA@ 40039028     bg_misc.obj
 0002:00002030       ??_C@_05CJLHJDEI@blah4?$AA@ 40039030     bg_misc.obj
 0002:00002038       ??_C@_04DCKHGPHA@nose?$AA@ 40039038     bg_misc.obj
 0002:00002040       ??_C@_06KAKLKKDN@l_gear?$AA@ 40039040     bg_misc.obj
 0002:00002048       ??_C@_06JHEKENKO@r_gear?$AA@ 40039048     bg_misc.obj
 0002:00002050       ??_C@_07DBBACNJN@l_wing2?$AA@ 40039050     bg_misc.obj
 0002:00002058       ??_C@_07BKDNHOFO@l_wing1?$AA@ 40039058     bg_misc.obj
 0002:00002060       ??_C@_07FICBAOIE@r_wing2?$AA@ 40039060     bg_misc.obj
 0002:00002068       ??_C@_07HDAMFNEH@r_wing1?$AA@ 40039068     bg_misc.obj
 0002:00002070       ??_C@_0N@FODOKFMD@torso_collar?$AA@ 40039070     bg_misc.obj
 0002:00002080       ??_C@_0BB@FPOHHKLE@torso_galaktorso?$AA@ 40039080     bg_misc.obj
 0002:00002094       ??_C@_0N@IFENOPML@torso_shield?$AA@ 40039094     bg_misc.obj
 0002:000020a4       ??_C@_05IPPEPANF@l_arm?$AA@ 400390a4     bg_misc.obj
 0002:000020ac       ??_C@_05LGCIJDDO@r_arm?$AA@ 400390ac     bg_misc.obj
 0002:000020b4       ??_C@_0M@HACAOHEH@torso_tube6?$AA@ 400390b4     bg_misc.obj
 0002:000020c0       ??_C@_0M@FLANLEIE@torso_tube5?$AA@ 400390c0     bg_misc.obj
 0002:000020cc       ??_C@_0M@ECBGIFMF@torso_tube4?$AA@ 400390cc     bg_misc.obj
 0002:000020d8       ??_C@_0M@NFHBDAC@torso_tube3?$AA@ 400390d8     bg_misc.obj
 0002:000020e4       ??_C@_0M@BEEMCCED@torso_tube2?$AA@ 400390e4     bg_misc.obj
 0002:000020f0       ??_C@_0M@DPGBHBIA@torso_tube1?$AA@ 400390f0     bg_misc.obj
 0002:000020fc       ??_C@_0BA@DHJPAGAH@torso_canister3?$AA@ 400390fc     bg_misc.obj
 0002:0000210c       ??_C@_0BA@COIEDHEG@torso_canister2?$AA@ 4003910c     bg_misc.obj
 0002:0000211c       ??_C@_0BA@FKJGEIF@torso_canister1?$AA@ 4003911c     bg_misc.obj
 0002:0000212c       ??_C@_09EPBMGDBP@l_arm_key?$AA@ 4003912c     bg_misc.obj
 0002:00002138       _bgToggleableSurfaceDebris 40039138     bg_misc.obj
 0002:000021b4       ??_C@_02IKAHHCAI@?$CFi?$AA@ 400391b4     bg_misc.obj
 0002:000021b8       ??_C@_03COHLNFKP@?$CFi?9?$AA@ 400391b8     bg_misc.obj
 0002:000021bc       ??_C@_0BH@HKHNICAI@7?91?9032330000000001333?$AA@ 400391bc     bg_misc.obj
 0002:000021d4       __real@42b40000            400391d4     bg_misc.obj
 0002:000021d8       __real@4076800000000000    400391d8     bg_misc.obj
 0002:000021e0       __real@400921fb60000000    400391e0     bg_misc.obj
 0002:000021e8       __real@00000000            400391e8     bg_misc.obj
 0002:000021ec       ??_C@_0BH@MFGKJDLM@HoldableItem?5not?5found?$AA@ 400391ec     bg_misc.obj
 0002:00002204       ??_C@_0CB@DEACFJO@Couldn?8t?5find?5item?5for?5weapon?5?$CFi@ 40039204     bg_misc.obj
 0002:00002228       __real@3f50624de0000000    40039228     bg_misc.obj
 0002:00002230       __real@4056800000000000    40039230     bg_misc.obj
 0002:00002238       __real@3fe0000000000000    40039238     bg_misc.obj
 0002:00002240       __real@bf800000            40039240     bg_misc.obj
 0002:00002244       ??_C@_04JIEPAMAO@kyle?$AA@ 40039244     bg_misc.obj
 0002:0000224c       ??_C@_04OBGPFBCN@blue?$AA@ 4003924c     bg_misc.obj
 0002:00002254       ??_C@_03FAAAOPJM@red?$AA@  40039254     bg_misc.obj
 0002:00002258       ??_C@_0CJ@BDGLLNGN@BG_Alloc?3?5buffer?5exceeded?5tail?5?$CI@ 40039258     bg_misc.obj
 0002:00002284       ??_C@_0O@OALEAKPJ@heavy_weapons?$AA@ 40039284     bg_saga.obj
 0002:00002294       ??_C@_0O@FEHNADND@demolitionist?$AA@ 40039294     bg_saga.obj
 0002:000022a4       ??_C@_0N@DFCFOLOG@jedi_general?$AA@ 400392a4     bg_saga.obj
 0002:000022b4       ??_C@_07ILMBEDPO@support?$AA@ 400392b4     bg_saga.obj
 0002:000022bc       ??_C@_08KMDKBEDF@vanguard?$AA@ 400392bc     bg_saga.obj
 0002:000022c8       ??_C@_08GMEOELGB@infantry?$AA@ 400392c8     bg_saga.obj
 0002:000022d4       ??_C@_0N@POBOEFDG@PW_YSALAMIRI?$AA@ 400392d4     bg_saga.obj
 0002:000022e4       ??_C@_0O@IGDAJBEG@PW_FORCE_BOON?$AA@ 400392e4     bg_saga.obj
 0002:000022f4       ??_C@_0BK@MOILIMDA@PW_FORCE_ENLIGHTENED_DARK?$AA@ 400392f4     bg_saga.obj
 0002:00002310       ??_C@_0BL@EBGCPDCI@PW_FORCE_ENLIGHTENED_LIGHT?$AA@ 40039310     bg_saga.obj
 0002:0000232c       ??_C@_0L@LJAIJPE@PW_CLOAKED?$AA@ 4003932c     bg_saga.obj
 0002:00002338       ??_C@_08BNFNBBBB@PW_SPEED?$AA@ 40039338     bg_saga.obj
 0002:00002344       ??_C@_0M@FBGLLBBK@PW_DISINT_4?$AA@ 40039344     bg_saga.obj
 0002:00002350       ??_C@_0O@ENGHHLHL@PW_SPEEDBURST?$AA@ 40039350     bg_saga.obj
 0002:00002360       ??_C@_0N@GHPJGBHC@PW_SHIELDHIT?$AA@ 40039360     bg_saga.obj
 0002:00002370       ??_C@_0P@IBLDCDDO@PW_NEUTRALFLAG?$AA@ 40039370     bg_saga.obj
 0002:00002380       ??_C@_0M@MJPEKDEL@PW_BLUEFLAG?$AA@ 40039380     bg_saga.obj
 0002:0000238c       ??_C@_0L@EHANBCOH@PW_REDFLAG?$AA@ 4003938c     bg_saga.obj
 0002:00002398       ??_C@_07DFNNPKLN@PW_PULL?$AA@ 40039398     bg_saga.obj
 0002:000023a0       ??_C@_0O@MMBFHIEB@PW_BATTLESUIT?$AA@ 400393a0     bg_saga.obj
 0002:000023b0       ??_C@_07MILMMKFG@PW_QUAD?$AA@ 400393b0     bg_saga.obj
 0002:000023b8       ??_C@_07HOPALIC@PW_NONE?$AA@ 400393b8     bg_saga.obj
 0002:000023c0       ??_C@_08CKJOPOAO@HI_CLOAK?$AA@ 400393c0     bg_saga.obj
 0002:000023cc       ??_C@_07DODJPBMI@HI_EWEB?$AA@ 400393cc     bg_saga.obj
 0002:000023d4       ??_C@_0M@GINCEKMK@HI_AMMODISP?$AA@ 400393d4     bg_saga.obj
 0002:000023e0       ??_C@_0O@CACPKEEP@HI_HEALTHDISP?$AA@ 400393e0     bg_saga.obj
 0002:000023f0       ??_C@_0L@HECMIPKK@HI_JETPACK?$AA@ 400393f0     bg_saga.obj
 0002:000023fc       ??_C@_0O@FBGGHEEG@HI_SENTRY_GUN?$AA@ 400393fc     bg_saga.obj
 0002:0000240c       ??_C@_0O@ELJADNKI@HI_BINOCULARS?$AA@ 4003940c     bg_saga.obj
 0002:0000241c       ??_C@_0O@LLNJKJCO@HI_MEDPAC_BIG?$AA@ 4003941c     bg_saga.obj
 0002:0000242c       ??_C@_09NJBEABJH@HI_MEDPAC?$AA@ 4003942c     bg_saga.obj
 0002:00002438       ??_C@_09IKKFJDFC@HI_SHIELD?$AA@ 40039438     bg_saga.obj
 0002:00002444       ??_C@_09FNJEOG@HI_SEEKER?$AA@ 40039444     bg_saga.obj
 0002:00002450       ??_C@_07JPFAMGIP@HI_NONE?$AA@ 40039450     bg_saga.obj
 0002:00002458       ??_C@_0O@HFIJJPHA@FP_SABERTHROW?$AA@ 40039458     bg_saga.obj
 0002:00002468       ??_C@_0BB@OENPHNCL@FP_SABER_DEFENSE?$AA@ 40039468     bg_saga.obj
 0002:0000247c       ??_C@_0BB@IIFNHLOA@FP_SABER_OFFENSE?$AA@ 4003947c     bg_saga.obj
 0002:00002490       ??_C@_06NBGCGEAI@FP_SEE?$AA@ 40039490     bg_saga.obj
 0002:00002498       ??_C@_08NAMGMEAJ@FP_DRAIN?$AA@ 40039498     bg_saga.obj
 0002:000024a4       ??_C@_0O@FDDGJKAO@FP_TEAM_FORCE?$AA@ 400394a4     bg_saga.obj
 0002:000024b4       ??_C@_0N@MKMKNEAO@FP_TEAM_HEAL?$AA@ 400394b4     bg_saga.obj
 0002:000024c4       ??_C@_09MANKLPPB@FP_ABSORB?$AA@ 400394c4     bg_saga.obj
 0002:000024d0       ??_C@_0L@GMEKEMHM@FP_PROTECT?$AA@ 400394d0     bg_saga.obj
 0002:000024dc       ??_C@_07DCICDLJP@FP_RAGE?$AA@ 400394dc     bg_saga.obj
 0002:000024e4       ??_C@_0N@MLCJOEAL@FP_LIGHTNING?$AA@ 400394e4     bg_saga.obj
 0002:000024f4       ??_C@_07OFAFBAAC@FP_GRIP?$AA@ 400394f4     bg_saga.obj
 0002:000024fc       ??_C@_0N@EOKHLCHN@FP_TELEPATHY?$AA@ 400394fc     bg_saga.obj
 0002:0000250c       ??_C@_07EKKOPMJP@FP_PULL?$AA@ 4003950c     bg_saga.obj
 0002:00002514       ??_C@_07DJLINNNG@FP_PUSH?$AA@ 40039514     bg_saga.obj
 0002:0000251c       ??_C@_08MIECCDPD@FP_SPEED?$AA@ 4003951c     bg_saga.obj
 0002:00002528       ??_C@_0O@GOCMKMCC@FP_LEVITATION?$AA@ 40039528     bg_saga.obj
 0002:00002538       ??_C@_07ECPPOEBA@FP_HEAL?$AA@ 40039538     bg_saga.obj
 0002:00002540       ??_C@_09LJGBHCLN@WP_TURRET?$AA@ 40039540     bg_saga.obj
 0002:0000254c       ??_C@_0BA@HPLIMHOO@WP_EMPLACED_GUN?$AA@ 4003954c     bg_saga.obj
 0002:0000255c       ??_C@_0N@OIFGJENP@WP_BRYAR_OLD?$AA@ 4003955c     bg_saga.obj
 0002:0000256c       ??_C@_0O@MNNKJNKC@WP_CONCUSSION?$AA@ 4003956c     bg_saga.obj
 0002:0000257c       ??_C@_0M@EOMDDGDC@WP_DET_PACK?$AA@ 4003957c     bg_saga.obj
 0002:00002588       ??_C@_0N@OGLOKOOO@WP_TRIP_MINE?$AA@ 40039588     bg_saga.obj
 0002:00002598       ??_C@_0L@COCGCIBD@WP_THERMAL?$AA@ 40039598     bg_saga.obj
 0002:000025a4       ??_C@_0BD@JBJHCOEB@WP_ROCKET_LAUNCHER?$AA@ 400395a4     bg_saga.obj
 0002:000025b8       ??_C@_0N@DNBPCFMC@WP_FLECHETTE?$AA@ 400395b8     bg_saga.obj
 0002:000025c8       ??_C@_08GDBGMIBE@WP_DEMP2?$AA@ 400395c8     bg_saga.obj
 0002:000025d4       ??_C@_0M@GCNBMEBC@WP_REPEATER?$AA@ 400395d4     bg_saga.obj
 0002:000025e0       ??_C@_0N@ODCPPBBA@WP_BOWCASTER?$AA@ 400395e0     bg_saga.obj
 0002:000025f0       ??_C@_0N@KLINONG@WP_DISRUPTOR?$AA@ 400395f0     bg_saga.obj
 0002:00002600       ??_C@_0L@DIBFNABM@WP_BLASTER?$AA@ 40039600     bg_saga.obj
 0002:0000260c       ??_C@_0BC@LEINJGEK@WP_BLASTER_PISTOL?$AA@ 4003960c     bg_saga.obj
 0002:00002620       ??_C@_0BA@GBAOKNDN@WP_BRYAR_PISTOL?$AA@ 40039620     bg_saga.obj
 0002:00002630       ??_C@_08KPDGEGJN@WP_SABER?$AA@ 40039630     bg_saga.obj
 0002:0000263c       ??_C@_08IGDGHABD@WP_MELEE?$AA@ 4003963c     bg_saga.obj
 0002:00002648       ??_C@_0O@NNFLCPNL@WP_STUN_BATON?$AA@ 40039648     bg_saga.obj
 0002:00002658       ??_C@_07MIINDMBF@WP_NONE?$AA@ 40039658     bg_saga.obj
 0002:00002660       ??_C@_04HIBGFPH@NULL?$AA@  40039660     bg_saga.obj
 0002:00002668       ??_C@_08OKAIMOGC@SS_STAFF?$AA@ 40039668     bg_saga.obj
 0002:00002674       ??_C@_07NCKFHLFM@SS_DUAL?$AA@ 40039674     bg_saga.obj
 0002:0000267c       ??_C@_09NOGCKHNM@SS_TAVION?$AA@ 4003967c     bg_saga.obj
 0002:00002688       ??_C@_09COLLLEKM@SS_DESANN?$AA@ 40039688     bg_saga.obj
 0002:00002694       ??_C@_09EIDFCCBI@SS_STRONG?$AA@ 40039694     bg_saga.obj
 0002:000026a0       ??_C@_09JHAJINFA@SS_MEDIUM?$AA@ 400396a0     bg_saga.obj
 0002:000026ac       ??_C@_07OKKHAHLD@SS_FAST?$AA@ 400396ac     bg_saga.obj
 0002:000026b4       ??_C@_07HNCPCIHC@SS_NONE?$AA@ 400396b4     bg_saga.obj
 0002:000026bc       ??_C@_0P@KICFDAJ@CFL_EXTRA_AMMO?$AA@ 400396bc     bg_saga.obj
 0002:000026cc       ??_C@_0P@LBJDDHDM@CFL_CUSTOMSKEL?$AA@ 400396cc     bg_saga.obj
 0002:000026dc       ??_C@_0BC@LICHKKD@CFL_SINGLE_ROCKET?$AA@ 400396dc     bg_saga.obj
 0002:000026f0       ??_C@_0P@NCLEBEDM@CFL_HEAVYMELEE?$AA@ 400396f0     bg_saga.obj
 0002:00002700       ??_C@_0P@DKGINMOP@CFL_STATVIEWER?$AA@ 40039700     bg_saga.obj
 0002:00002710       ??_C@_0BD@DNMLPLIL@CFL_FASTFORCEREGEN?$AA@ 40039710     bg_saga.obj
 0002:00002724       ??_C@_0BK@JLDBMALB@CFL_STRONGAGAINSTPHYSICAL?$AA@ 40039724     bg_saga.obj
 0002:00002740       ??_C@_0BB@OIJDKHFE@CFL_MORESABERDMG?$AA@ 40039740     bg_saga.obj
 0002:00002754       ??_C@_0CI@BBIKCBO@Group?5?8?$CFs?8?5is?5missing?5a?5closing?5@ 40039754     bg_saga.obj
 0002:00002780       ??_C@_0FJ@KOGMAIHK@Found?5an?5opening?5bracket?5without@ 40039780     bg_saga.obj
 0002:000027e0       ??_C@_0FA@EHNNLFND@Found?5a?5closing?5bracket?5without?5@ 400397e0     bg_saga.obj
 0002:00002830       ??_C@_0GA@DIGHOEOC@Error?5parsing?5group?5in?5file?0?5une@ 40039830     bg_saga.obj
 0002:00002890       ??_C@_0CM@DMIPCGDB@Unexpected?5EOF?5while?5looking?5for@ 40039890     bg_saga.obj
 0002:000028c0       ??_C@_0FH@PHDPJEBI@Unexpected?5EOF?5while?5looking?5for@ 400398c0     bg_saga.obj
 0002:00002918       ??_C@_0EP@OCHOIPPN@Unexpected?5EOF?5while?5looking?5for@ 40039918     bg_saga.obj
 0002:00002968       ??_C@_0EA@CICFFHLL@Error?5parsing?5file?0?5unexpected?5E@ 40039968     bg_saga.obj
 0002:000029a8       ??_C@_0DL@MANGCKOJ@Error?5parsing?5file?0?5found?5commen@ 400399a8     bg_saga.obj
 0002:000029e8       ??_C@_0EJ@GJJGBCAC@Unexpected?5closing?5bracket?5?$CItoo?5@ 400399e8     bg_saga.obj
 0002:00002a34       ??_C@_07IHELEENG@FP_JUMP?$AA@ 40039a34     bg_saga.obj
 0002:00002a3c       ??_C@_06PFGBHLNK@FP_ALL?$AA@ 40039a3c     bg_saga.obj
 0002:00002a44       ??_C@_08BOHIELLL@powerups?$AA@ 40039a44     bg_saga.obj
 0002:00002a50       ??_C@_09LOIGNDON@holdables?$AA@ 40039a50     bg_saga.obj
 0002:00002a5c       ??_C@_0CN@HKDFKNIC@ERROR?3?5no?5class_shader?5defined?5f@ 40039a5c     bg_saga.obj
 0002:00002a8c       ??_C@_0DE@BHILLBOP@ERROR?3?5could?5not?5find?5class_shad@ 40039a8c     bg_saga.obj
 0002:00002ac0       ??_C@_0N@NNMCCMOK@class_shader?$AA@ 40039ac0     bg_saga.obj
 0002:00002ad0       ??_C@_0CD@GDIFDMKP@Siege?5class?5without?5uishader?5ent@ 40039ad0     bg_saga.obj
 0002:00002af4       ??_C@_08BGECLNMM@uishader?$AA@ 40039af4     bg_saga.obj
 0002:00002b00       ??_C@_05HJCMGBKF@speed?$AA@ 40039b00     bg_saga.obj
 0002:00002b08       ??_C@_0L@GGCEHPNG@startarmor?$AA@ 40039b08     bg_saga.obj
 0002:00002b14       ??_C@_08KAGIGECM@maxarmor?$AA@ 40039b14     bg_saga.obj
 0002:00002b20       ??_C@_0M@JKHBPLJM@starthealth?$AA@ 40039b20     bg_saga.obj
 0002:00002b2c       ??_C@_09MHNPKMIF@maxhealth?$AA@ 40039b2c     bg_saga.obj
 0002:00002b38       ??_C@_0L@GKKNICAL@classflags?$AA@ 40039b38     bg_saga.obj
 0002:00002b44       ??_C@_0M@IOJHBENM@forcepowers?$AA@ 40039b44     bg_saga.obj
 0002:00002b50       ??_C@_0CC@FAKKFGGN@Siege?5class?5without?5weapons?5entr@ 40039b50     bg_saga.obj
 0002:00002b74       ??_C@_07PKKCMMCH@weapons?$AA@ 40039b74     bg_saga.obj
 0002:00002b7c       ??_C@_0M@OOLLFDOG@saber2color?$AA@ 40039b7c     bg_saga.obj
 0002:00002b88       ??_C@_0L@OGIEJBOK@sabercolor?$AA@ 40039b88     bg_saga.obj
 0002:00002b94       ??_C@_0L@JCGAKIIA@saberstyle?$AA@ 40039b94     bg_saga.obj
 0002:00002ba0       ??_C@_06CJLEPNJL@saber2?$AA@ 40039ba0     bg_saga.obj
 0002:00002ba8       ??_C@_06CJJKOFI@saber1?$AA@ 40039ba8     bg_saga.obj
 0002:00002bb0       ??_C@_04NHPAFEHJ@skin?$AA@ 40039bb0     bg_saga.obj
 0002:00002bb8       ??_C@_05NCCFOPHA@model?$AA@ 40039bb8     bg_saga.obj
 0002:00002bc0       ??_C@_0BP@JPFHBDB@Siege?5class?5without?5name?5entry?$AA@ 40039bc0     bg_saga.obj
 0002:00002be0       ??_C@_04MEMAJGDJ@name?$AA@ 40039be0     bg_saga.obj
 0002:00002be8       ??_C@_09LPPNDGJE@ClassInfo?$AA@ 40039be8     bg_saga.obj
 0002:00002bf4       ??_C@_0BI@JBHHAHFA@DESCRIPTION?5UNAVAILABLE?$AA@ 40039bf4     bg_saga.obj
 0002:00002c0c       ??_C@_0M@PPJNHBMP@description?$AA@ 40039c0c     bg_saga.obj
 0002:00002c18       ??_C@_0BI@HBENBDF@ext_data?1Siege?1Classes?1?$AA@ 40039c18     bg_saga.obj
 0002:00002c30       ??_C@_0BH@NCMEBBFN@ext_data?1Siege?1Classes?$AA@ 40039c30     bg_saga.obj
 0002:00002c48       ??_C@_04LNHPMHCH@?4scl?$AA@ 40039c48     bg_saga.obj
 0002:00002c50       ??_C@_0CI@JBGGEKDP@Team?5defined?5with?5no?5allowable?5c@ 40039c50     bg_saga.obj
 0002:00002c78       ??_C@_0BO@LFIIBAMC@Invalid?5class?5specified?3?5?8?$CFs?8?$AA@ 40039c78     bg_saga.obj
 0002:00002c98       ??_C@_07GEGLMCI@class?$CFi?$AA@ 40039c98     bg_saga.obj
 0002:00002ca0       ??_C@_07DPIHKJGF@Classes?$AA@ 40039ca0     bg_saga.obj
 0002:00002ca8       ??_C@_0CD@FDGFFIBB@Siege?5team?5with?5no?5name?5definiti@ 40039ca8     bg_saga.obj
 0002:00002ccc       ??_C@_0BG@DPLOPEAL@ext_data?1Siege?1Teams?1?$AA@ 40039ccc     bg_saga.obj
 0002:00002ce4       ??_C@_0BF@KACDOLPP@ext_data?1Siege?1Teams?$AA@ 40039ce4     bg_saga.obj
 0002:00002cfc       ??_C@_05OKHHMPNJ@?4team?$AA@ 40039cfc     bg_saga.obj
 0002:00002d04       ??_C@_08GLJJKINI@VH_FLIER?$AA@ 40039d04     bg_vehicleLoad.obj
 0002:00002d10       ??_C@_09IHBEGJAE@VH_ANIMAL?$AA@ 40039d10     bg_vehicleLoad.obj
 0002:00002d1c       ??_C@_0L@PJKFHOGE@VH_SPEEDER?$AA@ 40039d1c     bg_vehicleLoad.obj
 0002:00002d28       ??_C@_0L@NKPJKKBD@VH_FIGHTER?$AA@ 40039d28     bg_vehicleLoad.obj
 0002:00002d34       ??_C@_09EMIPDFIK@VH_WALKER?$AA@ 40039d34     bg_vehicleLoad.obj
 0002:00002d40       ??_C@_07FABGOOCC@VH_NONE?$AA@ 40039d40     bg_vehicleLoad.obj
 0002:00002d48       ??_C@_0BF@FIODOCFH@turret2GunnerViewTag?$AA@ 40039d48     bg_vehicleLoad.obj
 0002:00002d60       ??_C@_0BE@LBDLJCMI@turret2PassengerNum?$AA@ 40039d60     bg_vehicleLoad.obj
 0002:00002d74       ??_C@_0P@FJKEHIDI@turret2AIRange?$AA@ 40039d74     bg_vehicleLoad.obj
 0002:00002d84       ??_C@_0O@FKFOBAOB@turret2AILead?$AA@ 40039d84     bg_vehicleLoad.obj
 0002:00002d94       ??_C@_09JCMLJIGJ@turret2AI?$AA@ 40039d94     bg_vehicleLoad.obj
 0002:00002da0       ??_C@_0BB@GKFEIPAN@turret2TurnSpeed?$AA@ 40039da0     bg_vehicleLoad.obj
 0002:00002db4       ??_C@_0P@MBHAFEOP@turret2Muzzle2?$AA@ 40039db4     bg_vehicleLoad.obj
 0002:00002dc4       ??_C@_0P@OKFNAHCM@turret2Muzzle1?$AA@ 40039dc4     bg_vehicleLoad.obj
 0002:00002dd4       ??_C@_0BD@ENIGHIPL@turret2ClampPitchD?$AA@ 40039dd4     bg_vehicleLoad.obj
 0002:00002de8       ??_C@_0BD@BOFPFLOL@turret2ClampPitchU?$AA@ 40039de8     bg_vehicleLoad.obj
 0002:00002dfc       ??_C@_0BB@DIKMIGDC@turret2ClampYawR?$AA@ 40039dfc     bg_vehicleLoad.obj
 0002:00002e10       ??_C@_0BB@OMONLJON@turret2ClampYawL?$AA@ 40039e10     bg_vehicleLoad.obj
 0002:00002e24       ??_C@_0BB@NCOFGCLN@turret2PitchAxis?$AA@ 40039e24     bg_vehicleLoad.obj
 0002:00002e38       ??_C@_0P@PPHMAOEC@turret2YawAxis?$AA@ 40039e38     bg_vehicleLoad.obj
 0002:00002e48       ??_C@_0BB@EBFMNEBJ@turret2PitchBone?$AA@ 40039e48     bg_vehicleLoad.obj
 0002:00002e5c       ??_C@_0P@GMMFLIOG@turret2YawBone?$AA@ 40039e5c     bg_vehicleLoad.obj
 0002:00002e6c       ??_C@_0BG@KBCLJNLB@turret2AmmoRechargeMS?$AA@ 40039e6c     bg_vehicleLoad.obj
 0002:00002e84       ??_C@_0P@GBCMHONA@turret2AmmoMax?$AA@ 40039e84     bg_vehicleLoad.obj
 0002:00002e94       ??_C@_0N@GAMMJDLC@turret2Delay?$AA@ 40039e94     bg_vehicleLoad.obj
 0002:00002ea4       ??_C@_0M@CJIFPDBG@turret2Weap?$AA@ 40039ea4     bg_vehicleLoad.obj
 0002:00002eb0       ??_C@_0BF@EJJOIICO@turret1GunnerViewTag?$AA@ 40039eb0     bg_vehicleLoad.obj
 0002:00002ec8       ??_C@_0BE@MNFKLHBD@turret1PassengerNum?$AA@ 40039ec8     bg_vehicleLoad.obj
 0002:00002edc       ??_C@_0P@GACJEEPN@turret1AIRange?$AA@ 40039edc     bg_vehicleLoad.obj
 0002:00002eec       ??_C@_0O@NENBBHAC@turret1AILead?$AA@ 40039eec     bg_vehicleLoad.obj
 0002:00002efc       ??_C@_09IAHODHIH@turret1AI?$AA@ 40039efc     bg_vehicleLoad.obj
 0002:00002f08       ??_C@_0BB@PDLGOJAM@turret1TurnSpeed?$AA@ 40039f08     bg_vehicleLoad.obj
 0002:00002f1c       ??_C@_0P@PIPNGICK@turret1Muzzle2?$AA@ 40039f1c     bg_vehicleLoad.obj
 0002:00002f2c       ??_C@_0P@NDNADLOJ@turret1Muzzle1?$AA@ 40039f2c     bg_vehicleLoad.obj
 0002:00002f3c       ??_C@_0BD@PAEMBEDF@turret1ClampPitchD?$AA@ 40039f3c     bg_vehicleLoad.obj
 0002:00002f50       ??_C@_0BD@KDJFDHCF@turret1ClampPitchU?$AA@ 40039f50     bg_vehicleLoad.obj
 0002:00002f64       ??_C@_0BB@KBEOOADD@turret1ClampYawR?$AA@ 40039f64     bg_vehicleLoad.obj
 0002:00002f78       ??_C@_0BB@HFAPNPOM@turret1ClampYawL?$AA@ 40039f78     bg_vehicleLoad.obj
 0002:00002f8c       ??_C@_0BB@ELAHAELM@turret1PitchAxis?$AA@ 40039f8c     bg_vehicleLoad.obj
 0002:00002fa0       ??_C@_0P@MGPBDCIH@turret1YawAxis?$AA@ 40039fa0     bg_vehicleLoad.obj
 0002:00002fb0       ??_C@_0BB@NILOLCBI@turret1PitchBone?$AA@ 40039fb0     bg_vehicleLoad.obj
 0002:00002fc4       ??_C@_0P@FFEIIECD@turret1YawBone?$AA@ 40039fc4     bg_vehicleLoad.obj
 0002:00002fd4       ??_C@_0BG@IIODCJED@turret1AmmoRechargeMS?$AA@ 40039fd4     bg_vehicleLoad.obj
 0002:00002fec       ??_C@_0P@FIKBECBF@turret1AmmoMax?$AA@ 40039fec     bg_vehicleLoad.obj
 0002:00002ffc       ??_C@_0N@FBCEIJCP@turret1Delay?$AA@ 40039ffc     bg_vehicleLoad.obj
 0002:0000300c       ??_C@_0M@KPBBIBLI@turret1Weap?$AA@ 4003a00c     bg_vehicleLoad.obj
 0002:00003018       ??_C@_0BP@GIMDHKNG@cameraPitchDependantVertOffset?$AA@ 4003a018     bg_vehicleLoad.obj
 0002:00003038       ??_C@_0M@HCDOHHGA@cameraAlpha?$AA@ 4003a038     bg_vehicleLoad.obj
 0002:00003044       ??_C@_09DEDNKOMM@cameraFOV?$AA@ 4003a044     bg_vehicleLoad.obj
 0002:00003050       ??_C@_0BC@HAMFPJAF@cameraPitchOffset?$AA@ 4003a050     bg_vehicleLoad.obj
 0002:00003064       ??_C@_0BB@PHKMDBPA@cameraHorzOffset?$AA@ 4003a064     bg_vehicleLoad.obj
 0002:00003078       ??_C@_0BB@JIEFMMG@cameraVertOffset?$AA@ 4003a078     bg_vehicleLoad.obj
 0002:0000308c       ??_C@_0M@NABKGBHB@cameraRange?$AA@ 4003a08c     bg_vehicleLoad.obj
 0002:00003098       ??_C@_0P@GNOAPEOI@cameraOverride?$AA@ 4003a098     bg_vehicleLoad.obj
 0002:000030a8       ??_C@_0P@OINMICGP@explosionDelay?$AA@ 4003a0a8     bg_vehicleLoad.obj
 0002:000030b8       ??_C@_09FEKLMMFJ@flammable?$AA@ 4003a0b8     bg_vehicleLoad.obj
 0002:000030c4       ??_C@_0BB@PDHEMPIJ@killRiderOnDeath?$AA@ 4003a0c4     bg_vehicleLoad.obj
 0002:000030d8       ??_C@_09JBJPOHNK@hideRider?$AA@ 4003a0d8     bg_vehicleLoad.obj
 0002:000030e4       ??_C@_0O@NGNHGBJN@maxPassengers?$AA@ 4003a0e4     bg_vehicleLoad.obj
 0002:000030f4       ??_C@_0BA@HFCGNKHF@explosionDamage?$AA@ 4003a0f4     bg_vehicleLoad.obj
 0002:00003104       ??_C@_0BA@LKLGPLNG@explosionRadius?$AA@ 4003a104     bg_vehicleLoad.obj
 0002:00003114       ??_C@_08PPAAKLBH@loudness?$AA@ 4003a114     bg_vehicleLoad.obj
 0002:00003120       ??_C@_0L@CNKMJODB@visibility?$AA@ 4003a120     bg_vehicleLoad.obj
 0002:0000312c       ??_C@_0O@DAFJHCFD@turboRecharge?$AA@ 4003a12c     bg_vehicleLoad.obj
 0002:0000313c       ??_C@_0O@LHGBPOCO@turboDuration?$AA@ 4003a13c     bg_vehicleLoad.obj
 0002:0000314c       ??_C@_08POLMHDEL@fuelRate?$AA@ 4003a14c     bg_vehicleLoad.obj
 0002:00003158       ??_C@_07PBHPKAIK@fuelMax?$AA@ 4003a158     bg_vehicleLoad.obj
 0002:00003160       ??_C@_08DLBCDKOK@bouyancy?$AA@ 4003a160     bg_vehicleLoad.obj
 0002:0000316c       ??_C@_0L@KPACIHBI@waterProof?$AA@ 4003a16c     bg_vehicleLoad.obj
 0002:00003178       ??_C@_0O@JOCPMJAA@hoverStrength?$AA@ 4003a178     bg_vehicleLoad.obj
 0002:00003188       ??_C@_0M@HKBHLPFK@hoverHeight?$AA@ 4003a188     bg_vehicleLoad.obj
 0002:00003194       ??_C@_07GFBFDLBM@gravity?$AA@ 4003a194     bg_vehicleLoad.obj
 0002:0000319c       ??_C@_0O@JIDEEHO@landingHeight?$AA@ 4003a19c     bg_vehicleLoad.obj
 0002:000031ac       ??_C@_0N@GDPHOKJG@weapMuzzle10?$AA@ 4003a1ac     bg_vehicleLoad.obj
 0002:000031bc       ??_C@_0M@BPIGPFLJ@weapMuzzle9?$AA@ 4003a1bc     bg_vehicleLoad.obj
 0002:000031c8       ??_C@_0M@GJNMEPI@weapMuzzle8?$AA@ 4003a1c8     bg_vehicleLoad.obj
 0002:000031d4       ??_C@_0M@IBAFNIDH@weapMuzzle7?$AA@ 4003a1d4     bg_vehicleLoad.obj
 0002:000031e0       ??_C@_0M@JIBOOJHG@weapMuzzle6?$AA@ 4003a1e0     bg_vehicleLoad.obj
 0002:000031ec       ??_C@_0M@LDDDLKLF@weapMuzzle5?$AA@ 4003a1ec     bg_vehicleLoad.obj
 0002:000031f8       ??_C@_0M@KKCIILPE@weapMuzzle4?$AA@ 4003a1f8     bg_vehicleLoad.obj
 0002:00003204       ??_C@_0M@OFGJBNDD@weapMuzzle3?$AA@ 4003a204     bg_vehicleLoad.obj
 0002:00003210       ??_C@_0M@PMHCCMHC@weapMuzzle2?$AA@ 4003a210     bg_vehicleLoad.obj
 0002:0000321c       ??_C@_0M@NHFPHPLB@weapMuzzle1?$AA@ 4003a21c     bg_vehicleLoad.obj
 0002:00003228       ??_C@_0BB@PMCLALPP@weap2SoundNoAmmo?$AA@ 4003a228     bg_vehicleLoad.obj
 0002:0000323c       ??_C@_0BB@EBOBGHDB@weap1SoundNoAmmo?$AA@ 4003a23c     bg_vehicleLoad.obj
 0002:00003250       ??_C@_0BE@BOOILCOO@weap2AmmoRechargeMS?$AA@ 4003a250     bg_vehicleLoad.obj
 0002:00003264       ??_C@_0BE@DHCAAGBM@weap1AmmoRechargeMS?$AA@ 4003a264     bg_vehicleLoad.obj
 0002:00003278       ??_C@_0N@IHPKDNMK@weap2AmmoMax?$AA@ 4003a278     bg_vehicleLoad.obj
 0002:00003288       ??_C@_0N@LOHHABAP@weap1AmmoMax?$AA@ 4003a288     bg_vehicleLoad.obj
 0002:00003298       ??_C@_08FMMAJAPJ@weap2Aim?$AA@ 4003a298     bg_vehicleLoad.obj
 0002:000032a4       ??_C@_08BLGAOKCJ@weap1Aim?$AA@ 4003a2a4     bg_vehicleLoad.obj
 0002:000032b0       ??_C@_09LIOCECKM@weap2Link?$AA@ 4003a2b0     bg_vehicleLoad.obj
 0002:000032bc       ??_C@_09DOHGDAAC@weap1Link?$AA@ 4003a2bc     bg_vehicleLoad.obj
 0002:000032c8       ??_C@_0L@KPBIONAP@weap2Delay?$AA@ 4003a2c8     bg_vehicleLoad.obj
 0002:000032d4       ??_C@_0L@JOPAPHJC@weap1Delay?$AA@ 4003a2d4     bg_vehicleLoad.obj
 0002:000032e0       ??_C@_05DDNDDHFP@weap2?$AA@ 4003a2e0     bg_vehicleLoad.obj
 0002:000032e8       ??_C@_05BIPOGEJM@weap1?$AA@ 4003a2e8     bg_vehicleLoad.obj
 0002:000032f0       ??_C@_07PEBKCGPE@rwingFX?$AA@ 4003a2f0     bg_vehicleLoad.obj
 0002:000032f8       ??_C@_07JNCLAFON@lwingFX?$AA@ 4003a2f8     bg_vehicleLoad.obj
 0002:00003300       ??_C@_06PEEHBBLG@noseFX?$AA@ 4003a300     bg_vehicleLoad.obj
 0002:00003308       ??_C@_08NBOBHDEO@injureFX?$AA@ 4003a308     bg_vehicleLoad.obj
 0002:00003314       ??_C@_05BMHOEJHI@dmgFX?$AA@ 4003a314     bg_vehicleLoad.obj
 0002:0000331c       ??_C@_06GMJLHFJI@wakeFX?$AA@ 4003a31c     bg_vehicleLoad.obj
 0002:00003324       ??_C@_09BPBLMDGM@explodeFX?$AA@ 4003a324     bg_vehicleLoad.obj
 0002:00003330       ??_C@_07OJDPNJKI@trailFX?$AA@ 4003a330     bg_vehicleLoad.obj
 0002:00003338       ??_C@_0N@KHLFFGCJ@turboStartFX?$AA@ 4003a338     bg_vehicleLoad.obj
 0002:00003348       ??_C@_07MMLPAJOM@turboFX?$AA@ 4003a348     bg_vehicleLoad.obj
 0002:00003350       ??_C@_09EJLKNCKH@exhaustFX?$AA@ 4003a350     bg_vehicleLoad.obj
 0002:0000335c       ??_C@_0M@FAJFECEE@soundShift4?$AA@ 4003a35c     bg_vehicleLoad.obj
 0002:00003368       ??_C@_0M@BPNENEID@soundShift3?$AA@ 4003a368     bg_vehicleLoad.obj
 0002:00003374       ??_C@_0M@GMPOFMC@soundShift2?$AA@ 4003a374     bg_vehicleLoad.obj
 0002:00003380       ??_C@_0M@CNOCLGAB@soundShift1?$AA@ 4003a380     bg_vehicleLoad.obj
 0002:0000338c       ??_C@_0M@OPNACIAF@soundFlyBy2?$AA@ 4003a38c     bg_vehicleLoad.obj
 0002:00003398       ??_C@_0L@MNOPHOMD@soundFlyBy?$AA@ 4003a398     bg_vehicleLoad.obj
 0002:000033a4       ??_C@_09HDMMGPMA@soundLand?$AA@ 4003a3a4     bg_vehicleLoad.obj
 0002:000033b0       ??_C@_0L@PMBLMBGF@soundHyper?$AA@ 4003a3b0     bg_vehicleLoad.obj
 0002:000033bc       ??_C@_0L@BNNFFMJG@soundTurbo?$AA@ 4003a3bc     bg_vehicleLoad.obj
 0002:000033c8       ??_C@_09IGHJKBGG@soundSpin?$AA@ 4003a3c8     bg_vehicleLoad.obj
 0002:000033d4       ??_C@_0BB@GGMAFHFB@soundEngineStart?$AA@ 4003a3d4     bg_vehicleLoad.obj
 0002:000033e8       ??_C@_0N@JPGBMOIF@soundTakeOff?$AA@ 4003a3e8     bg_vehicleLoad.obj
 0002:000033f8       ??_C@_09LMHPKFJB@soundLoop?$AA@ 4003a3f8     bg_vehicleLoad.obj
 0002:00003404       ??_C@_08IFIFNFKF@soundOff?$AA@ 4003a404     bg_vehicleLoad.obj
 0002:00003410       ??_C@_07IMONDDDH@soundOn?$AA@ 4003a410     bg_vehicleLoad.obj
 0002:00003418       ??_C@_0M@DFCNLFDF@health_left?$AA@ 4003a418     bg_vehicleLoad.obj
 0002:00003424       ??_C@_0N@EMHJOGPP@health_right?$AA@ 4003a424     bg_vehicleLoad.obj
 0002:00003434       ??_C@_0M@MOOOFAHG@health_back?$AA@ 4003a434     bg_vehicleLoad.obj
 0002:00003440       ??_C@_0N@CDHFELM@health_front?$AA@ 4003a440     bg_vehicleLoad.obj
 0002:00003450       ??_C@_0N@JONDFKLC@shieldShader?$AA@ 4003a450     bg_vehicleLoad.obj
 0002:00003460       ??_C@_0BA@FMKKHFFJ@crosshairShader?$AA@ 4003a460     bg_vehicleLoad.obj
 0002:00003470       ??_C@_09CMMAKMMC@icon_left?$AA@ 4003a470     bg_vehicleLoad.obj
 0002:0000347c       ??_C@_0L@GPLJGMFJ@icon_right?$AA@ 4003a47c     bg_vehicleLoad.obj
 0002:00003488       ??_C@_09NHADEJIB@icon_back?$AA@ 4003a488     bg_vehicleLoad.obj
 0002:00003494       ??_C@_0L@CBPHNOBK@icon_front?$AA@ 4003a494     bg_vehicleLoad.obj
 0002:000034a0       ??_C@_0BD@KLFJKOII@dmgIndicBackground?$AA@ 4003a4a0     bg_vehicleLoad.obj
 0002:000034b4       ??_C@_0P@FPBFALOJ@dmgIndicShield?$AA@ 4003a4b4     bg_vehicleLoad.obj
 0002:000034c4       ??_C@_0O@DJHCJKGN@dmgIndicFrame?$AA@ 4003a4c4     bg_vehicleLoad.obj
 0002:000034d4       ??_C@_09FONOLKPA@radarIcon?$AA@ 4003a4d4     bg_vehicleLoad.obj
 0002:000034e0       ??_C@_08EJIADHP@droidNPC?$AA@ 4003a4e0     bg_vehicleLoad.obj
 0002:000034ec       ??_C@_09PMPDIAJG@riderAnim?$AA@ 4003a4ec     bg_vehicleLoad.obj
 0002:000034f8       ??_C@_08CCPHKHEL@g2radius?$AA@ 4003a4f8     bg_vehicleLoad.obj
 0002:00003504       ??_C@_0BA@PLDNJPJN@surfDestruction?$AA@ 4003a504     bg_vehicleLoad.obj
 0002:00003514       ??_C@_0BG@ICOPODEK@malfunctionArmorLevel?$AA@ 4003a514     bg_vehicleLoad.obj
 0002:0000352c       ??_C@_09FGFEKOJH@toughness?$AA@ 4003a52c     bg_vehicleLoad.obj
 0002:00003538       ??_C@_0BB@BMKKPECK@shieldRechargeMS?$AA@ 4003a538     bg_vehicleLoad.obj
 0002:0000354c       ??_C@_07EEEOBDLK@shields?$AA@ 4003a54c     bg_vehicleLoad.obj
 0002:00003554       ??_C@_05JJEJIJLL@armor?$AA@ 4003a554     bg_vehicleLoad.obj
 0002:0000355c       ??_C@_04IJEANHEE@mass?$AA@ 4003a55c     bg_vehicleLoad.obj
 0002:00003564       ??_C@_0BG@HOKPMJKB@speedDependantTurning?$AA@ 4003a564     bg_vehicleLoad.obj
 0002:0000357c       ??_C@_08IOPKEDDJ@maxSlope?$AA@ 4003a57c     bg_vehicleLoad.obj
 0002:00003588       ??_C@_08LKDNMFOC@friction?$AA@ 4003a588     bg_vehicleLoad.obj
 0002:00003594       ??_C@_08LOEOBHC@traction?$AA@ 4003a594     bg_vehicleLoad.obj
 0002:000035a0       ??_C@_0BA@DEALIFEA@turnWhenStopped?$AA@ 4003a5a0     bg_vehicleLoad.obj
 0002:000035b0       ??_C@_0N@BEECELKI@turningSpeed?$AA@ 4003a5b0     bg_vehicleLoad.obj
 0002:000035c0       ??_C@_0L@PFPFAHKM@mousePitch?$AA@ 4003a5c0     bg_vehicleLoad.obj
 0002:000035cc       ??_C@_08EAELEJGF@mouseYaw?$AA@ 4003a5cc     bg_vehicleLoad.obj
 0002:000035d8       ??_C@_07HAHFHPDC@braking?$AA@ 4003a5d8     bg_vehicleLoad.obj
 0002:000035e0       ??_C@_09IPOAKDJE@rollLimit?$AA@ 4003a5e0     bg_vehicleLoad.obj
 0002:000035ec       ??_C@_0L@CFHLLIPB@pitchLimit?$AA@ 4003a5ec     bg_vehicleLoad.obj
 0002:000035f8       ??_C@_0N@ENHLHJGE@bankingSpeed?$AA@ 4003a5f8     bg_vehicleLoad.obj
 0002:00003608       ??_C@_0L@FDBPLPOD@strafePerc?$AA@ 4003a608     bg_vehicleLoad.obj
 0002:00003614       ??_C@_0P@HHEMMPFK@throttleSticks?$AA@ 4003a614     bg_vehicleLoad.obj
 0002:00003624       ??_C@_09JCLBALJJ@decelIdle?$AA@ 4003a624     bg_vehicleLoad.obj
 0002:00003630       ??_C@_0N@OKFAMOHD@acceleration?$AA@ 4003a630     bg_vehicleLoad.obj
 0002:00003640       ??_C@_09HICLJFH@accelIdle?$AA@ 4003a640     bg_vehicleLoad.obj
 0002:0000364c       ??_C@_09JLKIBNNM@speedIdle?$AA@ 4003a64c     bg_vehicleLoad.obj
 0002:00003658       ??_C@_08EEILJPJB@speedMin?$AA@ 4003a658     bg_vehicleLoad.obj
 0002:00003664       ??_C@_0L@MLDLGLOI@turboSpeed?$AA@ 4003a664     bg_vehicleLoad.obj
 0002:00003670       ??_C@_08FGAAHLPO@speedMax?$AA@ 4003a670     bg_vehicleLoad.obj
 0002:0000367c       ??_C@_0BA@BPLGJHPJ@centerOfGravity?$AA@ 4003a67c     bg_vehicleLoad.obj
 0002:0000368c       ??_C@_06IJDLPEM@length?$AA@ 4003a68c     bg_vehicleLoad.obj
 0002:00003694       ??_C@_07OIEJFMLD@lookYaw?$AA@ 4003a694     bg_vehicleLoad.obj
 0002:0000369c       ??_C@_09EPEKCJNM@lookPitch?$AA@ 4003a69c     bg_vehicleLoad.obj
 0002:000036a8       ??_C@_08FEOKBMLD@numHands?$AA@ 4003a6a8     bg_vehicleLoad.obj
 0002:000036b4       ??_C@_04GPMDFGEJ@type?$AA@ 4003a6b4     bg_vehicleLoad.obj
 0002:000036bc       ??_C@_0BA@KPKBCLLA@explodeOnExpire?$AA@ 4003a6bc     bg_vehicleLoad.obj
 0002:000036cc       ??_C@_08MOKDPMFA@lifetime?$AA@ 4003a6cc     bg_vehicleLoad.obj
 0002:000036d8       ??_C@_06LNLHEAAG@height?$AA@ 4003a6d8     bg_vehicleLoad.obj
 0002:000036e0       ??_C@_05IGKADHGO@width?$AA@ 4003a6e0     bg_vehicleLoad.obj
 0002:000036e8       ??_C@_06KJINILIP@health?$AA@ 4003a6e8     bg_vehicleLoad.obj
 0002:000036f0       ??_C@_0M@EIOFGFCL@ammoPerShot?$AA@ 4003a6f0     bg_vehicleLoad.obj
 0002:000036fc       ??_C@_0N@HGGCMKIH@splashRadius?$AA@ 4003a6fc     bg_vehicleLoad.obj
 0002:0000370c       ??_C@_0N@LJPCOLCE@splashDamage?$AA@ 4003a70c     bg_vehicleLoad.obj
 0002:0000371c       ??_C@_06GJOIPFFF@damage?$AA@ 4003a71c     bg_vehicleLoad.obj
 0002:00003724       ??_C@_0L@FFLAGJDE@lockOnTime?$AA@ 4003a724     bg_vehicleLoad.obj
 0002:00003730       ??_C@_09DIOLNDJN@homingFOV?$AA@ 4003a730     bg_vehicleLoad.obj
 0002:0000373c       ??_C@_06GMBBIPLD@homing?$AA@ 4003a73c     bg_vehicleLoad.obj
 0002:00003744       ??_C@_09DPJGNNNM@loopSound?$AA@ 4003a744     bg_vehicleLoad.obj
 0002:00003750       ??_C@_0L@NDLIJKLF@g2MarkSize?$AA@ 4003a750     bg_vehicleLoad.obj
 0002:0000375c       ??_C@_0N@LOKNPDPD@g2MarkShader?$AA@ 4003a75c     bg_vehicleLoad.obj
 0002:0000376c       ??_C@_08LBKCHJGI@impactFX?$AA@ 4003a76c     bg_vehicleLoad.obj
 0002:00003778       ??_C@_06KCPOJGHJ@shotFX?$AA@ 4003a778     bg_vehicleLoad.obj
 0002:00003780       ??_C@_08OEIEAIMH@muzzleFX?$AA@ 4003a780     bg_vehicleLoad.obj
 0002:0000378c       ??_C@_0P@MLELMPKF@saberBlockable?$AA@ 4003a78c     bg_vehicleLoad.obj
 0002:0000379c       ??_C@_09LOOPDJEK@ionWeapon?$AA@ 4003a79c     bg_vehicleLoad.obj
 0002:000037a8       ??_C@_0L@IPNKNAOM@hasGravity?$AA@ 4003a7a8     bg_vehicleLoad.obj
 0002:000037b4       ??_C@_0L@BOMCPGNF@projectile?$AA@ 4003a7b4     bg_vehicleLoad.obj
 0002:000037c0       __real@0000000000000000    4003a7c0     bg_vehicleLoad.obj
 0002:000037c8       ??_C@_01CELHOKLL@?$HN?$AA@ 4003a7c8     bg_vehicleLoad.obj
 0002:000037cc       ??_C@_01HCONENDN@?$HL?$AA@ 4003a7cc     bg_vehicleLoad.obj
 0002:000037d0       ??_C@_01CLKCMJKC@?5?$AA@   4003a7d0     bg_vehicleLoad.obj
 0002:000037d4       ??_C@_0BM@KNIODCMI@models?1players?1?$CFs?1model?4glm?$AA@ 4003a7d4     bg_vehicleLoad.obj
 0002:000037f0       __real@406fe00000000000    4003a7f0     q_math.obj
 0002:000037f8       __real@3ff0000000000000    4003a7f8     q_math.obj
 0002:00003800       __real@bff0000000000000    4003a800     q_math.obj
 0002:00003808       __real@3f91df46a0000000    4003a808     q_math.obj
 0002:00003810       ??_C@_0BA@FOCLBKAP@unexpected?5EOF?6?$AA@ 4003a810     q_shared.obj
 0002:00003820       ??_C@_0BJ@OLBOPICM@Q_strncpyz?3?5destsize?5?$DM?51?$AA@ 4003a820     q_shared.obj
 0002:0000383c       ??_C@_0BF@BJHHBLMD@Q_strncpyz?3?5NULL?5src?$AA@ 4003a83c     q_shared.obj
 0002:00003854       ??_C@_0BG@EKAPNPCH@Q_strncpyz?3?5NULL?5dest?$AA@ 4003a854     q_shared.obj
 0002:0000386c       ??_C@_0BN@EFOOAHFL@Q_strcat?3?5already?5overflowed?$AA@ 4003a86c     q_shared.obj
 0002:0000388c       ??_C@_0CD@GIPJKOOD@Com_sprintf?3?5overflow?5of?5?$CFi?5in?5?$CF@ 4003a88c     q_shared.obj
 0002:000038b0       ??_C@_0CC@GMEFDOKA@Com_sprintf?3?5overflowed?5bigbuffe@ 4003a8b0     q_shared.obj
 0002:000038d4       ??_C@_0CG@FLHABLN@Info_ValueForKey?3?5oversize?5infos@ 4003a8d4     q_shared.obj
 0002:000038fc       ??_C@_0CE@HMPLGKDK@Info_RemoveKey?3?5oversize?5infostr@ 4003a8fc     q_shared.obj
 0002:00003920       ??_C@_0CD@JIDDAEOO@Can?8t?5use?5keys?5or?5values?5with?5a?5@ 4003a920     q_shared.obj
 0002:00003944       ??_C@_0CL@JCFAGLFD@Can?8t?5use?5keys?5or?5values?5with?5a?5@ 4003a944     q_shared.obj
 0002:00003970       ??_C@_0CD@MGFMEBLE@Can?8t?5use?5keys?5or?5values?5with?5a?5@ 4003a970     q_shared.obj
 0002:00003994       ??_C@_0BN@CAOBGKLE@Info?5string?5length?5exceeded?6?$AA@ 4003a994     q_shared.obj
 0002:000039b4       ??_C@_06NELKLDPM@?2?$CFs?2?$CFs?$AA@ 4003a9b4     q_shared.obj
 0002:000039bc       ??_C@_0CJ@CEEBDGNA@Info_SetValueForKey?3?5oversize?5in@ 4003a9bc     q_shared.obj
 0002:000039e8       ??_C@_04HDOCAJNK@?$CFs?$CFs?$AA@ 4003a9e8     q_shared.obj
 0002:000039f0       ??_C@_02DKCKIIND@?$CFs?$AA@ 4003a9f0     q_shared.obj
 0002:000039f4       ??_C@_0BC@CDFKGPLF@ui_scoreCaptures2?$AA@ 4003a9f4     ui_atoms.obj
 0002:00003a08       ??_C@_0O@HCNFDDJ@ui_scoreTime2?$AA@ 4003aa08     ui_atoms.obj
 0002:00003a18       ??_C@_0BG@GJEMFEOF@ui_scoreShutoutBonus2?$AA@ 4003aa18     ui_atoms.obj
 0002:00003a30       ??_C@_0BE@CJNDOHKG@ui_scoreSkillBonus2?$AA@ 4003aa30     ui_atoms.obj
 0002:00003a44       ??_C@_0BD@NOLDEPJB@ui_scoreTimeBonus2?$AA@ 4003aa44     ui_atoms.obj
 0002:00003a58       ??_C@_0O@FCBENJNC@ui_scoreBase2?$AA@ 4003aa58     ui_atoms.obj
 0002:00003a68       ??_C@_0O@IGBIFADI@ui_scoreTeam2?$AA@ 4003aa68     ui_atoms.obj
 0002:00003a78       ??_C@_0BB@PPJKIJPL@ui_scorePerfect2?$AA@ 4003aa78     ui_atoms.obj
 0002:00003a8c       ??_C@_0P@ILDOILB@ui_scoreScore2?$AA@ 4003aa8c     ui_atoms.obj
 0002:00003a9c       ??_C@_0BD@DCEJOFCC@ui_scoreGauntlets2?$AA@ 4003aa9c     ui_atoms.obj
 0002:00003ab0       ??_C@_0BB@IOPFEFIF@ui_scoreAssists2?$AA@ 4003aab0     ui_atoms.obj
 0002:00003ac4       ??_C@_0BB@PEPLEPNI@ui_scoreDefends2?$AA@ 4003aac4     ui_atoms.obj
 0002:00003ad8       ??_C@_0BE@MAMGCNCA@ui_scoreExcellents2?$AA@ 4003aad8     ui_atoms.obj
 0002:00003aec       ??_C@_0BF@EEGABJJM@ui_scoreImpressives2?$AA@ 4003aaec     ui_atoms.obj
 0002:00003b04       ??_C@_0BC@EPKDKNJC@ui_scoreAccuracy2?$AA@ 4003ab04     ui_atoms.obj
 0002:00003b18       ??_C@_0BB@ELNPFLHH@ui_scoreCaptures?$AA@ 4003ab18     ui_atoms.obj
 0002:00003b2c       ??_C@_0N@IIEAHBIE@ui_scoreTime?$AA@ 4003ab2c     ui_atoms.obj
 0002:00003b3c       ??_C@_09INMNFPPH@?$CF02i?3?$CF02i?$AA@ 4003ab3c     ui_atoms.obj
 0002:00003b48       ??_C@_0BF@ICEBEKBD@ui_scoreShutoutBonus?$AA@ 4003ab48     ui_atoms.obj
 0002:00003b60       ??_C@_0BD@MCPJGPPJ@ui_scoreSkillBonus?$AA@ 4003ab60     ui_atoms.obj
 0002:00003b74       ??_C@_0BC@MAAGAFGN@ui_scoreTimeBonus?$AA@ 4003ab74     ui_atoms.obj
 0002:00003b88       ??_C@_0N@LEOMLFDD@ui_scoreBase?$AA@ 4003ab88     ui_atoms.obj
 0002:00003b98       ??_C@_0N@DFFLNFA@ui_scoreTeam?$AA@ 4003ab98     ui_atoms.obj
 0002:00003ba8       ??_C@_08HANDPKCB@?$CFi?5to?5?$CFi?$AA@ 4003aba8     ui_atoms.obj
 0002:00003bb4       ??_C@_0BA@FNDENKFJ@ui_scorePerfect?$AA@ 4003abb4     ui_atoms.obj
 0002:00003bc4       ??_C@_0O@BGACMNMN@ui_scoreScore?$AA@ 4003abc4     ui_atoms.obj
 0002:00003bd4       ??_C@_0BC@FJFOJAKM@ui_scoreGauntlets?$AA@ 4003abd4     ui_atoms.obj
 0002:00003be8       ??_C@_0BA@IDHNCNBN@ui_scoreAssists?$AA@ 4003abe8     ui_atoms.obj
 0002:00003bf8       ??_C@_0BA@OHCNNIJG@ui_scoreDefends?$AA@ 4003abf8     ui_atoms.obj
 0002:00003c08       ??_C@_0BD@LEJGNMPP@ui_scoreExcellents?$AA@ 4003ac08     ui_atoms.obj
 0002:00003c1c       ??_C@_0BE@KMODLOOM@ui_scoreImpressives?$AA@ 4003ac1c     ui_atoms.obj
 0002:00003c30       ??_C@_0BB@LEIIJBCD@ui_scoreAccuracy?$AA@ 4003ac30     ui_atoms.obj
 0002:00003c44       ??_C@_04KAKHEEPD@?$CFi?$CF?$CF?$AA@ 4003ac44     ui_atoms.obj
 0002:00003c4c       ??_C@_0BC@CFMHHAMH@demos?1?$CFs_?$CFd?4dm_?$CFd?$AA@ 4003ac4c     ui_atoms.obj
 0002:00003c60       ??_C@_08FCFPNNHF@protocol?$AA@ 4003ac60     ui_atoms.obj
 0002:00003c6c       ??_C@_0BB@MNGNFDI@games?1?$CFs_?$CFi?4game?$AA@ 4003ac6c     ui_atoms.obj
 0002:00003c80       ??_C@_08PDFKJPJM@games?1?$CFs?$AA@ 4003ac80     ui_atoms.obj
 0002:00003c8c       ??_C@_05HMNMDDGD@games?$AA@ 4003ac8c     ui_atoms.obj
 0002:00003c94       ??_C@_04MJNAPEEI@game?$AA@ 4003ac94     ui_atoms.obj
 0002:00003c9c       ??_C@_09LDNKBKJF@model?5?$CFs?6?$AA@ 4003ac9c     ui_atoms.obj
 0002:00003ca8       ??_C@_0P@IEOFAMLI@g_friendlyFire?$AA@ 4003aca8     ui_atoms.obj
 0002:00003cb8       ??_C@_0BA@PHMBDCHA@ui_friendlyFire?$AA@ 4003acb8     ui_atoms.obj
 0002:00003cc8       ??_C@_07CAKOHKGL@sv_pure?$AA@ 4003acc8     ui_atoms.obj
 0002:00003cd0       ??_C@_07HHFHJPML@ui_pure?$AA@ 4003acd0     ui_atoms.obj
 0002:00003cd8       ??_C@_08LPHDKCKM@g_Warmup?$AA@ 4003acd8     ui_atoms.obj
 0002:00003ce4       ??_C@_09GCFCELDK@ui_Warmup?$AA@ 4003ace4     ui_atoms.obj
 0002:00003cf0       ??_C@_0L@LPENDGCI@g_doWarmup?$AA@ 4003acf0     ui_atoms.obj
 0002:00003cfc       ??_C@_0M@EBIAJMEJ@ui_doWarmup?$AA@ 4003acfc     ui_atoms.obj
 0002:00003d08       ??_C@_0N@FOINMAON@cg_drawTimer?$AA@ 4003ad08     ui_atoms.obj
 0002:00003d18       ??_C@_0N@KDFOGKPE@ui_drawTimer?$AA@ 4003ad18     ui_atoms.obj
 0002:00003d28       ??_C@_0P@CFJBJECC@duel_fraglimit?$AA@ 4003ad28     ui_atoms.obj
 0002:00003d38       ??_C@_0BB@OHGHBGMG@ui_saveDuelLimit?$AA@ 4003ad38     ui_atoms.obj
 0002:00003d4c       ??_C@_09GCIEGDDN@fraglimit?$AA@ 4003ad4c     ui_atoms.obj
 0002:00003d58       ??_C@_0BB@BLOPBDC@ui_saveFragLimit?$AA@ 4003ad58     ui_atoms.obj
 0002:00003d6c       ??_C@_0N@FCAHJCDA@capturelimit?$AA@ 4003ad6c     ui_atoms.obj
 0002:00003d7c       ??_C@_0BE@FJHNGDNB@ui_saveCaptureLimit?$AA@ 4003ad7c     ui_atoms.obj
 0002:00003d90       ??_C@_09OGEBNCBM@g_spSkill?$AA@ 4003ad90     ui_atoms.obj
 0002:00003da0       __real@408f400000000000    4003ada0     ui_atoms.obj
 0002:00003da8       ??_C@_0BC@FKLDKIMG@ui_matchStartTime?$AA@ 4003ada8     ui_atoms.obj
 0002:00003dbc       ??_C@_0L@GFINLBEC@g_gametype?$AA@ 4003adbc     ui_atoms.obj
 0002:00003dc8       ??_C@_07KMNEBLH@mapname?$AA@ 4003adc8     ui_atoms.obj
 0002:00003dd0       ??_C@_08HOPFIAK@ui_cdkey?$AA@ 4003add0     ui_atoms.obj
 0002:00003ddc       ??_C@_0O@DJEGGJPO@ui_teamOrders?$AA@ 4003addc     ui_atoms.obj
 0002:00003dec       ??_C@_08OEBEDBJL@ui_cache?$AA@ 4003adec     ui_atoms.obj
 0002:00003df8       ??_C@_08FNKAODFI@postgame?$AA@ 4003adf8     ui_atoms.obj
 0002:00003e04       ??_C@_0M@OCOELHNF@ui_openmenu?$AA@ 4003ae04     ui_atoms.obj
 0002:00003e10       __real@401c000000000000    4003ae10     ui_atoms.obj
 0002:00003e18       ??_C@_0BB@FEAJPNFL@ui_opensiegemenu?$AA@ 4003ae18     ui_atoms.obj
 0002:00003e2c       ??_C@_07OKJIHONL@ui_load?$AA@ 4003ae2c     ui_atoms.obj
 0002:00003e34       ??_C@_09NFKMFHHN@ui_report?$AA@ 4003ae34     ui_atoms.obj
 0002:00003e40       ??_C@_07IANFCHLD@ui_test?$AA@ 4003ae40     ui_atoms.obj
 0002:00003e48       ??_C@_0BG@LGBCBLLK@menu?1art?1saber_purple?$AA@ 4003ae48     ui_force.obj
 0002:00003e60       ??_C@_0BE@MGJKKEPD@menu?1art?1saber_blue?$AA@ 4003ae60     ui_force.obj
 0002:00003e74       ??_C@_0BF@IJAOE@menu?1art?1saber_green?$AA@ 4003ae74     ui_force.obj
 0002:00003e8c       ??_C@_0BG@JPPBFDLM@menu?1art?1saber_yellow?$AA@ 4003ae8c     ui_force.obj
 0002:00003ea4       ??_C@_0BG@KBFCOFDK@menu?1art?1saber_orange?$AA@ 4003aea4     ui_force.obj
 0002:00003ebc       ??_C@_0BD@KHLEJLON@menu?1art?1saber_red?$AA@ 4003aebc     ui_force.obj
 0002:00003ed0       ??_C@_0L@BHNOMLBP@forcestar8?$AA@ 4003aed0     ui_force.obj
 0002:00003edc       ??_C@_0N@HOHACNJP@forcecircle8?$AA@ 4003aedc     ui_force.obj
 0002:00003eec       ??_C@_0L@JAEGNHNA@forcestar7?$AA@ 4003aeec     ui_force.obj
 0002:00003ef8       ??_C@_0N@PJOIDBFA@forcecircle7?$AA@ 4003aef8     ui_force.obj
 0002:00003f08       ??_C@_0L@IJFNOGJB@forcestar6?$AA@ 4003af08     ui_force.obj
 0002:00003f14       ??_C@_0N@OAPDAABB@forcecircle6?$AA@ 4003af14     ui_force.obj
 0002:00003f24       ??_C@_0L@KCHALFFC@forcestar5?$AA@ 4003af24     ui_force.obj
 0002:00003f30       ??_C@_0N@MLNOFDNC@forcecircle5?$AA@ 4003af30     ui_force.obj
 0002:00003f40       ??_C@_0L@LLGLIEBD@forcestar4?$AA@ 4003af40     ui_force.obj
 0002:00003f4c       ??_C@_0N@NCMFGCJD@forcecircle4?$AA@ 4003af4c     ui_force.obj
 0002:00003f5c       ??_C@_0L@PECKBCNE@forcestar3?$AA@ 4003af5c     ui_force.obj
 0002:00003f68       ??_C@_0N@JNIEPEFE@forcecircle3?$AA@ 4003af68     ui_force.obj
 0002:00003f78       ??_C@_0L@ONDBCDJF@forcestar2?$AA@ 4003af78     ui_force.obj
 0002:00003f84       ??_C@_0N@IEJPMFBF@forcecircle2?$AA@ 4003af84     ui_force.obj
 0002:00003f94       ??_C@_0L@MGBMHAFG@forcestar1?$AA@ 4003af94     ui_force.obj
 0002:00003fa0       ??_C@_0N@KPLCJGNG@forcecircle1?$AA@ 4003afa0     ui_force.obj
 0002:00003fb0       ??_C@_0L@NPAHEBBH@forcestar0?$AA@ 4003afb0     ui_force.obj
 0002:00003fc0       __real@4018000000000000    4003afc0     ui_force.obj
 0002:00003fc8       __real@41800000            4003afc8     ui_force.obj
 0002:00003fcc       __real@3e4ccccd            4003afcc     ui_force.obj
 0002:00003fd0       ??_C@_0O@KOFFGFKE@forcechanged?6?$AA@ 4003afd0     ui_force.obj
 0002:00003fe0       ??_C@_0BD@EDIIFELG@forcechanged?5?$CC?$CFs?$CC?6?$AA@ 4003afe0     ui_force.obj
 0002:00003ff4       ??_C@_0CL@NBJPICGM@?$CFi?9?$CFi?9?$CFi?$CFi?$CFi?$CFi?$CFi?$CFi?$CFi?$CFi?$CFi?$CFi?$CFi?$CFi?$CFi@ 4003aff4     ui_force.obj
 0002:00004020       ??_C@_0CO@EONCPKBJ@You?5did?5not?5provide?5a?5name?5for?5t@ 4003b020     ui_force.obj
 0002:00004050       ??_C@_0BJ@DHONGHAN@Template?5saved?5as?5?$CC?$CFs?$CC?4?6?$AA@ 4003b050     ui_force.obj
 0002:0000406c       ??_C@_06BJHMHGNB@?$CFi?9?$CFi?9?$AA@ 4003b06c     ui_force.obj
 0002:00004074       ??_C@_0DM@BFNMJPFC@There?5was?5an?5error?5writing?5the?5t@ 4003b074     ui_force.obj
 0002:000040b0       ??_C@_0BF@EMDAAAIC@forcecfg?1dark?1?$CFs?4fcf?$AA@ 4003b0b0     ui_force.obj
 0002:000040c8       ??_C@_0BG@JAIAENKC@forcecfg?1light?1?$CFs?4fcf?$AA@ 4003b0c8     ui_force.obj
 0002:000040e0       ??_C@_0L@ILFFGINB@ui_SaveFCF?$AA@ 4003b0e0     ui_force.obj
 0002:000040ec       ??_C@_07MJJMKCLG@nosaber?$AA@ 4003b0ec     ui_force.obj
 0002:000040f4       ??_C@_0M@GNPPPOC@effectfield?$AA@ 4003b0f4     ui_force.obj
 0002:00004100       ??_C@_0M@DDBKIDMA@effectentry?$AA@ 4003b100     ui_force.obj
 0002:0000410c       ??_C@_0BB@FNLMOMKO@setfp_saberthrow?$AA@ 4003b10c     ui_force.obj
 0002:00004120       ??_C@_0BC@CMIFKGJ@setfp_saberdefend?$AA@ 4003b120     ui_force.obj
 0002:00004134       ??_C@_0BE@NFEIFFCB@setFP_SABER_DEFENSE?$AA@ 4003b134     ui_force.obj
 0002:00004148       ??_C@_0BD@JLILJGFF@ingame_playerforce?$AA@ 4003b148     ui_force.obj
 0002:0000415c       ??_C@_09CPHDILCP@ui_myteam?$AA@ 4003b15c     ui_force.obj
 0002:00004168       ??_C@_0BC@PJKMCDAC@g_forceBasedTeams?$AA@ 4003b168     ui_force.obj
 0002:0000417c       __real@41400000            4003b17c     ui_force.obj
 0002:00004180       ??_C@_0P@CHCANPBO@g_maxForceRank?$AA@ 4003b180     ui_force.obj
 0002:00004190       ??_C@_0BE@IKMJLADL@Max?5infos?5exceeded?6?$AA@ 4003b190     ui_gameinfo.obj
 0002:000041a4       ??_C@_0BI@BMEIBPEH@Missing?5?$HL?5in?5info?5file?6?$AA@ 4003b1a4     ui_gameinfo.obj
 0002:000041bc       ??_C@_02DPKJAMEF@?$CFd?$AA@ 4003b1bc     ui_gameinfo.obj
 0002:000041c0       ??_C@_0BN@HAJDHEGK@Unexpected?5end?5of?5info?5file?6?$AA@ 4003b1c0     ui_gameinfo.obj
 0002:000041e0       ??_C@_06CBHGEMFM@?$DMNULL?$DO?$AA@ 4003b1e0     ui_gameinfo.obj
 0002:000041e8       ??_C@_0CO@OKDDPLPD@?$FO1file?5too?5large?3?5?$CFs?5is?5?$CFi?0?5max?5@ 4003b1e8     ui_gameinfo.obj
 0002:00004218       ??_C@_0BG@BJEIGKLP@?$FO1file?5not?5found?3?5?$CFs?6?$AA@ 4003b218     ui_gameinfo.obj
 0002:00004230       ??_C@_03FKCNHKDN@cty?$AA@  4003b230     ui_gameinfo.obj
 0002:00004234       ??_C@_03JHHHHEKD@ctf?$AA@  4003b234     ui_gameinfo.obj
 0002:00004238       ??_C@_05OEDHBHJ@siege?$AA@ 4003b238     ui_gameinfo.obj
 0002:00004240       ??_C@_09OHBAKHCG@powerduel?$AA@ 4003b240     ui_gameinfo.obj
 0002:0000424c       ??_C@_04IONKKEKB@duel?$AA@ 4003b24c     ui_gameinfo.obj
 0002:00004254       ??_C@_0L@PPBFGKBC@jedimaster?$AA@ 4003b254     ui_gameinfo.obj
 0002:00004260       ??_C@_08OFGDEOFK@holocron?$AA@ 4003b260     ui_gameinfo.obj
 0002:0000426c       ??_C@_03PAEKGFEI@ffa?$AA@  4003b26c     ui_gameinfo.obj
 0002:00004270       ??_C@_0O@OBEFLHGN@levelshots?1?$CFs?$AA@ 4003b270     ui_gameinfo.obj
 0002:00004280       ??_C@_08JJAPLNHH@longname?$AA@ 4003b280     ui_gameinfo.obj
 0002:0000428c       ??_C@_03HBNNNHNM@map?$AA@  4003b28c     ui_gameinfo.obj
 0002:00004290       ??_C@_0DJ@KGDBIAGM@?$FO3WARNING?3?5not?5anough?5memory?5in?5@ 4003b290     ui_gameinfo.obj
 0002:000042cc       ??_C@_08IDJEBFOJ@scripts?1?$AA@ 4003b2cc     ui_gameinfo.obj
 0002:000042d8       ??_C@_07OMEBBDEO@scripts?$AA@ 4003b2d8     ui_gameinfo.obj
 0002:000042e0       ??_C@_06IPPMLGON@?4arena?$AA@ 4003b2e0     ui_gameinfo.obj
 0002:000042e8       ??_C@_09IAMOOHNI@?$EASTOPHERE?$AA@ 4003b2e8     ui_gameinfo.obj
 0002:000042f4       ??_C@_04NONLJGOA@?4bot?$AA@ 4003b2f4     ui_gameinfo.obj
 0002:000042fc       ??_C@_0BC@BOHIEOJI@botfiles?1bots?4txt?$AA@ 4003b2fc     ui_gameinfo.obj
 0002:00004310       ??_C@_0L@IDJNDIMJ@g_botsFile?$AA@ 4003b310     ui_gameinfo.obj
 0002:0000431c       ??_C@_0BK@DFMGEDHJ@?$FO1Invalid?5bot?5number?3?5?$CFi?6?$AA@ 4003b31c     ui_gameinfo.obj
 0002:00004338       ??_C@_04FJIOCDAK@Kyle?$AA@ 4003b338     ui_gameinfo.obj
 0002:00004340       ??_C@_0BG@PHKLMOCP@ui_bypassMainMenuLoad?$AA@ 4003b340     ui_main.obj
 0002:00004358       ??_C@_07CNNBJDHA@english?$AA@ 4003b358     ui_main.obj
 0002:00004360       ??_C@_0M@DBLGOKHK@se_language?$AA@ 4003b360     ui_main.obj
 0002:0000436c       ??_C@_04CBNKEHLG@7000?$AA@ 4003b36c     ui_main.obj
 0002:00004374       ??_C@_0BH@CNJFJKJI@ui_serverStatusTimeOut?$AA@ 4003b374     ui_main.obj
 0002:0000438c       ??_C@_08HAMOJLDA@g_warmup?$AA@ 4003b38c     ui_main.obj
 0002:00004398       ??_C@_0BA@OHINOCDN@ui_recordSPDemo?$AA@ 4003b398     ui_main.obj
 0002:000043a8       ??_C@_0O@GPABEMKP@ui_findPlayer?$AA@ 4003b3a8     ui_main.obj
 0002:000043b8       ??_C@_0BA@FGIINJDJ@ui_captureLimit?$AA@ 4003b3b8     ui_main.obj
 0002:000043c8       ??_C@_0N@HALAPIBD@ui_fragLimit?$AA@ 4003b3c8     ui_main.obj
 0002:000043d8       ??_C@_05IPNNCKNB@00?300?$AA@ 4003b3d8     ui_main.obj
 0002:000043e0       ??_C@_06EFEAFBKM@0?5to?50?$AA@ 4003b3e0     ui_main.obj
 0002:000043e8       ??_C@_0BG@JDIGCOKJ@ui_singlePlayerActive?$AA@ 4003b3e8     ui_main.obj
 0002:00004400       ??_C@_0BH@KBDKNJIJ@ui_lastServerRefresh_3?$AA@ 4003b400     ui_main.obj
 0002:00004418       ??_C@_0BH@LICBOIMI@ui_lastServerRefresh_2?$AA@ 4003b418     ui_main.obj
 0002:00004430       ??_C@_0BH@JDAMLLAL@ui_lastServerRefresh_1?$AA@ 4003b430     ui_main.obj
 0002:00004448       ??_C@_0BH@IKBHIKEK@ui_lastServerRefresh_0?$AA@ 4003b448     ui_main.obj
 0002:00004460       ??_C@_0BG@ICIOFDPB@cg_selectedPlayerName?$AA@ 4003b460     ui_main.obj
 0002:00004478       ??_C@_0BC@HCNILCAE@cg_selectedPlayer?$AA@ 4003b478     ui_main.obj
 0002:0000448c       ??_C@_0BD@NCLFMBGL@ui_currentOpponent?$AA@ 4003b48c     ui_main.obj
 0002:000044a0       ??_C@_0M@BFKLKEBI@ui_mapIndex?$AA@ 4003b4a0     ui_main.obj
 0002:000044ac       ??_C@_0BB@GFAHJNNM@ui_currentNetMap?$AA@ 4003b4ac     ui_main.obj
 0002:000044c0       ??_C@_0O@IGABJOOG@ui_currentMap?$AA@ 4003b4c0     ui_main.obj
 0002:000044d0       ??_C@_0BB@BEFKGBGO@ui?1jampmenus?4txt?$AA@ 4003b4d0     ui_main.obj
 0002:000044e4       ??_C@_0P@JHKJFGCC@ui_menuFilesMP?$AA@ 4003b4e4     ui_main.obj
 0002:000044f4       ??_C@_0N@LBKNMFEF@ui_netSource?$AA@ 4003b4f4     ui_main.obj
 0002:00004504       ??_C@_0N@EOPNJANO@ui_blueteam8?$AA@ 4003b504     ui_main.obj
 0002:00004514       ??_C@_0N@MJGFIMBB@ui_blueteam7?$AA@ 4003b514     ui_main.obj
 0002:00004524       ??_C@_0N@NAHOLNFA@ui_blueteam6?$AA@ 4003b524     ui_main.obj
 0002:00004534       ??_C@_0N@PLFDOOJD@ui_blueteam5?$AA@ 4003b534     ui_main.obj
 0002:00004544       ??_C@_0N@OCEINPNC@ui_blueteam4?$AA@ 4003b544     ui_main.obj
 0002:00004554       ??_C@_0N@KNAJEJBF@ui_blueteam3?$AA@ 4003b554     ui_main.obj
 0002:00004564       ??_C@_0N@LEBCHIFE@ui_blueteam2?$AA@ 4003b564     ui_main.obj
 0002:00004574       ??_C@_0N@JPDPCLJH@ui_blueteam1?$AA@ 4003b574     ui_main.obj
 0002:00004584       ??_C@_0M@HHIJFEHC@ui_redteam8?$AA@ 4003b584     ui_main.obj
 0002:00004590       ??_C@_0M@PABBEILN@ui_redteam7?$AA@ 4003b590     ui_main.obj
 0002:0000459c       ??_C@_0M@OJAKHJPM@ui_redteam6?$AA@ 4003b59c     ui_main.obj
 0002:000045a8       ??_C@_0M@MCCHCKDP@ui_redteam5?$AA@ 4003b5a8     ui_main.obj
 0002:000045b4       ??_C@_0M@NLDMBLHO@ui_redteam4?$AA@ 4003b5b4     ui_main.obj
 0002:000045c0       ??_C@_0M@JEHNINLJ@ui_redteam3?$AA@ 4003b5c0     ui_main.obj
 0002:000045cc       ??_C@_0M@INGGLMPI@ui_redteam2?$AA@ 4003b5cc     ui_main.obj
 0002:000045d8       ??_C@_0M@KGELOPDL@ui_redteam1?$AA@ 4003b5d8     ui_main.obj
 0002:000045e4       ??_C@_01EKENIIDA@3?$AA@    4003b5e4     ui_main.obj
 0002:000045e8       ??_C@_0BF@HAOCHBD@ui_actualNetGametype?$AA@ 4003b5e8     ui_main.obj
 0002:00004600       ??_C@_0P@EMDAIJBA@ui_netGametype?$AA@ 4003b600     ui_main.obj
 0002:00004610       ??_C@_0BA@DLIBAHLB@ui_joinGametype?$AA@ 4003b610     ui_main.obj
 0002:00004620       ??_C@_0M@JLEABLCD@ui_gametype?$AA@ 4003b620     ui_main.obj
 0002:0000462c       ??_C@_0N@MHIHNKN@ui_dedicated?$AA@ 4003b62c     ui_main.obj
 0002:0000463c       ??_C@_0M@NBBBDCHM@ui_blueteam?$AA@ 4003b63c     ui_main.obj
 0002:00004648       ??_C@_06DAMJBNEB@Empire?$AA@ 4003b648     ui_main.obj
 0002:00004650       ??_C@_0L@KGGGFMJP@ui_redteam?$AA@ 4003b650     ui_main.obj
 0002:0000465c       ??_C@_0BF@LBOIACLJ@ui_forcePowerDisable?$AA@ 4003b65c     ui_main.obj
 0002:00004674       ??_C@_0N@KGLGFCPL@ui_freeSaber?$AA@ 4003b674     ui_main.obj
 0002:00004684       ??_C@_0O@LNLHFCCF@ui_rankChange?$AA@ 4003b684     ui_main.obj
 0002:00004694       ??_C@_09CBAPOGED@Rebellion?$AA@ 4003b694     ui_main.obj
 0002:000046a0       ??_C@_0BA@FLODEJIK@ui_opponentName?$AA@ 4003b6a0     ui_main.obj
 0002:000046b0       ??_C@_0P@GEBMJNJK@ui_initialized?$AA@ 4003b6b0     ui_main.obj
 0002:000046c0       ??_C@_08JCOFJCCH@ui_debug?$AA@ 4003b6c0     ui_main.obj
 0002:000046cc       ??_C@_08OCDFECFG@cg_marks?$AA@ 4003b6cc     ui_main.obj
 0002:000046d8       ??_C@_0BG@PFLNOEEN@cg_drawCrosshairNames?$AA@ 4003b6d8     ui_main.obj
 0002:000046f0       ??_C@_0BB@KBADOJHA@cg_drawCrosshair?$AA@ 4003b6f0     ui_main.obj
 0002:00004704       ??_C@_0BE@NJOHIGEF@ui_browserShowEmpty?$AA@ 4003b704     ui_main.obj
 0002:00004718       ??_C@_0BD@FNCPJHJM@ui_browserShowFull?$AA@ 4003b718     ui_main.obj
 0002:0000472c       ??_C@_01FAMBOPH@4?$AA@     4003b72c     ui_main.obj
 0002:00004730       ??_C@_0BC@OHDOHLCL@ui_browserSortKey?$AA@ 4003b730     ui_main.obj
 0002:00004744       ??_C@_0BD@POMFLHHE@ui_browserGameType?$AA@ 4003b744     ui_main.obj
 0002:00004758       ??_C@_0BB@KIFEKFLJ@ui_browserMaster?$AA@ 4003b758     ui_main.obj
 0002:0000476c       ??_C@_01FDFGLJHB@2?$AA@    4003b76c     ui_main.obj
 0002:00004770       ??_C@_0BA@DNMONKHI@ui_ctf_friendly?$AA@ 4003b770     ui_main.obj
 0002:00004780       ??_C@_0BB@INPGKJAK@ui_ctf_timelimit?$AA@ 4003b780     ui_main.obj
 0002:00004794       ??_C@_01KJLJFBPL@8?$AA@    4003b794     ui_main.obj
 0002:00004798       ??_C@_0BE@FLADFGIH@ui_ctf_capturelimit?$AA@ 4003b798     ui_main.obj
 0002:000047ac       ??_C@_01HIHLOKLC@1?$AA@    4003b7ac     ui_main.obj
 0002:000047b0       ??_C@_0BB@LCPLFLFK@ui_team_friendly?$AA@ 4003b7b0     ui_main.obj
 0002:000047c4       ??_C@_0BC@FIBJNNGP@ui_team_timelimit?$AA@ 4003b7c4     ui_main.obj
 0002:000047d8       ??_C@_0BC@JFOHFEHA@ui_team_fraglimit?$AA@ 4003b7d8     ui_main.obj
 0002:000047ec       ??_C@_0BC@FMPOBOM@ui_PrecacheModels?$AA@ 4003b7ec     ui_main.obj
 0002:00004800       ??_C@_0BD@OMJOJKIN@ui_char_color_blue?$AA@ 4003b800     ui_main.obj
 0002:00004814       ??_C@_0BE@LHJPMIOB@ui_char_color_green?$AA@ 4003b814     ui_main.obj
 0002:00004828       ??_C@_03EAIPFAE@255?$AA@   4003b828     ui_main.obj
 0002:0000482c       ??_C@_0BC@MMKBHBBG@ui_char_color_red?$AA@ 4003b82c     ui_main.obj
 0002:00004840       ??_C@_0BA@OEHEDBF@ui_saber2_color?$AA@ 4003b840     ui_main.obj
 0002:00004850       ??_C@_06ENJNJKEL@yellow?$AA@ 4003b850     ui_main.obj
 0002:00004858       ??_C@_0P@JBHGENEB@ui_saber_color?$AA@ 4003b858     ui_main.obj
 0002:00004868       ??_C@_04CGFJFPFD@none?$AA@ 4003b868     ui_main.obj
 0002:00004870       ??_C@_09DLPENCNK@ui_saber2?$AA@ 4003b870     ui_main.obj
 0002:0000487c       ??_C@_08CAIDFEMJ@single_1?$AA@ 4003b87c     ui_main.obj
 0002:00004888       ??_C@_08FCCFEDKA@ui_saber?$AA@ 4003b888     ui_main.obj
 0002:00004894       ??_C@_06EJFMBPJF@single?$AA@ 4003b894     ui_main.obj
 0002:0000489c       ??_C@_0O@OEELDHBB@ui_saber_type?$AA@ 4003b89c     ui_main.obj
 0002:000048ac       ??_C@_0N@KGBGHFND@ui_char_anim?$AA@ 4003b8ac     ui_main.obj
 0002:000048bc       ??_C@_08EEKIFBEE@lower_a1?$AA@ 4003b8bc     ui_main.obj
 0002:000048c8       ??_C@_0BC@MOAOEPEC@ui_char_skin_legs?$AA@ 4003b8c8     ui_main.obj
 0002:000048dc       ??_C@_08EMHHCMDP@torso_a1?$AA@ 4003b8dc     ui_main.obj
 0002:000048e8       ??_C@_0BD@LIILGGGB@ui_char_skin_torso?$AA@ 4003b8e8     ui_main.obj
 0002:000048fc       ??_C@_07PDGBEMPJ@head_a1?$AA@ 4003b8fc     ui_main.obj
 0002:00004904       ??_C@_0BC@DKIABBKG@ui_char_skin_head?$AA@ 4003b904     ui_main.obj
 0002:00004918       ??_C@_07PGAOLEIO@jedi_tf?$AA@ 4003b918     ui_main.obj
 0002:00004920       ??_C@_0O@GAOPNBBO@ui_char_model?$AA@ 4003b920     ui_main.obj
 0002:00004930       ??_C@_02KMALDIDP@16?$AA@   4003b930     ui_main.obj
 0002:00004934       ??_C@_0BG@JJNEEMEL@ui_selectedModelIndex?$AA@ 4003b934     ui_main.obj
 0002:0000494c       ??_C@_01GBGANLPD@0?$AA@    4003b94c     ui_main.obj
 0002:00004950       ??_C@_0BB@KJJGDNHJ@ui_ffa_timelimit?$AA@ 4003b950     ui_main.obj
 0002:00004964       ??_C@_0BB@GEGILEGG@ui_ffa_fraglimit?$AA@ 4003b964     ui_main.obj
 0002:00004978       ??_C@_09KPHKOKCC@timelimit?$AA@ 4003b978     ui_main.obj
 0002:00004984       ??_C@_07CPCPJPKL@version?$AA@ 4003b984     ui_main.obj
 0002:0000498c       ??_C@_03NBOPHIOC@Map?$AA@  4003b98c     ui_main.obj
 0002:00004990       ??_C@_09OINJJDAC@Game?5type?$AA@ 4003b990     ui_main.obj
 0002:0000499c       ??_C@_09EDNKFDHC@Game?5name?$AA@ 4003b99c     ui_main.obj
 0002:000049a8       ??_C@_08HCPAIKAO@gamename?$AA@ 4003b9a8     ui_main.obj
 0002:000049b4       ??_C@_07EODJIPPN@Address?$AA@ 4003b9b4     ui_main.obj
 0002:000049bc       ??_C@_04FABLJDN@Name?$AA@  4003b9bc     ui_main.obj
 0002:000049c4       ??_C@_0M@NHCIKFPA@sv_hostname?$AA@ 4003b9c4     ui_main.obj
 0002:000049d0       ??_C@_01BMBHCPLG@5?$AA@    4003b9d0     ui_main.obj
 0002:000049d4       ??_C@_02PKFBJPLJ@10?$AA@   4003b9d4     ui_main.obj
 0002:000049d8       ??_C@_02IHCGGLPM@15?$AA@   4003b9d8     ui_main.obj
 0002:000049dc       ??_C@_02PIBHCBOA@20?$AA@   4003b9dc     ui_main.obj
 0002:000049e0       ??_C@_02IFGANFKF@25?$AA@   4003b9e0     ui_main.obj
 0002:000049e4       ??_C@_02PJNFELNH@30?$AA@   4003b9e4     ui_main.obj
 0002:000049e8       ??_C@_02IEKCLPJC@35?$AA@   4003b9e8     ui_main.obj
 0002:000049ec       ??_C@_02PMJKFNFC@40?$AA@   4003b9ec     ui_main.obj
 0002:000049f0       ??_C@_02IBONKJBH@45?$AA@   4003b9f0     ui_main.obj
 0002:000049f4       ??_C@_02PNFIDHGF@50?$AA@   4003b9f4     ui_main.obj
 0002:000049f8       ??_C@_02IACPMDCA@55?$AA@   4003b9f8     ui_main.obj
 0002:000049fc       ??_C@_02PPBOIJDM@60?$AA@   4003b9fc     ui_main.obj
 0002:00004a00       ??_C@_02ICGJHNHJ@65?$AA@   4003ba00     ui_main.obj
 0002:00004a04       ??_C@_02PONMODAL@70?$AA@   4003ba04     ui_main.obj
 0002:00004a08       ??_C@_02IDKLBHEO@75?$AA@   4003ba08     ui_main.obj
 0002:00004a0c       ??_C@_02PFIAKEDG@80?$AA@   4003ba0c     ui_main.obj
 0002:00004a10       ??_C@_02IIPHFAHD@85?$AA@   4003ba10     ui_main.obj
 0002:00004a14       ??_C@_02PEECMOAB@90?$AA@   4003ba14     ui_main.obj
 0002:00004a18       ??_C@_02IJDFDKEE@95?$AA@   4003ba18     ui_main.obj
 0002:00004a1c       ??_C@_04OHJIHAFH@None?$AA@ 4003ba1c     ui_main.obj
 0002:00004a24       ??_C@_03CGHJMOLI@IPX?$AA@  4003ba24     ui_main.obj
 0002:00004a28       ??_C@_03OPEAKHDL@UDP?$AA@  4003ba28     ui_main.obj
 0002:00004a2c       ??_C@_03BBKEAIF@?$DP?$DP?$DP?$AA@ 4003ba2c     ui_main.obj
 0002:00004a30       ??_C@_0P@IBIEBGEO@TeamTournament?$AA@ 4003ba30     ui_main.obj
 0002:00004a40       ??_C@_03FHNGLHEB@CTY?$AA@  4003ba40     ui_main.obj
 0002:00004a44       ??_C@_03JKIMLJNP@CTF?$AA@  4003ba44     ui_main.obj
 0002:00004a48       ??_C@_05JOPHEEP@Siege?$AA@ 4003ba48     ui_main.obj
 0002:00004a50       ??_C@_08NFCDKJPC@Team?5FFA?$AA@ 4003ba50     ui_main.obj
 0002:00004a5c       ??_C@_02NEPPOLFA@SP?$AA@   4003ba5c     ui_main.obj
 0002:00004a60       ??_C@_09GJIMILPC@PowerDuel?$AA@ 4003ba60     ui_main.obj
 0002:00004a6c       ??_C@_04EPBLILKF@Duel?$AA@ 4003ba6c     ui_main.obj
 0002:00004a74       ??_C@_0L@LGDENMFJ@JediMaster?$AA@ 4003ba74     ui_main.obj
 0002:00004a80       ??_C@_08GHJCMMPJ@Holocron?$AA@ 4003ba80     ui_main.obj
 0002:00004a8c       ??_C@_03PNLBKIDE@FFA?$AA@  4003ba8c     ui_main.obj
 0002:00004a90       ??_C@_06EKKBECKL@SKILL5?$AA@ 4003ba90     ui_main.obj
 0002:00004a98       ??_C@_06FDLKHDOK@SKILL4?$AA@ 4003ba98     ui_main.obj
 0002:00004aa0       ??_C@_06BMPLOFCN@SKILL3?$AA@ 4003baa0     ui_main.obj
 0002:00004aa8       ??_C@_06FOANEGM@SKILL2?$AA@ 4003baa8     ui_main.obj
 0002:00004ab0       ??_C@_06COMNIHKP@SKILL1?$AA@ 4003bab0     ui_main.obj
 0002:00004ab8       ??_C@_0BD@IBCPAHKL@MENUS_JEDI_ACADEMY?$AA@ 4003bab8     ui_main.obj
 0002:00004acc       ??_C@_09JIHDCCKI@MENUS_ALL?$AA@ 4003bacc     ui_main.obj
 0002:00004ad8       ??_C@_0BN@PFEDOOIN@?$EAMENUS_BUTTERFLY_ATTACK_DESC?$AA@ 4003bad8     ui_main.obj
 0002:00004af8       ??_C@_0BI@EAPBGPJK@?$EAMENUS_BUTTERFLY_ATTACK?$AA@ 4003baf8     ui_main.obj
 0002:00004b10       ??_C@_0BG@LGDPINKM@?$EAMENUS_JUMP_KICK_DESC?$AA@ 4003bb10     ui_main.obj
 0002:00004b28       ??_C@_0BB@POJMFBKP@?$EAMENUS_JUMP_KICK?$AA@ 4003bb28     ui_main.obj
 0002:00004b3c       ??_C@_0BC@EMMGIDH@?$EAMENUS_KICK1_DESC?$AA@ 4003bb3c     ui_main.obj
 0002:00004b50       ??_C@_0N@PBBICHOD@?$EAMENUS_KICK1?$AA@ 4003bb50     ui_main.obj
 0002:00004b60       ??_C@_0BK@JAPGPAID@?$EAMENUS_SPINNING_KATA_DESC?$AA@ 4003bb60     ui_main.obj
 0002:00004b7c       ??_C@_0BF@NLMBPCKL@?$EAMENUS_SPINNING_KATA?$AA@ 4003bb7c     ui_main.obj
 0002:00004b94       ??_C@_0BO@DLAMKMKE@?$EAMENUS_SABER_STAFF_TWIRL_DESC?$AA@ 4003bb94     ui_main.obj
 0002:00004bb4       ??_C@_0BJ@MKDOPHHG@?$EAMENUS_SABER_STAFF_TWIRL?$AA@ 4003bbb4     ui_main.obj
 0002:00004bd0       ??_C@_0BN@MMBMIEGK@?$EAMENUS_BACK_FLIP_ATTACK_DESC?$AA@ 4003bbd0     ui_main.obj
 0002:00004bf0       ??_C@_0BI@LEMBDGKI@?$EAMENUS_BACK_FLIP_ATTACK?$AA@ 4003bbf0     ui_main.obj
 0002:00004c08       ??_C@_0BL@NFPELNNO@?$EAMENUS_BOTH_ROLL_STAB_DESC?$AA@ 4003bc08     ui_main.obj
 0002:00004c24       ??_C@_0CB@OHOKBOIB@?$EAMENUS_DUAL_STAB_LEFT_RIGHT_DESC@ 4003bc24     ui_main.obj
 0002:00004c48       ??_C@_0BM@EJIDIEIO@?$EAMENUS_DUAL_STAB_LEFT_RIGHT?$AA@ 4003bc48     ui_main.obj
 0002:00004c64       ??_C@_0CB@BBDEJAEB@?$EAMENUS_DUAL_STAB_FRONT_BACK_DESC@ 4003bc64     ui_main.obj
 0002:00004c88       ??_C@_0BM@CKLBFLF@?$EAMENUS_DUAL_STAB_FRONT_BACK?$AA@ 4003bc88     ui_main.obj
 0002:00004ca4       ??_C@_0BP@HNDJBJIM@?$EAMENUS_DUAL_SABER_BARRIER_DESC?$AA@ 4003bca4     ui_main.obj
 0002:00004cc4       ??_C@_0BK@KBKBOOBJ@?$EAMENUS_DUAL_SABER_BARRIER?$AA@ 4003bcc4     ui_main.obj
 0002:00004ce0       ??_C@_0BO@DLHAHADI@?$EAMENUS_DUAL_SABERS_TWIRL_DESC?$AA@ 4003bce0     ui_main.obj
 0002:00004d00       ??_C@_0BJ@HJOMIECG@?$EAMENUS_DUAL_SABERS_TWIRL?$AA@ 4003bd00     ui_main.obj
 0002:00004d1c       ??_C@_0CA@PKLJCAFA@?$EAMENUS_FLIP_FORWARD_ATTACK_DESC?$AA@ 4003bd1c     ui_main.obj
 0002:00004d3c       ??_C@_0BL@FPJCKKOC@?$EAMENUS_FLIP_FORWARD_ATTACK?$AA@ 4003bd3c     ui_main.obj
 0002:00004d58       ??_C@_0BP@OFNKLMEA@?$EAMENUS_STRONG_ATTACK_KATA_DESC?$AA@ 4003bd58     ui_main.obj
 0002:00004d78       ??_C@_0BK@MHBLPKJA@?$EAMENUS_STRONG_ATTACK_KATA?$AA@ 4003bd78     ui_main.obj
 0002:00004d94       ??_C@_0BI@HDKGCGPE@?$EAMENUS_JUMP_ATTACK_DESC?$AA@ 4003bd94     ui_main.obj
 0002:00004dac       ??_C@_0BD@PCOHHPHC@?$EAMENUS_JUMP_ATTACK?$AA@ 4003bdac     ui_main.obj
 0002:00004dc0       ??_C@_0BP@OABKPPCF@?$EAMENUS_MEDIUM_ATTACK_KATA_DESC?$AA@ 4003bdc0     ui_main.obj
 0002:00004de0       ??_C@_0BK@CKIAJJEO@?$EAMENUS_MEDIUM_ATTACK_KATA?$AA@ 4003bde0     ui_main.obj
 0002:00004dfc       ??_C@_0BI@FHJOBLIG@?$EAMENUS_FLIP_ATTACK_DESC?$AA@ 4003bdfc     ui_main.obj
 0002:00004e14       ??_C@_0BD@CLLNGIMH@?$EAMENUS_FLIP_ATTACK?$AA@ 4003be14     ui_main.obj
 0002:00004e28       ??_C@_0BH@FHBJDKPD@?$EAMENUS_SLASH_BACK_DESC?$AA@ 4003be28     ui_main.obj
 0002:00004e40       ??_C@_0BC@NKFFFKJC@?$EAMENUS_SLASH_BACK?$AA@ 4003be40     ui_main.obj
 0002:00004e54       ??_C@_0BM@GNKOEKFG@?$EAMENUS_BOTH_ROLL_STAB2_DESC?$AA@ 4003be54     ui_main.obj
 0002:00004e70       ??_C@_0BG@HMEPFCFB@?$EAMENUS_BOTH_ROLL_STAB?$AA@ 4003be70     ui_main.obj
 0002:00004e88       ??_C@_0BG@JLCKPPHP@?$EAMENUS_CARTWHEEL_DESC?$AA@ 4003be88     ui_main.obj
 0002:00004ea0       ??_C@_0BB@IJIMDPM@?$EAMENUS_CARTWHEEL?$AA@ 4003bea0     ui_main.obj
 0002:00004eb4       ??_C@_0CB@OINHPDPA@?$EAMENUS_ATTACK_ENEMYONGROUND_DESC@ 4003beb4     ui_main.obj
 0002:00004ed8       ??_C@_0BM@BPOHHCI@?$EAMENUS_ATTACK_ENEMYONGROUND?$AA@ 4003bed8     ui_main.obj
 0002:00004ef4       ??_C@_0BN@DFNBDBFF@?$EAMENUS_FAST_ATTACK_KATA_DESC?$AA@ 4003bef4     ui_main.obj
 0002:00004f14       ??_C@_0BI@FOFOEABM@?$EAMENUS_FAST_ATTACK_KATA?$AA@ 4003bf14     ui_main.obj
 0002:00004f2c       ??_C@_0BJ@GFNPHDCP@?$EAMENUS_LUNGE_ATTACK_DESC?$AA@ 4003bf2c     ui_main.obj
 0002:00004f48       ??_C@_0BE@DICCJLLC@?$EAMENUS_LUNGE_ATTACK?$AA@ 4003bf48     ui_main.obj
 0002:00004f5c       ??_C@_0BG@CEHEKHLA@?$EAMENUS_STAB_BACK_DESC?$AA@ 4003bf5c     ui_main.obj
 0002:00004f74       ??_C@_0BB@FNBGDNPI@?$EAMENUS_STAB_BACK?$AA@ 4003bf74     ui_main.obj
 0002:00004f88       ??_C@_0CA@MDOPGMD@?$EAMENUS_ROLL_FROM_KNOCKDOWN_DESC?$AA@ 4003bf88     ui_main.obj
 0002:00004fa8       ??_C@_0BL@LNMGDDJH@?$EAMENUS_ROLL_FROM_KNOCKDOWN?$AA@ 4003bfa8     ui_main.obj
 0002:00004fc4       ??_C@_0CE@JEPAFPII@?$EAMENUS_JUMPKICK_FROM_KNOCKDOWN_D@ 4003bfc4     ui_main.obj
 0002:00004fe8       ??_C@_0BP@GKDGAGAD@?$EAMENUS_JUMPKICK_FROM_KNOCKDOWN?$AA@ 4003bfe8     ui_main.obj
 0002:00005008       ??_C@_0CC@CBCFOOCC@?$EAMENUS_JUMPUP_FROM_KNOCKDOWN_DES@ 4003c008     ui_main.obj
 0002:0000502c       ??_C@_0BN@OOMLGNCB@?$EAMENUS_JUMPUP_FROM_KNOCKDOWN?$AA@ 4003c02c     ui_main.obj
 0002:0000504c       ??_C@_0CB@BMLDDGAM@?$EAMENUS_RUN_UP_WALL_BACKFLIP_DESC@ 4003c04c     ui_main.obj
 0002:00005070       ??_C@_0BM@DKPAIDF@?$EAMENUS_RUN_UP_WALL_BACKFLIP?$AA@ 4003c070     ui_main.obj
 0002:0000508c       ??_C@_0BL@KDKBPNPD@?$EAMENUS_WALL_GRAB_JUMP_DESC?$AA@ 4003c08c     ui_main.obj
 0002:000050a8       ??_C@_0BG@NOKDPCPK@?$EAMENUS_WALL_GRAB_JUMP?$AA@ 4003c0a8     ui_main.obj
 0002:000050c0       ??_C@_0BF@DMIOGGL@?$EAMENUS_WALL_RUN_DESC?$AA@ 4003c0c0     ui_main.obj
 0002:000050d8       ??_C@_0BA@FDNKCOGP@?$EAMENUS_WALL_RUN?$AA@ 4003c0d8     ui_main.obj
 0002:000050e8       ??_C@_0BO@NMAPJLAB@?$EAMENUS_SIDEFLIP_OFF_WALL_DESC?$AA@ 4003c0e8     ui_main.obj
 0002:00005108       ??_C@_0BJ@IBNDFGDL@?$EAMENUS_SIDEFLIP_OFF_WALL?$AA@ 4003c108     ui_main.obj
 0002:00005124       ??_C@_0BO@IPFCBMKG@?$EAMENUS_BACKFLIP_OFF_WALL_DESC?$AA@ 4003c124     ui_main.obj
 0002:00005144       ??_C@_0BJ@LGLIBDFM@?$EAMENUS_BACKFLIP_OFF_WALL?$AA@ 4003c144     ui_main.obj
 0002:00005160       ??_C@_0BB@IDKGKPGJ@?$EAMENUS_ROLL_DESC?$AA@ 4003c160     ui_main.obj
 0002:00005174       ??_C@_0M@JBJNNKDO@?$EAMENUS_ROLL?$AA@ 4003c174     ui_main.obj
 0002:00005180       ??_C@_0BH@OGNMJOFA@?$EAMENUS_FORCE_FLIP_DESC?$AA@ 4003c180     ui_main.obj
 0002:00005198       ??_C@_0BC@MFKJJHBG@?$EAMENUS_FORCE_FLIP?$AA@ 4003c198     ui_main.obj
 0002:000051ac       ??_C@_0BI@NKDILPCG@?$EAMENUS_FORCE_JUMP1_DESC?$AA@ 4003c1ac     ui_main.obj
 0002:000051c4       ??_C@_0BD@KHBMLJKL@?$EAMENUS_FORCE_JUMP1?$AA@ 4003c1c4     ui_main.obj
 0002:000051d8       ??_C@_0BD@GIKBDNLJ@?$EAMENUS_SABER_STAFF?$AA@ 4003c1d8     ui_main.obj
 0002:000051ec       ??_C@_0BD@BHHJEHCD@?$EAMENUS_DUAL_SABERS?$AA@ 4003c1ec     ui_main.obj
 0002:00005200       ??_C@_0BF@IGMENAPB@?$EAMENUS_SINGLE_STRONG?$AA@ 4003c200     ui_main.obj
 0002:00005218       ??_C@_0BF@FJPIHPLJ@?$EAMENUS_SINGLE_MEDIUM?$AA@ 4003c218     ui_main.obj
 0002:00005230       ??_C@_0BD@EDMMOBLM@?$EAMENUS_SINGLE_FAST?$AA@ 4003c230     ui_main.obj
 0002:00005244       ??_C@_0BC@FGDOMIPE@?$EAMENUS_ACROBATICS?$AA@ 4003c244     ui_main.obj
 0002:00005258       ??_C@_0CC@CPCLFBLH@?$EASP_INGAME_FORCE_SABER_THROW_DES@ 4003c258     ui_main.obj
 0002:0000527c       ??_C@_0CE@IFLOKFMP@?$EASP_INGAME_FORCE_SABER_DEFENSE_D@ 4003c27c     ui_main.obj
 0002:000052a0       ??_C@_0CE@BFOJMIJM@?$EASP_INGAME_FORCE_SABER_OFFENSE_D@ 4003c2a0     ui_main.obj
 0002:000052c4       ??_C@_0BO@LIFCFJLD@?$EAMENUS_EFFECT_NAREA_OF_EFFECT?$AA@ 4003c2c4     ui_main.obj
 0002:000052e4       ??_C@_0CA@NLHLJDDE@?$EAMENUS_VARIABLE_NAREA_OF_EFFECT?$AA@ 4003c2e4     ui_main.obj
 0002:00005304       ??_C@_0CC@JPECEAOP@?$EAMENUS_EFFECT_JEDI_ALLIES_NEFFEC@ 4003c304     ui_main.obj
 0002:00005328       ??_C@_0CF@EDKMOJBH@?$EAMENUS_OF_EFFECT_JEDI_ALLIES_NEF@ 4003c328     ui_main.obj
 0002:00005350       ??_C@_0CB@OJAAOCHI@?$EAMENUS_DURATION_CONTINUOUS_NAREA@ 4003c350     ui_main.obj
 0002:00005374       ??_C@_0BP@MOHOGCJM@?$EAMENUS_DURATION_VARIABLE_NAREA?$AA@ 4003c374     ui_main.obj
 0002:00005394       ??_C@_0BM@NPJPMBPM@?$EAMENUS_DURATION_VARIABLE_10?$AA@ 4003c394     ui_main.obj
 0002:000053b0       ??_C@_0CA@CILKADCI@?$EAMENUS_OF_EFFECT_LIVING_PERSONS?$AA@ 4003c3b0     ui_main.obj
 0002:000053d0       ??_C@_0CE@IGOECCFO@?$EAMENUS_DURATION_INSTANTANEOUS_NA@ 4003c3d0     ui_main.obj
 0002:000053f4       ??_C@_0BM@NNNJHPKF@?$EAMENUS_DURATION_VARIABLE_20?$AA@ 4003c3f4     ui_main.obj
 0002:00005410       ??_C@_0CC@EMMJLAJE@?$EAMENUS_INSTANTANEOUS_EFFECT_NARE@ 4003c410     ui_main.obj
 0002:00005434       ??_C@_0BO@MLLCDKK@?$EAMENUS_DURATION_INSTANTANEOUS?$AA@ 4003c434     ui_main.obj
 0002:00005454       ??_C@_0CA@BAMODECF@?$EAMENUS_DURATION_5_SECONDS_NAREA?$AA@ 4003c454     ui_main.obj
 0002:00005474       ??_C@_0CA@FCHFBBFK@?$EAMENUS_DURATION_IMMEDIATE_NAREA?$AA@ 4003c474     ui_main.obj
 0002:00005494       ??_C@_0CD@JFEKEMDM@?$EAMENUS_OF_EFFECT_JEDI_ONLY_NEFFE@ 4003c494     ui_main.obj
 0002:000054b8       ??_C@_0BK@FEFIMOAO@gfx?1mp?1f_icon_saber_throw?$AA@ 4003c4b8     ui_main.obj
 0002:000054d4       ??_C@_0BL@NEBHBNKD@gfx?1mp?1f_icon_saber_defend?$AA@ 4003c4d4     ui_main.obj
 0002:000054f0       ??_C@_0BL@FEKHDPBD@gfx?1mp?1f_icon_saber_attack?$AA@ 4003c4f0     ui_main.obj
 0002:0000550c       ??_C@_0BE@IDOBHAPF@gfx?1mp?1f_icon_sight?$AA@ 4003c50c     ui_main.obj
 0002:00005520       ??_C@_0BH@JNFFMKGL@gfx?1mp?1f_icon_dk_drain?$AA@ 4003c520     ui_main.obj
 0002:00005538       ??_C@_0BM@INELODPO@gfx?1mp?1f_icon_dk_forceother?$AA@ 4003c538     ui_main.obj
 0002:00005554       ??_C@_0BL@PHMODMPE@gfx?1mp?1f_icon_lt_healother?$AA@ 4003c554     ui_main.obj
 0002:00005570       ??_C@_0BI@JGABMFHN@gfx?1mp?1f_icon_lt_absorb?$AA@ 4003c570     ui_main.obj
 0002:00005588       ??_C@_0BJ@BNJGHMKP@gfx?1mp?1f_icon_lt_protect?$AA@ 4003c588     ui_main.obj
 0002:000055a4       ??_C@_0BG@CIIDCBDH@gfx?1mp?1f_icon_dk_rage?$AA@ 4003c5a4     ui_main.obj
 0002:000055bc       ??_C@_0BE@FIGKNCGE@gfx?1mp?1f_icon_dk_l1?$AA@ 4003c5bc     ui_main.obj
 0002:000055d0       ??_C@_0BG@PPAEAKKK@gfx?1mp?1f_icon_dk_grip?$AA@ 4003c5d0     ui_main.obj
 0002:000055e8       ??_C@_0BL@GPKCAHJD@gfx?1mp?1f_icon_lt_telepathy?$AA@ 4003c5e8     ui_main.obj
 0002:00005604       ??_C@_0BD@FAMLDPCA@gfx?1mp?1f_icon_pull?$AA@ 4003c604     ui_main.obj
 0002:00005618       ??_C@_0BD@CDNNBOGJ@gfx?1mp?1f_icon_push?$AA@ 4003c618     ui_main.obj
 0002:0000562c       ??_C@_0BE@GACMMIP@gfx?1mp?1f_icon_speed?$AA@ 4003c62c     ui_main.obj
 0002:00005640       ??_C@_0BJ@DCGHGAMM@gfx?1mp?1f_icon_levitation?$AA@ 4003c640     ui_main.obj
 0002:0000565c       ??_C@_0BG@BKINAJCK@gfx?1mp?1f_icon_lt_heal?$AA@ 4003c65c     ui_main.obj
 0002:00005674       ??_C@_0M@JAIOEHIF@BOTH_CIN_50?$AA@ 4003c674     ui_main.obj
 0002:00005680       ??_C@_0M@EAIOJGPL@BOTH_CIN_49?$AA@ 4003c680     ui_main.obj
 0002:0000568c       ??_C@_0M@FJJFKHLK@BOTH_CIN_48?$AA@ 4003c68c     ui_main.obj
 0002:00005698       ??_C@_0M@NOANLLHF@BOTH_CIN_47?$AA@ 4003c698     ui_main.obj
 0002:000056a4       ??_C@_0M@MHBGIKDE@BOTH_CIN_46?$AA@ 4003c6a4     ui_main.obj
 0002:000056b0       ??_C@_0M@OMDLNJPH@BOTH_CIN_45?$AA@ 4003c6b0     ui_main.obj
 0002:000056bc       ??_C@_0M@PFCAOILG@BOTH_CIN_44?$AA@ 4003c6bc     ui_main.obj
 0002:000056c8       ??_C@_0M@LKGBHOHB@BOTH_CIN_43?$AA@ 4003c6c8     ui_main.obj
 0002:000056d4       ??_C@_0M@KDHKEPDA@BOTH_CIN_42?$AA@ 4003c6d4     ui_main.obj
 0002:000056e0       ??_C@_0M@IIFHBMPD@BOTH_CIN_41?$AA@ 4003c6e0     ui_main.obj
 0002:000056ec       ??_C@_0M@JBEMCNLC@BOTH_CIN_40?$AA@ 4003c6ec     ui_main.obj
 0002:000056f8       ??_C@_0M@EFMBIAHO@BOTH_CIN_39?$AA@ 4003c6f8     ui_main.obj
 0002:00005704       ??_C@_0M@FMNKLBDP@BOTH_CIN_38?$AA@ 4003c704     ui_main.obj
 0002:00005710       ??_C@_0M@NLECKNPA@BOTH_CIN_37?$AA@ 4003c710     ui_main.obj
 0002:0000571c       ??_C@_0M@MCFJJMLB@BOTH_CIN_36?$AA@ 4003c71c     ui_main.obj
 0002:00005728       ??_C@_0M@OJHEMPHC@BOTH_CIN_35?$AA@ 4003c728     ui_main.obj
 0002:00005734       ??_C@_0M@PAGPPODD@BOTH_CIN_34?$AA@ 4003c734     ui_main.obj
 0002:00005740       ??_C@_0M@LPCOGIPE@BOTH_CIN_33?$AA@ 4003c740     ui_main.obj
 0002:0000574c       ??_C@_0M@KGDFFJLF@BOTH_CIN_32?$AA@ 4003c74c     ui_main.obj
 0002:00005758       ??_C@_0M@INBIAKHG@BOTH_CIN_31?$AA@ 4003c758     ui_main.obj
 0002:00005764       ??_C@_0M@JEADDLDH@BOTH_CIN_30?$AA@ 4003c764     ui_main.obj
 0002:00005770       ??_C@_0M@EEADOKEJ@BOTH_CIN_29?$AA@ 4003c770     ui_main.obj
 0002:0000577c       ??_C@_0M@FNBINLAI@BOTH_CIN_28?$AA@ 4003c77c     ui_main.obj
 0002:00005788       ??_C@_0M@NKIAMHMH@BOTH_CIN_27?$AA@ 4003c788     ui_main.obj
 0002:00005794       ??_C@_0M@MDJLPGIG@BOTH_CIN_26?$AA@ 4003c794     ui_main.obj
 0002:000057a0       ??_C@_0M@OILGKFEF@BOTH_CIN_25?$AA@ 4003c7a0     ui_main.obj
 0002:000057ac       ??_C@_0M@PBKNJEAE@BOTH_CIN_24?$AA@ 4003c7ac     ui_main.obj
 0002:000057b8       ??_C@_0M@LOOMACMD@BOTH_CIN_23?$AA@ 4003c7b8     ui_main.obj
 0002:000057c4       ??_C@_0M@KHPHDDIC@BOTH_CIN_22?$AA@ 4003c7c4     ui_main.obj
 0002:000057d0       ??_C@_0M@IMNKGAEB@BOTH_CIN_21?$AA@ 4003c7d0     ui_main.obj
 0002:000057dc       ??_C@_0M@JFMBFBAA@BOTH_CIN_20?$AA@ 4003c7dc     ui_main.obj
 0002:000057e8       ??_C@_0M@EGEFFEBA@BOTH_CIN_19?$AA@ 4003c7e8     ui_main.obj
 0002:000057f4       ??_C@_0M@FPFOGFFB@BOTH_CIN_18?$AA@ 4003c7f4     ui_main.obj
 0002:00005800       ??_C@_0M@NIMGHJJO@BOTH_CIN_17?$AA@ 4003c800     ui_main.obj
 0002:0000580c       ??_C@_0M@MBNNEINP@BOTH_CIN_16?$AA@ 4003c80c     ui_main.obj
 0002:00005818       ??_C@_0M@OKPABLBM@BOTH_CIN_15?$AA@ 4003c818     ui_main.obj
 0002:00005824       ??_C@_0M@PDOLCKFN@BOTH_CIN_14?$AA@ 4003c824     ui_main.obj
 0002:00005830       ??_C@_0M@LMKKLMJK@BOTH_CIN_13?$AA@ 4003c830     ui_main.obj
 0002:0000583c       ??_C@_0M@KFLBINNL@BOTH_CIN_12?$AA@ 4003c83c     ui_main.obj
 0002:00005848       ??_C@_0M@IOJMNOBI@BOTH_CIN_11?$AA@ 4003c848     ui_main.obj
 0002:00005854       ??_C@_0M@JHIHOPFJ@BOTH_CIN_10?$AA@ 4003c854     ui_main.obj
 0002:00005860       ??_C@_0L@LLDGGLKP@BOTH_CIN_9?$AA@ 4003c860     ui_main.obj
 0002:0000586c       ??_C@_0L@KCCNFKOO@BOTH_CIN_8?$AA@ 4003c86c     ui_main.obj
 0002:00005878       ??_C@_0L@CFLFEGCB@BOTH_CIN_7?$AA@ 4003c878     ui_main.obj
 0002:00005884       ??_C@_0L@DMKOHHGA@BOTH_CIN_6?$AA@ 4003c884     ui_main.obj
 0002:00005890       ??_C@_0L@BHIDCEKD@BOTH_CIN_5?$AA@ 4003c890     ui_main.obj
 0002:0000589c       ??_C@_0L@OJIBFOC@BOTH_CIN_4?$AA@ 4003c89c     ui_main.obj
 0002:000058a8       ??_C@_0L@EBNJIDCF@BOTH_CIN_3?$AA@ 4003c8a8     ui_main.obj
 0002:000058b4       ??_C@_0L@FIMCLCGE@BOTH_CIN_2?$AA@ 4003c8b4     ui_main.obj
 0002:000058c0       ??_C@_0L@HDOPOBKH@BOTH_CIN_1?$AA@ 4003c8c0     ui_main.obj
 0002:000058cc       ??_C@_0N@MEGKIHKK@LEGS_TURN180?$AA@ 4003c8cc     ui_main.obj
 0002:000058dc       ??_C@_0N@EEPPLEKL@LEGS_S7_RUP5?$AA@ 4003c8dc     ui_main.obj
 0002:000058ec       ??_C@_0N@FNOEIFOK@LEGS_S7_RUP4?$AA@ 4003c8ec     ui_main.obj
 0002:000058fc       ??_C@_0N@BCKFBDCN@LEGS_S7_RUP3?$AA@ 4003c8fc     ui_main.obj
 0002:0000590c       ??_C@_0N@LLOCCGM@LEGS_S7_RUP2?$AA@ 4003c90c     ui_main.obj
 0002:0000591c       ??_C@_0N@CAJDHBKP@LEGS_S7_RUP1?$AA@ 4003c91c     ui_main.obj
 0002:0000592c       ??_C@_0N@JLCPJNEI@LEGS_S7_LUP5?$AA@ 4003c92c     ui_main.obj
 0002:0000593c       ??_C@_0N@ICDEKMAJ@LEGS_S7_LUP4?$AA@ 4003c93c     ui_main.obj
 0002:0000594c       ??_C@_0N@MNHFDKMO@LEGS_S7_LUP3?$AA@ 4003c94c     ui_main.obj
 0002:0000595c       ??_C@_0N@NEGOALIP@LEGS_S7_LUP2?$AA@ 4003c95c     ui_main.obj
 0002:0000596c       ??_C@_0N@PPEDFIEM@LEGS_S7_LUP1?$AA@ 4003c96c     ui_main.obj
 0002:0000597c       ??_C@_0N@OCIILPBP@LEGS_S6_RUP5?$AA@ 4003c97c     ui_main.obj
 0002:0000598c       ??_C@_0N@PLJDIOFO@LEGS_S6_RUP4?$AA@ 4003c98c     ui_main.obj
 0002:0000599c       ??_C@_0N@LENCBIJJ@LEGS_S6_RUP3?$AA@ 4003c99c     ui_main.obj
 0002:000059ac       ??_C@_0N@KNMJCJNI@LEGS_S6_RUP2?$AA@ 4003c9ac     ui_main.obj
 0002:000059bc       ??_C@_0N@IGOEHKBL@LEGS_S6_RUP1?$AA@ 4003c9bc     ui_main.obj
 0002:000059cc       ??_C@_0N@DNFIJGPM@LEGS_S6_LUP5?$AA@ 4003c9cc     ui_main.obj
 0002:000059dc       ??_C@_0N@CEEDKHLN@LEGS_S6_LUP4?$AA@ 4003c9dc     ui_main.obj
 0002:000059ec       ??_C@_0N@GLACDBHK@LEGS_S6_LUP3?$AA@ 4003c9ec     ui_main.obj
 0002:000059fc       ??_C@_0N@HCBJAADL@LEGS_S6_LUP2?$AA@ 4003c9fc     ui_main.obj
 0002:00005a0c       ??_C@_0N@FJDEFDPI@LEGS_S6_LUP1?$AA@ 4003ca0c     ui_main.obj
 0002:00005a1c       ??_C@_0N@NDGAKFIC@LEGS_S5_RUP5?$AA@ 4003ca1c     ui_main.obj
 0002:00005a2c       ??_C@_0N@MKHLJEMD@LEGS_S5_RUP4?$AA@ 4003ca2c     ui_main.obj
 0002:00005a3c       ??_C@_0N@IFDKACAE@LEGS_S5_RUP3?$AA@ 4003ca3c     ui_main.obj
 0002:00005a4c       ??_C@_0N@JMCBDDEF@LEGS_S5_RUP2?$AA@ 4003ca4c     ui_main.obj
 0002:00005a5c       ??_C@_0N@LHAMGAIG@LEGS_S5_RUP1?$AA@ 4003ca5c     ui_main.obj
 0002:00005a6c       ??_C@_0N@MLAIMGB@LEGS_S5_LUP5?$AA@ 4003ca6c     ui_main.obj
 0002:00005a7c       ??_C@_0N@BFKLLNCA@LEGS_S5_LUP4?$AA@ 4003ca7c     ui_main.obj
 0002:00005a8c       ??_C@_0N@FKOKCLOH@LEGS_S5_LUP3?$AA@ 4003ca8c     ui_main.obj
 0002:00005a9c       ??_C@_0N@EDPBBKKG@LEGS_S5_LUP2?$AA@ 4003ca9c     ui_main.obj
 0002:00005aac       ??_C@_0N@GINMEJGF@LEGS_S5_LUP1?$AA@ 4003caac     ui_main.obj
 0002:00005abc       ??_C@_0N@HFBHKODG@LEGS_S4_RUP5?$AA@ 4003cabc     ui_main.obj
 0002:00005acc       ??_C@_0N@GMAMJPHH@LEGS_S4_RUP4?$AA@ 4003cacc     ui_main.obj
 0002:00005adc       ??_C@_0N@CDENAJLA@LEGS_S4_RUP3?$AA@ 4003cadc     ui_main.obj
 0002:00005aec       ??_C@_0N@DKFGDIPB@LEGS_S4_RUP2?$AA@ 4003caec     ui_main.obj
 0002:00005afc       ??_C@_0N@BBHLGLDC@LEGS_S4_RUP1?$AA@ 4003cafc     ui_main.obj
 0002:00005b0c       ??_C@_0N@KKMHIHNF@LEGS_S4_LUP5?$AA@ 4003cb0c     ui_main.obj
 0002:00005b1c       ??_C@_0N@LDNMLGJE@LEGS_S4_LUP4?$AA@ 4003cb1c     ui_main.obj
 0002:00005b2c       ??_C@_0N@PMJNCAFD@LEGS_S4_LUP3?$AA@ 4003cb2c     ui_main.obj
 0002:00005b3c       ??_C@_0N@OFIGBBBC@LEGS_S4_LUP2?$AA@ 4003cb3c     ui_main.obj
 0002:00005b4c       ??_C@_0N@MOKLECNB@LEGS_S4_LUP1?$AA@ 4003cb4c     ui_main.obj
 0002:00005b5c       ??_C@_0N@LALAJALI@LEGS_S3_RUP5?$AA@ 4003cb5c     ui_main.obj
 0002:00005b6c       ??_C@_0N@KJKLKBPJ@LEGS_S3_RUP4?$AA@ 4003cb6c     ui_main.obj
 0002:00005b7c       ??_C@_0N@OGOKDHDO@LEGS_S3_RUP3?$AA@ 4003cb7c     ui_main.obj
 0002:00005b8c       ??_C@_0N@PPPBAGHP@LEGS_S3_RUP2?$AA@ 4003cb8c     ui_main.obj
 0002:00005b9c       ??_C@_0N@NENMFFLM@LEGS_S3_RUP1?$AA@ 4003cb9c     ui_main.obj
 0002:00005bac       ??_C@_0N@GPGALJFL@LEGS_S3_LUP5?$AA@ 4003cbac     ui_main.obj
 0002:00005bbc       ??_C@_0N@HGHLIIBK@LEGS_S3_LUP4?$AA@ 4003cbbc     ui_main.obj
 0002:00005bcc       ??_C@_0N@DJDKBONN@LEGS_S3_LUP3?$AA@ 4003cbcc     ui_main.obj
 0002:00005bdc       ??_C@_0N@CACBCPJM@LEGS_S3_LUP2?$AA@ 4003cbdc     ui_main.obj
 0002:00005bec       ??_C@_0N@LAMHMFP@LEGS_S3_LUP1?$AA@ 4003cbec     ui_main.obj
 0002:00005bfc       ??_C@_0N@CHCPIBJB@LEGS_S1_RUP5?$AA@ 4003cbfc     ui_main.obj
 0002:00005c0c       ??_C@_0N@DODELANA@LEGS_S1_RUP4?$AA@ 4003cc0c     ui_main.obj
 0002:00005c1c       ??_C@_0N@HBHFCGBH@LEGS_S1_RUP3?$AA@ 4003cc1c     ui_main.obj
 0002:00005c2c       ??_C@_0N@GIGOBHFG@LEGS_S1_RUP2?$AA@ 4003cc2c     ui_main.obj
 0002:00005c3c       ??_C@_0N@EDEDEEJF@LEGS_S1_RUP1?$AA@ 4003cc3c     ui_main.obj
 0002:00005c4c       ??_C@_0N@PIPPKIHC@LEGS_S1_LUP5?$AA@ 4003cc4c     ui_main.obj
 0002:00005c5c       ??_C@_0N@OBOEJJDD@LEGS_S1_LUP4?$AA@ 4003cc5c     ui_main.obj
 0002:00005c6c       ??_C@_0N@KOKFAPPE@LEGS_S1_LUP3?$AA@ 4003cc6c     ui_main.obj
 0002:00005c7c       ??_C@_0N@LHLODOLF@LEGS_S1_LUP2?$AA@ 4003cc7c     ui_main.obj
 0002:00005c8c       ??_C@_0N@JMJDGNHG@LEGS_S1_LUP1?$AA@ 4003cc8c     ui_main.obj
 0002:00005c9c       ??_C@_0O@PPAOPDJO@LEGS_RIGHTUP5?$AA@ 4003cc9c     ui_main.obj
 0002:00005cac       ??_C@_0O@OGBFMCNP@LEGS_RIGHTUP4?$AA@ 4003ccac     ui_main.obj
 0002:00005cbc       ??_C@_0O@KJFEFEBI@LEGS_RIGHTUP3?$AA@ 4003ccbc     ui_main.obj
 0002:00005ccc       ??_C@_0O@LAEPGFFJ@LEGS_RIGHTUP2?$AA@ 4003cccc     ui_main.obj
 0002:00005cdc       ??_C@_0O@JLGCDGJK@LEGS_RIGHTUP1?$AA@ 4003ccdc     ui_main.obj
 0002:00005cec       ??_C@_0N@DBAKPANN@LEGS_LEFTUP5?$AA@ 4003ccec     ui_main.obj
 0002:00005cfc       ??_C@_0N@CIBBMBJM@LEGS_LEFTUP4?$AA@ 4003ccfc     ui_main.obj
 0002:00005d0c       ??_C@_0N@GHFAFHFL@LEGS_LEFTUP3?$AA@ 4003cd0c     ui_main.obj
 0002:00005d1c       ??_C@_0N@HOELGGBK@LEGS_LEFTUP2?$AA@ 4003cd1c     ui_main.obj
 0002:00005d2c       ??_C@_0N@FFGGDFNJ@LEGS_LEFTUP1?$AA@ 4003cd2c     ui_main.obj
 0002:00005d3c       ??_C@_0O@FPAJGKKH@LEGS_CHOKING1?$AA@ 4003cd3c     ui_main.obj
 0002:00005d4c       ??_C@_0BB@HCNNJMLM@LEGS_LEAN_RIGHT1?$AA@ 4003cd4c     ui_main.obj
 0002:00005d60       ??_C@_0BA@MCADBFIF@LEGS_LEAN_LEFT1?$AA@ 4003cd60     ui_main.obj
 0002:00005d70       ??_C@_0L@BFOCDDKC@LEGS_TURN2?$AA@ 4003cd70     ui_main.obj
 0002:00005d7c       ??_C@_0L@DOMPGAGB@LEGS_TURN1?$AA@ 4003cd7c     ui_main.obj
 0002:00005d88       ??_C@_0BC@FAHFKMOC@TORSO_HANDSIGNAL5?$AA@ 4003cd88     ui_main.obj
 0002:00005d9c       ??_C@_0BC@EJGOJNKD@TORSO_HANDSIGNAL4?$AA@ 4003cd9c     ui_main.obj
 0002:00005db0       ??_C@_0BC@GCPALGE@TORSO_HANDSIGNAL3?$AA@ 4003cdb0     ui_main.obj
 0002:00005dc4       ??_C@_0BC@BPDEDKCF@TORSO_HANDSIGNAL2?$AA@ 4003cdc4     ui_main.obj
 0002:00005dd8       ??_C@_0BC@DEBJGJOG@TORSO_HANDSIGNAL1?$AA@ 4003cdd8     ui_main.obj
 0002:00005dec       ??_C@_0P@EDGDJEAA@TORSO_CHOKING1?$AA@ 4003cdec     ui_main.obj
 0002:00005dfc       ??_C@_0BF@CAMHOBIG@TORSO_SURRENDER_STOP?$AA@ 4003cdfc     ui_main.obj
 0002:00005e14       ??_C@_0BG@DJHHNKPJ@TORSO_SURRENDER_START?$AA@ 4003ce14     ui_main.obj
 0002:00005e2c       ??_C@_0BD@IPNKJOGP@TORSO_WEAPONIDLE10?$AA@ 4003ce2c     ui_main.obj
 0002:00005e40       ??_C@_0BC@OEKOFEDF@TORSO_WEAPONIDLE4?$AA@ 4003ce40     ui_main.obj
 0002:00005e54       ??_C@_0BC@KLOPMCPC@TORSO_WEAPONIDLE3?$AA@ 4003ce54     ui_main.obj
 0002:00005e68       ??_C@_0BC@LCPEPDLD@TORSO_WEAPONIDLE2?$AA@ 4003ce68     ui_main.obj
 0002:00005e7c       ??_C@_0BE@PLMMDJNI@TORSO_WEAPONREADY10?$AA@ 4003ce7c     ui_main.obj
 0002:00005e90       ??_C@_0BD@EDNLHJLG@TORSO_WEAPONREADY4?$AA@ 4003ce90     ui_main.obj
 0002:00005ea4       ??_C@_0BD@MJKOPHB@TORSO_WEAPONREADY3?$AA@ 4003cea4     ui_main.obj
 0002:00005eb8       ??_C@_0BD@BFIBNODA@TORSO_WEAPONREADY2?$AA@ 4003ceb8     ui_main.obj
 0002:00005ecc       ??_C@_0BD@DOKMINPD@TORSO_WEAPONREADY1?$AA@ 4003cecc     ui_main.obj
 0002:00005ee0       ??_C@_0BB@JNFLGAHH@TORSO_RAISEWEAP4?$AA@ 4003cee0     ui_main.obj
 0002:00005ef4       ??_C@_0BB@OACMJEDC@TORSO_RAISEWEAP1?$AA@ 4003cef4     ui_main.obj
 0002:00005f08       ??_C@_0BA@CHPACHPA@TORSO_DROPWEAP4?$AA@ 4003cf08     ui_main.obj
 0002:00005f18       ??_C@_0BA@FKIHNDLF@TORSO_DROPWEAP1?$AA@ 4003cf18     ui_main.obj
 0002:00005f28       ??_C@_09LOFMHEDG@BOTH_SIT7?$AA@ 4003cf28     ui_main.obj
 0002:00005f34       ??_C@_09KHEHEFHH@BOTH_SIT6?$AA@ 4003cf34     ui_main.obj
 0002:00005f40       ??_C@_0BA@KMDIIEBA@BOTH_SIT5_TALK3?$AA@ 4003cf40     ui_main.obj
 0002:00005f50       ??_C@_0BA@LFCDLFFB@BOTH_SIT5_TALK2?$AA@ 4003cf50     ui_main.obj
 0002:00005f60       ??_C@_0BA@JOAOOGJC@BOTH_SIT5_TALK1?$AA@ 4003cf60     ui_main.obj
 0002:00005f70       ??_C@_09IMGKBGLE@BOTH_SIT5?$AA@ 4003cf70     ui_main.obj
 0002:00005f7c       ??_C@_09JFHBCHPF@BOTH_SIT4?$AA@ 4003cf7c     ui_main.obj
 0002:00005f88       ??_C@_0BC@HMBKLJMI@BOTH_STAND1_TALK3?$AA@ 4003cf88     ui_main.obj
 0002:00005f9c       ??_C@_0BC@GFABIIIJ@BOTH_STAND1_TALK2?$AA@ 4003cf9c     ui_main.obj
 0002:00005fb0       ??_C@_0BC@EOCMNLEK@BOTH_STAND1_TALK1?$AA@ 4003cfb0     ui_main.obj
 0002:00005fc4       ??_C@_0BF@EILOIEKG@BOTH_STAND10TOSTAND1?$AA@ 4003cfc4     ui_main.obj
 0002:00005fdc       ??_C@_0BD@BPMBLEGP@BOTH_STAND10_TALK2?$AA@ 4003cfdc     ui_main.obj
 0002:00005ff0       ??_C@_0BD@DEOMOHKM@BOTH_STAND10_TALK1?$AA@ 4003cff0     ui_main.obj
 0002:00006004       ??_C@_0N@EGCBKCBH@BOTH_STAND10?$AA@ 4003d004     ui_main.obj
 0002:00006014       ??_C@_0BD@KFKLMKIP@BOTH_SONICPAIN_END?$AA@ 4003d014     ui_main.obj
 0002:00006028       ??_C@_0BE@KHIIENBG@BOTH_SONICPAIN_HOLD?$AA@ 4003d028     ui_main.obj
 0002:0000603c       ??_C@_0BF@LOEEPGJI@BOTH_SONICPAIN_START?$AA@ 4003d03c     ui_main.obj
 0002:00006054       ??_C@_0BB@JEOPOJAL@BOTH_COWER1_STOP?$AA@ 4003d054     ui_main.obj
 0002:00006068       ??_C@_0M@EAAAAKHE@BOTH_COWER1?$AA@ 4003d068     ui_main.obj
 0002:00006074       ??_C@_0BC@KKMKANGM@BOTH_COWER1_START?$AA@ 4003d074     ui_main.obj
 0002:00006088       ??_C@_0BC@KDENGKBK@BOTH_TUSKENTAUNT1?$AA@ 4003d088     ui_main.obj
 0002:0000609c       ??_C@_0BC@BIOHNIGA@BOTH_TUSKENLUNGE1?$AA@ 4003d09c     ui_main.obj
 0002:000060b0       ??_C@_0BD@NFLDJLNC@BOTH_TUSKENATTACK3?$AA@ 4003d0b0     ui_main.obj
 0002:000060c4       ??_C@_0BD@MMKIKKJD@BOTH_TUSKENATTACK2?$AA@ 4003d0c4     ui_main.obj
 0002:000060d8       ??_C@_0BD@OHIFPJFA@BOTH_TUSKENATTACK1?$AA@ 4003d0d8     ui_main.obj
 0002:000060ec       ??_C@_0BE@OBEECCKH@BOTH_KNEEL_TO_STAND?$AA@ 4003d0ec     ui_main.obj
 0002:00006100       ??_C@_0BE@FLPJEFCO@BOTH_STAND_TO_KNEEL?$AA@ 4003d100     ui_main.obj
 0002:00006114       ??_C@_09FOHPNOGF@BOTH_WIND?$AA@ 4003d114     ui_main.obj
 0002:00006120       ??_C@_0BI@GLAHPFBH@BOTH_FORCE_PROTECT_FAST?$AA@ 4003d120     ui_main.obj
 0002:00006138       ??_C@_0BD@FFPOEFNG@BOTH_FORCE_PROTECT?$AA@ 4003d138     ui_main.obj
 0002:0000614c       ??_C@_0BG@CBNCOJEH@BOTH_FORCE_ABSORB_END?$AA@ 4003d14c     ui_main.obj
 0002:00006164       ??_C@_0BI@BPAAFONF@BOTH_FORCE_ABSORB_START?$AA@ 4003d164     ui_main.obj
 0002:0000617c       ??_C@_0BC@HHGANHBC@BOTH_FORCE_ABSORB?$AA@ 4003d17c     ui_main.obj
 0002:00006190       ??_C@_0BJ@GKPDEPNJ@BOTH_FORCE_DRAIN_GRABBED?$AA@ 4003d190     ui_main.obj
 0002:000061ac       ??_C@_0BK@POJHMFNL@BOTH_FORCE_DRAIN_GRAB_END?$AA@ 4003d1ac     ui_main.obj
 0002:000061c8       ??_C@_0BL@MLNFOEPE@BOTH_FORCE_DRAIN_GRAB_HOLD?$AA@ 4003d1c8     ui_main.obj
 0002:000061e4       ??_C@_0BM@PACMCIGF@BOTH_FORCE_DRAIN_GRAB_START?$AA@ 4003d1e4     ui_main.obj
 0002:00006200       ??_C@_0BJ@OBGKFMHF@BOTH_FORCE_DRAIN_RELEASE?$AA@ 4003d200     ui_main.obj
 0002:0000621c       ??_C@_0BG@JCLNDPPK@BOTH_FORCE_DRAIN_HOLD?$AA@ 4003d21c     ui_main.obj
 0002:00006234       ??_C@_0BH@BHMNGNLJ@BOTH_FORCE_DRAIN_START?$AA@ 4003d234     ui_main.obj
 0002:0000624c       ??_C@_0BB@NHPCBMHH@BOTH_FORCE_DRAIN?$AA@ 4003d24c     ui_main.obj
 0002:00006260       ??_C@_0CE@NFLNPDNI@BOTH_FORCE_2HANDEDLIGHTNING_RELE@ 4003d260     ui_main.obj
 0002:00006284       ??_C@_0CB@MNKHBDGA@BOTH_FORCE_2HANDEDLIGHTNING_HOLD@ 4003d284     ui_main.obj
 0002:000062a8       ??_C@_0CC@HEIANMP@BOTH_FORCE_2HANDEDLIGHTNING_STAR@ 4003d2a8     ui_main.obj
 0002:000062cc       ??_C@_0BM@OPHDEJED@BOTH_FORCE_2HANDEDLIGHTNING?$AA@ 4003d2cc     ui_main.obj
 0002:000062e8       ??_C@_0BA@GLJOFMJL@BOTH_FORCE_RAGE?$AA@ 4003d2e8     ui_main.obj
 0002:000062f8       ??_C@_0L@GCDIADMB@BOTH_TOSS2?$AA@ 4003d2f8     ui_main.obj
 0002:00006304       ??_C@_0L@EJBFFAAC@BOTH_TOSS1?$AA@ 4003d304     ui_main.obj
 0002:00006310       ??_C@_0BH@JFCMGCAP@BOTH_FORCEGRIP_RELEASE?$AA@ 4003d310     ui_main.obj
 0002:00006328       ??_C@_0BE@JLIMFCGH@BOTH_FORCEGRIP_HOLD?$AA@ 4003d328     ui_main.obj
 0002:0000633c       ??_C@_0BF@BAAGEEBG@BOTH_FORCEGRIP3THROW?$AA@ 4003d33c     ui_main.obj
 0002:00006354       ??_C@_0BA@CBKDJPAH@BOTH_FORCEGRIP3?$AA@ 4003d354     ui_main.obj
 0002:00006364       ??_C@_0BA@BDJFPNIF@BOTH_FORCEGRIP1?$AA@ 4003d364     ui_main.obj
 0002:00006374       ??_C@_0P@PONJILD@BOTH_SABERPULL?$AA@ 4003d374     ui_main.obj
 0002:00006384       ??_C@_0BF@DKJODMIL@BOTH_FORCEHEAL_QUICK?$AA@ 4003d384     ui_main.obj
 0002:0000639c       ??_C@_0BE@GNHNNEFM@BOTH_FORCEHEAL_STOP?$AA@ 4003d39c     ui_main.obj
 0002:000063b0       ??_C@_0BF@FPDMFLAG@BOTH_FORCEHEAL_START?$AA@ 4003d3b0     ui_main.obj
 0002:000063c8       ??_C@_0BM@GCBAKCPL@BOTH_FORCELIGHTNING_RELEASE?$AA@ 4003d3c8     ui_main.obj
 0002:000063e4       ??_C@_0BJ@KCFBGHIB@BOTH_FORCELIGHTNING_HOLD?$AA@ 4003d3e4     ui_main.obj
 0002:00006400       ??_C@_0BK@NACKCJFF@BOTH_FORCELIGHTNING_START?$AA@ 4003d400     ui_main.obj
 0002:0000641c       ??_C@_0BE@OEAHGILF@BOTH_FORCELIGHTNING?$AA@ 4003d41c     ui_main.obj
 0002:00006430       ??_C@_0BA@KMPKOPAN@BOTH_MINDTRICK2?$AA@ 4003d430     ui_main.obj
 0002:00006440       ??_C@_0BA@IHNHLMMO@BOTH_MINDTRICK1?$AA@ 4003d440     ui_main.obj
 0002:00006450       ??_C@_0P@HBADPLP@BOTH_FORCEPULL?$AA@ 4003d450     ui_main.obj
 0002:00006460       ??_C@_0P@HEAGBOPG@BOTH_FORCEPUSH?$AA@ 4003d460     ui_main.obj
 0002:00006470       ??_C@_0BA@IBNLMMOO@BOTH_RESISTPUSH?$AA@ 4003d470     ui_main.obj
 0002:00006480       ??_C@_0BE@BFLOBGOL@BOTH_BUTTON_RELEASE?$AA@ 4003d480     ui_main.obj
 0002:00006494       ??_C@_0BB@FCMBEPCD@BOTH_BUTTON_HOLD?$AA@ 4003d494     ui_main.obj
 0002:000064a8       ??_C@_0N@JDJGEOPD@BOTH_BUTTON2?$AA@ 4003d4a8     ui_main.obj
 0002:000064b8       ??_C@_0N@LILLBNDA@BOTH_BUTTON1?$AA@ 4003d4b8     ui_main.obj
 0002:000064c8       ??_C@_0N@JAALPHCL@BOTH_TURNOFF?$AA@ 4003d4c8     ui_main.obj
 0002:000064d8       ??_C@_0M@ODIMNEKC@BOTH_TURNON?$AA@ 4003d4d8     ui_main.obj
 0002:000064e4       ??_C@_0O@CAGOCCAO@BOTH_POWERUP1?$AA@ 4003d4e4     ui_main.obj
 0002:000064f4       ??_C@_0M@MGBFEGML@BOTH_CHOKE3?$AA@ 4003d4f4     ui_main.obj
 0002:00006500       ??_C@_0M@NPAOHHIK@BOTH_CHOKE2?$AA@ 4003d500     ui_main.obj
 0002:0000650c       ??_C@_0M@PECDCEEJ@BOTH_CHOKE1?$AA@ 4003d50c     ui_main.obj
 0002:00006518       ??_C@_0BF@ICMFFJIF@BOTH_CHOKE1STARTHOLD?$AA@ 4003d518     ui_main.obj
 0002:00006530       ??_C@_0BB@OFKGJANF@BOTH_CHOKE1START?$AA@ 4003d530     ui_main.obj
 0002:00006544       ??_C@_0BC@NPNJMHGC@BOTH_SLEEP1GETUP2?$AA@ 4003d544     ui_main.obj
 0002:00006558       ??_C@_0BB@HBPPPACM@BOTH_SLEEP1GETUP?$AA@ 4003d558     ui_main.obj
 0002:0000656c       ??_C@_0BA@CINKHNGE@BOTH_SLEEP6STOP?$AA@ 4003d56c     ui_main.obj
 0002:0000657c       ??_C@_0BB@HHHLEEDB@BOTH_SLEEP6START?$AA@ 4003d57c     ui_main.obj
 0002:00006590       ??_C@_0M@LIOOPEJI@BOTH_SLEEP1?$AA@ 4003d590     ui_main.obj
 0002:0000659c       ??_C@_0BC@LJIHFCKB@BOTH_SWIMBACKWARD?$AA@ 4003d59c     ui_main.obj
 0002:000065b0       ??_C@_0BB@FOFCFDFI@BOTH_SWIMFORWARD?$AA@ 4003d5b0     ui_main.obj
 0002:000065c4       ??_C@_0BA@PIGFMLPF@BOTH_SWIM_IDLE1?$AA@ 4003d5c4     ui_main.obj
 0002:000065d4       ??_C@_0BC@ODIBALPH@BOTH_FLY_SHIELDED?$AA@ 4003d5d4     ui_main.obj
 0002:000065e8       ??_C@_0BB@OMHFJNGP@BOTH_LADDER_IDLE?$AA@ 4003d5e8     ui_main.obj
 0002:000065fc       ??_C@_0BB@BOJOMJDD@BOTH_LADDER_DWN1?$AA@ 4003d5fc     ui_main.obj
 0002:00006610       ??_C@_0BA@ILKIBIOO@BOTH_LADDER_UP1?$AA@ 4003d610     ui_main.obj
 0002:00006620       ??_C@_09PPDGHFCD@BOTH_HIT1?$AA@ 4003d620     ui_main.obj
 0002:0000662c       ??_C@_0P@EHILJFLF@BOTH_HANG_PAIN?$AA@ 4003d62c     ui_main.obj
 0002:0000663c       ??_C@_0BB@CKCHJINN@BOTH_HANG_ATTACK?$AA@ 4003d63c     ui_main.obj
 0002:00006650       ??_C@_0P@PIJKILFE@BOTH_HANG_IDLE?$AA@ 4003d650     ui_main.obj
 0002:00006660       ??_C@_0O@LAAPIANC@BOTH_RELEASED?$AA@ 4003d660     ui_main.obj
 0002:00006670       ??_C@_0N@CFDAGGFP@BOTH_GRABBED?$AA@ 4003d670     ui_main.obj
 0002:00006680       ??_C@_0P@PLIENJJJ@BOTH_HOLD_DROP?$AA@ 4003d680     ui_main.obj
 0002:00006690       ??_C@_0BA@KJAIIPAE@BOTH_HOLD_SNIFF?$AA@ 4003d690     ui_main.obj
 0002:000066a0       ??_C@_0BB@EFCJFPCD@BOTH_HOLD_ATTACK?$AA@ 4003d6a0     ui_main.obj
 0002:000066b4       ??_C@_0O@HFIKEJBB@BOTH_HOLD_END?$AA@ 4003d6b4     ui_main.obj
 0002:000066c4       ??_C@_0P@EDJFENCG@BOTH_HOLD_IDLE?$AA@ 4003d6c4     ui_main.obj
 0002:000066d4       ??_C@_0P@EPJNGCKB@BOTH_HOLD_MISS?$AA@ 4003d6d4     ui_main.obj
 0002:000066e4       ??_C@_0BA@CFDHFDLH@BOTH_HOLD_START?$AA@ 4003d6e4     ui_main.obj
 0002:000066f4       ??_C@_0BA@NKEMKFLI@BOTH_BUCK_RIDER?$AA@ 4003d6f4     ui_main.obj
 0002:00006704       ??_C@_0BF@HCPCIHAG@BOTH_PLAYER_PA_3_FLY?$AA@ 4003d704     ui_main.obj
 0002:0000671c       ??_C@_0BB@KIHONIOP@BOTH_PLAYER_PA_3?$AA@ 4003d71c     ui_main.obj
 0002:00006730       ??_C@_0P@OMCEAAPC@BOTH_KYLE_PA_3?$AA@ 4003d730     ui_main.obj
 0002:00006740       ??_C@_0BD@BPPGNPKM@BOTH_PLAYER_PA_FLY?$AA@ 4003d740     ui_main.obj
 0002:00006754       ??_C@_0BB@LBGFOJKO@BOTH_PLAYER_PA_2?$AA@ 4003d754     ui_main.obj
 0002:00006768       ??_C@_0P@PFDPDBLD@BOTH_KYLE_PA_2?$AA@ 4003d768     ui_main.obj
 0002:00006778       ??_C@_0BB@JKEILKGN@BOTH_PLAYER_PA_1?$AA@ 4003d778     ui_main.obj
 0002:0000678c       ??_C@_0P@NOBCGCHA@BOTH_KYLE_PA_1?$AA@ 4003d78c     ui_main.obj
 0002:0000679c       ??_C@_0P@NNAHOJON@BOTH_KYLE_MISS?$AA@ 4003d79c     ui_main.obj
 0002:000067ac       ??_C@_0P@FMNEHFNM@BOTH_KYLE_GRAB?$AA@ 4003d7ac     ui_main.obj
 0002:000067bc       ??_C@_0BC@MELKBIFA@BOTH_SCEPTER_STOP?$AA@ 4003d7bc     ui_main.obj
 0002:000067d0       ??_C@_0BC@HIHKAHFB@BOTH_SCEPTER_HOLD?$AA@ 4003d7d0     ui_main.obj
 0002:000067e4       ??_C@_0BD@FGCDNAOB@BOTH_SCEPTER_START?$AA@ 4003d7e4     ui_main.obj
 0002:000067f8       ??_C@_0BH@HFIAAKKL@BOTH_TAVION_SWORDPOWER?$AA@ 4003d7f8     ui_main.obj
 0002:00006810       ??_C@_0BK@NBGHMOBL@BOTH_TAVION_SCEPTERGROUND?$AA@ 4003d810     ui_main.obj
 0002:0000682c       ??_C@_0P@ENOEHDDL@BOTH_ROSH_HEAL?$AA@ 4003d82c     ui_main.obj
 0002:0000683c       ??_C@_0P@KODDALBF@BOTH_ROSH_PAIN?$AA@ 4003d83c     ui_main.obj
 0002:0000684c       ??_C@_0BB@JJKGACDG@BOTH_ALORA_TAUNT?$AA@ 4003d84c     ui_main.obj
 0002:00006860       ??_C@_0BG@DCFBCKEL@BOTH_ALORA_SPIN_SLASH?$AA@ 4003d860     ui_main.obj
 0002:00006878       ??_C@_0BG@EABOBAMI@BOTH_ALORA_SPIN_THROW?$AA@ 4003d878     ui_main.obj
 0002:00006890       ??_C@_0BC@FIDADFOL@BOTH_ALORA_FLIP_B?$AA@ 4003d890     ui_main.obj
 0002:000068a4       ??_C@_0BC@GOBEHNFM@BOTH_ALORA_FLIP_3?$AA@ 4003d8a4     ui_main.obj
 0002:000068b8       ??_C@_0BC@HHAPEMBN@BOTH_ALORA_FLIP_2?$AA@ 4003d8b8     ui_main.obj
 0002:000068cc       ??_C@_0BC@FMCCBPNO@BOTH_ALORA_FLIP_1?$AA@ 4003d8cc     ui_main.obj
 0002:000068e0       ??_C@_0BA@IMOMKPBA@BOTH_ALORA_SPIN?$AA@ 4003d8e0     ui_main.obj
 0002:000068f0       ??_C@_0N@NLKPNJAP@BOTH_A7_HILT?$AA@ 4003d8f0     ui_main.obj
 0002:00006900       ??_C@_0L@PNLACCAF@BOTH_A6_LR?$AA@ 4003d900     ui_main.obj
 0002:0000690c       ??_C@_0L@LKOFLFIC@BOTH_A6_FB?$AA@ 4003d90c     ui_main.obj
 0002:00006918       ??_C@_0BA@ECEJJOCF@BOTH_DUAL_TAUNT?$AA@ 4003d918     ui_main.obj
 0002:00006928       ??_C@_0BB@IIJAHOAM@BOTH_STAFF_TAUNT?$AA@ 4003d928     ui_main.obj
 0002:0000693c       ??_C@_0BA@NPLLAIGE@BOTH_LOSE_SABER?$AA@ 4003d93c     ui_main.obj
 0002:0000694c       ??_C@_0BC@BJEPANJA@BOTH_BACK_FLIP_UP?$AA@ 4003d94c     ui_main.obj
 0002:00006960       ??_C@_0BD@HFLMOBFH@BOTH_BUTTERFLY_FL1?$AA@ 4003d960     ui_main.obj
 0002:00006974       ??_C@_0BD@GDAEGPCN@BOTH_BUTTERFLY_FR1?$AA@ 4003d974     ui_main.obj
 0002:00006988       ??_C@_0O@HINNODAG@BOTH_ARIAL_F1?$AA@ 4003d988     ui_main.obj
 0002:00006998       ??_C@_0N@PBBFIKGE@BOTH_BASHED1?$AA@ 4003d998     ui_main.obj
 0002:000069a8       ??_C@_0BM@ELFFAKLF@BOTH_DEFLECTSLASH__R__L_FIN?$AA@ 4003d9a8     ui_main.obj
 0002:000069c4       ??_C@_0BJ@PHBNOEEM@BOTH_RIGHTHANDCHOPPEDOFF?$AA@ 4003d9c4     ui_main.obj
 0002:000069e0       ??_C@_0BA@CDEAMOMG@BOTH_FJSS_TL_BR?$AA@ 4003d9e0     ui_main.obj
 0002:000069f0       ??_C@_0BA@CINBNIPK@BOTH_FJSS_TR_BL?$AA@ 4003d9f0     ui_main.obj
 0002:00006a00       ??_C@_0BC@GKKAPGJM@BOTH_CEILING_DROP?$AA@ 4003da00     ui_main.obj
 0002:00006a14       ??_C@_0BD@LHONGOKG@BOTH_CEILING_CLING?$AA@ 4003da14     ui_main.obj
 0002:00006a28       ??_C@_0L@JNPKOHDB@BOTH_SPIN1?$AA@ 4003da28     ui_main.obj
 0002:00006a34       ??_C@_0BF@ECAKIGBB@BOTH_WALL_FLIP_BACK2?$AA@ 4003da34     ui_main.obj
 0002:00006a4c       ??_C@_0BF@GJCHNFNC@BOTH_WALL_FLIP_BACK1?$AA@ 4003da4c     ui_main.obj
 0002:00006a64       ??_C@_0BD@EOHNHFLF@BOTH_GETUP_FROLL_R?$AA@ 4003da64     ui_main.obj
 0002:00006a78       ??_C@_0BD@JKDMEKGK@BOTH_GETUP_FROLL_L?$AA@ 4003da78     ui_main.obj
 0002:00006a8c       ??_C@_0BD@GANDKCOA@BOTH_GETUP_FROLL_F?$AA@ 4003da8c     ui_main.obj
 0002:00006aa0       ??_C@_0BD@ELPGHOE@BOTH_GETUP_FROLL_B?$AA@ 4003daa0     ui_main.obj
 0002:00006ab4       ??_C@_0BD@MKDHHLEP@BOTH_GETUP_BROLL_R?$AA@ 4003dab4     ui_main.obj
 0002:00006ac8       ??_C@_0BD@BOHGEEJA@BOTH_GETUP_BROLL_L?$AA@ 4003dac8     ui_main.obj
 0002:00006adc       ??_C@_0BD@OEJJKMBK@BOTH_GETUP_BROLL_F?$AA@ 4003dadc     ui_main.obj
 0002:00006af0       ??_C@_0BD@IAPFGJBO@BOTH_GETUP_BROLL_B?$AA@ 4003daf0     ui_main.obj
 0002:00006b04       ??_C@_0BE@FMMHDLNN@BOTH_FORCE_GETUP_B6?$AA@ 4003db04     ui_main.obj
 0002:00006b18       ??_C@_0BE@HHOKGIBO@BOTH_FORCE_GETUP_B5?$AA@ 4003db18     ui_main.obj
 0002:00006b2c       ??_C@_0BE@GOPBFJFP@BOTH_FORCE_GETUP_B4?$AA@ 4003db2c     ui_main.obj
 0002:00006b40       ??_C@_0BE@CBLAMPJI@BOTH_FORCE_GETUP_B3?$AA@ 4003db40     ui_main.obj
 0002:00006b54       ??_C@_0BE@DIKLPONJ@BOTH_FORCE_GETUP_B2?$AA@ 4003db54     ui_main.obj
 0002:00006b68       ??_C@_0BE@BDIGKNBK@BOTH_FORCE_GETUP_B1?$AA@ 4003db68     ui_main.obj
 0002:00006b7c       ??_C@_0BE@DPKCFGAF@BOTH_FORCE_GETUP_F2?$AA@ 4003db7c     ui_main.obj
 0002:00006b90       ??_C@_0BE@BEIPAFMG@BOTH_FORCE_GETUP_F1?$AA@ 4003db90     ui_main.obj
 0002:00006ba4       ??_C@_0BF@MJANPMOM@BOTH_GETUP_CROUCH_B1?$AA@ 4003dba4     ui_main.obj
 0002:00006bbc       ??_C@_0BF@MOAEFEDA@BOTH_GETUP_CROUCH_F1?$AA@ 4003dbbc     ui_main.obj
 0002:00006bd4       ??_C@_0M@GFIFDBCE@BOTH_GETUP5?$AA@ 4003dbd4     ui_main.obj
 0002:00006be0       ??_C@_0M@HMJOAAGF@BOTH_GETUP4?$AA@ 4003dbe0     ui_main.obj
 0002:00006bec       ??_C@_0M@DDNPJGKC@BOTH_GETUP3?$AA@ 4003dbec     ui_main.obj
 0002:00006bf8       ??_C@_0M@CKMEKHOD@BOTH_GETUP2?$AA@ 4003dbf8     ui_main.obj
 0002:00006c04       ??_C@_0M@BOJPECA@BOTH_GETUP1?$AA@ 4003dc04     ui_main.obj
 0002:00006c10       ??_C@_0BA@OGIFEPII@BOTH_KNOCKDOWN5?$AA@ 4003dc10     ui_main.obj
 0002:00006c20       ??_C@_0BA@PPJOHOMJ@BOTH_KNOCKDOWN4?$AA@ 4003dc20     ui_main.obj
 0002:00006c30       ??_C@_0BA@LANPOIAO@BOTH_KNOCKDOWN3?$AA@ 4003dc30     ui_main.obj
 0002:00006c40       ??_C@_0BA@KJMENJEP@BOTH_KNOCKDOWN2?$AA@ 4003dc40     ui_main.obj
 0002:00006c50       ??_C@_0BA@ICOJIKIM@BOTH_KNOCKDOWN1?$AA@ 4003dc50     ui_main.obj
 0002:00006c60       ??_C@_0BE@ILAKMJOK@BOTH_WALL_FLIP_LEFT?$AA@ 4003dc60     ui_main.obj
 0002:00006c74       ??_C@_0BF@MPCPCKGE@BOTH_WALL_FLIP_RIGHT?$AA@ 4003dc74     ui_main.obj
 0002:00006c8c       ??_C@_0BI@ICEHPAIN@BOTH_WALL_RUN_LEFT_STOP?$AA@ 4003dc8c     ui_main.obj
 0002:00006ca4       ??_C@_0BI@LLGHOLLN@BOTH_WALL_RUN_LEFT_FLIP?$AA@ 4003dca4     ui_main.obj
 0002:00006cbc       ??_C@_0BD@FOKEEMMD@BOTH_WALL_RUN_LEFT?$AA@ 4003dcbc     ui_main.obj
 0002:00006cd0       ??_C@_0BJ@KEGEKGBP@BOTH_WALL_RUN_RIGHT_STOP?$AA@ 4003dcd0     ui_main.obj
 0002:00006cec       ??_C@_0BJ@JNEELNCP@BOTH_WALL_RUN_RIGHT_FLIP?$AA@ 4003dcec     ui_main.obj
 0002:00006d08       ??_C@_0BE@INEIBMIN@BOTH_WALL_RUN_RIGHT?$AA@ 4003dd08     ui_main.obj
 0002:00006d1c       ??_C@_0BF@JMFKBIFE@BOTH_BUTTERFLY_RIGHT?$AA@ 4003dd1c     ui_main.obj
 0002:00006d34       ??_C@_0BE@ENKLMJBI@BOTH_BUTTERFLY_LEFT?$AA@ 4003dd34     ui_main.obj
 0002:00006d48       ??_C@_0BA@NNNINNPE@BOTH_FLIP_BACK3?$AA@ 4003dd48     ui_main.obj
 0002:00006d58       ??_C@_0BA@MEMDOMLF@BOTH_FLIP_BACK2?$AA@ 4003dd58     ui_main.obj
 0002:00006d68       ??_C@_0BA@OPOOLPHG@BOTH_FLIP_BACK1?$AA@ 4003dd68     ui_main.obj
 0002:00006d78       ??_C@_0P@JBLCLJDK@BOTH_FLIP_LEFT?$AA@ 4003dd78     ui_main.obj
 0002:00006d88       ??_C@_0BF@NLFLOFGE@BOTH_CARTWHEEL_RIGHT?$AA@ 4003dd88     ui_main.obj
 0002:00006da0       ??_C@_0BE@POJJIGPG@BOTH_CARTWHEEL_LEFT?$AA@ 4003dda0     ui_main.obj
 0002:00006db4       ??_C@_0BB@HOMELNKD@BOTH_ARIAL_RIGHT?$AA@ 4003ddb4     ui_main.obj
 0002:00006dc8       ??_C@_0BA@GLHECKNB@BOTH_ARIAL_LEFT?$AA@ 4003ddc8     ui_main.obj
 0002:00006dd8       ??_C@_0BD@JOGFDMEG@BOTH_VICTORY_STAFF?$AA@ 4003ddd8     ui_main.obj
 0002:00006dec       ??_C@_0BC@OIFMFNP@BOTH_VICTORY_DUAL?$AA@ 4003ddec     ui_main.obj
 0002:00006e00       ??_C@_0BE@HEECKLDL@BOTH_VICTORY_STRONG?$AA@ 4003de00     ui_main.obj
 0002:00006e14       ??_C@_0BE@KLHOAEHD@BOTH_VICTORY_MEDIUM?$AA@ 4003de14     ui_main.obj
 0002:00006e28       ??_C@_0BC@DGIHLJDA@BOTH_VICTORY_FAST?$AA@ 4003de28     ui_main.obj
 0002:00006e3c       ??_C@_0BD@PAPJANE@BOTH_SHOWOFF_STAFF?$AA@ 4003de3c     ui_main.obj
 0002:00006e50       ??_C@_0BC@EFMAJB@BOTH_SHOWOFF_DUAL?$AA@ 4003de50     ui_main.obj
 0002:00006e64       ??_C@_0BE@GKNCDDPP@BOTH_SHOWOFF_STRONG?$AA@ 4003de64     ui_main.obj
 0002:00006e78       ??_C@_0BE@LFOOJMLH@BOTH_SHOWOFF_MEDIUM?$AA@ 4003de78     ui_main.obj
 0002:00006e8c       ??_C@_0BC@DIEHLMHO@BOTH_SHOWOFF_FAST?$AA@ 4003de8c     ui_main.obj
 0002:00006ea0       ??_C@_0BC@DILNBIJM@BOTH_MEDITATE_END?$AA@ 4003dea0     ui_main.obj
 0002:00006eb4       ??_C@_0O@NBLEPMIO@BOTH_MEDITATE?$AA@ 4003deb4     ui_main.obj
 0002:00006ec4       ??_C@_08CINMJMPG@BOTH_BOW?$AA@ 4003dec4     ui_main.obj
 0002:00006ed0       ??_C@_0BB@EBJHHEMP@BOTH_ENGAGETAUNT?$AA@ 4003ded0     ui_main.obj
 0002:00006ee4       ??_C@_0BC@GDJJMPG@BOTH_DODGE_HOLD_R?$AA@ 4003dee4     ui_main.obj
 0002:00006ef8       ??_C@_0BC@NCHIKDCJ@BOTH_DODGE_HOLD_L?$AA@ 4003def8     ui_main.obj
 0002:00006f0c       ??_C@_0BD@MAHDPCBD@BOTH_DODGE_HOLD_BR?$AA@ 4003df0c     ui_main.obj
 0002:00006f20       ??_C@_0BD@BEDCMNMM@BOTH_DODGE_HOLD_BL?$AA@ 4003df20     ui_main.obj
 0002:00006f34       ??_C@_0BD@MHHKFKMP@BOTH_DODGE_HOLD_FR?$AA@ 4003df34     ui_main.obj
 0002:00006f48       ??_C@_0BD@BDDLGFBA@BOTH_DODGE_HOLD_FL?$AA@ 4003df48     ui_main.obj
 0002:00006f5c       ??_C@_0N@KFGFCJLJ@BOTH_DODGE_R?$AA@ 4003df5c     ui_main.obj
 0002:00006f6c       ??_C@_0N@HBCEBGGG@BOTH_DODGE_L?$AA@ 4003df6c     ui_main.obj
 0002:00006f7c       ??_C@_0O@CGLDPCKH@BOTH_DODGE_BR?$AA@ 4003df7c     ui_main.obj
 0002:00006f8c       ??_C@_0O@PCPCMNHI@BOTH_DODGE_BL?$AA@ 4003df8c     ui_main.obj
 0002:00006f9c       ??_C@_0O@CBLKFKHL@BOTH_DODGE_FR?$AA@ 4003df9c     ui_main.obj
 0002:00006fac       ??_C@_0O@PFPLGFKE@BOTH_DODGE_FL?$AA@ 4003dfac     ui_main.obj
 0002:00006fbc       ??_C@_0L@GIHOPMAM@BOTH_HOP_R?$AA@ 4003dfbc     ui_main.obj
 0002:00006fc8       ??_C@_0L@LMDPMDND@BOTH_HOP_L?$AA@ 4003dfc8     ui_main.obj
 0002:00006fd4       ??_C@_0L@CCLMOOFN@BOTH_HOP_B?$AA@ 4003dfd4     ui_main.obj
 0002:00006fe0       ??_C@_0L@EGNACLFJ@BOTH_HOP_F?$AA@ 4003dfe0     ui_main.obj
 0002:00006fec       ??_C@_0M@KNJJNPCA@BOTH_ROLL_R?$AA@ 4003dfec     ui_main.obj
 0002:00006ff8       ??_C@_0M@HJNIOAPP@BOTH_ROLL_L?$AA@ 4003dff8     ui_main.obj
 0002:00007004       ??_C@_0M@OHFLMNHB@BOTH_ROLL_B?$AA@ 4003e004     ui_main.obj
 0002:00007010       ??_C@_0M@IDDHAIHF@BOTH_ROLL_F?$AA@ 4003e010     ui_main.obj
 0002:0000701c       ??_C@_0M@GKLDHCAE@BOTH_FLIP_R?$AA@ 4003e01c     ui_main.obj
 0002:00007028       ??_C@_0M@LOPCENNL@BOTH_FLIP_L?$AA@ 4003e028     ui_main.obj
 0002:00007034       ??_C@_0M@CAHBGAFF@BOTH_FLIP_B?$AA@ 4003e034     ui_main.obj
 0002:00007040       ??_C@_0M@EEBNKFFB@BOTH_FLIP_F?$AA@ 4003e040     ui_main.obj
 0002:0000704c       ??_C@_0BF@GPIHFNCP@BOTH_FORCELANDRIGHT1?$AA@ 4003e04c     ui_main.obj
 0002:00007064       ??_C@_0BG@OPKMFNMD@BOTH_FORCEINAIRRIGHT1?$AA@ 4003e064     ui_main.obj
 0002:0000707c       ??_C@_0BF@GIALLFOK@BOTH_FORCEJUMPRIGHT1?$AA@ 4003e07c     ui_main.obj
 0002:00007094       ??_C@_0BE@CPNCOCJF@BOTH_FORCELANDLEFT1?$AA@ 4003e094     ui_main.obj
 0002:000070a8       ??_C@_0BF@GBLFMFAA@BOTH_FORCEINAIRLEFT1?$AA@ 4003e0a8     ui_main.obj
 0002:000070c0       ??_C@_0BE@MOPODOJB@BOTH_FORCEJUMPLEFT1?$AA@ 4003e0c0     ui_main.obj
 0002:000070d4       ??_C@_0BE@MAPMDBFK@BOTH_FORCELANDBACK1?$AA@ 4003e0d4     ui_main.obj
 0002:000070e8       ??_C@_0BF@IOJLBGMP@BOTH_FORCEINAIRBACK1?$AA@ 4003e0e8     ui_main.obj
 0002:00007100       ??_C@_0BE@CBNAONFO@BOTH_FORCEJUMPBACK1?$AA@ 4003e100     ui_main.obj
 0002:00007114       ??_C@_0BA@NIOKNDAB@BOTH_FORCELAND1?$AA@ 4003e114     ui_main.obj
 0002:00007124       ??_C@_0BB@CIEHHKPA@BOTH_FORCEINAIR1?$AA@ 4003e124     ui_main.obj
 0002:00007138       ??_C@_0BA@JCEJKFBM@BOTH_FORCEJUMP1?$AA@ 4003e138     ui_main.obj
 0002:00007148       ??_C@_0BA@CAAEDJLF@BOTH_LANDRIGHT1?$AA@ 4003e148     ui_main.obj
 0002:00007158       ??_C@_0BB@PPDJKEPN@BOTH_INAIRRIGHT1?$AA@ 4003e158     ui_main.obj
 0002:0000716c       ??_C@_0BA@CHIINBHA@BOTH_JUMPRIGHT1?$AA@ 4003e16c     ui_main.obj
 0002:0000717c       ??_C@_0P@HDEECKDG@BOTH_LANDLEFT1?$AA@ 4003e17c     ui_main.obj
 0002:0000718c       ??_C@_0BA@CODGKBJK@BOTH_INAIRLEFT1?$AA@ 4003e18c     ui_main.obj
 0002:0000719c       ??_C@_0P@JCGIPGDC@BOTH_JUMPLEFT1?$AA@ 4003e19c     ui_main.obj
 0002:000071ac       ??_C@_0P@JMGKPJPJ@BOTH_LANDBACK1?$AA@ 4003e1ac     ui_main.obj
 0002:000071bc       ??_C@_0BA@MBBIHCFF@BOTH_INAIRBACK1?$AA@ 4003e1bc     ui_main.obj
 0002:000071cc       ??_C@_0P@HNEGCFPN@BOTH_JUMPBACK1?$AA@ 4003e1cc     ui_main.obj
 0002:000071dc       ??_C@_0L@IJJHAHOB@BOTH_LAND2?$AA@ 4003e1dc     ui_main.obj
 0002:000071e8       ??_C@_0L@KCLKFECC@BOTH_LAND1?$AA@ 4003e1e8     ui_main.obj
 0002:000071f4       ??_C@_0M@IKFKFLAF@BOTH_INAIR1?$AA@ 4003e1f4     ui_main.obj
 0002:00007200       ??_C@_0L@OIBJCCDP@BOTH_JUMP1?$AA@ 4003e200     ui_main.obj
 0002:0000720c       ??_C@_0O@GFMMDEIN@BOTH_RUNBACK2?$AA@ 4003e20c     ui_main.obj
 0002:0000721c       ??_C@_0O@EOOBGHEO@BOTH_RUNBACK1?$AA@ 4003e21c     ui_main.obj
 0002:0000722c       ??_C@_0P@NMGEKHLB@BOTH_WALKBACK2?$AA@ 4003e22c     ui_main.obj
 0002:0000723c       ??_C@_0P@PHEJPEHC@BOTH_WALKBACK1?$AA@ 4003e23c     ui_main.obj
 0002:0000724c       ??_C@_0BB@PGPEJHBN@BOTH_TURNCROUCH1?$AA@ 4003e24c     ui_main.obj
 0002:00007260       ??_C@_0BA@KBOEGPN@BOTH_TURNSTAND5?$AA@ 4003e260     ui_main.obj
 0002:00007270       ??_C@_0BA@BDAFHHLM@BOTH_TURNSTAND4?$AA@ 4003e270     ui_main.obj
 0002:00007280       ??_C@_0BA@FMEEOBHL@BOTH_TURNSTAND3?$AA@ 4003e280     ui_main.obj
 0002:00007290       ??_C@_0BA@EFFPNADK@BOTH_TURNSTAND2?$AA@ 4003e290     ui_main.obj
 0002:000072a0       ??_C@_0BA@GOHCIDPJ@BOTH_TURNSTAND1?$AA@ 4003e2a0     ui_main.obj
 0002:000072b0       ??_C@_0BB@NDKEEJJD@BOTH_TURN_RIGHT1?$AA@ 4003e2b0     ui_main.obj
 0002:000072c4       ??_C@_0BA@GKEFEECE@BOTH_TURN_LEFT1?$AA@ 4003e2c4     ui_main.obj
 0002:000072d4       ??_C@_0BG@OGEKFCND@BOTH_RUNSTRAFE_RIGHT1?$AA@ 4003e2d4     ui_main.obj
 0002:000072ec       ??_C@_0BF@DBPGPOAM@BOTH_RUNSTRAFE_LEFT1?$AA@ 4003e2ec     ui_main.obj
 0002:00007304       ??_C@_0BD@LFCECKKK@BOTH_STRAFE_RIGHT1?$AA@ 4003e304     ui_main.obj
 0002:00007318       ??_C@_0BC@OMBNLHPO@BOTH_STRAFE_LEFT1?$AA@ 4003e318     ui_main.obj
 0002:0000732c       ??_C@_0BC@KOJINEFM@BOTH_RUNBACK_DUAL?$AA@ 4003e32c     ui_main.obj
 0002:00007340       ??_C@_0O@NLDNHDFF@BOTH_RUN_DUAL?$AA@ 4003e340     ui_main.obj
 0002:00007350       ??_C@_0BD@OKHEPDMN@BOTH_RUNBACK_STAFF?$AA@ 4003e350     ui_main.obj
 0002:00007364       ??_C@_0P@JDNNOOMO@BOTH_RUN_STAFF?$AA@ 4003e364     ui_main.obj
 0002:00007374       ??_C@_09KDGPMAME@BOTH_RUN4?$AA@ 4003e374     ui_main.obj
 0002:00007380       ??_C@_0BA@DGLFAIMM@BOTH_RUN2TORUN1?$AA@ 4003e380     ui_main.obj
 0002:00007390       ??_C@_0BA@JDBHFMOM@BOTH_RUN1TORUN2?$AA@ 4003e390     ui_main.obj
 0002:000073a0       ??_C@_09PFDFGHEC@BOTH_RUN2?$AA@ 4003e3a0     ui_main.obj
 0002:000073ac       ??_C@_0O@GPFGEBNP@BOTH_RUN1STOP?$AA@ 4003e3ac     ui_main.obj
 0002:000073bc       ??_C@_0P@CLIPKCAJ@BOTH_RUN1START?$AA@ 4003e3bc     ui_main.obj
 0002:000073cc       ??_C@_09NOBIDEIB@BOTH_RUN1?$AA@ 4003e3cc     ui_main.obj
 0002:000073d8       ??_C@_0L@DMKEIOEK@BOTH_WALK7?$AA@ 4003e3d8     ui_main.obj
 0002:000073e4       ??_C@_0L@CFLPLPAL@BOTH_WALK6?$AA@ 4003e3e4     ui_main.obj
 0002:000073f0       ??_C@_0L@OJCOMMI@BOTH_WALK5?$AA@ 4003e3f0     ui_main.obj
 0002:000073fc       ??_C@_0BD@DPFDKICF@BOTH_WALKBACK_DUAL?$AA@ 4003e3fc     ui_main.obj
 0002:00007410       ??_C@_0P@GCJFOAGJ@BOTH_WALK_DUAL?$AA@ 4003e410     ui_main.obj
 0002:00007420       ??_C@_0BE@MDDMPBCJ@BOTH_WALKBACK_STAFF?$AA@ 4003e420     ui_main.obj
 0002:00007434       ??_C@_0BA@LMALDKNK@BOTH_WALK_STAFF?$AA@ 4003e434     ui_main.obj
 0002:00007444       ??_C@_0L@EBNDHKAP@BOTH_WALK2?$AA@ 4003e444     ui_main.obj
 0002:00007450       ??_C@_0L@GKPOCJMM@BOTH_WALK1?$AA@ 4003e450     ui_main.obj
 0002:0000745c       ??_C@_0P@OGCNLGGI@BOTH_KNEES2TO1?$AA@ 4003e45c     ui_main.obj
 0002:0000746c       ??_C@_0M@IIHMGKKA@BOTH_KNEES2?$AA@ 4003e46c     ui_main.obj
 0002:00007478       ??_C@_0M@KDFBDJGD@BOTH_KNEES1?$AA@ 4003e478     ui_main.obj
 0002:00007484       ??_C@_0BD@FOKLKMPB@BOTH_DEATH14_SITUP?$AA@ 4003e484     ui_main.obj
 0002:00007498       ??_C@_0BE@KHOKHMOE@BOTH_DEATH14_UNGRIP?$AA@ 4003e498     ui_main.obj
 0002:000074ac       ??_C@_0BB@KCBPOOGE@BOTH_WINGS_CLOSE?$AA@ 4003e4ac     ui_main.obj
 0002:000074c0       ??_C@_0BA@FDONEPNA@BOTH_WINGS_OPEN?$AA@ 4003e4c0     ui_main.obj
 0002:000074d0       ??_C@_0BB@LDEBMNOM@BOTH_GEARS_CLOSE?$AA@ 4003e4d0     ui_main.obj
 0002:000074e4       ??_C@_0BA@MMFJLAL@BOTH_GEARS_OPEN?$AA@ 4003e4e4     ui_main.obj
 0002:000074f4       ??_C@_0O@GFAOOOBE@BOTH_VT_ATF_G?$AA@ 4003e4f4     ui_main.obj
 0002:00007504       ??_C@_0O@KLDAOHA@BOTH_VT_ATL_G?$AA@ 4003e504     ui_main.obj
 0002:00007514       ??_C@_0O@LKHFCONM@BOTH_VT_ATR_G?$AA@ 4003e514     ui_main.obj
 0002:00007524       ??_C@_0BD@KBPDPJPM@BOTH_VT_ATL_TO_R_S?$AA@ 4003e524     ui_main.obj
 0002:00007538       ??_C@_0BD@HFDHEALD@BOTH_VT_ATR_TO_L_S?$AA@ 4003e538     ui_main.obj
 0002:0000754c       ??_C@_0O@JENLPJIJ@BOTH_VT_ATR_S?$AA@ 4003e54c     ui_main.obj
 0002:0000755c       ??_C@_0O@CEBNNJCF@BOTH_VT_ATL_S?$AA@ 4003e55c     ui_main.obj
 0002:0000756c       ??_C@_0P@JDHAFDKN@BOTH_VT_IDLE_T?$AA@ 4003e56c     ui_main.obj
 0002:0000757c       ??_C@_0P@PCJPBCDP@BOTH_VT_IDLE_G?$AA@ 4003e57c     ui_main.obj
 0002:0000758c       ??_C@_0P@NMDBMFGK@BOTH_VT_IDLE_S?$AA@ 4003e58c     ui_main.obj
 0002:0000759c       ??_C@_0O@OONEODEJ@BOTH_VT_IDLE1?$AA@ 4003e59c     ui_main.obj
 0002:000075ac       ??_C@_0N@ILFMGFDI@BOTH_VT_IDLE?$AA@ 4003e5ac     ui_main.obj
 0002:000075bc       ??_C@_0BA@CFDGIGFF@BOTH_VT_IDLE_SR?$AA@ 4003e5bc     ui_main.obj
 0002:000075cc       ??_C@_0BA@PBHHLJIK@BOTH_VT_IDLE_SL?$AA@ 4003e5cc     ui_main.obj
 0002:000075dc       ??_C@_0O@ICJCOGP@BOTH_VT_TURBO?$AA@ 4003e5dc     ui_main.obj
 0002:000075ec       ??_C@_0N@GOPNPPFF@BOTH_VT_LAND?$AA@ 4003e5ec     ui_main.obj
 0002:000075fc       ??_C@_0N@IBPGAOGA@BOTH_VT_BUCK?$AA@ 4003e5fc     ui_main.obj
 0002:0000760c       ??_C@_0O@IAAOOPLJ@BOTH_VT_STAND?$AA@ 4003e60c     ui_main.obj
 0002:0000761c       ??_C@_0P@CICNDPJE@BOTH_VT_DEATH1?$AA@ 4003e61c     ui_main.obj
 0002:0000762c       ??_C@_0O@DJGGCALJ@BOTH_VT_PAIN1?$AA@ 4003e62c     ui_main.obj
 0002:0000763c       ??_C@_0M@KDHKMBFE@BOTH_VT_ATB?$AA@ 4003e63c     ui_main.obj
 0002:00007648       ??_C@_0M@PNEGODCG@BOTH_VT_AIR?$AA@ 4003e648     ui_main.obj
 0002:00007654       ??_C@_0P@KFJEKMCA@BOTH_VT_SLIDEF?$AA@ 4003e654     ui_main.obj
 0002:00007664       ??_C@_0BC@GNCPOJGJ@BOTH_VT_RUN_FWD_R?$AA@ 4003e664     ui_main.obj
 0002:00007678       ??_C@_0BC@LJGONGLG@BOTH_VT_RUN_FWD_L?$AA@ 4003e678     ui_main.obj
 0002:0000768c       ??_C@_0BA@CMHLNAGB@BOTH_VT_RUN_REV?$AA@ 4003e68c     ui_main.obj
 0002:0000769c       ??_C@_0BA@JEFGBHGE@BOTH_VT_RUN_FWD?$AA@ 4003e69c     ui_main.obj
 0002:000076ac       ??_C@_0BD@KHNHPFPI@BOTH_VT_WALK_FWD_R?$AA@ 4003e6ac     ui_main.obj
 0002:000076c0       ??_C@_0BD@HDJGMKCH@BOTH_VT_WALK_FWD_L?$AA@ 4003e6c0     ui_main.obj
 0002:000076d4       ??_C@_0BB@EAPIENEI@BOTH_VT_WALK_REV?$AA@ 4003e6d4     ui_main.obj
 0002:000076e8       ??_C@_0BB@PINFIKEN@BOTH_VT_WALK_FWD?$AA@ 4003e6e8     ui_main.obj
 0002:000076fc       ??_C@_0BD@OJHHNNHG@BOTH_VT_DISMOUNT_R?$AA@ 4003e6fc     ui_main.obj
 0002:00007710       ??_C@_0BD@DNDGOCKJ@BOTH_VT_DISMOUNT_L?$AA@ 4003e710     ui_main.obj
 0002:00007724       ??_C@_0BB@ICMLAFCL@BOTH_VT_DISMOUNT?$AA@ 4003e724     ui_main.obj
 0002:00007738       ??_C@_0BA@GEKLNCCD@BOTH_VT_MOUNT_B?$AA@ 4003e738     ui_main.obj
 0002:00007748       ??_C@_0BA@COGJMAHC@BOTH_VT_MOUNT_R?$AA@ 4003e748     ui_main.obj
 0002:00007758       ??_C@_0BA@PKCIPPKN@BOTH_VT_MOUNT_L?$AA@ 4003e758     ui_main.obj
 0002:00007768       ??_C@_0O@DDKDCJKA@BOTH_VS_PAIN1?$AA@ 4003e768     ui_main.obj
 0002:00007778       ??_C@_0O@GPMLOHAN@BOTH_VS_ATF_G?$AA@ 4003e778     ui_main.obj
 0002:00007788       ??_C@_0O@HGAHGJ@BOTH_VS_ATL_G?$AA@ 4003e788     ui_main.obj
 0002:00007798       ??_C@_0O@LALACHMF@BOTH_VS_ATR_G?$AA@ 4003e798     ui_main.obj
 0002:000077a8       ??_C@_0BD@NMIAPPKE@BOTH_VS_ATL_TO_R_S?$AA@ 4003e7a8     ui_main.obj
 0002:000077bc       ??_C@_0BD@IEEEGOL@BOTH_VS_ATR_TO_L_S?$AA@ 4003e7bc     ui_main.obj
 0002:000077d0       ??_C@_0O@JOBOPAJA@BOTH_VS_ATR_S?$AA@ 4003e7d0     ui_main.obj
 0002:000077e0       ??_C@_0O@CONINADM@BOTH_VS_ATL_S?$AA@ 4003e7e0     ui_main.obj
 0002:000077f0       ??_C@_0BB@IEDLHMEE@BOTH_VS_LEANR_SR?$AA@ 4003e7f0     ui_main.obj
 0002:00007804       ??_C@_0BB@FAHKEDJL@BOTH_VS_LEANR_SL?$AA@ 4003e804     ui_main.obj
 0002:00007818       ??_C@_0BA@COPGHNJO@BOTH_VS_LEANR_G?$AA@ 4003e818     ui_main.obj
 0002:00007828       ??_C@_0O@DJFDFNAL@BOTH_VS_LEANR?$AA@ 4003e828     ui_main.obj
 0002:00007838       ??_C@_0BB@FLOLFFKH@BOTH_VS_LEANL_SR?$AA@ 4003e838     ui_main.obj
 0002:0000784c       ??_C@_0BB@IPKKGKHI@BOTH_VS_LEANL_SL?$AA@ 4003e84c     ui_main.obj
 0002:00007860       ??_C@_0BA@JODAFNDC@BOTH_VS_LEANL_G?$AA@ 4003e860     ui_main.obj
 0002:00007870       ??_C@_0O@ONBCGCNE@BOTH_VS_LEANL?$AA@ 4003e870     ui_main.obj
 0002:00007880       ??_C@_0BA@MHOKJNCM@BOTH_VS_IDLE_SR?$AA@ 4003e880     ui_main.obj
 0002:00007890       ??_C@_0BA@BDKLKCPD@BOTH_VS_IDLE_SL?$AA@ 4003e890     ui_main.obj
 0002:000078a0       ??_C@_0P@JGPOHPPG@BOTH_VS_IDLE_G?$AA@ 4003e8a0     ui_main.obj
 0002:000078b0       ??_C@_0N@EOPLFLLG@BOTH_VS_IDLE?$AA@ 4003e8b0     ui_main.obj
 0002:000078c0       ??_C@_0BA@KNJKDEFE@BOTH_VS_LAND_SR?$AA@ 4003e8c0     ui_main.obj
 0002:000078d0       ??_C@_0BA@HJNLALIL@BOTH_VS_LAND_SL?$AA@ 4003e8d0     ui_main.obj
 0002:000078e0       ??_C@_0P@FGHHPFOH@BOTH_VS_LAND_G?$AA@ 4003e8e0     ui_main.obj
 0002:000078f0       ??_C@_0N@KLFKMBNL@BOTH_VS_LAND?$AA@ 4003e8f0     ui_main.obj
 0002:00007900       ??_C@_0P@MHFEKDCH@BOTH_VS_AIR_SR?$AA@ 4003e900     ui_main.obj
 0002:00007910       ??_C@_0P@BDBFJMPI@BOTH_VS_AIR_SL?$AA@ 4003e910     ui_main.obj
 0002:00007920       ??_C@_0O@CIMAHEPG@BOTH_VS_AIR_G?$AA@ 4003e920     ui_main.obj
 0002:00007930       ??_C@_0M@OAEDNDJO@BOTH_VS_AIR?$AA@ 4003e930     ui_main.obj
 0002:0000793c       ??_C@_0M@MPJJBHIP@BOTH_VS_REV?$AA@ 4003e93c     ui_main.obj
 0002:00007948       ??_C@_0O@COMCHHG@BOTH_VS_TURBO?$AA@ 4003e948     ui_main.obj
 0002:00007958       ??_C@_0BC@FMBEBFOC@BOTH_VS_LOOKRIGHT?$AA@ 4003e958     ui_main.obj
 0002:0000796c       ??_C@_0BB@LJMKNCGH@BOTH_VS_LOOKLEFT?$AA@ 4003e96c     ui_main.obj
 0002:00007980       ??_C@_0BF@IKPLNBPC@BOTH_VS_MOUNTTHROWEE?$AA@ 4003e980     ui_main.obj
 0002:00007998       ??_C@_0BF@JOMJHDMC@BOTH_VS_MOUNTTHROW_R?$AA@ 4003e998     ui_main.obj
 0002:000079b0       ??_C@_0BF@EKIIEMBN@BOTH_VS_MOUNTTHROW_L?$AA@ 4003e9b0     ui_main.obj
 0002:000079c8       ??_C@_0BD@HKDNANFN@BOTH_VS_MOUNTTHROW?$AA@ 4003e9c8     ui_main.obj
 0002:000079dc       ??_C@_0BE@CFBMPALJ@BOTH_VS_MOUNTJUMP_L?$AA@ 4003e9dc     ui_main.obj
 0002:000079f0       ??_C@_0BD@JEAENLCO@BOTH_VS_DISMOUNT_R?$AA@ 4003e9f0     ui_main.obj
 0002:00007a04       ??_C@_0BA@MMLFNLAL@BOTH_VS_MOUNT_R?$AA@ 4003ea04     ui_main.obj
 0002:00007a14       ??_C@_0BD@EAEFOEPB@BOTH_VS_DISMOUNT_L?$AA@ 4003ea14     ui_main.obj
 0002:00007a28       ??_C@_0BA@BIPEOENE@BOTH_VS_MOUNT_L?$AA@ 4003ea28     ui_main.obj
 0002:00007a38       ??_C@_0N@NEOMJHMD@BOTH_GUNSIT1?$AA@ 4003ea38     ui_main.obj
 0002:00007a48       ??_C@_0P@FBKMEIKP@BOTH_UNCROUCH4?$AA@ 4003ea48     ui_main.obj
 0002:00007a58       ??_C@_0N@NGOLMPIH@BOTH_CROUCH4?$AA@ 4003ea58     ui_main.obj
 0002:00007a68       ??_C@_0P@BOONNOGI@BOTH_UNCROUCH3?$AA@ 4003ea68     ui_main.obj
 0002:00007a78       ??_C@_0N@JJKKFJEA@BOTH_CROUCH3?$AA@ 4003ea78     ui_main.obj
 0002:00007a88       ??_C@_0BF@OBDEHHPH@BOTH_CROUCH2TOSTAND1?$AA@ 4003ea88     ui_main.obj
 0002:00007aa0       ??_C@_0P@CMNLLMOK@BOTH_UNCROUCH1?$AA@ 4003eaa0     ui_main.obj
 0002:00007ab0       ??_C@_0BF@IKEOFDBF@BOTH_CROUCH1WALKBACK?$AA@ 4003eab0     ui_main.obj
 0002:00007ac8       ??_C@_0BB@KLBMFNGD@BOTH_CROUCH1WALK?$AA@ 4003eac8     ui_main.obj
 0002:00007adc       ??_C@_0BB@NNJBKJDM@BOTH_CROUCH1IDLE?$AA@ 4003eadc     ui_main.obj
 0002:00007af0       ??_C@_0N@KLJMDLMC@BOTH_CROUCH1?$AA@ 4003eaf0     ui_main.obj
 0002:00007b00       ??_C@_0BC@BHAOLAOM@BOTH_SIT3TOSTAND5?$AA@ 4003eb00     ui_main.obj
 0002:00007b14       ??_C@_0BA@LICOGNPB@BOTH_SIT2TOSIT4?$AA@ 4003eb14     ui_main.obj
 0002:00007b24       ??_C@_0BC@LANJPAEM@BOTH_STAND5TOSIT2?$AA@ 4003eb24     ui_main.obj
 0002:00007b38       ??_C@_0BC@PIMMNLNC@BOTH_SIT2TOSTAND5?$AA@ 4003eb38     ui_main.obj
 0002:00007b4c       ??_C@_09NKDALBDC@BOTH_SIT3?$AA@ 4003eb4c     ui_main.obj
 0002:00007b58       ??_C@_09MDCLIAHD@BOTH_SIT2?$AA@ 4003eb58     ui_main.obj
 0002:00007b64       ??_C@_09OIAGNDLA@BOTH_SIT1?$AA@ 4003eb64     ui_main.obj
 0002:00007b70       ??_C@_0BF@IPAEPPNA@BOTH_SABERTHROW2STOP?$AA@ 4003eb70     ui_main.obj
 0002:00007b88       ??_C@_0BG@LLNAONCG@BOTH_SABERTHROW2START?$AA@ 4003eb88     ui_main.obj
 0002:00007ba0       ??_C@_0BF@JJAINHO@BOTH_SABERTHROW1STOP?$AA@ 4003eba0     ui_main.obj
 0002:00007bb8       ??_C@_0BG@IKDIPHLL@BOTH_SABERTHROW1START?$AA@ 4003ebb8     ui_main.obj
 0002:00007bd0       ??_C@_0BB@OHEDMGHA@BOTH_HUGGEESTOP1?$AA@ 4003ebd0     ui_main.obj
 0002:00007be4       ??_C@_0N@OIJBJDBK@BOTH_HUGGEE1?$AA@ 4003ebe4     ui_main.obj
 0002:00007bf4       ??_C@_0BB@EFDKGEDA@BOTH_HUGGERSTOP1?$AA@ 4003ebf4     ui_main.obj
 0002:00007c08       ??_C@_0N@PBPICGOP@BOTH_HUGGER1?$AA@ 4003ec08     ui_main.obj
 0002:00007c18       ??_C@_0BC@DNFCOFMA@BOTH_SABERKILLEE1?$AA@ 4003ec18     ui_main.obj
 0002:00007c2c       ??_C@_0BC@CEDLFADF@BOTH_SABERKILLER1?$AA@ 4003ec2c     ui_main.obj
 0002:00007c40       ??_C@_0BE@LPKJJENM@BOTH_REACHFORSABER1?$AA@ 4003ec40     ui_main.obj
 0002:00007c54       ??_C@_0BF@HGBIDKLM@BOTH_SILENCEGESTURE1?$AA@ 4003ec54     ui_main.obj
 0002:00007c6c       ??_C@_0BE@EEMNDGPF@BOTH_STEADYSELF1END?$AA@ 4003ec6c     ui_main.obj
 0002:00007c80       ??_C@_0BB@BHOCMBMP@BOTH_STEADYSELF1?$AA@ 4003ec80     ui_main.obj
 0002:00007c94       ??_C@_0O@KHABGCAK@BOTH_COME_ON1?$AA@ 4003ec94     ui_main.obj
 0002:00007ca4       ??_C@_0BA@MHPGDDPE@BOTH_REACH1STOP?$AA@ 4003eca4     ui_main.obj
 0002:00007cb4       ??_C@_0BB@IHJLPLDL@BOTH_REACH1START?$AA@ 4003ecb4     ui_main.obj
 0002:00007cc8       ??_C@_0BH@KHIEGBCO@BOTH_SIT2HEADTILTLSTOP?$AA@ 4003ecc8     ui_main.obj
 0002:00007ce0       ??_C@_0BI@OBPNLCKD@BOTH_SIT2HEADTILTLSTART?$AA@ 4003ece0     ui_main.obj
 0002:00007cf8       ??_C@_0P@DFINNNBF@BOTH_HEADSHAKE?$AA@ 4003ecf8     ui_main.obj
 0002:00007d08       ??_C@_0N@JGGIBJHN@BOTH_HEADNOD?$AA@ 4003ed08     ui_main.obj
 0002:00007d18       ??_C@_0BD@CBEOFNED@BOTH_HEADTILTRSTOP?$AA@ 4003ed18     ui_main.obj
 0002:00007d2c       ??_C@_0BE@NCHIGFHK@BOTH_HEADTILTRSTART?$AA@ 4003ed2c     ui_main.obj
 0002:00007d40       ??_C@_0BD@BIJCDOKI@BOTH_HEADTILTLSTOP?$AA@ 4003ed40     ui_main.obj
 0002:00007d54       ??_C@_0BE@OFJJICOJ@BOTH_HEADTILTLSTART?$AA@ 4003ed54     ui_main.obj
 0002:00007d68       ??_C@_0BC@HDFGDEIC@BOTH_TALKGESTURE1?$AA@ 4003ed68     ui_main.obj
 0002:00007d7c       ??_C@_0BD@KGADCINA@BOTH_TALKCOMM1STOP?$AA@ 4003ed7c     ui_main.obj
 0002:00007d90       ??_C@_0P@IMEACJDE@BOTH_TALKCOMM1?$AA@ 4003ed90     ui_main.obj
 0002:00007da0       ??_C@_0BE@LLPJOKPB@BOTH_TALKCOMM1START?$AA@ 4003eda0     ui_main.obj
 0002:00007db4       ??_C@_0L@MHEHAIKB@BOTH_TALK2?$AA@ 4003edb4     ui_main.obj
 0002:00007dc0       ??_C@_0L@OMGKFLGC@BOTH_TALK1?$AA@ 4003edc0     ui_main.obj
 0002:00007dcc       ??_C@_0BE@OAMCANFF@BOTH_WALK1TALKCOMM1?$AA@ 4003edcc     ui_main.obj
 0002:00007de0       ??_C@_0O@FLPNDCKC@BOTH_GESTURE2?$AA@ 4003ede0     ui_main.obj
 0002:00007df0       ??_C@_0O@HANAGBGB@BOTH_GESTURE1?$AA@ 4003edf0     ui_main.obj
 0002:00007e00       ??_C@_0BB@LLGPJFGM@BOTH_GUARD_IDLE1?$AA@ 4003ee00     ui_main.obj
 0002:00007e14       ??_C@_0BH@IIALJNIM@BOTH_GUARD_LOOKAROUND1?$AA@ 4003ee14     ui_main.obj
 0002:00007e2c       ??_C@_0BJ@PHBEHMKF@BOTH_CONSOLE2HOLDCOMSTOP?$AA@ 4003ee2c     ui_main.obj
 0002:00007e48       ??_C@_0BK@JLMHHIBG@BOTH_CONSOLE2HOLDCOMSTART?$AA@ 4003ee48     ui_main.obj
 0002:00007e64       ??_C@_0BC@JKGILGAP@BOTH_CONSOLE2STOP?$AA@ 4003ee64     ui_main.obj
 0002:00007e78       ??_C@_0O@BGELBNFP@BOTH_CONSOLE2?$AA@ 4003ee78     ui_main.obj
 0002:00007e88       ??_C@_0BD@KNKJEOCK@BOTH_CONSOLE2START?$AA@ 4003ee88     ui_main.obj
 0002:00007e9c       ??_C@_0BC@BMPMMEKB@BOTH_CONSOLE1STOP?$AA@ 4003ee9c     ui_main.obj
 0002:00007eb0       ??_C@_0O@DNGGEOJM@BOTH_CONSOLE1?$AA@ 4003eeb0     ui_main.obj
 0002:00007ec0       ??_C@_0BD@JMEBFELH@BOTH_CONSOLE1START?$AA@ 4003eec0     ui_main.obj
 0002:00007ed4       ??_C@_0BL@HDGAEFLK@BOTH_STAND5LOOK180LEFTSTOP?$AA@ 4003eed4     ui_main.obj
 0002:00007ef0       ??_C@_0BM@BGELABNK@BOTH_STAND5LOOK180LEFTSTART?$AA@ 4003eef0     ui_main.obj
 0002:00007f0c       ??_C@_0BJ@HFICOBLF@BOTH_STAND5TURNRIGHTSTOP?$AA@ 4003ef0c     ui_main.obj
 0002:00007f28       ??_C@_0BK@IGPCPOOP@BOTH_STAND5TURNRIGHTSTART?$AA@ 4003ef28     ui_main.obj
 0002:00007f44       ??_C@_0BI@JADJJLGI@BOTH_STAND5TURNLEFTSTOP?$AA@ 4003ef44     ui_main.obj
 0002:00007f5c       ??_C@_0BJ@HOHFOLPM@BOTH_STAND5TURNLEFTSTART?$AA@ 4003ef5c     ui_main.obj
 0002:00007f78       ??_C@_0BL@EHCDGJJ@BOTH_STAND5SHIFTWEIGHTSTOP?$AA@ 4003ef78     ui_main.obj
 0002:00007f94       ??_C@_0BM@LEFLGCNL@BOTH_STAND5SHIFTWEIGHTSTART?$AA@ 4003ef94     ui_main.obj
 0002:00007fb0       ??_C@_0BH@LKALMHBN@BOTH_STAND5SHIFTWEIGHT?$AA@ 4003efb0     ui_main.obj
 0002:00007fc8       ??_C@_0BB@NHGNFEJF@BOTH_STAND9IDLE1?$AA@ 4003efc8     ui_main.obj
 0002:00007fdc       ??_C@_0M@KGBMNEAL@BOTH_STAND9?$AA@ 4003efdc     ui_main.obj
 0002:00007fe8       ??_C@_0BE@PHIMDIEF@BOTH_STAND8TOSTAND5?$AA@ 4003efe8     ui_main.obj
 0002:00007ffc       ??_C@_0BE@LDCJBNIF@BOTH_STAND7TOSTAND8?$AA@ 4003effc     ui_main.obj
 0002:00008010       ??_C@_0BE@LHNMMNLI@BOTH_STAND5TOSTAND8?$AA@ 4003f010     ui_main.obj
 0002:00008024       ??_C@_0BO@JCPBABCF@BOTH_STARTLEDLOOKLEFTTOSTAND5?$AA@ 4003f024     ui_main.obj
 0002:00008044       ??_C@_0BM@LKMKNIB@BOTH_STAND5STARTLEDLOOKLEFT?$AA@ 4003f044     ui_main.obj
 0002:00008060       ??_C@_0BB@KAKPAJPG@BOTH_STAND5TOAIM?$AA@ 4003f060     ui_main.obj
 0002:00008074       ??_C@_0BE@GGBOHGPB@BOTH_STAND5TOSTAND1?$AA@ 4003f074     ui_main.obj
 0002:00008088       ??_C@_0BE@LJJBDIP@BOTH_STAND1TOSTAND5?$AA@ 4003f088     ui_main.obj
 0002:0000809c       ??_C@_0BC@KJMCMBAN@BOTH_STAND5TOSIT3?$AA@ 4003f09c     ui_main.obj
 0002:000080b0       ??_C@_0O@JCHGFLGA@BOTH_STANDUP2?$AA@ 4003f0b0     ui_main.obj
 0002:000080c0       ??_C@_0BF@MNEGLANN@BOTH_STAND4TOATTACK2?$AA@ 4003f0c0     ui_main.obj
 0002:000080d8       ??_C@_0P@NHEJHBNL@BOTH_STAND4TO2?$AA@ 4003f0d8     ui_main.obj
 0002:000080e8       ??_C@_0P@OFDCDPN@BOTH_STAND2TO4?$AA@ 4003f0e8     ui_main.obj
 0002:000080f8       ??_C@_0P@HDCENHLI@BOTH_STAND2TO1?$AA@ 4003f0f8     ui_main.obj
 0002:00008108       ??_C@_0P@BPKJPOKL@BOTH_STAND1TO2?$AA@ 4003f108     ui_main.obj
 0002:00008118       ??_C@_0M@LPAHOFEK@BOTH_STAND8?$AA@ 4003f118     ui_main.obj
 0002:00008124       ??_C@_0M@CBIEMIME@BOTH_STAND6?$AA@ 4003f124     ui_main.obj
 0002:00008130       ??_C@_0BB@BAMNDOOB@BOTH_STAND5IDLE1?$AA@ 4003f130     ui_main.obj
 0002:00008144       ??_C@_0M@KKJJLAH@BOTH_STAND5?$AA@ 4003f144     ui_main.obj
 0002:00008150       ??_C@_0M@BDLCKKEG@BOTH_STAND4?$AA@ 4003f150     ui_main.obj
 0002:0000815c       ??_C@_0BB@HDBNALNL@BOTH_STAND3IDLE1?$AA@ 4003f15c     ui_main.obj
 0002:00008170       ??_C@_0M@FMPDDMIB@BOTH_STAND3?$AA@ 4003f170     ui_main.obj
 0002:0000817c       ??_C@_0BB@POEHFDKM@BOTH_STAND2IDLE2?$AA@ 4003f17c     ui_main.obj
 0002:00008190       ??_C@_0BB@NFGKAAGP@BOTH_STAND2IDLE1?$AA@ 4003f190     ui_main.obj
 0002:000081a4       ??_C@_0M@EFOIANMA@BOTH_STAND2?$AA@ 4003f1a4     ui_main.obj
 0002:000081b0       ??_C@_0BB@OEICBKPC@BOTH_STAND1IDLE1?$AA@ 4003f1b0     ui_main.obj
 0002:000081c4       ??_C@_0M@GOMFFOAD@BOTH_STAND1?$AA@ 4003f1c4     ui_main.obj
 0002:000081d0       ??_C@_0P@HNCGMPEI@BOTH_ROLL_STAB?$AA@ 4003f1d0     ui_main.obj
 0002:000081e0       ??_C@_0BA@PJPEDJMA@BOTH_A3_SPECIAL?$AA@ 4003f1e0     ui_main.obj
 0002:000081f0       ??_C@_0BA@BGDGFCPO@BOTH_A2_SPECIAL?$AA@ 4003f1f0     ui_main.obj
 0002:00008200       ??_C@_0BA@PNABOJPN@BOTH_A1_SPECIAL?$AA@ 4003f200     ui_main.obj
 0002:00008210       ??_C@_0BA@IPLCAALD@BOTH_A7_SOULCAL?$AA@ 4003f210     ui_main.obj
 0002:00008220       ??_C@_0BF@JKDHMCK@BOTH_A6_SABERPROTECT?$AA@ 4003f220     ui_main.obj
 0002:00008238       ??_C@_0BD@FCALGDP@BOTH_STABDOWN_DUAL?$AA@ 4003f238     ui_main.obj
 0002:0000824c       ??_C@_0BE@DOGEHLEN@BOTH_STABDOWN_STAFF?$AA@ 4003f24c     ui_main.obj
 0002:00008260       ??_C@_0O@FMNFAMJP@BOTH_STABDOWN?$AA@ 4003f260     ui_main.obj
 0002:00008270       ??_C@_0BE@NCOEMLED@BOTH_PULLED_INAIR_F?$AA@ 4003f270     ui_main.obj
 0002:00008284       ??_C@_0BE@LGIIAOEH@BOTH_PULLED_INAIR_B?$AA@ 4003f284     ui_main.obj
 0002:00008298       ??_C@_0BH@ENKMMKI@BOTH_PULL_IMPALE_SWING?$AA@ 4003f298     ui_main.obj
 0002:000082b0       ??_C@_0BG@FJEBNIOP@BOTH_PULL_IMPALE_STAB?$AA@ 4003f2b0     ui_main.obj
 0002:000082c8       ??_C@_0P@FKABGNIE@BOTH_FLIP_LAND?$AA@ 4003f2c8     ui_main.obj
 0002:000082d8       ??_C@_0BA@PECANCJM@BOTH_FLIP_HOLD7?$AA@ 4003f2d8     ui_main.obj
 0002:000082e8       ??_C@_0BC@OAEPKLIJ@BOTH_FLIP_ATTACK7?$AA@ 4003f2e8     ui_main.obj
 0002:000082fc       ??_C@_0BD@MBINELLK@BOTH_A7_KICK_L_AIR?$AA@ 4003f2fc     ui_main.obj
 0002:00008310       ??_C@_0BD@PIFBCIFB@BOTH_A7_KICK_R_AIR?$AA@ 4003f310     ui_main.obj
 0002:00008324       ??_C@_0BD@PLIHCKMK@BOTH_A7_KICK_B_AIR?$AA@ 4003f324     ui_main.obj
 0002:00008338       ??_C@_0BD@GABGGINM@BOTH_A7_KICK_F_AIR?$AA@ 4003f338     ui_main.obj
 0002:0000834c       ??_C@_0BA@CADMNHIP@BOTH_A7_KICK_RL?$AA@ 4003f34c     ui_main.obj
 0002:0000835c       ??_C@_0BF@OPHCPADF@BOTH_A7_KICK_BF_STOP?$AA@ 4003f35c     ui_main.obj
 0002:00008374       ??_C@_0BA@MGPFJMHF@BOTH_A7_KICK_BF?$AA@ 4003f374     ui_main.obj
 0002:00008384       ??_C@_0P@DFCDAAIP@BOTH_A7_KICK_S?$AA@ 4003f384     ui_main.obj
 0002:00008394       ??_C@_0P@PIHJAOBB@BOTH_A7_KICK_L?$AA@ 4003f394     ui_main.obj
 0002:000083a4       ??_C@_0P@CMDIDBMO@BOTH_A7_KICK_R?$AA@ 4003f3a4     ui_main.obj
 0002:000083b4       ??_C@_0P@GGPKCDJP@BOTH_A7_KICK_B?$AA@ 4003f3b4     ui_main.obj
 0002:000083c4       ??_C@_0P@CJGOGJL@BOTH_A7_KICK_F?$AA@ 4003f3c4     ui_main.obj
 0002:000083d4       ??_C@_0BM@OHENEONK@BOTH_FORCEWALLRELEASE_RIGHT?$AA@ 4003f3d4     ui_main.obj
 0002:000083f0       ??_C@_0BL@BABFAMJB@BOTH_FORCEWALLRELEASE_BACK?$AA@ 4003f3f0     ui_main.obj
 0002:0000840c       ??_C@_0BL@OLNGOJNC@BOTH_FORCEWALLRELEASE_LEFT?$AA@ 4003f40c     ui_main.obj
 0002:00008428       ??_C@_0BO@FMNDOIKN@BOTH_FORCEWALLRELEASE_FORWARD?$AA@ 4003f428     ui_main.obj
 0002:00008448       ??_C@_0BJ@CCJINKMK@BOTH_FORCEWALLHOLD_RIGHT?$AA@ 4003f448     ui_main.obj
 0002:00008464       ??_C@_0BI@HPLKKCCJ@BOTH_FORCEWALLHOLD_BACK?$AA@ 4003f464     ui_main.obj
 0002:0000847c       ??_C@_0BI@IEHJEHGK@BOTH_FORCEWALLHOLD_LEFT?$AA@ 4003f47c     ui_main.obj
 0002:00008494       ??_C@_0BL@OBHDGIHE@BOTH_FORCEWALLHOLD_FORWARD?$AA@ 4003f494     ui_main.obj
 0002:000084b0       ??_C@_0BM@FDLDEBGK@BOTH_FORCEWALLREBOUND_RIGHT?$AA@ 4003f4b0     ui_main.obj
 0002:000084cc       ??_C@_0BL@OFKEILGN@BOTH_FORCEWALLREBOUND_BACK?$AA@ 4003f4cc     ui_main.obj
 0002:000084e8       ??_C@_0BL@BOGHGOCO@BOTH_FORCEWALLREBOUND_LEFT?$AA@ 4003f4e8     ui_main.obj
 0002:00008504       ??_C@_0BO@CIKJOPHK@BOTH_FORCEWALLREBOUND_FORWARD?$AA@ 4003f504     ui_main.obj
 0002:00008524       ??_C@_0BK@KJKIIGOD@BOTH_FORCEWALLRUNFLIP_ALT?$AA@ 4003f524     ui_main.obj
 0002:00008540       ??_C@_0BK@GPIMNHIL@BOTH_FORCEWALLRUNFLIP_END?$AA@ 4003f540     ui_main.obj
 0002:0000855c       ??_C@_0BM@LJCOJFGC@BOTH_FORCEWALLRUNFLIP_START?$AA@ 4003f55c     ui_main.obj
 0002:00008578       ??_C@_0BI@MHONAGNG@BOTH_FORCELONGLEAP_LAND?$AA@ 4003f578     ui_main.obj
 0002:00008590       ??_C@_0BK@HABCCIOP@BOTH_FORCELONGLEAP_ATTACK?$AA@ 4003f590     ui_main.obj
 0002:000085ac       ??_C@_0BJ@KLOIGFJP@BOTH_FORCELONGLEAP_START?$AA@ 4003f5ac     ui_main.obj
 0002:000085c8       ??_C@_0L@NHGEHEAM@BOTH_S7_S1?$AA@ 4003f5c8     ui_main.obj
 0002:000085d4       ??_C@_0L@OHOCGCK@BOTH_S1_S7?$AA@ 4003f5d4     ui_main.obj
 0002:000085e0       ??_C@_0L@OKAEFNLM@BOTH_S6_S1?$AA@ 4003f5e0     ui_main.obj
 0002:000085ec       ??_C@_0L@BHGFBHGL@BOTH_S1_S6?$AA@ 4003f5ec     ui_main.obj
 0002:000085f8       ??_C@_0BB@KFONEAEN@BOTH_SPINATTACK7?$AA@ 4003f5f8     ui_main.obj
 0002:0000860c       ??_C@_0BB@LMPGHBAM@BOTH_SPINATTACK6?$AA@ 4003f60c     ui_main.obj
 0002:00008620       ??_C@_0BB@CIOCACPL@BOTH_JUMPATTACK7?$AA@ 4003f620     ui_main.obj
 0002:00008634       ??_C@_0BB@DBPJDDLK@BOTH_JUMPATTACK6?$AA@ 4003f634     ui_main.obj
 0002:00008648       ??_C@_0BH@INLIBEMO@BOTH_CROUCHATTACKBACK1?$AA@ 4003f648     ui_main.obj
 0002:00008660       ??_C@_0BC@BEBALKBG@BOTH_LUNGE2_B__T_?$AA@ 4003f660     ui_main.obj
 0002:00008674       ??_C@_0BG@CELCKDAN@BOTH_FORCELEAP2_T__B_?$AA@ 4003f674     ui_main.obj
 0002:0000868c       ??_C@_0BG@BFMBDODP@BOTH_JUMPFLIPSTABDOWN?$AA@ 4003f68c     ui_main.obj
 0002:000086a4       ??_C@_0BI@HBGICLGG@BOTH_JUMPFLIPSLASHDOWN1?$AA@ 4003f6a4     ui_main.obj
 0002:000086bc       ??_C@_0BB@CBLKELKF@BOTH_ATTACK_BACK?$AA@ 4003f6bc     ui_main.obj
 0002:000086d0       ??_C@_0BC@PILNDLJJ@BOTH_A2_STABBACK1?$AA@ 4003f6d0     ui_main.obj
 0002:000086e4       ??_C@_0BH@BDCLHPPP@BOTH_SABERSTAFF_STANCE?$AA@ 4003f6e4     ui_main.obj
 0002:000086fc       ??_C@_0BG@HKMBABJH@BOTH_SABERDUAL_STANCE?$AA@ 4003f6fc     ui_main.obj
 0002:00008714       ??_C@_0BG@OHKGBDLF@BOTH_SABERSLOW_STANCE?$AA@ 4003f714     ui_main.obj
 0002:0000872c       ??_C@_0BG@LMJGJJPN@BOTH_SABERFAST_STANCE?$AA@ 4003f72c     ui_main.obj
 0002:00008744       ??_C@_0BD@KOAOCCAN@BOTH_CCWCIRCLELOCK?$AA@ 4003f744     ui_main.obj
 0002:00008758       ??_C@_0BC@KJPAFMDI@BOTH_CWCIRCLELOCK?$AA@ 4003f758     ui_main.obj
 0002:0000876c       ??_C@_0BE@OHBEAMBI@BOTH_CCWCIRCLEBREAK?$AA@ 4003f76c     ui_main.obj
 0002:00008780       ??_C@_0BD@LBKADGEF@BOTH_CWCIRCLEBREAK?$AA@ 4003f780     ui_main.obj
 0002:00008794       ??_C@_0BI@CIMIIHDK@BOTH_CCWCIRCLE_A2__R__L?$AA@ 4003f794     ui_main.obj
 0002:000087ac       ??_C@_0BH@DBGDLJEC@BOTH_CWCIRCLE_A2__L__R?$AA@ 4003f7ac     ui_main.obj
 0002:000087c4       ??_C@_0BI@PBNOCOLC@BOTH_CCWCIRCLE_R2__L_S1?$AA@ 4003f7c4     ui_main.obj
 0002:000087dc       ??_C@_0BH@DMDECPBF@BOTH_CWCIRCLE_R2__R_S1?$AA@ 4003f7dc     ui_main.obj
 0002:000087f4       ??_C@_0N@DLCMNLOG@BOTH_BF1LOCK?$AA@ 4003f7f4     ui_main.obj
 0002:00008804       ??_C@_0O@NAFJBFBB@BOTH_BF1BREAK?$AA@ 4003f804     ui_main.obj
 0002:00008814       ??_C@_0P@OMJLFDIE@BOTH_BF1RETURN?$AA@ 4003f814     ui_main.obj
 0002:00008824       ??_C@_0N@LNLIKJEI@BOTH_BF2LOCK?$AA@ 4003f824     ui_main.obj
 0002:00008834       ??_C@_0O@OBLBAPIM@BOTH_BF2BREAK?$AA@ 4003f834     ui_main.obj
 0002:00008844       ??_C@_0P@GCBEFEGH@BOTH_BF2RETURN?$AA@ 4003f844     ui_main.obj
 0002:00008854       ??_C@_0BE@DOCAGAEJ@BOTH_LK_ST_ST_T_L_2?$AA@ 4003f854     ui_main.obj
 0002:00008868       ??_C@_0BE@CDCFFAPB@BOTH_LK_ST_ST_S_L_2?$AA@ 4003f868     ui_main.obj
 0002:0000887c       ??_C@_0BE@DFGKEEJC@BOTH_LK_DL_DL_T_L_2?$AA@ 4003f87c     ui_main.obj
 0002:00008890       ??_C@_0BE@CIGPHECK@BOTH_LK_DL_DL_S_L_2?$AA@ 4003f890     ui_main.obj
 0002:000088a4       ??_C@_0BC@NOIODFFL@BOTH_LK_S_S_T_L_2?$AA@ 4003f8a4     ui_main.obj
 0002:000088b8       ??_C@_0BC@MDILAFOD@BOTH_LK_S_S_S_L_2?$AA@ 4003f8b8     ui_main.obj
 0002:000088cc       ??_C@_0BG@DGNDNELM@BOTH_LK_ST_S_T_SB_1_W?$AA@ 4003f8cc     ui_main.obj
 0002:000088e4       ??_C@_0BG@JPOFBPCG@BOTH_LK_ST_S_T_SB_1_L?$AA@ 4003f8e4     ui_main.obj
 0002:000088fc       ??_C@_0BD@DOGCPFDO@BOTH_LK_ST_S_T_L_1?$AA@ 4003f8fc     ui_main.obj
 0002:00008910       ??_C@_0BF@CEACOAOC@BOTH_LK_ST_S_T_B_1_W?$AA@ 4003f910     ui_main.obj
 0002:00008928       ??_C@_0BF@INDECLHI@BOTH_LK_ST_S_T_B_1_L?$AA@ 4003f928     ui_main.obj
 0002:00008940       ??_C@_0BG@FCLCLJHF@BOTH_LK_ST_S_S_SB_1_W?$AA@ 4003f940     ui_main.obj
 0002:00008958       ??_C@_0BG@PLIEHCOP@BOTH_LK_ST_S_S_SB_1_L?$AA@ 4003f958     ui_main.obj
 0002:00008970       ??_C@_0BD@CDGHMFIG@BOTH_LK_ST_S_S_L_1?$AA@ 4003f970     ui_main.obj
 0002:00008984       ??_C@_0BF@COMHOJPL@BOTH_LK_ST_S_S_B_1_W?$AA@ 4003f984     ui_main.obj
 0002:0000899c       ??_C@_0BF@IHPBCCGB@BOTH_LK_ST_S_S_B_1_L?$AA@ 4003f99c     ui_main.obj
 0002:000089b4       ??_C@_0BH@LECJIOFK@BOTH_LK_ST_ST_T_SB_1_W?$AA@ 4003f9b4     ui_main.obj
 0002:000089cc       ??_C@_0BH@BNBPEFMA@BOTH_LK_ST_ST_T_SB_1_L?$AA@ 4003f9cc     ui_main.obj
 0002:000089e4       ??_C@_0BE@BFANDDIK@BOTH_LK_ST_ST_T_L_1?$AA@ 4003f9e4     ui_main.obj
 0002:000089f8       ??_C@_0BG@NGKMMHLE@BOTH_LK_ST_ST_T_B_1_W?$AA@ 4003f9f8     ui_main.obj
 0002:00008a10       ??_C@_0BG@HPJKAMCO@BOTH_LK_ST_ST_T_B_1_L?$AA@ 4003fa10     ui_main.obj
 0002:00008a28       ??_C@_0BH@NAEIODJD@BOTH_LK_ST_ST_S_SB_1_W?$AA@ 4003fa28     ui_main.obj
 0002:00008a40       ??_C@_0BH@HJHOCIAJ@BOTH_LK_ST_ST_S_SB_1_L?$AA@ 4003fa40     ui_main.obj
 0002:00008a58       ??_C@_0BE@IAIADDC@BOTH_LK_ST_ST_S_L_1?$AA@ 4003fa58     ui_main.obj
 0002:00008a6c       ??_C@_0BG@NMGJMOKN@BOTH_LK_ST_ST_S_B_1_W?$AA@ 4003fa6c     ui_main.obj
 0002:00008a84       ??_C@_0BG@HFFPAFDH@BOTH_LK_ST_ST_S_B_1_L?$AA@ 4003fa84     ui_main.obj
 0002:00008a9c       ??_C@_0BH@NIJMKPKH@BOTH_LK_ST_DL_T_SB_1_W?$AA@ 4003fa9c     ui_main.obj
 0002:00008ab4       ??_C@_0BH@HBKKGEDN@BOTH_LK_ST_DL_T_SB_1_L?$AA@ 4003fab4     ui_main.obj
 0002:00008acc       ??_C@_0BE@HCPCDGKM@BOTH_LK_ST_DL_T_L_1?$AA@ 4003facc     ui_main.obj
 0002:00008ae0       ??_C@_0BG@GFBINHOA@BOTH_LK_ST_DL_T_B_1_W?$AA@ 4003fae0     ui_main.obj
 0002:00008af8       ??_C@_0BG@MMCOBMHK@BOTH_LK_ST_DL_T_B_1_L?$AA@ 4003faf8     ui_main.obj
 0002:00008b10       ??_C@_0BH@LMPNMCGO@BOTH_LK_ST_DL_S_SB_1_W?$AA@ 4003fb10     ui_main.obj
 0002:00008b28       ??_C@_0BH@BFMLAJPE@BOTH_LK_ST_DL_S_SB_1_L?$AA@ 4003fb28     ui_main.obj
 0002:00008b40       ??_C@_0BE@GPPHAGBE@BOTH_LK_ST_DL_S_L_1?$AA@ 4003fb40     ui_main.obj
 0002:00008b54       ??_C@_0BG@GPNNNOPJ@BOTH_LK_ST_DL_S_B_1_W?$AA@ 4003fb54     ui_main.obj
 0002:00008b6c       ??_C@_0BG@MGOLBFGD@BOTH_LK_ST_DL_S_B_1_L?$AA@ 4003fb6c     ui_main.obj
 0002:00008b84       ??_C@_0BG@NLKIDHKH@BOTH_LK_DL_S_T_SB_1_W?$AA@ 4003fb84     ui_main.obj
 0002:00008b9c       ??_C@_0BG@HCJOPMDN@BOTH_LK_DL_S_T_SB_1_L?$AA@ 4003fb9c     ui_main.obj
 0002:00008bb4       ??_C@_0BD@INNGOFGK@BOTH_LK_DL_S_T_L_1?$AA@ 4003fbb4     ui_main.obj
 0002:00008bc8       ??_C@_0BF@OHGCNLGC@BOTH_LK_DL_S_T_B_1_W?$AA@ 4003fbc8     ui_main.obj
 0002:00008be0       ??_C@_0BF@EOFEBAPI@BOTH_LK_DL_S_T_B_1_L?$AA@ 4003fbe0     ui_main.obj
 0002:00008bf8       ??_C@_0BG@LPMJFKGO@BOTH_LK_DL_S_S_SB_1_W?$AA@ 4003fbf8     ui_main.obj
 0002:00008c10       ??_C@_0BG@BGPPJBPE@BOTH_LK_DL_S_S_SB_1_L?$AA@ 4003fc10     ui_main.obj
 0002:00008c28       ??_C@_0BD@JANDNFNC@BOTH_LK_DL_S_S_L_1?$AA@ 4003fc28     ui_main.obj
 0002:00008c3c       ??_C@_0BF@ONKHNCHL@BOTH_LK_DL_S_S_B_1_W?$AA@ 4003fc3c     ui_main.obj
 0002:00008c54       ??_C@_0BF@EEJBBJOB@BOTH_LK_DL_S_S_B_1_L?$AA@ 4003fc54     ui_main.obj
 0002:00008c6c       ??_C@_0BH@DOKBDMFF@BOTH_LK_DL_ST_T_SB_1_W?$AA@ 4003fc6c     ui_main.obj
 0002:00008c84       ??_C@_0BH@JHJHPHMP@BOTH_LK_DL_ST_T_SB_1_L?$AA@ 4003fc84     ui_main.obj
 0002:00008c9c       ??_C@_0BE@HJLIBCHH@BOTH_LK_DL_ST_T_L_1?$AA@ 4003fc9c     ui_main.obj
 0002:00008cb0       ??_C@_0BG@DLNHCEKP@BOTH_LK_DL_ST_T_B_1_W?$AA@ 4003fcb0     ui_main.obj
 0002:00008cc8       ??_C@_0BG@JCOBOPDF@BOTH_LK_DL_ST_T_B_1_L?$AA@ 4003fcc8     ui_main.obj
 0002:00008ce0       ??_C@_0BH@FKMAFBJM@BOTH_LK_DL_ST_S_SB_1_W?$AA@ 4003fce0     ui_main.obj
 0002:00008cf8       ??_C@_0BH@PDPGJKAG@BOTH_LK_DL_ST_S_SB_1_L?$AA@ 4003fcf8     ui_main.obj
 0002:00008d10       ??_C@_0BE@GELNCCMP@BOTH_LK_DL_ST_S_L_1?$AA@ 4003fd10     ui_main.obj
 0002:00008d24       ??_C@_0BG@DBBCCNLG@BOTH_LK_DL_ST_S_B_1_W?$AA@ 4003fd24     ui_main.obj
 0002:00008d3c       ??_C@_0BG@JICEOGCM@BOTH_LK_DL_ST_S_B_1_L?$AA@ 4003fd3c     ui_main.obj
 0002:00008d54       ??_C@_0BH@FCBEBNKI@BOTH_LK_DL_DL_T_SB_1_W?$AA@ 4003fd54     ui_main.obj
 0002:00008d6c       ??_C@_0BH@PLCCNGDC@BOTH_LK_DL_DL_T_SB_1_L?$AA@ 4003fd6c     ui_main.obj
 0002:00008d84       ??_C@_0BE@BOEHBHFB@BOTH_LK_DL_DL_T_L_1?$AA@ 4003fd84     ui_main.obj
 0002:00008d98       ??_C@_0BG@IIGDDEPL@BOTH_LK_DL_DL_T_B_1_W?$AA@ 4003fd98     ui_main.obj
 0002:00008db0       ??_C@_0BG@CBFFPPGB@BOTH_LK_DL_DL_T_B_1_L?$AA@ 4003fdb0     ui_main.obj
 0002:00008dc8       ??_C@_0BH@DGHFHAGB@BOTH_LK_DL_DL_S_SB_1_W?$AA@ 4003fdc8     ui_main.obj
 0002:00008de0       ??_C@_0BH@JPEDLLPL@BOTH_LK_DL_DL_S_SB_1_L?$AA@ 4003fde0     ui_main.obj
 0002:00008df8       ??_C@_0BE@DECCHOJ@BOTH_LK_DL_DL_S_L_1?$AA@ 4003fdf8     ui_main.obj
 0002:00008e0c       ??_C@_0BG@ICKGDNOC@BOTH_LK_DL_DL_S_B_1_W?$AA@ 4003fe0c     ui_main.obj
 0002:00008e24       ??_C@_0BG@CLJAPGHI@BOTH_LK_DL_DL_S_B_1_L?$AA@ 4003fe24     ui_main.obj
 0002:00008e3c       ??_C@_0BF@FNCJNOFK@BOTH_LK_S_S_T_SB_1_W?$AA@ 4003fe3c     ui_main.obj
 0002:00008e54       ??_C@_0BF@PEBPBFMA@BOTH_LK_S_S_T_SB_1_L?$AA@ 4003fe54     ui_main.obj
 0002:00008e6c       ??_C@_0BC@PFKDGGJI@BOTH_LK_S_S_T_L_1?$AA@ 4003fe6c     ui_main.obj
 0002:00008e80       ??_C@_0BE@LFFJPCLC@BOTH_LK_S_S_T_B_1_W?$AA@ 4003fe80     ui_main.obj
 0002:00008e94       ??_C@_0BE@BMGPDJCI@BOTH_LK_S_S_T_B_1_L?$AA@ 4003fe94     ui_main.obj
 0002:00008ea8       ??_C@_0BF@DJEILDJD@BOTH_LK_S_S_S_SB_1_W?$AA@ 4003fea8     ui_main.obj
 0002:00008ec0       ??_C@_0BF@JAHOHIAJ@BOTH_LK_S_S_S_SB_1_L?$AA@ 4003fec0     ui_main.obj
 0002:00008ed8       ??_C@_0BC@OIKGFGCA@BOTH_LK_S_S_S_L_1?$AA@ 4003fed8     ui_main.obj
 0002:00008eec       ??_C@_0BE@LPJMPLKL@BOTH_LK_S_S_S_B_1_W?$AA@ 4003feec     ui_main.obj
 0002:00008f00       ??_C@_0BE@BGKKDADB@BOTH_LK_S_S_S_B_1_L?$AA@ 4003ff00     ui_main.obj
 0002:00008f14       ??_C@_0BG@PNCLDDBN@BOTH_LK_S_ST_T_SB_1_W?$AA@ 4003ff14     ui_main.obj
 0002:00008f2c       ??_C@_0BG@FEBNPIIH@BOTH_LK_S_ST_T_SB_1_L?$AA@ 4003ff2c     ui_main.obj
 0002:00008f44       ??_C@_0BD@CKHDPEME@BOTH_LK_S_ST_T_L_1?$AA@ 4003ff44     ui_main.obj
 0002:00008f58       ??_C@_0BF@LNFGMNFC@BOTH_LK_S_ST_T_B_1_W?$AA@ 4003ff58     ui_main.obj
 0002:00008f70       ??_C@_0BF@BEGAAGMI@BOTH_LK_S_ST_T_B_1_L?$AA@ 4003ff70     ui_main.obj
 0002:00008f88       ??_C@_0BG@JJEKFONE@BOTH_LK_S_ST_S_SB_1_W?$AA@ 4003ff88     ui_main.obj
 0002:00008fa0       ??_C@_0BG@DAHMJFEO@BOTH_LK_S_ST_S_SB_1_L?$AA@ 4003ffa0     ui_main.obj
 0002:00008fb8       ??_C@_0BD@DHHGMEHM@BOTH_LK_S_ST_S_L_1?$AA@ 4003ffb8     ui_main.obj
 0002:00008fcc       ??_C@_0BF@LHJDMEEL@BOTH_LK_S_ST_S_B_1_W?$AA@ 4003ffcc     ui_main.obj
 0002:00008fe4       ??_C@_0BF@BOKFAPNB@BOTH_LK_S_ST_S_B_1_L?$AA@ 4003ffe4     ui_main.obj
 0002:00008ffc       ??_C@_0BG@JBJOBCOA@BOTH_LK_S_DL_T_SB_1_W?$AA@ 4003fffc     ui_main.obj
 0002:00009014       ??_C@_0BG@DIKINJHK@BOTH_LK_S_DL_T_SB_1_L?$AA@ 40040014     ui_main.obj
 0002:0000902c       ??_C@_0BD@ENIMPBOC@BOTH_LK_S_DL_T_L_1?$AA@ 4004002c     ui_main.obj
 0002:00009040       ??_C@_0BF@OOCNNAG@BOTH_LK_S_DL_T_B_1_W?$AA@ 40040040     ui_main.obj
 0002:00009058       ??_C@_0BF@KHNEBGJM@BOTH_LK_S_DL_T_B_1_L?$AA@ 40040058     ui_main.obj
 0002:00009070       ??_C@_0BG@PFPPHPCJ@BOTH_LK_S_DL_S_SB_1_W?$AA@ 40040070     ui_main.obj
 0002:00009088       ??_C@_0BG@FMMJLELD@BOTH_LK_S_DL_S_SB_1_L?$AA@ 40040088     ui_main.obj
 0002:000090a0       ??_C@_0BD@FAIJMBFK@BOTH_LK_S_DL_S_L_1?$AA@ 400400a0     ui_main.obj
 0002:000090b4       ??_C@_0BF@ECHNEBP@BOTH_LK_S_DL_S_B_1_W?$AA@ 400400b4     ui_main.obj
 0002:000090cc       ??_C@_0BF@KNBBBPIF@BOTH_LK_S_DL_S_B_1_L?$AA@ 400400cc     ui_main.obj
 0002:000090e4       ??_C@_0O@MBLOLAIA@BOTH_H7_S7_BR?$AA@ 400400e4     ui_main.obj
 0002:000090f4       ??_C@_0O@HEBAMOMN@BOTH_H7_S7_B_?$AA@ 400400f4     ui_main.obj
 0002:00009104       ??_C@_0O@BFPPIPFP@BOTH_H7_S7_BL?$AA@ 40040104     ui_main.obj
 0002:00009114       ??_C@_0O@NFEFAJN@BOTH_H7_S7_TL?$AA@ 40040114     ui_main.obj
 0002:00009124       ??_C@_0O@NJBFGPEC@BOTH_H7_S7_TR?$AA@ 40040124     ui_main.obj
 0002:00009134       ??_C@_0O@GMLLBBAP@BOTH_H7_S7_T_?$AA@ 40040134     ui_main.obj
 0002:00009144       ??_C@_0O@MBBKJCHE@BOTH_V7_B__S7?$AA@ 40040144     ui_main.obj
 0002:00009154       ??_C@_0O@OGFKHPCG@BOTH_V7_BL_S7?$AA@ 40040154     ui_main.obj
 0002:00009164       ??_C@_0O@FJBCGOGD@BOTH_V7__L_S7?$AA@ 40040164     ui_main.obj
 0002:00009174       ??_C@_0O@DDNFJOKA@BOTH_V7_TL_S7?$AA@ 40040174     ui_main.obj
 0002:00009184       ??_C@_0O@BEJFHDPC@BOTH_V7_T__S7?$AA@ 40040184     ui_main.obj
 0002:00009194       ??_C@_0O@OMAFLHED@BOTH_V7_TR_S7?$AA@ 40040194     ui_main.obj
 0002:000091a4       ??_C@_0O@IGMCEHIA@BOTH_V7__R_S7?$AA@ 400401a4     ui_main.obj
 0002:000091b4       ??_C@_0O@DJIKFGMF@BOTH_V7_BR_S7?$AA@ 400401b4     ui_main.obj
 0002:000091c4       ??_C@_0O@PIDDIMEF@BOTH_K7_S7_BR?$AA@ 400401c4     ui_main.obj
 0002:000091d4       ??_C@_0O@ENJNPCAI@BOTH_K7_S7_B_?$AA@ 400401d4     ui_main.obj
 0002:000091e4       ??_C@_0O@CMHCLDJK@BOTH_K7_S7_BL?$AA@ 400401e4     ui_main.obj
 0002:000091f4       ??_C@_0O@DENJGMFI@BOTH_K7_S7_TL?$AA@ 400401f4     ui_main.obj
 0002:00009204       ??_C@_0O@OAJIFDIH@BOTH_K7_S7_TR?$AA@ 40040204     ui_main.obj
 0002:00009214       ??_C@_0O@FFDGCNMK@BOTH_K7_S7_T_?$AA@ 40040214     ui_main.obj
 0002:00009224       ??_C@_0O@NGKGFAOJ@BOTH_P7_S7_BR?$AA@ 40040224     ui_main.obj
 0002:00009234       ??_C@_0O@COHGPDG@BOTH_P7_S7_BL?$AA@ 40040234     ui_main.obj
 0002:00009244       ??_C@_0O@BKEMLAPE@BOTH_P7_S7_TL?$AA@ 40040244     ui_main.obj
 0002:00009254       ??_C@_0O@MOANIPCL@BOTH_P7_S7_TR?$AA@ 40040254     ui_main.obj
 0002:00009264       ??_C@_0O@HLKDPBGG@BOTH_P7_S7_T_?$AA@ 40040264     ui_main.obj
 0002:00009274       ??_C@_0O@DAHEJJKO@BOTH_H6_S6_BR?$AA@ 40040274     ui_main.obj
 0002:00009284       ??_C@_0O@IFNKOHOD@BOTH_H6_S6_B_?$AA@ 40040284     ui_main.obj
 0002:00009294       ??_C@_0O@OEDFKGHB@BOTH_H6_S6_BL?$AA@ 40040294     ui_main.obj
 0002:000092a4       ??_C@_0O@PMJOHJLD@BOTH_H6_S6_TL?$AA@ 400402a4     ui_main.obj
 0002:000092b4       ??_C@_0O@CINPEGGM@BOTH_H6_S6_TR?$AA@ 400402b4     ui_main.obj
 0002:000092c4       ??_C@_0O@JNHBDICB@BOTH_H6_S6_T_?$AA@ 400402c4     ui_main.obj
 0002:000092d4       ??_C@_0O@BEKLKDKL@BOTH_V6_B__S6?$AA@ 400402d4     ui_main.obj
 0002:000092e4       ??_C@_0O@DDOLEOPJ@BOTH_V6_BL_S6?$AA@ 400402e4     ui_main.obj
 0002:000092f4       ??_C@_0O@IMKDFPLM@BOTH_V6__L_S6?$AA@ 400402f4     ui_main.obj
 0002:00009304       ??_C@_0O@OGGEKPHP@BOTH_V6_TL_S6?$AA@ 40040304     ui_main.obj
 0002:00009314       ??_C@_0O@MBCEECCN@BOTH_V6_T__S6?$AA@ 40040314     ui_main.obj
 0002:00009324       ??_C@_0O@DJLEIGJM@BOTH_V6_TR_S6?$AA@ 40040324     ui_main.obj
 0002:00009334       ??_C@_0O@FDHDHGFP@BOTH_V6__R_S6?$AA@ 40040334     ui_main.obj
 0002:00009344       ??_C@_0O@OMDLGHBK@BOTH_V6_BR_S6?$AA@ 40040344     ui_main.obj
 0002:00009354       ??_C@_0O@JPJKFGL@BOTH_K6_S6_BR?$AA@ 40040354     ui_main.obj
 0002:00009364       ??_C@_0O@LMFHNLCG@BOTH_K6_S6_B_?$AA@ 40040364     ui_main.obj
 0002:00009374       ??_C@_0O@NNLIJKLE@BOTH_K6_S6_BL?$AA@ 40040374     ui_main.obj
 0002:00009384       ??_C@_0O@MFBDEFHG@BOTH_K6_S6_TL?$AA@ 40040384     ui_main.obj
 0002:00009394       ??_C@_0O@BBFCHKKJ@BOTH_K6_S6_TR?$AA@ 40040394     ui_main.obj
 0002:000093a4       ??_C@_0O@KEPMAEOE@BOTH_K6_S6_T_?$AA@ 400403a4     ui_main.obj
 0002:000093b4       ??_C@_0O@CHGMHJMH@BOTH_P6_S6_BR?$AA@ 400403b4     ui_main.obj
 0002:000093c4       ??_C@_0O@PDCNEGBI@BOTH_P6_S6_BL?$AA@ 400403c4     ui_main.obj
 0002:000093d4       ??_C@_0O@OLIGJJNK@BOTH_P6_S6_TL?$AA@ 400403d4     ui_main.obj
 0002:000093e4       ??_C@_0O@DPMHKGAF@BOTH_P6_S6_TR?$AA@ 400403e4     ui_main.obj
 0002:000093f4       ??_C@_0O@IKGJNIEI@BOTH_P6_S6_T_?$AA@ 400403f4     ui_main.obj
 0002:00009404       ??_C@_0O@IIJBEMKH@BOTH_H1_S1_BR?$AA@ 40040404     ui_main.obj
 0002:00009414       ??_C@_0O@DNDPDCOK@BOTH_H1_S1_B_?$AA@ 40040414     ui_main.obj
 0002:00009424       ??_C@_0O@FMNAHDHI@BOTH_H1_S1_BL?$AA@ 40040424     ui_main.obj
 0002:00009434       ??_C@_0O@EEHLKMLK@BOTH_H1_S1_TL?$AA@ 40040434     ui_main.obj
 0002:00009444       ??_C@_0O@JADKJDGF@BOTH_H1_S1_TR?$AA@ 40040444     ui_main.obj
 0002:00009454       ??_C@_0O@CFJEONCI@BOTH_H1_S1_T_?$AA@ 40040454     ui_main.obj
 0002:00009464       ??_C@_0O@FBCPDMHF@BOTH_V1_B__S1?$AA@ 40040464     ui_main.obj
 0002:00009474       ??_C@_0O@HGGPNBCH@BOTH_V1_BL_S1?$AA@ 40040474     ui_main.obj
 0002:00009484       ??_C@_0O@MJCHMAGC@BOTH_V1__L_S1?$AA@ 40040484     ui_main.obj
 0002:00009494       ??_C@_0O@KDOADAKB@BOTH_V1_TL_S1?$AA@ 40040494     ui_main.obj
 0002:000094a4       ??_C@_0O@IEKANNPD@BOTH_V1_T__S1?$AA@ 400404a4     ui_main.obj
 0002:000094b4       ??_C@_0O@HMDABJEC@BOTH_V1_TR_S1?$AA@ 400404b4     ui_main.obj
 0002:000094c4       ??_C@_0O@BGPHOJIB@BOTH_V1__R_S1?$AA@ 400404c4     ui_main.obj
 0002:000094d4       ??_C@_0O@KJLPPIME@BOTH_V1_BR_S1?$AA@ 400404d4     ui_main.obj
 0002:000094e4       ??_C@_0O@LBBMHAGC@BOTH_K1_S1_BR?$AA@ 400404e4     ui_main.obj
 0002:000094f4       ??_C@_0O@ELCAOCP@BOTH_K1_S1_B_?$AA@ 400404f4     ui_main.obj
 0002:00009504       ??_C@_0O@GFFNEPLN@BOTH_K1_S1_BL?$AA@ 40040504     ui_main.obj
 0002:00009514       ??_C@_0O@HNPGJAHP@BOTH_K1_S1_TL?$AA@ 40040514     ui_main.obj
 0002:00009524       ??_C@_0O@KJLHKPKA@BOTH_K1_S1_TR?$AA@ 40040524     ui_main.obj
 0002:00009534       ??_C@_0O@BMBJNBON@BOTH_K1_S1_T_?$AA@ 40040534     ui_main.obj
 0002:00009544       ??_C@_0O@JPIJKMMO@BOTH_P1_S1_BR?$AA@ 40040544     ui_main.obj
 0002:00009554       ??_C@_0O@ELMIJDBB@BOTH_P1_S1_BL?$AA@ 40040554     ui_main.obj
 0002:00009564       ??_C@_0O@FDGDEMND@BOTH_P1_S1_TL?$AA@ 40040564     ui_main.obj
 0002:00009574       ??_C@_0O@IHCCHDAM@BOTH_P1_S1_TR?$AA@ 40040574     ui_main.obj
 0002:00009584       ??_C@_0O@DCIMANEB@BOTH_P1_S1_T_?$AA@ 40040584     ui_main.obj
 0002:00009594       ??_C@_0O@OHBCOAEI@BOTH_D7_B____?$AA@ 40040594     ui_main.obj
 0002:000095a4       ??_C@_0O@MAFCANBK@BOTH_D7_BL___?$AA@ 400405a4     ui_main.obj
 0002:000095b4       ??_C@_0O@HPBKBMFP@BOTH_D7__L___?$AA@ 400405b4     ui_main.obj
 0002:000095c4       ??_C@_0O@BFNNOMJM@BOTH_D7_TL___?$AA@ 400405c4     ui_main.obj
 0002:000095d4       ??_C@_0O@MKANMFHP@BOTH_D7_TR___?$AA@ 400405d4     ui_main.obj
 0002:000095e4       ??_C@_0O@KAMKDFLM@BOTH_D7__R___?$AA@ 400405e4     ui_main.obj
 0002:000095f4       ??_C@_0O@BPICCEPJ@BOTH_D7_BR___?$AA@ 400405f4     ui_main.obj
 0002:00009604       ??_C@_0O@LDEIHEJA@BOTH_B7_BL___?$AA@ 40040604     ui_main.obj
 0002:00009614       ??_C@_0O@MAAGFNF@BOTH_B7__L___?$AA@ 40040614     ui_main.obj
 0002:00009624       ??_C@_0O@GGMHJFBG@BOTH_B7_TL___?$AA@ 40040624     ui_main.obj
 0002:00009634       ??_C@_0O@EBIHHIEE@BOTH_B7_T____?$AA@ 40040634     ui_main.obj
 0002:00009644       ??_C@_0O@LJBHLMPF@BOTH_B7_TR___?$AA@ 40040644     ui_main.obj
 0002:00009654       ??_C@_0O@NDNAEMDG@BOTH_B7__R___?$AA@ 40040654     ui_main.obj
 0002:00009664       ??_C@_0O@GMJIFNHD@BOTH_B7_BR___?$AA@ 40040664     ui_main.obj
 0002:00009674       ??_C@_0O@LBOJOGEP@BOTH_R7_TR_S7?$AA@ 40040674     ui_main.obj
 0002:00009684       ??_C@_0O@LLLGCOCK@BOTH_R7_BL_S7?$AA@ 40040684     ui_main.obj
 0002:00009694       ??_C@_0O@GEGGAHMJ@BOTH_R7_BR_S7?$AA@ 40040694     ui_main.obj
 0002:000096a4       ??_C@_0O@GODJMPKM@BOTH_R7_TL_S7?$AA@ 400406a4     ui_main.obj
 0002:000096b4       ??_C@_0O@NLCOBGIM@BOTH_R7__R_S7?$AA@ 400406b4     ui_main.obj
 0002:000096c4       ??_C@_0O@EPODPGP@BOTH_R7__L_S7?$AA@ 400406c4     ui_main.obj
 0002:000096d4       ??_C@_0O@JMPGMDHI@BOTH_R7_B__S7?$AA@ 400406d4     ui_main.obj
 0002:000096e4       ??_C@_0O@PHIALDOO@BOTH_S7_S7_TR?$AA@ 400406e4     ui_main.obj
 0002:000096f4       ??_C@_0O@DLGKFDPD@BOTH_S7_S7_BL?$AA@ 400406f4     ui_main.obj
 0002:00009704       ??_C@_0O@OPCLGMCM@BOTH_S7_S7_BR?$AA@ 40040704     ui_main.obj
 0002:00009714       ??_C@_0O@CDMBIMDB@BOTH_S7_S7_TL?$AA@ 40040714     ui_main.obj
 0002:00009724       ??_C@_0O@PLNFFMAP@BOTH_S7_S7__R?$AA@ 40040724     ui_main.obj
 0002:00009734       ??_C@_0O@CPJEGDNA@BOTH_S7_S7__L?$AA@ 40040734     ui_main.obj
 0002:00009744       ??_C@_0O@ECCOMNKD@BOTH_S7_S7_T_?$AA@ 40040744     ui_main.obj
 0002:00009754       ??_C@_0O@BCIOBBI@BOTH_T7_BL_TL?$AA@ 40040754     ui_main.obj
 0002:00009764       ??_C@_0O@GAMHKAIK@BOTH_T7_BL_T_?$AA@ 40040764     ui_main.obj
 0002:00009774       ??_C@_0O@KGMLCPJP@BOTH_T7__L_BL?$AA@ 40040774     ui_main.obj
 0002:00009784       ??_C@_0O@NPIPLBMP@BOTH_T7__L_T_?$AA@ 40040784     ui_main.obj
 0002:00009794       ??_C@_0O@GKCBMPIC@BOTH_T7__L_TR?$AA@ 40040794     ui_main.obj
 0002:000097a4       ??_C@_0O@NIPCOPHP@BOTH_T7_TL__L?$AA@ 400407a4     ui_main.obj
 0002:000097b4       ??_C@_0O@LFEIEBAM@BOTH_T7_TL_T_?$AA@ 400407b4     ui_main.obj
 0002:000097c4       ??_C@_0O@OGDPEB@BOTH_T7_TL_TR?$AA@ 400407c4     ui_main.obj
 0002:000097d4       ??_C@_0O@MLDNAKA@BOTH_T7_TL__R?$AA@ 400407d4     ui_main.obj
 0002:000097e4       ??_C@_0O@GKJIGIOP@BOTH_T7_TR_T_?$AA@ 400407e4     ui_main.obj
 0002:000097f4       ??_C@_0O@NDGDPJED@BOTH_T7_TR__R?$AA@ 400407f4     ui_main.obj
 0002:00009804       ??_C@_0O@FPJICM@BOTH_T7__R_T_?$AA@ 40040804     ui_main.obj
 0002:00009814       ??_C@_0O@KNFKDJKD@BOTH_T7__R_BR?$AA@ 40040814     ui_main.obj
 0002:00009824       ??_C@_0O@LPBHIJGJ@BOTH_T7_BR_T_?$AA@ 40040824     ui_main.obj
 0002:00009834       ??_C@_0O@KLJPHCE@BOTH_T7_BR_TR?$AA@ 40040834     ui_main.obj
 0002:00009844       ??_C@_0O@NHNAOPJ@BOTH_T7_BL__L?$AA@ 40040844     ui_main.obj
 0002:00009854       ??_C@_0O@NFGJNOMH@BOTH_T7_BL_TR?$AA@ 40040854     ui_main.obj
 0002:00009864       ??_C@_0O@NJDMDBCG@BOTH_T7_BL__R?$AA@ 40040864     ui_main.obj
 0002:00009874       ??_C@_0O@MNMCABAF@BOTH_T7_BL_BR?$AA@ 40040874     ui_main.obj
 0002:00009884       ??_C@_0O@LOGAPAFN@BOTH_T7__L_TL?$AA@ 40040884     ui_main.obj
 0002:00009894       ??_C@_0O@GGHECAGD@BOTH_T7__L__R?$AA@ 40040894     ui_main.obj
 0002:000098a4       ??_C@_0O@HCIKBAEA@BOTH_T7__L_BR?$AA@ 400408a4     ui_main.obj
 0002:000098b4       ??_C@_0O@MMAMNPFM@BOTH_T7_TL_BL?$AA@ 400408b4     ui_main.obj
 0002:000098c4       ??_C@_0O@BIENOAID@BOTH_T7_TL_BR?$AA@ 400408c4     ui_main.obj
 0002:000098d4       ??_C@_0O@OLEMDCAO@BOTH_T7_T__BL?$AA@ 400408d4     ui_main.obj
 0002:000098e4       ??_C@_0O@PPLCACCN@BOTH_T7_T___L?$AA@ 400408e4     ui_main.obj
 0002:000098f4       ??_C@_0O@PDOHONMM@BOTH_T7_T__TL?$AA@ 400408f4     ui_main.obj
 0002:00009904       ??_C@_0O@CHKGNCBD@BOTH_T7_T__TR?$AA@ 40040904     ui_main.obj
 0002:00009914       ??_C@_0O@CLPDDNPC@BOTH_T7_T___R?$AA@ 40040914     ui_main.obj
 0002:00009924       ??_C@_0O@DPANANNB@BOTH_T7_T__BR?$AA@ 40040924     ui_main.obj
 0002:00009934       ??_C@_0O@BDNMPGLP@BOTH_T7_TR_BL?$AA@ 40040934     ui_main.obj
 0002:00009944       ??_C@_0O@HCCMGJM@BOTH_T7_TR__L?$AA@ 40040944     ui_main.obj
 0002:00009954       ??_C@_0O@LHHCJHN@BOTH_T7_TR_TL?$AA@ 40040954     ui_main.obj
 0002:00009964       ??_C@_0O@MHJNMJGA@BOTH_T7_TR_BR?$AA@ 40040964     ui_main.obj
 0002:00009974       ??_C@_0O@HJBLAGHM@BOTH_T7__R_BL?$AA@ 40040974     ui_main.obj
 0002:00009984       ??_C@_0O@GNOFDGFP@BOTH_T7__R__L?$AA@ 40040984     ui_main.obj
 0002:00009994       ??_C@_0O@GBLANJLO@BOTH_T7__R_TL?$AA@ 40040994     ui_main.obj
 0002:000099a4       ??_C@_0O@LFPBOGGB@BOTH_T7__R_TR?$AA@ 400409a4     ui_main.obj
 0002:000099b4       ??_C@_0O@MGFDBHDJ@BOTH_T7_BR_BL?$AA@ 400409b4     ui_main.obj
 0002:000099c4       ??_C@_0O@NCKNCHBK@BOTH_T7_BR__L?$AA@ 400409c4     ui_main.obj
 0002:000099d4       ??_C@_0O@NOPIMIPL@BOTH_T7_BR_TL?$AA@ 400409d4     ui_main.obj
 0002:000099e4       ??_C@_0O@GOMBIMF@BOTH_T7_BR__R?$AA@ 400409e4     ui_main.obj
 0002:000099f4       ??_C@_0O@PFILPBIB@BOTH_A7_TR_BL?$AA@ 400409f4     ui_main.obj
 0002:00009a04       ??_C@_0O@DDDONJPJ@BOTH_A7_BL_TR?$AA@ 40040a04     ui_main.obj
 0002:00009a14       ??_C@_0O@DIKPMPMF@BOTH_A7_BR_TL?$AA@ 40040a14     ui_main.obj
 0002:00009a24       ??_C@_0O@POBKOHLN@BOTH_A7_TL_BR?$AA@ 40040a24     ui_main.obj
 0002:00009a34       ??_C@_0O@ILLCDBGB@BOTH_A7__R__L?$AA@ 40040a34     ui_main.obj
 0002:00009a44       ??_C@_0O@IACDCHFN@BOTH_A7__L__R?$AA@ 40040a44     ui_main.obj
 0002:00009a54       ??_C@_0O@GMPEHEKC@BOTH_A7_T__B_?$AA@ 40040a54     ui_main.obj
 0002:00009a64       ??_C@_0O@CLLIOANG@BOTH_D6_B____?$AA@ 40040a64     ui_main.obj
 0002:00009a74       ??_C@_0O@MPIANIE@BOTH_D6_BL___?$AA@ 40040a74     ui_main.obj
 0002:00009a84       ??_C@_0O@LDLABMMB@BOTH_D6__L___?$AA@ 40040a84     ui_main.obj
 0002:00009a94       ??_C@_0O@NJHHOMAC@BOTH_D6_TL___?$AA@ 40040a94     ui_main.obj
 0002:00009aa4       ??_C@_0O@GKHMFOB@BOTH_D6_TR___?$AA@ 40040aa4     ui_main.obj
 0002:00009ab4       ??_C@_0O@GMGADFCC@BOTH_D6__R___?$AA@ 40040ab4     ui_main.obj
 0002:00009ac4       ??_C@_0O@NDCICEGH@BOTH_D6_BR___?$AA@ 40040ac4     ui_main.obj
 0002:00009ad4       ??_C@_0O@HPOCHEAO@BOTH_B6_BL___?$AA@ 40040ad4     ui_main.obj
 0002:00009ae4       ??_C@_0O@MAKKGFEL@BOTH_B6__L___?$AA@ 40040ae4     ui_main.obj
 0002:00009af4       ??_C@_0O@KKGNJFII@BOTH_B6_TL___?$AA@ 40040af4     ui_main.obj
 0002:00009b04       ??_C@_0O@INCNHINK@BOTH_B6_T____?$AA@ 40040b04     ui_main.obj
 0002:00009b14       ??_C@_0O@HFLNLMGL@BOTH_B6_TR___?$AA@ 40040b14     ui_main.obj
 0002:00009b24       ??_C@_0O@BPHKEMKI@BOTH_B6__R___?$AA@ 40040b24     ui_main.obj
 0002:00009b34       ??_C@_0O@KADCFNON@BOTH_B6_BR___?$AA@ 40040b34     ui_main.obj
 0002:00009b44       ??_C@_0O@GEFINHJA@BOTH_R6_TR_S6?$AA@ 40040b44     ui_main.obj
 0002:00009b54       ??_C@_0O@GOAHBPPF@BOTH_R6_BL_S6?$AA@ 40040b54     ui_main.obj
 0002:00009b64       ??_C@_0O@LBNHDGBG@BOTH_R6_BR_S6?$AA@ 40040b64     ui_main.obj
 0002:00009b74       ??_C@_0O@LLIIPOHD@BOTH_R6_TL_S6?$AA@ 40040b74     ui_main.obj
 0002:00009b84       ??_C@_0O@OJPCHFD@BOTH_R6__R_S6?$AA@ 40040b84     ui_main.obj
 0002:00009b94       ??_C@_0O@NBEPAOLA@BOTH_R6__L_S6?$AA@ 40040b94     ui_main.obj
 0002:00009ba4       ??_C@_0O@EJEHPCKH@BOTH_R6_B__S6?$AA@ 40040ba4     ui_main.obj
 0002:00009bb4       ??_C@_0O@GEKJKMA@BOTH_S6_S6_TR?$AA@ 40040bb4     ui_main.obj
 0002:00009bc4       ??_C@_0O@MKKAHKNN@BOTH_S6_S6_BL?$AA@ 40040bc4     ui_main.obj
 0002:00009bd4       ??_C@_0O@BOOBEFAC@BOTH_S6_S6_BR?$AA@ 40040bd4     ui_main.obj
 0002:00009be4       ??_C@_0O@NCALKFBP@BOTH_S6_S6_TL?$AA@ 40040be4     ui_main.obj
 0002:00009bf4       ??_C@_0O@KBPHFCB@BOTH_S6_S6__R?$AA@ 40040bf4     ui_main.obj
 0002:00009c04       ??_C@_0O@NOFOEKPO@BOTH_S6_S6__L?$AA@ 40040c04     ui_main.obj
 0002:00009c14       ??_C@_0O@LDOEOEIN@BOTH_S6_S6_T_?$AA@ 40040c14     ui_main.obj
 0002:00009c24       ??_C@_0O@MNICOBIG@BOTH_T6_BL_TL?$AA@ 40040c24     ui_main.obj
 0002:00009c34       ??_C@_0O@KMGNKABE@BOTH_T6_BL_T_?$AA@ 40040c34     ui_main.obj
 0002:00009c44       ??_C@_0O@GKGBCPAB@BOTH_T6__L_BL?$AA@ 40040c44     ui_main.obj
 0002:00009c54       ??_C@_0O@BDCFLBFB@BOTH_T6__L_T_?$AA@ 40040c54     ui_main.obj
 0002:00009c64       ??_C@_0O@KGILMPBM@BOTH_T6__L_TR?$AA@ 40040c64     ui_main.obj
 0002:00009c74       ??_C@_0O@BEFIOPOB@BOTH_T6_TL__L?$AA@ 40040c74     ui_main.obj
 0002:00009c84       ??_C@_0O@HJOCEBJC@BOTH_T6_TL_T_?$AA@ 40040c84     ui_main.obj
 0002:00009c94       ??_C@_0O@MMEMDPNP@BOTH_T6_TL_TR?$AA@ 40040c94     ui_main.obj
 0002:00009ca4       ??_C@_0O@MABJNADO@BOTH_T6_TL__R?$AA@ 40040ca4     ui_main.obj
 0002:00009cb4       ??_C@_0O@KGDCGIHB@BOTH_T6_TR_T_?$AA@ 40040cb4     ui_main.obj
 0002:00009cc4       ??_C@_0O@BPMJPJNN@BOTH_T6_TR__R?$AA@ 40040cc4     ui_main.obj
 0002:00009cd4       ??_C@_0O@MMPFJILC@BOTH_T6__R_T_?$AA@ 40040cd4     ui_main.obj
 0002:00009ce4       ??_C@_0O@GBPADJDN@BOTH_T6__R_BR?$AA@ 40040ce4     ui_main.obj
 0002:00009cf4       ??_C@_0O@HDLNIJPH@BOTH_T6_BR_T_?$AA@ 40040cf4     ui_main.obj
 0002:00009d04       ??_C@_0O@MGBDPHLK@BOTH_T6_BR_TR?$AA@ 40040d04     ui_main.obj
 0002:00009d14       ??_C@_0O@MBNHAOGH@BOTH_T6_BL__L?$AA@ 40040d14     ui_main.obj
 0002:00009d24       ??_C@_0O@BJMDNOFJ@BOTH_T6_BL_TR?$AA@ 40040d24     ui_main.obj
 0002:00009d34       ??_C@_0O@BFJGDBLI@BOTH_T6_BL__R?$AA@ 40040d34     ui_main.obj
 0002:00009d44       ??_C@_0O@BGIABJL@BOTH_T6_BL_BR?$AA@ 40040d44     ui_main.obj
 0002:00009d54       ??_C@_0O@HCMKPAMD@BOTH_T6__L_TL?$AA@ 40040d54     ui_main.obj
 0002:00009d64       ??_C@_0O@KKNOCAPN@BOTH_T6__L__R?$AA@ 40040d64     ui_main.obj
 0002:00009d74       ??_C@_0O@LOCABANO@BOTH_T6__L_BR?$AA@ 40040d74     ui_main.obj
 0002:00009d84       ??_C@_0O@KGNPMC@BOTH_T6_TL_BL?$AA@ 40040d84     ui_main.obj
 0002:00009d94       ??_C@_0O@NEOHOABN@BOTH_T6_TL_BR?$AA@ 40040d94     ui_main.obj
 0002:00009da4       ??_C@_0O@CHOGDCJA@BOTH_T6_T__BL?$AA@ 40040da4     ui_main.obj
 0002:00009db4       ??_C@_0O@DDBIACLD@BOTH_T6_T___L?$AA@ 40040db4     ui_main.obj
 0002:00009dc4       ??_C@_0O@DPENONFC@BOTH_T6_T__TL?$AA@ 40040dc4     ui_main.obj
 0002:00009dd4       ??_C@_0O@OLAMNCIN@BOTH_T6_T__TR?$AA@ 40040dd4     ui_main.obj
 0002:00009de4       ??_C@_0O@OHFJDNGM@BOTH_T6_T___R?$AA@ 40040de4     ui_main.obj
 0002:00009df4       ??_C@_0O@PDKHANEP@BOTH_T6_T__BR?$AA@ 40040df4     ui_main.obj
 0002:00009e04       ??_C@_0O@NPHGPGCB@BOTH_T6_TR_BL?$AA@ 40040e04     ui_main.obj
 0002:00009e14       ??_C@_0O@MLIIMGAC@BOTH_T6_TR__L?$AA@ 40040e14     ui_main.obj
 0002:00009e24       ??_C@_0O@MHNNCJOD@BOTH_T6_TR_TL?$AA@ 40040e24     ui_main.obj
 0002:00009e34       ??_C@_0O@LDHMJPO@BOTH_T6_TR_BR?$AA@ 40040e34     ui_main.obj
 0002:00009e44       ??_C@_0O@LFLBAGOC@BOTH_T6__R_BL?$AA@ 40040e44     ui_main.obj
 0002:00009e54       ??_C@_0O@KBEPDGMB@BOTH_T6__R__L?$AA@ 40040e54     ui_main.obj
 0002:00009e64       ??_C@_0O@KNBKNJCA@BOTH_T6__R_TL?$AA@ 40040e64     ui_main.obj
 0002:00009e74       ??_C@_0O@HJFLOGPP@BOTH_T6__R_TR?$AA@ 40040e74     ui_main.obj
 0002:00009e84       ??_C@_0O@KPJBHKH@BOTH_T6_BR_BL?$AA@ 40040e84     ui_main.obj
 0002:00009e94       ??_C@_0O@BOAHCHIE@BOTH_T6_BR__L?$AA@ 40040e94     ui_main.obj
 0002:00009ea4       ??_C@_0O@BCFCMIGF@BOTH_T6_BR_TL?$AA@ 40040ea4     ui_main.obj
 0002:00009eb4       ??_C@_0O@MKEGBIFL@BOTH_T6_BR__R?$AA@ 40040eb4     ui_main.obj
 0002:00009ec4       ??_C@_0O@DJCBPBBP@BOTH_A6_TR_BL?$AA@ 40040ec4     ui_main.obj
 0002:00009ed4       ??_C@_0O@PPJENJGH@BOTH_A6_BL_TR?$AA@ 40040ed4     ui_main.obj
 0002:00009ee4       ??_C@_0O@PEAFMPFL@BOTH_A6_BR_TL?$AA@ 40040ee4     ui_main.obj
 0002:00009ef4       ??_C@_0O@DCLAOHCD@BOTH_A6_TL_BR?$AA@ 40040ef4     ui_main.obj
 0002:00009f04       ??_C@_0O@EHBIDBPP@BOTH_A6__R__L?$AA@ 40040f04     ui_main.obj
 0002:00009f14       ??_C@_0O@EMIJCHMD@BOTH_A6__L__R?$AA@ 40040f14     ui_main.obj
 0002:00009f24       ??_C@_0O@KAFOHEDM@BOTH_A6_T__B_?$AA@ 40040f24     ui_main.obj
 0002:00009f34       ??_C@_0O@KFDHOHDF@BOTH_D5_B____?$AA@ 40040f34     ui_main.obj
 0002:00009f44       ??_C@_0O@ICHHAKGH@BOTH_D5_BL___?$AA@ 40040f44     ui_main.obj
 0002:00009f54       ??_C@_0O@DNDPBLCC@BOTH_D5__L___?$AA@ 40040f54     ui_main.obj
 0002:00009f64       ??_C@_0O@FHPIOLOB@BOTH_D5_TL___?$AA@ 40040f64     ui_main.obj
 0002:00009f74       ??_C@_0O@IICIMCAC@BOTH_D5_TR___?$AA@ 40040f74     ui_main.obj
 0002:00009f84       ??_C@_0O@OCOPDCMB@BOTH_D5__R___?$AA@ 40040f84     ui_main.obj
 0002:00009f94       ??_C@_0O@FNKHCDIE@BOTH_D5_BR___?$AA@ 40040f94     ui_main.obj
 0002:00009fa4       ??_C@_0O@PBGNHDON@BOTH_B5_BL___?$AA@ 40040fa4     ui_main.obj
 0002:00009fb4       ??_C@_0O@EOCFGCKI@BOTH_B5__L___?$AA@ 40040fb4     ui_main.obj
 0002:00009fc4       ??_C@_0O@CEOCJCGL@BOTH_B5_TL___?$AA@ 40040fc4     ui_main.obj
 0002:00009fd4       ??_C@_0O@DKCHPDJ@BOTH_B5_T____?$AA@ 40040fd4     ui_main.obj
 0002:00009fe4       ??_C@_0O@PLDCLLII@BOTH_B5_TR___?$AA@ 40040fe4     ui_main.obj
 0002:00009ff4       ??_C@_0O@JBPFELEL@BOTH_B5__R___?$AA@ 40040ff4     ui_main.obj
 0002:0000a004       ??_C@_0O@COLNFKAO@BOTH_B5_BR___?$AA@ 40041004     ui_main.obj
 0002:0000a014       ??_C@_0O@KFJGEGLE@BOTH_R5_TR_S1?$AA@ 40041014     ui_main.obj
 0002:0000a024       ??_C@_0O@KPMJIONB@BOTH_R5_BL_S1?$AA@ 40041024     ui_main.obj
 0002:0000a034       ??_C@_0O@HABJKHDC@BOTH_R5_BR_S1?$AA@ 40041034     ui_main.obj
 0002:0000a044       ??_C@_0O@HKEGGPFH@BOTH_R5_TL_S1?$AA@ 40041044     ui_main.obj
 0002:0000a054       ??_C@_0O@MPFBLGHH@BOTH_R5__R_S1?$AA@ 40041054     ui_main.obj
 0002:0000a064       ??_C@_0O@BAIBJPJE@BOTH_R5__L_S1?$AA@ 40041064     ui_main.obj
 0002:0000a074       ??_C@_0O@IIIJGDID@BOTH_R5_B__S1?$AA@ 40041074     ui_main.obj
 0002:0000a084       ??_C@_0O@DKOFEBDD@BOTH_S5_S1_TR?$AA@ 40041084     ui_main.obj
 0002:0000a094       ??_C@_0O@PGAPKBCO@BOTH_S5_S1_BL?$AA@ 40041094     ui_main.obj
 0002:0000a0a4       ??_C@_0O@CCEOJOPB@BOTH_S5_S1_BR?$AA@ 400410a4     ui_main.obj
 0002:0000a0b4       ??_C@_0O@OOKEHOOM@BOTH_S5_S1_TL?$AA@ 400410b4     ui_main.obj
 0002:0000a0c4       ??_C@_0O@DGLAKONC@BOTH_S5_S1__R?$AA@ 400410c4     ui_main.obj
 0002:0000a0d4       ??_C@_0O@OCPBJBAN@BOTH_S5_S1__L?$AA@ 400410d4     ui_main.obj
 0002:0000a0e4       ??_C@_0O@IPELDPHO@BOTH_S5_S1_T_?$AA@ 400410e4     ui_main.obj
 0002:0000a0f4       ??_C@_0O@EDANOGGF@BOTH_T5_BL_TL?$AA@ 400410f4     ui_main.obj
 0002:0000a104       ??_C@_0O@CCOCKHPH@BOTH_T5_BL_T_?$AA@ 40041104     ui_main.obj
 0002:0000a114       ??_C@_0O@OEOOCIOC@BOTH_T5__L_BL?$AA@ 40041114     ui_main.obj
 0002:0000a124       ??_C@_0O@JNKKLGLC@BOTH_T5__L_T_?$AA@ 40041124     ui_main.obj
 0002:0000a134       ??_C@_0O@CIAEMIPP@BOTH_T5__L_TR?$AA@ 40041134     ui_main.obj
 0002:0000a144       ??_C@_0O@JKNHOIAC@BOTH_T5_TL__L?$AA@ 40041144     ui_main.obj
 0002:0000a154       ??_C@_0O@PHGNEGHB@BOTH_T5_TL_T_?$AA@ 40041154     ui_main.obj
 0002:0000a164       ??_C@_0O@ECMDDIDM@BOTH_T5_TL_TR?$AA@ 40041164     ui_main.obj
 0002:0000a174       ??_C@_0O@EOJGNHNN@BOTH_T5_TL__R?$AA@ 40041174     ui_main.obj
 0002:0000a184       ??_C@_0O@CILNGPJC@BOTH_T5_TR_T_?$AA@ 40041184     ui_main.obj
 0002:0000a194       ??_C@_0O@JBEGPODO@BOTH_T5_TR__R?$AA@ 40041194     ui_main.obj
 0002:0000a1a4       ??_C@_0O@ECHKJPFB@BOTH_T5__R_T_?$AA@ 400411a4     ui_main.obj
 0002:0000a1b4       ??_C@_0O@OPHPDONO@BOTH_T5__R_BR?$AA@ 400411b4     ui_main.obj
 0002:0000a1c4       ??_C@_0O@PNDCIOBE@BOTH_T5_BR_T_?$AA@ 400411c4     ui_main.obj
 0002:0000a1d4       ??_C@_0O@EIJMPAFJ@BOTH_T5_BR_TR?$AA@ 400411d4     ui_main.obj
 0002:0000a1e4       ??_C@_0O@EPFIAJIE@BOTH_T5_BL__L?$AA@ 400411e4     ui_main.obj
 0002:0000a1f4       ??_C@_0O@JHEMNJLK@BOTH_T5_BL_TR?$AA@ 400411f4     ui_main.obj
 0002:0000a204       ??_C@_0O@JLBJDGFL@BOTH_T5_BL__R?$AA@ 40041204     ui_main.obj
 0002:0000a214       ??_C@_0O@IPOHAGHI@BOTH_T5_BL_BR?$AA@ 40041214     ui_main.obj
 0002:0000a224       ??_C@_0O@PMEFPHCA@BOTH_T5__L_TL?$AA@ 40041224     ui_main.obj
 0002:0000a234       ??_C@_0O@CEFBCHBO@BOTH_T5__L__R?$AA@ 40041234     ui_main.obj
 0002:0000a244       ??_C@_0O@DAKPBHDN@BOTH_T5__L_BR?$AA@ 40041244     ui_main.obj
 0002:0000a254       ??_C@_0O@IOCJNICB@BOTH_T5_TL_BL?$AA@ 40041254     ui_main.obj
 0002:0000a264       ??_C@_0O@FKGIOHPO@BOTH_T5_TL_BR?$AA@ 40041264     ui_main.obj
 0002:0000a274       ??_C@_0O@KJGJDFHD@BOTH_T5_T__BL?$AA@ 40041274     ui_main.obj
 0002:0000a284       ??_C@_0O@LNJHAFFA@BOTH_T5_T___L?$AA@ 40041284     ui_main.obj
 0002:0000a294       ??_C@_0O@LBMCOKLB@BOTH_T5_T__TL?$AA@ 40041294     ui_main.obj
 0002:0000a2a4       ??_C@_0O@GFIDNFGO@BOTH_T5_T__TR?$AA@ 400412a4     ui_main.obj
 0002:0000a2b4       ??_C@_0O@GJNGDKIP@BOTH_T5_T___R?$AA@ 400412b4     ui_main.obj
 0002:0000a2c4       ??_C@_0O@HNCIAKKM@BOTH_T5_T__BR?$AA@ 400412c4     ui_main.obj
 0002:0000a2d4       ??_C@_0O@FBPJPBMC@BOTH_T5_TR_BL?$AA@ 400412d4     ui_main.obj
 0002:0000a2e4       ??_C@_0O@EFAHMBOB@BOTH_T5_TR__L?$AA@ 400412e4     ui_main.obj
 0002:0000a2f4       ??_C@_0O@EJFCCOAA@BOTH_T5_TR_TL?$AA@ 400412f4     ui_main.obj
 0002:0000a304       ??_C@_0O@IFLIMOBN@BOTH_T5_TR_BR?$AA@ 40041304     ui_main.obj
 0002:0000a314       ??_C@_0O@DLDOABAB@BOTH_T5__R_BL?$AA@ 40041314     ui_main.obj
 0002:0000a324       ??_C@_0O@CPMADBCC@BOTH_T5__R__L?$AA@ 40041324     ui_main.obj
 0002:0000a334       ??_C@_0O@CDJFNOMD@BOTH_T5__R_TL?$AA@ 40041334     ui_main.obj
 0002:0000a344       ??_C@_0O@PHNEOBBM@BOTH_T5__R_TR?$AA@ 40041344     ui_main.obj
 0002:0000a354       ??_C@_0O@IEHGBAEE@BOTH_T5_BR_BL?$AA@ 40041354     ui_main.obj
 0002:0000a364       ??_C@_0O@JAIICAGH@BOTH_T5_BR__L?$AA@ 40041364     ui_main.obj
 0002:0000a374       ??_C@_0O@JMNNMPIG@BOTH_T5_BR_TL?$AA@ 40041374     ui_main.obj
 0002:0000a384       ??_C@_0O@EEMJBPLI@BOTH_T5_BR__R?$AA@ 40041384     ui_main.obj
 0002:0000a394       ??_C@_0O@LHKOPGPM@BOTH_A5_TR_BL?$AA@ 40041394     ui_main.obj
 0002:0000a3a4       ??_C@_0O@HBBLNOIE@BOTH_A5_BL_TR?$AA@ 400413a4     ui_main.obj
 0002:0000a3b4       ??_C@_0O@HKIKMILI@BOTH_A5_BR_TL?$AA@ 400413b4     ui_main.obj
 0002:0000a3c4       ??_C@_0O@LMDPOAMA@BOTH_A5_TL_BR?$AA@ 400413c4     ui_main.obj
 0002:0000a3d4       ??_C@_0O@MJJHDGBM@BOTH_A5__R__L?$AA@ 400413d4     ui_main.obj
 0002:0000a3e4       ??_C@_0O@MCAGCACA@BOTH_A5__L__R?$AA@ 400413e4     ui_main.obj
 0002:0000a3f4       ??_C@_0O@CONBHDNP@BOTH_A5_T__B_?$AA@ 400413f4     ui_main.obj
 0002:0000a404       ??_C@_0O@GJJNOHKL@BOTH_D4_B____?$AA@ 40041404     ui_main.obj
 0002:0000a414       ??_C@_0O@EONNAKPJ@BOTH_D4_BL___?$AA@ 40041414     ui_main.obj
 0002:0000a424       ??_C@_0O@PBJFBLLM@BOTH_D4__L___?$AA@ 40041424     ui_main.obj
 0002:0000a434       ??_C@_0O@JLFCOLHP@BOTH_D4_TL___?$AA@ 40041434     ui_main.obj
 0002:0000a444       ??_C@_0O@EEICMCJM@BOTH_D4_TR___?$AA@ 40041444     ui_main.obj
 0002:0000a454       ??_C@_0O@COEFDCFP@BOTH_D4__R___?$AA@ 40041454     ui_main.obj
 0002:0000a464       ??_C@_0O@JBANCDBK@BOTH_D4_BR___?$AA@ 40041464     ui_main.obj
 0002:0000a474       ??_C@_0O@DNMHHDHD@BOTH_B4_BL___?$AA@ 40041474     ui_main.obj
 0002:0000a484       ??_C@_0O@ICIPGCDG@BOTH_B4__L___?$AA@ 40041484     ui_main.obj
 0002:0000a494       ??_C@_0O@OIEIJCPF@BOTH_B4_TL___?$AA@ 40041494     ui_main.obj
 0002:0000a4a4       ??_C@_0O@MPAIHPKH@BOTH_B4_T____?$AA@ 400414a4     ui_main.obj
 0002:0000a4b4       ??_C@_0O@DHJILLBG@BOTH_B4_TR___?$AA@ 400414b4     ui_main.obj
 0002:0000a4c4       ??_C@_0O@FNFPELNF@BOTH_B4__R___?$AA@ 400414c4     ui_main.obj
 0002:0000a4d4       ??_C@_0O@OCBHFKJA@BOTH_B4_BR___?$AA@ 400414d4     ui_main.obj
 0002:0000a4e4       ??_C@_0O@GJDMEGCK@BOTH_R4_TR_S1?$AA@ 400414e4     ui_main.obj
 0002:0000a4f4       ??_C@_0O@GDGDIOEP@BOTH_R4_BL_S1?$AA@ 400414f4     ui_main.obj
 0002:0000a504       ??_C@_0O@LMLDKHKM@BOTH_R4_BR_S1?$AA@ 40041504     ui_main.obj
 0002:0000a514       ??_C@_0O@LGOMGPMJ@BOTH_R4_TL_S1?$AA@ 40041514     ui_main.obj
 0002:0000a524       ??_C@_0O@DPLLGOJ@BOTH_R4__R_S1?$AA@ 40041524     ui_main.obj
 0002:0000a534       ??_C@_0O@NMCLJPAK@BOTH_R4__L_S1?$AA@ 40041534     ui_main.obj
 0002:0000a544       ??_C@_0O@EECDGDBN@BOTH_R4_B__S1?$AA@ 40041544     ui_main.obj
 0002:0000a554       ??_C@_0O@PGEPEBKN@BOTH_S4_S1_TR?$AA@ 40041554     ui_main.obj
 0002:0000a564       ??_C@_0O@DKKFKBLA@BOTH_S4_S1_BL?$AA@ 40041564     ui_main.obj
 0002:0000a574       ??_C@_0O@OOOEJOGP@BOTH_S4_S1_BR?$AA@ 40041574     ui_main.obj
 0002:0000a584       ??_C@_0O@CCAOHOHC@BOTH_S4_S1_TL?$AA@ 40041584     ui_main.obj
 0002:0000a594       ??_C@_0O@PKBKKOEM@BOTH_S4_S1__R?$AA@ 40041594     ui_main.obj
 0002:0000a5a4       ??_C@_0O@COFLJBJD@BOTH_S4_S1__L?$AA@ 400415a4     ui_main.obj
 0002:0000a5b4       ??_C@_0O@EDOBDPOA@BOTH_S4_S1_T_?$AA@ 400415b4     ui_main.obj
 0002:0000a5c4       ??_C@_0O@IPKHOGPL@BOTH_T4_BL_TL?$AA@ 400415c4     ui_main.obj
 0002:0000a5d4       ??_C@_0O@OOEIKHGJ@BOTH_T4_BL_T_?$AA@ 400415d4     ui_main.obj
 0002:0000a5e4       ??_C@_0O@CIEECIHM@BOTH_T4__L_BL?$AA@ 400415e4     ui_main.obj
 0002:0000a5f4       ??_C@_0O@FBAALGCM@BOTH_T4__L_T_?$AA@ 400415f4     ui_main.obj
 0002:0000a604       ??_C@_0O@OEKOMIGB@BOTH_T4__L_TR?$AA@ 40041604     ui_main.obj
 0002:0000a614       ??_C@_0O@FGHNOIJM@BOTH_T4_TL__L?$AA@ 40041614     ui_main.obj
 0002:0000a624       ??_C@_0O@DLMHEGOP@BOTH_T4_TL_T_?$AA@ 40041624     ui_main.obj
 0002:0000a634       ??_C@_0O@IOGJDIKC@BOTH_T4_TL_TR?$AA@ 40041634     ui_main.obj
 0002:0000a644       ??_C@_0O@ICDMNHED@BOTH_T4_TL__R?$AA@ 40041644     ui_main.obj
 0002:0000a654       ??_C@_0O@OEBHGPAM@BOTH_T4_TR_T_?$AA@ 40041654     ui_main.obj
 0002:0000a664       ??_C@_0O@FNOMPOKA@BOTH_T4_TR__R?$AA@ 40041664     ui_main.obj
 0002:0000a674       ??_C@_0O@IONAJPMP@BOTH_T4__R_T_?$AA@ 40041674     ui_main.obj
 0002:0000a684       ??_C@_0O@CDNFDOEA@BOTH_T4__R_BR?$AA@ 40041684     ui_main.obj
 0002:0000a694       ??_C@_0O@DBJIIOIK@BOTH_T4_BR_T_?$AA@ 40041694     ui_main.obj
 0002:0000a6a4       ??_C@_0O@IEDGPAMH@BOTH_T4_BR_TR?$AA@ 400416a4     ui_main.obj
 0002:0000a6b4       ??_C@_0O@IDPCAJBK@BOTH_T4_BL__L?$AA@ 400416b4     ui_main.obj
 0002:0000a6c4       ??_C@_0O@FLOGNJCE@BOTH_T4_BL_TR?$AA@ 400416c4     ui_main.obj
 0002:0000a6d4       ??_C@_0O@FHLDDGMF@BOTH_T4_BL__R?$AA@ 400416d4     ui_main.obj
 0002:0000a6e4       ??_C@_0O@EDENAGOG@BOTH_T4_BL_BR?$AA@ 400416e4     ui_main.obj
 0002:0000a6f4       ??_C@_0O@DAOPPHLO@BOTH_T4__L_TL?$AA@ 400416f4     ui_main.obj
 0002:0000a704       ??_C@_0O@OIPLCHIA@BOTH_T4__L__R?$AA@ 40041704     ui_main.obj
 0002:0000a714       ??_C@_0O@PMAFBHKD@BOTH_T4__L_BR?$AA@ 40041714     ui_main.obj
 0002:0000a724       ??_C@_0O@ECIDNILP@BOTH_T4_TL_BL?$AA@ 40041724     ui_main.obj
 0002:0000a734       ??_C@_0O@JGMCOHGA@BOTH_T4_TL_BR?$AA@ 40041734     ui_main.obj
 0002:0000a744       ??_C@_0O@GFMDDFON@BOTH_T4_T__BL?$AA@ 40041744     ui_main.obj
 0002:0000a754       ??_C@_0O@HBDNAFMO@BOTH_T4_T___L?$AA@ 40041754     ui_main.obj
 0002:0000a764       ??_C@_0O@HNGIOKCP@BOTH_T4_T__TL?$AA@ 40041764     ui_main.obj
 0002:0000a774       ??_C@_0O@KJCJNFPA@BOTH_T4_T__TR?$AA@ 40041774     ui_main.obj
 0002:0000a784       ??_C@_0O@KFHMDKBB@BOTH_T4_T___R?$AA@ 40041784     ui_main.obj
 0002:0000a794       ??_C@_0O@LBICAKDC@BOTH_T4_T__BR?$AA@ 40041794     ui_main.obj
 0002:0000a7a4       ??_C@_0O@JNFDPBFM@BOTH_T4_TR_BL?$AA@ 400417a4     ui_main.obj
 0002:0000a7b4       ??_C@_0O@IJKNMBHP@BOTH_T4_TR__L?$AA@ 400417b4     ui_main.obj
 0002:0000a7c4       ??_C@_0O@IFPICOJO@BOTH_T4_TR_TL?$AA@ 400417c4     ui_main.obj
 0002:0000a7d4       ??_C@_0O@EJBCMOID@BOTH_T4_TR_BR?$AA@ 400417d4     ui_main.obj
 0002:0000a7e4       ??_C@_0O@PHJEABJP@BOTH_T4__R_BL?$AA@ 400417e4     ui_main.obj
 0002:0000a7f4       ??_C@_0O@ODGKDBLM@BOTH_T4__R__L?$AA@ 400417f4     ui_main.obj
 0002:0000a804       ??_C@_0O@OPDPNOFN@BOTH_T4__R_TL?$AA@ 40041804     ui_main.obj
 0002:0000a814       ??_C@_0O@DLHOOBIC@BOTH_T4__R_TR?$AA@ 40041814     ui_main.obj
 0002:0000a824       ??_C@_0O@EINMBANK@BOTH_T4_BR_BL?$AA@ 40041824     ui_main.obj
 0002:0000a834       ??_C@_0O@FMCCCAPJ@BOTH_T4_BR__L?$AA@ 40041834     ui_main.obj
 0002:0000a844       ??_C@_0O@FAHHMPBI@BOTH_T4_BR_TL?$AA@ 40041844     ui_main.obj
 0002:0000a854       ??_C@_0O@IIGDBPCG@BOTH_T4_BR__R?$AA@ 40041854     ui_main.obj
 0002:0000a864       ??_C@_0O@HLAEPGGC@BOTH_A4_TR_BL?$AA@ 40041864     ui_main.obj
 0002:0000a874       ??_C@_0O@LNLBNOBK@BOTH_A4_BL_TR?$AA@ 40041874     ui_main.obj
 0002:0000a884       ??_C@_0O@LGCAMICG@BOTH_A4_BR_TL?$AA@ 40041884     ui_main.obj
 0002:0000a894       ??_C@_0O@HAJFOAFO@BOTH_A4_TL_BR?$AA@ 40041894     ui_main.obj
 0002:0000a8a4       ??_C@_0O@FDNDGIC@BOTH_A4__R__L?$AA@ 400418a4     ui_main.obj
 0002:0000a8b4       ??_C@_0O@OKMCALO@BOTH_A4__L__R?$AA@ 400418b4     ui_main.obj
 0002:0000a8c4       ??_C@_0O@OCHLHDEB@BOTH_A4_T__B_?$AA@ 400418c4     ui_main.obj
 0002:0000a8d4       ??_C@_0O@GDFIOOLC@BOTH_D3_B____?$AA@ 400418d4     ui_main.obj
 0002:0000a8e4       ??_C@_0O@EEBIADOA@BOTH_D3_BL___?$AA@ 400418e4     ui_main.obj
 0002:0000a8f4       ??_C@_0O@PLFABCKF@BOTH_D3__L___?$AA@ 400418f4     ui_main.obj
 0002:0000a904       ??_C@_0O@JBJHOCGG@BOTH_D3_TL___?$AA@ 40041904     ui_main.obj
 0002:0000a914       ??_C@_0O@EOEHMLIF@BOTH_D3_TR___?$AA@ 40041914     ui_main.obj
 0002:0000a924       ??_C@_0O@CEIADLEG@BOTH_D3__R___?$AA@ 40041924     ui_main.obj
 0002:0000a934       ??_C@_0O@JLMICKAD@BOTH_D3_BR___?$AA@ 40041934     ui_main.obj
 0002:0000a944       ??_C@_0O@DHACHKGK@BOTH_B3_BL___?$AA@ 40041944     ui_main.obj
 0002:0000a954       ??_C@_0O@IIEKGLCP@BOTH_B3__L___?$AA@ 40041954     ui_main.obj
 0002:0000a964       ??_C@_0O@OCINJLOM@BOTH_B3_TL___?$AA@ 40041964     ui_main.obj
 0002:0000a974       ??_C@_0O@MFMNHGLO@BOTH_B3_T____?$AA@ 40041974     ui_main.obj
 0002:0000a984       ??_C@_0O@DNFNLCAP@BOTH_B3_TR___?$AA@ 40041984     ui_main.obj
 0002:0000a994       ??_C@_0O@FHJKECMM@BOTH_B3__R___?$AA@ 40041994     ui_main.obj
 0002:0000a9a4       ??_C@_0O@OINCFDIJ@BOTH_B3_BR___?$AA@ 400419a4     ui_main.obj
 0002:0000a9b4       ??_C@_0O@GDPJEPDD@BOTH_R3_TR_S1?$AA@ 400419b4     ui_main.obj
 0002:0000a9c4       ??_C@_0O@GJKGIHFG@BOTH_R3_BL_S1?$AA@ 400419c4     ui_main.obj
 0002:0000a9d4       ??_C@_0O@LGHGKOLF@BOTH_R3_BR_S1?$AA@ 400419d4     ui_main.obj
 0002:0000a9e4       ??_C@_0O@LMCJGGNA@BOTH_R3_TL_S1?$AA@ 400419e4     ui_main.obj
 0002:0000a9f4       ??_C@_0O@JDOLPPA@BOTH_R3__R_S1?$AA@ 400419f4     ui_main.obj
 0002:0000aa04       ??_C@_0O@NGOOJGBD@BOTH_R3__L_S1?$AA@ 40041a04     ui_main.obj
 0002:0000aa14       ??_C@_0O@EOOGGKAE@BOTH_R3_B__S1?$AA@ 40041a14     ui_main.obj
 0002:0000aa24       ??_C@_0O@PMIKEILE@BOTH_S3_S1_TR?$AA@ 40041a24     ui_main.obj
 0002:0000aa34       ??_C@_0O@DAGAKIKJ@BOTH_S3_S1_BL?$AA@ 40041a34     ui_main.obj
 0002:0000aa44       ??_C@_0O@OECBJHHG@BOTH_S3_S1_BR?$AA@ 40041a44     ui_main.obj
 0002:0000aa54       ??_C@_0O@CIMLHHGL@BOTH_S3_S1_TL?$AA@ 40041a54     ui_main.obj
 0002:0000aa64       ??_C@_0O@PANPKHFF@BOTH_S3_S1__R?$AA@ 40041a64     ui_main.obj
 0002:0000aa74       ??_C@_0O@CEJOJIIK@BOTH_S3_S1__L?$AA@ 40041a74     ui_main.obj
 0002:0000aa84       ??_C@_0O@EJCEDGPJ@BOTH_S3_S1_T_?$AA@ 40041a84     ui_main.obj
 0002:0000aa94       ??_C@_0O@IFGCOPOC@BOTH_T3_BL_TL?$AA@ 40041a94     ui_main.obj
 0002:0000aaa4       ??_C@_0O@OEINKOHA@BOTH_T3_BL_T_?$AA@ 40041aa4     ui_main.obj
 0002:0000aab4       ??_C@_0O@CCIBCBGF@BOTH_T3__L_BL?$AA@ 40041ab4     ui_main.obj
 0002:0000aac4       ??_C@_0O@FLMFLPDF@BOTH_T3__L_T_?$AA@ 40041ac4     ui_main.obj
 0002:0000aad4       ??_C@_0O@OOGLMBHI@BOTH_T3__L_TR?$AA@ 40041ad4     ui_main.obj
 0002:0000aae4       ??_C@_0O@FMLIOBIF@BOTH_T3_TL__L?$AA@ 40041ae4     ui_main.obj
 0002:0000aaf4       ??_C@_0O@DBACEPPG@BOTH_T3_TL_T_?$AA@ 40041af4     ui_main.obj
 0002:0000ab04       ??_C@_0O@IEKMDBLL@BOTH_T3_TL_TR?$AA@ 40041b04     ui_main.obj
 0002:0000ab14       ??_C@_0O@IIPJNOFK@BOTH_T3_TL__R?$AA@ 40041b14     ui_main.obj
 0002:0000ab24       ??_C@_0O@OONCGGBF@BOTH_T3_TR_T_?$AA@ 40041b24     ui_main.obj
 0002:0000ab34       ??_C@_0O@FHCJPHLJ@BOTH_T3_TR__R?$AA@ 40041b34     ui_main.obj
 0002:0000ab44       ??_C@_0O@IEBFJGNG@BOTH_T3__R_T_?$AA@ 40041b44     ui_main.obj
 0002:0000ab54       ??_C@_0O@CJBADHFJ@BOTH_T3__R_BR?$AA@ 40041b54     ui_main.obj
 0002:0000ab64       ??_C@_0O@DLFNIHJD@BOTH_T3_BR_T_?$AA@ 40041b64     ui_main.obj
 0002:0000ab74       ??_C@_0O@IOPDPJNO@BOTH_T3_BR_TR?$AA@ 40041b74     ui_main.obj
 0002:0000ab84       ??_C@_0O@IJDHAAAD@BOTH_T3_BL__L?$AA@ 40041b84     ui_main.obj
 0002:0000ab94       ??_C@_0O@FBCDNADN@BOTH_T3_BL_TR?$AA@ 40041b94     ui_main.obj
 0002:0000aba4       ??_C@_0O@FNHGDPNM@BOTH_T3_BL__R?$AA@ 40041ba4     ui_main.obj
 0002:0000abb4       ??_C@_0O@EJIIAPPP@BOTH_T3_BL_BR?$AA@ 40041bb4     ui_main.obj
 0002:0000abc4       ??_C@_0O@DKCKPOKH@BOTH_T3__L_TL?$AA@ 40041bc4     ui_main.obj
 0002:0000abd4       ??_C@_0O@OCDOCOJJ@BOTH_T3__L__R?$AA@ 40041bd4     ui_main.obj
 0002:0000abe4       ??_C@_0O@PGMABOLK@BOTH_T3__L_BR?$AA@ 40041be4     ui_main.obj
 0002:0000abf4       ??_C@_0O@EIEGNBKG@BOTH_T3_TL_BL?$AA@ 40041bf4     ui_main.obj
 0002:0000ac04       ??_C@_0O@JMAHOOHJ@BOTH_T3_TL_BR?$AA@ 40041c04     ui_main.obj
 0002:0000ac14       ??_C@_0O@GPAGDMPE@BOTH_T3_T__BL?$AA@ 40041c14     ui_main.obj
 0002:0000ac24       ??_C@_0O@HLPIAMNH@BOTH_T3_T___L?$AA@ 40041c24     ui_main.obj
 0002:0000ac34       ??_C@_0O@HHKNODDG@BOTH_T3_T__TL?$AA@ 40041c34     ui_main.obj
 0002:0000ac44       ??_C@_0O@KDOMNMOJ@BOTH_T3_T__TR?$AA@ 40041c44     ui_main.obj
 0002:0000ac54       ??_C@_0O@KPLJDDAI@BOTH_T3_T___R?$AA@ 40041c54     ui_main.obj
 0002:0000ac64       ??_C@_0O@LLEHADCL@BOTH_T3_T__BR?$AA@ 40041c64     ui_main.obj
 0002:0000ac74       ??_C@_0O@JHJGPIEF@BOTH_T3_TR_BL?$AA@ 40041c74     ui_main.obj
 0002:0000ac84       ??_C@_0O@IDGIMIGG@BOTH_T3_TR__L?$AA@ 40041c84     ui_main.obj
 0002:0000ac94       ??_C@_0O@IPDNCHIH@BOTH_T3_TR_TL?$AA@ 40041c94     ui_main.obj
 0002:0000aca4       ??_C@_0O@EDNHMHJK@BOTH_T3_TR_BR?$AA@ 40041ca4     ui_main.obj
 0002:0000acb4       ??_C@_0O@PNFBAIIG@BOTH_T3__R_BL?$AA@ 40041cb4     ui_main.obj
 0002:0000acc4       ??_C@_0O@OJKPDIKF@BOTH_T3__R__L?$AA@ 40041cc4     ui_main.obj
 0002:0000acd4       ??_C@_0O@OFPKNHEE@BOTH_T3__R_TL?$AA@ 40041cd4     ui_main.obj
 0002:0000ace4       ??_C@_0O@DBLLOIJL@BOTH_T3__R_TR?$AA@ 40041ce4     ui_main.obj
 0002:0000acf4       ??_C@_0O@ECBJBJMD@BOTH_T3_BR_BL?$AA@ 40041cf4     ui_main.obj
 0002:0000ad04       ??_C@_0O@FGOHCJOA@BOTH_T3_BR__L?$AA@ 40041d04     ui_main.obj
 0002:0000ad14       ??_C@_0O@FKLCMGAB@BOTH_T3_BR_TL?$AA@ 40041d14     ui_main.obj
 0002:0000ad24       ??_C@_0O@ICKGBGDP@BOTH_T3_BR__R?$AA@ 40041d24     ui_main.obj
 0002:0000ad34       ??_C@_0O@HBMBPPHL@BOTH_A3_TR_BL?$AA@ 40041d34     ui_main.obj
 0002:0000ad44       ??_C@_0O@LHHENHAD@BOTH_A3_BL_TR?$AA@ 40041d44     ui_main.obj
 0002:0000ad54       ??_C@_0O@LMOFMBDP@BOTH_A3_BR_TL?$AA@ 40041d54     ui_main.obj
 0002:0000ad64       ??_C@_0O@HKFAOJEH@BOTH_A3_TL_BR?$AA@ 40041d64     ui_main.obj
 0002:0000ad74       ??_C@_0O@PPIDPJL@BOTH_A3__R__L?$AA@ 40041d74     ui_main.obj
 0002:0000ad84       ??_C@_0O@EGJCJKH@BOTH_A3__L__R?$AA@ 40041d84     ui_main.obj
 0002:0000ad94       ??_C@_0O@OILOHKFI@BOTH_A3_T__B_?$AA@ 40041d94     ui_main.obj
 0002:0000ada4       ??_C@_0O@KPPCOOCM@BOTH_D2_B____?$AA@ 40041da4     ui_main.obj
 0002:0000adb4       ??_C@_0O@IILCADHO@BOTH_D2_BL___?$AA@ 40041db4     ui_main.obj
 0002:0000adc4       ??_C@_0O@DHPKBCDL@BOTH_D2__L___?$AA@ 40041dc4     ui_main.obj
 0002:0000add4       ??_C@_0O@FNDNOCPI@BOTH_D2_TL___?$AA@ 40041dd4     ui_main.obj
 0002:0000ade4       ??_C@_0O@ICONMLBL@BOTH_D2_TR___?$AA@ 40041de4     ui_main.obj
 0002:0000adf4       ??_C@_0O@OICKDLNI@BOTH_D2__R___?$AA@ 40041df4     ui_main.obj
 0002:0000ae04       ??_C@_0O@FHGCCKJN@BOTH_D2_BR___?$AA@ 40041e04     ui_main.obj
 0002:0000ae14       ??_C@_0O@PLKIHKPE@BOTH_B2_BL___?$AA@ 40041e14     ui_main.obj
 0002:0000ae24       ??_C@_0O@EEOAGLLB@BOTH_B2__L___?$AA@ 40041e24     ui_main.obj
 0002:0000ae34       ??_C@_0O@COCHJLHC@BOTH_B2_TL___?$AA@ 40041e34     ui_main.obj
 0002:0000ae44       ??_C@_0O@JGHHGCA@BOTH_B2_T____?$AA@ 40041e44     ui_main.obj
 0002:0000ae54       ??_C@_0O@PBPHLCJB@BOTH_B2_TR___?$AA@ 40041e54     ui_main.obj
 0002:0000ae64       ??_C@_0O@JLDAECFC@BOTH_B2__R___?$AA@ 40041e64     ui_main.obj
 0002:0000ae74       ??_C@_0O@CEHIFDBH@BOTH_B2_BR___?$AA@ 40041e74     ui_main.obj
 0002:0000ae84       ??_C@_0O@KPFDEPKN@BOTH_R2_TR_S1?$AA@ 40041e84     ui_main.obj
 0002:0000ae94       ??_C@_0O@KFAMIHMI@BOTH_R2_BL_S1?$AA@ 40041e94     ui_main.obj
 0002:0000aea4       ??_C@_0O@HKNMKOCL@BOTH_R2_BR_S1?$AA@ 40041ea4     ui_main.obj
 0002:0000aeb4       ??_C@_0O@HAIDGGEO@BOTH_R2_TL_S1?$AA@ 40041eb4     ui_main.obj
 0002:0000aec4       ??_C@_0O@MFJELPGO@BOTH_R2__R_S1?$AA@ 40041ec4     ui_main.obj
 0002:0000aed4       ??_C@_0O@BKEEJGIN@BOTH_R2__L_S1?$AA@ 40041ed4     ui_main.obj
 0002:0000aee4       ??_C@_0O@ICEMGKJK@BOTH_R2_B__S1?$AA@ 40041ee4     ui_main.obj
 0002:0000aef4       ??_C@_0O@DACAEICK@BOTH_S2_S1_TR?$AA@ 40041ef4     ui_main.obj
 0002:0000af04       ??_C@_0O@PMMKKIDH@BOTH_S2_S1_BL?$AA@ 40041f04     ui_main.obj
 0002:0000af14       ??_C@_0O@CIILJHOI@BOTH_S2_S1_BR?$AA@ 40041f14     ui_main.obj
 0002:0000af24       ??_C@_0O@OEGBHHPF@BOTH_S2_S1_TL?$AA@ 40041f24     ui_main.obj
 0002:0000af34       ??_C@_0O@DMHFKHML@BOTH_S2_S1__R?$AA@ 40041f34     ui_main.obj
 0002:0000af44       ??_C@_0O@OIDEJIBE@BOTH_S2_S1__L?$AA@ 40041f44     ui_main.obj
 0002:0000af54       ??_C@_0O@IFIODGGH@BOTH_S2_S1_T_?$AA@ 40041f54     ui_main.obj
 0002:0000af64       ??_C@_0O@EJMIOPHM@BOTH_T2_BL_TL?$AA@ 40041f64     ui_main.obj
 0002:0000af74       ??_C@_0O@CICHKOOO@BOTH_T2_BL_T_?$AA@ 40041f74     ui_main.obj
 0002:0000af84       ??_C@_0O@OOCLCBPL@BOTH_T2__L_BL?$AA@ 40041f84     ui_main.obj
 0002:0000af94       ??_C@_0O@JHGPLPKL@BOTH_T2__L_T_?$AA@ 40041f94     ui_main.obj
 0002:0000afa4       ??_C@_0O@CCMBMBOG@BOTH_T2__L_TR?$AA@ 40041fa4     ui_main.obj
 0002:0000afb4       ??_C@_0O@JABCOBBL@BOTH_T2_TL__L?$AA@ 40041fb4     ui_main.obj
 0002:0000afc4       ??_C@_0O@PNKIEPGI@BOTH_T2_TL_T_?$AA@ 40041fc4     ui_main.obj
 0002:0000afd4       ??_C@_0O@EIAGDBCF@BOTH_T2_TL_TR?$AA@ 40041fd4     ui_main.obj
 0002:0000afe4       ??_C@_0O@EEFDNOME@BOTH_T2_TL__R?$AA@ 40041fe4     ui_main.obj
 0002:0000aff4       ??_C@_0O@CCHIGGIL@BOTH_T2_TR_T_?$AA@ 40041ff4     ui_main.obj
 0002:0000b004       ??_C@_0O@JLIDPHCH@BOTH_T2_TR__R?$AA@ 40042004     ui_main.obj
 0002:0000b014       ??_C@_0O@EILPJGEI@BOTH_T2__R_T_?$AA@ 40042014     ui_main.obj
 0002:0000b024       ??_C@_0O@OFLKDHMH@BOTH_T2__R_BR?$AA@ 40042024     ui_main.obj
 0002:0000b034       ??_C@_0O@PHPHIHAN@BOTH_T2_BR_T_?$AA@ 40042034     ui_main.obj
 0002:0000b044       ??_C@_0O@ECFJPJEA@BOTH_T2_BR_TR?$AA@ 40042044     ui_main.obj
 0002:0000b054       ??_C@_0O@EFJNAAJN@BOTH_T2_BL__L?$AA@ 40042054     ui_main.obj
 0002:0000b064       ??_C@_0O@JNIJNAKD@BOTH_T2_BL_TR?$AA@ 40042064     ui_main.obj
 0002:0000b074       ??_C@_0O@JBNMDPEC@BOTH_T2_BL__R?$AA@ 40042074     ui_main.obj
 0002:0000b084       ??_C@_0O@IFCCAPGB@BOTH_T2_BL_BR?$AA@ 40042084     ui_main.obj
 0002:0000b094       ??_C@_0O@PGIAPODJ@BOTH_T2__L_TL?$AA@ 40042094     ui_main.obj
 0002:0000b0a4       ??_C@_0O@COJECOAH@BOTH_T2__L__R?$AA@ 400420a4     ui_main.obj
 0002:0000b0b4       ??_C@_0O@DKGKBOCE@BOTH_T2__L_BR?$AA@ 400420b4     ui_main.obj
 0002:0000b0c4       ??_C@_0O@IEOMNBDI@BOTH_T2_TL_BL?$AA@ 400420c4     ui_main.obj
 0002:0000b0d4       ??_C@_0O@FAKNOOOH@BOTH_T2_TL_BR?$AA@ 400420d4     ui_main.obj
 0002:0000b0e4       ??_C@_0O@KDKMDMGK@BOTH_T2_T__BL?$AA@ 400420e4     ui_main.obj
 0002:0000b0f4       ??_C@_0O@LHFCAMEJ@BOTH_T2_T___L?$AA@ 400420f4     ui_main.obj
 0002:0000b104       ??_C@_0O@LLAHODKI@BOTH_T2_T__TL?$AA@ 40042104     ui_main.obj
 0002:0000b114       ??_C@_0O@GPEGNMHH@BOTH_T2_T__TR?$AA@ 40042114     ui_main.obj
 0002:0000b124       ??_C@_0O@GDBDDDJG@BOTH_T2_T___R?$AA@ 40042124     ui_main.obj
 0002:0000b134       ??_C@_0O@HHONADLF@BOTH_T2_T__BR?$AA@ 40042134     ui_main.obj
 0002:0000b144       ??_C@_0O@FLDMPINL@BOTH_T2_TR_BL?$AA@ 40042144     ui_main.obj
 0002:0000b154       ??_C@_0O@EPMCMIPI@BOTH_T2_TR__L?$AA@ 40042154     ui_main.obj
 0002:0000b164       ??_C@_0O@EDJHCHBJ@BOTH_T2_TR_TL?$AA@ 40042164     ui_main.obj
 0002:0000b174       ??_C@_0O@IPHNMHAE@BOTH_T2_TR_BR?$AA@ 40042174     ui_main.obj
 0002:0000b184       ??_C@_0O@DBPLAIBI@BOTH_T2__R_BL?$AA@ 40042184     ui_main.obj
 0002:0000b194       ??_C@_0O@CFAFDIDL@BOTH_T2__R__L?$AA@ 40042194     ui_main.obj
 0002:0000b1a4       ??_C@_0O@CJFANHNK@BOTH_T2__R_TL?$AA@ 400421a4     ui_main.obj
 0002:0000b1b4       ??_C@_0O@PNBBOIAF@BOTH_T2__R_TR?$AA@ 400421b4     ui_main.obj
 0002:0000b1c4       ??_C@_0O@IOLDBJFN@BOTH_T2_BR_BL?$AA@ 400421c4     ui_main.obj
 0002:0000b1d4       ??_C@_0O@JKENCJHO@BOTH_T2_BR__L?$AA@ 400421d4     ui_main.obj
 0002:0000b1e4       ??_C@_0O@JGBIMGJP@BOTH_T2_BR_TL?$AA@ 400421e4     ui_main.obj
 0002:0000b1f4       ??_C@_0O@EOAMBGKB@BOTH_T2_BR__R?$AA@ 400421f4     ui_main.obj
 0002:0000b204       ??_C@_0O@LNGLPPOF@BOTH_A2_TR_BL?$AA@ 40042204     ui_main.obj
 0002:0000b214       ??_C@_0O@HLNONHJN@BOTH_A2_BL_TR?$AA@ 40042214     ui_main.obj
 0002:0000b224       ??_C@_0O@HAEPMBKB@BOTH_A2_BR_TL?$AA@ 40042224     ui_main.obj
 0002:0000b234       ??_C@_0O@LGPKOJNJ@BOTH_A2_TL_BR?$AA@ 40042234     ui_main.obj
 0002:0000b244       ??_C@_0O@MDFCDPAF@BOTH_A2__R__L?$AA@ 40042244     ui_main.obj
 0002:0000b254       ??_C@_0O@MIMDCJDJ@BOTH_A2__L__R?$AA@ 40042254     ui_main.obj
 0002:0000b264       ??_C@_0O@CEBEHKMG@BOTH_A2_T__B_?$AA@ 40042264     ui_main.obj
 0002:0000b274       ??_C@_0O@CBHNOJMP@BOTH_D1_B____?$AA@ 40042274     ui_main.obj
 0002:0000b284       ??_C@_0O@GDNAEJN@BOTH_D1_BL___?$AA@ 40042284     ui_main.obj
 0002:0000b294       ??_C@_0O@LJHFBFNI@BOTH_D1__L___?$AA@ 40042294     ui_main.obj
 0002:0000b2a4       ??_C@_0O@NDLCOFBL@BOTH_D1_TL___?$AA@ 400422a4     ui_main.obj
 0002:0000b2b4       ??_C@_0O@MGCMMPI@BOTH_D1_TR___?$AA@ 400422b4     ui_main.obj
 0002:0000b2c4       ??_C@_0O@GGKFDMDL@BOTH_D1__R___?$AA@ 400422c4     ui_main.obj
 0002:0000b2d4       ??_C@_0O@NJONCNHO@BOTH_D1_BR___?$AA@ 400422d4     ui_main.obj
 0002:0000b2e4       ??_C@_0O@HFCHHNBH@BOTH_B1_BL___?$AA@ 400422e4     ui_main.obj
 0002:0000b2f4       ??_C@_0O@MKGPGMFC@BOTH_B1__L___?$AA@ 400422f4     ui_main.obj
 0002:0000b304       ??_C@_0O@KAKIJMJB@BOTH_B1_TL___?$AA@ 40042304     ui_main.obj
 0002:0000b314       ??_C@_0O@IHOIHBMD@BOTH_B1_T____?$AA@ 40042314     ui_main.obj
 0002:0000b324       ??_C@_0O@HPHILFHC@BOTH_B1_TR___?$AA@ 40042324     ui_main.obj
 0002:0000b334       ??_C@_0O@BFLPEFLB@BOTH_B1__R___?$AA@ 40042334     ui_main.obj
 0002:0000b344       ??_C@_0O@KKPHFEPE@BOTH_B1_BR___?$AA@ 40042344     ui_main.obj
 0002:0000b354       ??_C@_0O@CBNMEIEO@BOTH_R1_TR_S1?$AA@ 40042354     ui_main.obj
 0002:0000b364       ??_C@_0O@CLIDIACL@BOTH_R1_BL_S1?$AA@ 40042364     ui_main.obj
 0002:0000b374       ??_C@_0O@PEFDKJMI@BOTH_R1_BR_S1?$AA@ 40042374     ui_main.obj
 0002:0000b384       ??_C@_0O@POAMGBKN@BOTH_R1_TL_S1?$AA@ 40042384     ui_main.obj
 0002:0000b394       ??_C@_0O@ELBLLIIN@BOTH_R1__R_S1?$AA@ 40042394     ui_main.obj
 0002:0000b3a4       ??_C@_0O@JEMLJBGO@BOTH_R1__L_S1?$AA@ 400423a4     ui_main.obj
 0002:0000b3b4       ??_C@_0O@MMDGNHJ@BOTH_R1_B__S1?$AA@ 400423b4     ui_main.obj
 0002:0000b3c4       ??_C@_0O@LOKPEPMJ@BOTH_S1_S1_TR?$AA@ 400423c4     ui_main.obj
 0002:0000b3d4       ??_C@_0O@HCEFKPNE@BOTH_S1_S1_BL?$AA@ 400423d4     ui_main.obj
 0002:0000b3e4       ??_C@_0O@KGAEJAAL@BOTH_S1_S1_BR?$AA@ 400423e4     ui_main.obj
 0002:0000b3f4       ??_C@_0O@GKOOHABG@BOTH_S1_S1_TL?$AA@ 400423f4     ui_main.obj
 0002:0000b404       ??_C@_0O@LCPKKACI@BOTH_S1_S1__R?$AA@ 40042404     ui_main.obj
 0002:0000b414       ??_C@_0O@GGLLJPPH@BOTH_S1_S1__L?$AA@ 40042414     ui_main.obj
 0002:0000b424       ??_C@_0O@LABDBIE@BOTH_S1_S1_T_?$AA@ 40042424     ui_main.obj
 0002:0000b434       ??_C@_0O@MHEHOIJP@BOTH_T1_BL_TL?$AA@ 40042434     ui_main.obj
 0002:0000b444       ??_C@_0O@KGKIKJAN@BOTH_T1_BL_T_?$AA@ 40042444     ui_main.obj
 0002:0000b454       ??_C@_0O@GAKECGBI@BOTH_T1__L_BL?$AA@ 40042454     ui_main.obj
 0002:0000b464       ??_C@_0O@BJOALIEI@BOTH_T1__L_T_?$AA@ 40042464     ui_main.obj
 0002:0000b474       ??_C@_0O@KMEOMGAF@BOTH_T1__L_TR?$AA@ 40042474     ui_main.obj
 0002:0000b484       ??_C@_0O@BOJNOGPI@BOTH_T1_TL__L?$AA@ 40042484     ui_main.obj
 0002:0000b494       ??_C@_0O@HDCHEIIL@BOTH_T1_TL_T_?$AA@ 40042494     ui_main.obj
 0002:0000b4a4       ??_C@_0O@MGIJDGMG@BOTH_T1_TL_TR?$AA@ 400424a4     ui_main.obj
 0002:0000b4b4       ??_C@_0O@MKNMNJCH@BOTH_T1_TL__R?$AA@ 400424b4     ui_main.obj
 0002:0000b4c4       ??_C@_0O@KMPHGBGI@BOTH_T1_TR_T_?$AA@ 400424c4     ui_main.obj
 0002:0000b4d4       ??_C@_0O@BFAMPAME@BOTH_T1_TR__R?$AA@ 400424d4     ui_main.obj
 0002:0000b4e4       ??_C@_0O@MGDAJBKL@BOTH_T1__R_T_?$AA@ 400424e4     ui_main.obj
 0002:0000b4f4       ??_C@_0O@GLDFDACE@BOTH_T1__R_BR?$AA@ 400424f4     ui_main.obj
 0002:0000b504       ??_C@_0O@HJHIIAOO@BOTH_T1_BR_T_?$AA@ 40042504     ui_main.obj
 0002:0000b514       ??_C@_0O@MMNGPOKD@BOTH_T1_BR_TR?$AA@ 40042514     ui_main.obj
 0002:0000b524       ??_C@_0O@MLBCAHHO@BOTH_T1_BL__L?$AA@ 40042524     ui_main.obj
 0002:0000b534       ??_C@_0O@BDAGNHEA@BOTH_T1_BL_TR?$AA@ 40042534     ui_main.obj
 0002:0000b544       ??_C@_0O@BPFDDIKB@BOTH_T1_BL__R?$AA@ 40042544     ui_main.obj
 0002:0000b554       ??_C@_0O@LKNAIIC@BOTH_T1_BL_BR?$AA@ 40042554     ui_main.obj
 0002:0000b564       ??_C@_0O@HIAPPJNK@BOTH_T1__L_TL?$AA@ 40042564     ui_main.obj
 0002:0000b574       ??_C@_0O@KABLCJOE@BOTH_T1__L__R?$AA@ 40042574     ui_main.obj
 0002:0000b584       ??_C@_0O@LEOFBJMH@BOTH_T1__L_BR?$AA@ 40042584     ui_main.obj
 0002:0000b594       ??_C@_0O@KGDNGNL@BOTH_T1_TL_BL?$AA@ 40042594     ui_main.obj
 0002:0000b5a4       ??_C@_0O@NOCCOJAE@BOTH_T1_TL_BR?$AA@ 400425a4     ui_main.obj
 0002:0000b5b4       ??_C@_0O@CNCDDLIJ@BOTH_T1_T__BL?$AA@ 400425b4     ui_main.obj
 0002:0000b5c4       ??_C@_0O@DJNNALKK@BOTH_T1_T___L?$AA@ 400425c4     ui_main.obj
 0002:0000b5d4       ??_C@_0O@DFIIOEEL@BOTH_T1_T__TL?$AA@ 400425d4     ui_main.obj
 0002:0000b5e4       ??_C@_0O@OBMJNLJE@BOTH_T1_T__TR?$AA@ 400425e4     ui_main.obj
 0002:0000b5f4       ??_C@_0O@ONJMDEHF@BOTH_T1_T___R?$AA@ 400425f4     ui_main.obj
 0002:0000b604       ??_C@_0O@PJGCAEFG@BOTH_T1_T__BR?$AA@ 40042604     ui_main.obj
 0002:0000b614       ??_C@_0O@NFLDPPDI@BOTH_T1_TR_BL?$AA@ 40042614     ui_main.obj
 0002:0000b624       ??_C@_0O@MBENMPBL@BOTH_T1_TR__L?$AA@ 40042624     ui_main.obj
 0002:0000b634       ??_C@_0O@MNBICAPK@BOTH_T1_TR_TL?$AA@ 40042634     ui_main.obj
 0002:0000b644       ??_C@_0O@BPCMAOH@BOTH_T1_TR_BR?$AA@ 40042644     ui_main.obj
 0002:0000b654       ??_C@_0O@LPHEAPPL@BOTH_T1__R_BL?$AA@ 40042654     ui_main.obj
 0002:0000b664       ??_C@_0O@KLIKDPNI@BOTH_T1__R__L?$AA@ 40042664     ui_main.obj
 0002:0000b674       ??_C@_0O@KHNPNADJ@BOTH_T1__R_TL?$AA@ 40042674     ui_main.obj
 0002:0000b684       ??_C@_0O@HDJOOPOG@BOTH_T1__R_TR?$AA@ 40042684     ui_main.obj
 0002:0000b694       ??_C@_0O@DMBOLO@BOTH_T1_BR_BL?$AA@ 40042694     ui_main.obj
 0002:0000b6a4       ??_C@_0O@BEMCCOJN@BOTH_T1_BR__L?$AA@ 400426a4     ui_main.obj
 0002:0000b6b4       ??_C@_0O@BIJHMBHM@BOTH_T1_BR_TL?$AA@ 400426b4     ui_main.obj
 0002:0000b6c4       ??_C@_0O@MAIDBBEC@BOTH_T1_BR__R?$AA@ 400426c4     ui_main.obj
 0002:0000b6d4       ??_C@_0O@DDOEPIAG@BOTH_A1_TR_BL?$AA@ 400426d4     ui_main.obj
 0002:0000b6e4       ??_C@_0O@PFFBNAHO@BOTH_A1_BL_TR?$AA@ 400426e4     ui_main.obj
 0002:0000b6f4       ??_C@_0O@POMAMGEC@BOTH_A1_BR_TL?$AA@ 400426f4     ui_main.obj
 0002:0000b704       ??_C@_0O@DIHFOODK@BOTH_A1_TL_BR?$AA@ 40042704     ui_main.obj
 0002:0000b714       ??_C@_0O@ENNNDIOG@BOTH_A1__R__L?$AA@ 40042714     ui_main.obj
 0002:0000b724       ??_C@_0O@EGEMCONK@BOTH_A1__L__R?$AA@ 40042724     ui_main.obj
 0002:0000b734       ??_C@_0O@KKJLHNCF@BOTH_A1_T__B_?$AA@ 40042734     ui_main.obj
 0002:0000b744       ??_C@_0BD@KGEHHFNO@BOTH_THERMAL_THROW?$AA@ 40042744     ui_main.obj
 0002:0000b758       ??_C@_0BD@FIPEGIGM@BOTH_THERMAL_READY?$AA@ 40042758     ui_main.obj
 0002:0000b76c       ??_C@_0M@JENABCOK@BOTH_MELEE2?$AA@ 4004276c     ui_main.obj
 0002:0000b778       ??_C@_0M@LPPNEBCJ@BOTH_MELEE1?$AA@ 40042778     ui_main.obj
 0002:0000b784       ??_C@_0O@LECODOED@BOTH_ATTACK11?$AA@ 40042784     ui_main.obj
 0002:0000b794       ??_C@_0O@KNDFAPAC@BOTH_ATTACK10?$AA@ 40042794     ui_main.obj
 0002:0000b7a4       ??_C@_0N@CCAENDEA@BOTH_ATTACK7?$AA@ 400427a4     ui_main.obj
 0002:0000b7b4       ??_C@_0N@DLBPOCAB@BOTH_ATTACK6?$AA@ 400427b4     ui_main.obj
 0002:0000b7c4       ??_C@_0N@BADCLBMC@BOTH_ATTACK5?$AA@ 400427c4     ui_main.obj
 0002:0000b7d4       ??_C@_0N@JCJIAID@BOTH_ATTACK4?$AA@ 400427d4     ui_main.obj
 0002:0000b7e4       ??_C@_0N@EGGIBGEE@BOTH_ATTACK3?$AA@ 400427e4     ui_main.obj
 0002:0000b7f4       ??_C@_0N@FPHDCHAF@BOTH_ATTACK2?$AA@ 400427f4     ui_main.obj
 0002:0000b804       ??_C@_0N@HEFOHEMG@BOTH_ATTACK1?$AA@ 40042804     ui_main.obj
 0002:0000b814       ??_C@_0M@LPLOINIF@BOTH_PAIN18?$AA@ 40042814     ui_main.obj
 0002:0000b820       ??_C@_0M@DICGJBEK@BOTH_PAIN17?$AA@ 40042820     ui_main.obj
 0002:0000b82c       ??_C@_0M@CBDNKAAL@BOTH_PAIN16?$AA@ 4004282c     ui_main.obj
 0002:0000b838       ??_C@_0M@KBAPDMI@BOTH_PAIN15?$AA@ 40042838     ui_main.obj
 0002:0000b844       ??_C@_0M@BDALMCIJ@BOTH_PAIN14?$AA@ 40042844     ui_main.obj
 0002:0000b850       ??_C@_0M@FMEKFEEO@BOTH_PAIN13?$AA@ 40042850     ui_main.obj
 0002:0000b85c       ??_C@_0M@EFFBGFAP@BOTH_PAIN12?$AA@ 4004285c     ui_main.obj
 0002:0000b868       ??_C@_0M@GOHMDGMM@BOTH_PAIN11?$AA@ 40042868     ui_main.obj
 0002:0000b874       ??_C@_0M@HHGHAHIN@BOTH_PAIN10?$AA@ 40042874     ui_main.obj
 0002:0000b880       ??_C@_0L@IODHKBKF@BOTH_PAIN9?$AA@ 40042880     ui_main.obj
 0002:0000b88c       ??_C@_0L@JHCMJAOE@BOTH_PAIN8?$AA@ 4004288c     ui_main.obj
 0002:0000b898       ??_C@_0L@BALEIMCL@BOTH_PAIN7?$AA@ 40042898     ui_main.obj
 0002:0000b8a4       ??_C@_0L@JKPLNGK@BOTH_PAIN6?$AA@ 400428a4     ui_main.obj
 0002:0000b8b0       ??_C@_0L@CCICOOKJ@BOTH_PAIN5?$AA@ 400428b0     ui_main.obj
 0002:0000b8bc       ??_C@_0L@DLJJNPOI@BOTH_PAIN4?$AA@ 400428bc     ui_main.obj
 0002:0000b8c8       ??_C@_0L@HENIEJCP@BOTH_PAIN3?$AA@ 400428c8     ui_main.obj
 0002:0000b8d4       ??_C@_0L@GNMDHIGO@BOTH_PAIN2?$AA@ 400428d4     ui_main.obj
 0002:0000b8e0       ??_C@_0L@EGOOCLKN@BOTH_PAIN1?$AA@ 400428e0     ui_main.obj
 0002:0000b8ec       ??_C@_0BE@FGJIJAMF@BOTH_DISMEMBER_LARM?$AA@ 400428ec     ui_main.obj
 0002:0000b900       ??_C@_0BE@IJEILJCG@BOTH_DISMEMBER_RARM?$AA@ 40042900     ui_main.obj
 0002:0000b914       ??_C@_0BE@JIKEDMIE@BOTH_DISMEMBER_RLEG?$AA@ 40042914     ui_main.obj
 0002:0000b928       ??_C@_0BE@EHHEBFGH@BOTH_DISMEMBER_LLEG?$AA@ 40042928     ui_main.obj
 0002:0000b93c       ??_C@_0BG@CFOELION@BOTH_DISMEMBER_TORSO1?$AA@ 4004293c     ui_main.obj
 0002:0000b954       ??_C@_0BF@OGJIODF@BOTH_DISMEMBER_HEAD1?$AA@ 40042954     ui_main.obj
 0002:0000b96c       ??_C@_0P@BJPINMOA@BOTH_DEADFLOP2?$AA@ 4004296c     ui_main.obj
 0002:0000b97c       ??_C@_0P@DCNFIPCD@BOTH_DEADFLOP1?$AA@ 4004297c     ui_main.obj
 0002:0000b98c       ??_C@_0BD@BHDKBOHF@BOTH_FALLDEAD1LAND?$AA@ 4004298c     ui_main.obj
 0002:0000b9a0       ??_C@_0BC@DDLFNCPA@BOTH_STUMBLEDEAD1?$AA@ 400429a0     ui_main.obj
 0002:0000b9b4       ??_C@_0BA@HDEKJGIF@BOTH_LYINGDEAD1?$AA@ 400429b4     ui_main.obj
 0002:0000b9c4       ??_C@_0BD@OGHNINBL@BOTH_DEADBACKWARD2?$AA@ 400429c4     ui_main.obj
 0002:0000b9d8       ??_C@_0BD@MNFANONI@BOTH_DEADBACKWARD1?$AA@ 400429d8     ui_main.obj
 0002:0000b9ec       ??_C@_0BC@OHBPMGIK@BOTH_DEADFORWARD2?$AA@ 400429ec     ui_main.obj
 0002:0000ba00       ??_C@_0BC@MMDCJFEJ@BOTH_DEADFORWARD1?$AA@ 40042a00     ui_main.obj
 0002:0000ba14       ??_C@_0M@FPJLBMPP@BOTH_DEAD25?$AA@ 40042a14     ui_main.obj
 0002:0000ba20       ??_C@_0M@EGIACNLO@BOTH_DEAD24?$AA@ 40042a20     ui_main.obj
 0002:0000ba2c       ??_C@_0M@JMBLLHJ@BOTH_DEAD23?$AA@ 40042a2c     ui_main.obj
 0002:0000ba38       ??_C@_0M@BANKIKDI@BOTH_DEAD22?$AA@ 40042a38     ui_main.obj
 0002:0000ba44       ??_C@_0M@DLPHNJPL@BOTH_DEAD21?$AA@ 40042a44     ui_main.obj
 0002:0000ba50       ??_C@_0M@CCOMOILK@BOTH_DEAD20?$AA@ 40042a50     ui_main.obj
 0002:0000ba5c       ??_C@_0M@PBGIONKK@BOTH_DEAD19?$AA@ 40042a5c     ui_main.obj
 0002:0000ba68       ??_C@_0M@OIHDNMOL@BOTH_DEAD18?$AA@ 40042a68     ui_main.obj
 0002:0000ba74       ??_C@_0M@GPOLMACE@BOTH_DEAD17?$AA@ 40042a74     ui_main.obj
 0002:0000ba80       ??_C@_0M@HGPAPBGF@BOTH_DEAD16?$AA@ 40042a80     ui_main.obj
 0002:0000ba8c       ??_C@_0M@FNNNKCKG@BOTH_DEAD15?$AA@ 40042a8c     ui_main.obj
 0002:0000ba98       ??_C@_0M@EEMGJDOH@BOTH_DEAD14?$AA@ 40042a98     ui_main.obj
 0002:0000baa4       ??_C@_0M@LIHAFCA@BOTH_DEAD13?$AA@ 40042aa4     ui_main.obj
 0002:0000bab0       ??_C@_0M@BCJMDEGB@BOTH_DEAD12?$AA@ 40042ab0     ui_main.obj
 0002:0000babc       ??_C@_0M@DJLBGHKC@BOTH_DEAD11?$AA@ 40042abc     ui_main.obj
 0002:0000bac8       ??_C@_0M@CAKKFGOD@BOTH_DEAD10?$AA@ 40042ac8     ui_main.obj
 0002:0000bad4       ??_C@_0L@CLNDOKNB@BOTH_DEAD9?$AA@ 40042ad4     ui_main.obj
 0002:0000bae0       ??_C@_0L@DCMINLJA@BOTH_DEAD8?$AA@ 40042ae0     ui_main.obj
 0002:0000baec       ??_C@_0L@LFFAMHFP@BOTH_DEAD7?$AA@ 40042aec     ui_main.obj
 0002:0000baf8       ??_C@_0L@KMELPGBO@BOTH_DEAD6?$AA@ 40042af8     ui_main.obj
 0002:0000bb04       ??_C@_0L@IHGGKFNN@BOTH_DEAD5?$AA@ 40042b04     ui_main.obj
 0002:0000bb10       ??_C@_0L@JOHNJEJM@BOTH_DEAD4?$AA@ 40042b10     ui_main.obj
 0002:0000bb1c       ??_C@_0L@NBDMACFL@BOTH_DEAD3?$AA@ 40042b1c     ui_main.obj
 0002:0000bb28       ??_C@_0L@MICHDDBK@BOTH_DEAD2?$AA@ 40042b28     ui_main.obj
 0002:0000bb34       ??_C@_0L@ODAKGANJ@BOTH_DEAD1?$AA@ 40042b34     ui_main.obj
 0002:0000bb40       ??_C@_0BE@CACMPNDI@BOTH_DEATH_CROUCHED?$AA@ 40042b40     ui_main.obj
 0002:0000bb54       ??_C@_0BG@GMBJBMLI@BOTH_DEATH_FALLING_UP?$AA@ 40042b54     ui_main.obj
 0002:0000bb6c       ??_C@_0BG@KFLMOKCA@BOTH_DEATH_FALLING_DN?$AA@ 40042b6c     ui_main.obj
 0002:0000bb84       ??_C@_0BE@GLFNKCIG@BOTH_DEATH_LYING_DN?$AA@ 40042b84     ui_main.obj
 0002:0000bb98       ??_C@_0BE@KCPIFEBO@BOTH_DEATH_LYING_UP?$AA@ 40042b98     ui_main.obj
 0002:0000bbac       ??_C@_0BE@GAFFKNDC@BOTH_DEATH_SPIN_180?$AA@ 40042bac     ui_main.obj
 0002:0000bbc0       ??_C@_0BF@CCDEOLBH@BOTH_DEATH_SPIN_90_L?$AA@ 40042bc0     ui_main.obj
 0002:0000bbd8       ??_C@_0BF@PGHFNEMI@BOTH_DEATH_SPIN_90_R?$AA@ 40042bd8     ui_main.obj
 0002:0000bbf0       ??_C@_0BA@PMBFHAFE@BOTH_DEATH_FLIP?$AA@ 40042bf0     ui_main.obj
 0002:0000bc00       ??_C@_0BA@JLHMHBEO@BOTH_DEATH_ROLL?$AA@ 40042c00     ui_main.obj
 0002:0000bc10       ??_C@_0BE@KLPONOFB@BOTH_FALLDEATH1LAND?$AA@ 40042c10     ui_main.obj
 0002:0000bc24       ??_C@_0BF@BGGMCFAN@BOTH_FALLDEATH1INAIR?$AA@ 40042c24     ui_main.obj
 0002:0000bc3c       ??_C@_0BA@MMMHHMBO@BOTH_FALLDEATH1?$AA@ 40042c3c     ui_main.obj
 0002:0000bc4c       ??_C@_0BD@HAOKEEDM@BOTH_STUMBLEDEATH1?$AA@ 40042c4c     ui_main.obj
 0002:0000bc60       ??_C@_0BB@FAMFDOML@BOTH_LYINGDEATH1?$AA@ 40042c60     ui_main.obj
 0002:0000bc74       ??_C@_0BA@LIHBIFLP@BOTH_DEATH1IDLE?$AA@ 40042c74     ui_main.obj
 0002:0000bc84       ??_C@_0BE@OINPDLJH@BOTH_DEATHBACKWARD2?$AA@ 40042c84     ui_main.obj
 0002:0000bc98       ??_C@_0BE@MDPCGIFE@BOTH_DEATHBACKWARD1?$AA@ 40042c98     ui_main.obj
 0002:0000bcac       ??_C@_0BD@IHDKEJMD@BOTH_DEATHFORWARD3?$AA@ 40042cac     ui_main.obj
 0002:0000bcc0       ??_C@_0BD@JOCBHIIC@BOTH_DEATHFORWARD2?$AA@ 40042cc0     ui_main.obj
 0002:0000bcd4       ??_C@_0BD@LFAMCLEB@BOTH_DEATHFORWARD1?$AA@ 40042cd4     ui_main.obj
 0002:0000bce8       ??_C@_0N@OOEBHHNI@BOTH_DEATH25?$AA@ 40042ce8     ui_main.obj
 0002:0000bcf8       ??_C@_0N@PHFKEGJJ@BOTH_DEATH24?$AA@ 40042cf8     ui_main.obj
 0002:0000bd08       ??_C@_0N@LIBLNAFO@BOTH_DEATH23?$AA@ 40042d08     ui_main.obj
 0002:0000bd18       ??_C@_0N@KBAAOBBP@BOTH_DEATH22?$AA@ 40042d18     ui_main.obj
 0002:0000bd28       ??_C@_0N@IKCNLCNM@BOTH_DEATH21?$AA@ 40042d28     ui_main.obj
 0002:0000bd38       ??_C@_0N@JDDGIDJN@BOTH_DEATH20?$AA@ 40042d38     ui_main.obj
 0002:0000bd48       ??_C@_0N@EALCIGIN@BOTH_DEATH19?$AA@ 40042d48     ui_main.obj
 0002:0000bd58       ??_C@_0N@FJKJLHMM@BOTH_DEATH18?$AA@ 40042d58     ui_main.obj
 0002:0000bd68       ??_C@_0N@NODBKLAD@BOTH_DEATH17?$AA@ 40042d68     ui_main.obj
 0002:0000bd78       ??_C@_0N@MHCKJKEC@BOTH_DEATH16?$AA@ 40042d78     ui_main.obj
 0002:0000bd88       ??_C@_0N@OMAHMJIB@BOTH_DEATH15?$AA@ 40042d88     ui_main.obj
 0002:0000bd98       ??_C@_0N@PFBMPIMA@BOTH_DEATH14?$AA@ 40042d98     ui_main.obj
 0002:0000bda8       ??_C@_0N@LKFNGOAH@BOTH_DEATH13?$AA@ 40042da8     ui_main.obj
 0002:0000bdb8       ??_C@_0N@KDEGFPEG@BOTH_DEATH12?$AA@ 40042db8     ui_main.obj
 0002:0000bdc8       ??_C@_0N@IIGLAMIF@BOTH_DEATH11?$AA@ 40042dc8     ui_main.obj
 0002:0000bdd8       ??_C@_0N@JBHADNME@BOTH_DEATH10?$AA@ 40042dd8     ui_main.obj
 0002:0000bde8       ??_C@_0M@PKFBOJOK@BOTH_DEATH9?$AA@ 40042de8     ui_main.obj
 0002:0000bdf4       ??_C@_0M@ODEKNIKL@BOTH_DEATH8?$AA@ 40042df4     ui_main.obj
 0002:0000be00       ??_C@_0M@GENCMEGE@BOTH_DEATH7?$AA@ 40042e00     ui_main.obj
 0002:0000be0c       ??_C@_0M@HNMJPFCF@BOTH_DEATH6?$AA@ 40042e0c     ui_main.obj
 0002:0000be18       ??_C@_0M@FGOEKGOG@BOTH_DEATH5?$AA@ 40042e18     ui_main.obj
 0002:0000be24       ??_C@_0M@EPPPJHKH@BOTH_DEATH4?$AA@ 40042e24     ui_main.obj
 0002:0000be30       ??_C@_0M@LOABGA@BOTH_DEATH3?$AA@ 40042e30     ui_main.obj
 0002:0000be3c       ??_C@_0M@BJKFDACB@BOTH_DEATH2?$AA@ 40042e3c     ui_main.obj
 0002:0000be48       ??_C@_0M@DCIIGDOC@BOTH_DEATH1?$AA@ 40042e48     ui_main.obj
 0002:0000be54       ??_C@_09OODFOJKI@FACE_DEAD?$AA@ 40042e54     ui_main.obj
 0002:0000be60       ??_C@_0L@NHKOPMDL@FACE_FROWN?$AA@ 40042e60     ui_main.obj
 0002:0000be6c       ??_C@_0L@LAOJKFMG@FACE_SMILE?$AA@ 40042e6c     ui_main.obj
 0002:0000be78       ??_C@_0L@MMCADNDE@FACE_ALERT?$AA@ 40042e78     ui_main.obj
 0002:0000be84       ??_C@_0L@GMKJNGHP@FACE_TALK4?$AA@ 40042e84     ui_main.obj
 0002:0000be90       ??_C@_0L@CDOIEALI@FACE_TALK3?$AA@ 40042e90     ui_main.obj
 0002:0000be9c       ??_C@_0L@DKPDHBPJ@FACE_TALK2?$AA@ 40042e9c     ui_main.obj
 0002:0000bea8       ??_C@_0L@BBNOCCDK@FACE_TALK1?$AA@ 40042ea8     ui_main.obj
 0002:0000beb4       ??_C@_0L@IMFBDHL@FACE_TALK0?$AA@ 40042eb4     ui_main.obj
 0002:0000bee0       ??_C@_0DB@PNFBPLKE@?$CFs?5exceeds?5the?5allowed?5ui?9side?5a@ 40042ee0     ui_main.obj
 0002:0000bf14       ??_C@_0BD@IAGLKLFM@players?1_humanoid?1?$AA@ 40042f14     ui_main.obj
 0002:0000bf28       ??_C@_04HEDFJGEJ@FREE?$AA@ 40042f28     ui_main.obj
 0002:0000bf30       ??_C@_09GNDCBOBP@SPECTATOR?$AA@ 40042f30     ui_main.obj
 0002:0000bf3c       ??_C@_04CNFFLDFF@BLUE?$AA@ 40042f3c     ui_main.obj
 0002:0000bf44       ??_C@_03FNPLCCOA@RED?$AA@  40042f44     ui_main.obj
 0002:0000bf48       ??_C@_0BD@PPPBDMEH@gfx?12d?1crosshair?$CFc?$AA@ 40042f48     ui_main.obj
 0002:0000bf5c       ??_C@_0BD@FAGPOKAI@gfx?1menus?1truejedi?$AA@ 40042f5c     ui_main.obj
 0002:0000bf70       ??_C@_0BE@DNNKMCEA@gfx?1menus?1saberonly?$AA@ 40042f70     ui_main.obj
 0002:0000bf84       ??_C@_0BI@PKLLBMCM@gfx?1menus?1forcerestrict?$AA@ 40042f84     ui_main.obj
 0002:0000bf9c       ??_C@_0BC@PCEOGHHG@gfx?1menus?1noforce?$AA@ 40042f9c     ui_main.obj
 0002:0000bfb0       ??_C@_0BD@LPALACOE@gfx?1menus?1needpass?$AA@ 40042fb0     ui_main.obj
 0002:0000bfc4       ??_C@_0BF@IMFGDGLA@menu?1new?1sliderthumb?$AA@ 40042fc4     ui_main.obj
 0002:0000bfdc       ??_C@_0BA@IIPDBPAH@menu?1new?1slider?$AA@ 40042fdc     ui_main.obj
 0002:0000bfec       ??_C@_0BO@OGCKOCFI@gfx?1menus?1scrollbar_thumb?4tga?$AA@ 40042fec     ui_main.obj
 0002:0000c00c       ??_C@_0CE@EBDHDKAC@gfx?1menus?1scrollbar_arrow_right?4@ 4004300c     ui_main.obj
 0002:0000c030       ??_C@_0CD@HGBCPEJO@gfx?1menus?1scrollbar_arrow_left?4t@ 40043030     ui_main.obj
 0002:0000c054       ??_C@_0CD@CMMKEMFC@gfx?1menus?1scrollbar_arrow_up_a?4t@ 40043054     ui_main.obj
 0002:0000c078       ??_C@_0CE@COBFEBJB@gfx?1menus?1scrollbar_arrow_dwn_a?4@ 40043078     ui_main.obj
 0002:0000c09c       ??_C@_0BI@FDOMFDJL@gfx?1menus?1scrollbar?4tga?$AA@ 4004309c     ui_main.obj
 0002:0000c0b4       ??_C@_0BC@GAPGDHHF@menu?1art?1fx_white?$AA@ 400430b4     ui_main.obj
 0002:0000c0c8       ??_C@_0BD@NFOJMJOG@menu?1art?1fx_purple?$AA@ 400430c8     ui_main.obj
 0002:0000c0dc       ??_C@_0BB@BKOGMDOJ@menu?1art?1fx_blue?$AA@ 400430dc     ui_main.obj
 0002:0000c0f0       ??_C@_0BA@IJJPLEBB@menu?1art?1fx_grn?$AA@ 400430f0     ui_main.obj
 0002:0000c100       ??_C@_0BA@BCAGEDMK@menu?1art?1fx_yel?$AA@ 40043100     ui_main.obj
 0002:0000c110       ??_C@_0BD@MCKJDHGG@menu?1art?1fx_orange?$AA@ 40043110     ui_main.obj
 0002:0000c124       ??_C@_0BA@NNOEOMD@menu?1art?1fx_red?$AA@ 40043124     ui_main.obj
 0002:0000c134       ??_C@_0BB@OMABGHIG@menu?1art?1fx_base?$AA@ 40043134     ui_main.obj
 0002:0000c148       ??_C@_0BL@LDKEDAHM@ui?1assets?1gradientbar2?4tga?$AA@ 40043148     ui_main.obj
 0002:0000c164       ??_C@_02HAOIJKIC@?$CFc?$AA@ 40043164     ui_main.obj
 0002:0000c168       ??_C@_05ONEOBAM@?$CFs_?$CFs?$AA@ 40043168     ui_main.obj
 0002:0000c170       ??_C@_0DD@JILOANNP@?$FO1menu?5file?5too?5large?3?5?$CFs?5is?5?$CFi?0@ 40043170     ui_main.obj
 0002:0000c1a4       ??_C@_0CK@ECPONHFG@?$FO1menu?5file?5not?5found?3?5?$CFs?0?5using@ 400431a4     ui_main.obj
 0002:0000c1d0       ??_C@_02JCPHEAGH@?$FO3?$AA@ 400431d0     ui_main.obj
 0002:0000c1d4       ??_C@_0CH@MFNDJLKG@Bad?51st?5parameter?5for?5keyword?5?8c@ 400431d4     ui_main.obj
 0002:0000c1fc       ??_C@_0O@GIEOJPBC@precacheSound?$AA@ 400431fc     ui_main.obj
 0002:0000c20c       ??_C@_0BH@MIEOGMNF@datapadmoveSaberSound6?$AA@ 4004320c     ui_main.obj
 0002:0000c224       ??_C@_0BH@ODGDDPBG@datapadmoveSaberSound5?$AA@ 40043224     ui_main.obj
 0002:0000c23c       ??_C@_0BH@PKHIAOFH@datapadmoveSaberSound4?$AA@ 4004323c     ui_main.obj
 0002:0000c254       ??_C@_0BH@LFDJJIJA@datapadmoveSaberSound3?$AA@ 40043254     ui_main.obj
 0002:0000c26c       ??_C@_0BH@KMCCKJNB@datapadmoveSaberSound2?$AA@ 4004326c     ui_main.obj
 0002:0000c284       ??_C@_0BH@IHAPPKBC@datapadmoveSaberSound1?$AA@ 40043284     ui_main.obj
 0002:0000c29c       ??_C@_0O@MMHPJOBP@moveJumpSound?$AA@ 4004329c     ui_main.obj
 0002:0000c2ac       ??_C@_0O@KNDMGBMI@moveRollSound?$AA@ 400432ac     ui_main.obj
 0002:0000c2bc       ??_C@_0M@JPJLLJDB@shadowColor?$AA@ 400432bc     ui_main.obj
 0002:0000c2c8       ??_C@_07PGMDMGII@shadowY?$AA@ 400432c8     ui_main.obj
 0002:0000c2d0       ??_C@_07OPNIPHMJ@shadowX?$AA@ 400432d0     ui_main.obj
 0002:0000c2d8       ??_C@_0L@JDDHILPC@fadeAmount?$AA@ 400432d8     ui_main.obj
 0002:0000c2e4       ??_C@_09LGBLEGN@fadeCycle?$AA@ 400432e4     ui_main.obj
 0002:0000c2f0       ??_C@_09DPBPOIDH@fadeClamp?$AA@ 400432f0     ui_main.obj
 0002:0000c2fc       ??_C@_0O@JDBLIAHI@menuBuzzSound?$AA@ 400432fc     ui_main.obj
 0002:0000c30c       ??_C@_0P@IGAMHAPB@itemFocusSound?$AA@ 4004330c     ui_main.obj
 0002:0000c31c       ??_C@_0O@CCIDDBMD@menuExitSound?$AA@ 4004331c     ui_main.obj
 0002:0000c32c       ??_C@_0P@HOFNPEDB@menuEnterSound?$AA@ 4004332c     ui_main.obj
 0002:0000c33c       ??_C@_0M@KMLBJNNP@gradientbar?$AA@ 4004333c     ui_main.obj
 0002:0000c348       ??_C@_06CHDIMBDP@cursor?$AA@ 40043348     ui_main.obj
 0002:0000c350       ??_C@_07LOCAKBOA@bigFont?$AA@ 40043350     ui_main.obj
 0002:0000c358       ??_C@_0L@KDLFEFGB@small2Font?$AA@ 40043358     ui_main.obj
 0002:0000c364       ??_C@_09DOKKJGBA@smallFont?$AA@ 40043364     ui_main.obj
 0002:0000c370       ??_C@_04EFPADHIC@font?$AA@ 40043370     ui_main.obj
 0002:0000c378       ??_C@_07MCIOFCJF@menudef?$AA@ 40043378     ui_main.obj
 0002:0000c380       ??_C@_0P@JJKHBDCP@assetGlobalDef?$AA@ 40043380     ui_main.obj
 0002:0000c390       ??_C@_08GJJFPOLP@loadmenu?$AA@ 40043390     ui_main.obj
 0002:0000c3a0       ??_C@_0EC@MBKMCDAN@?$FO1default?5menu?5file?5not?5found?3?5u@ 400433a0     ui_main.obj
 0002:0000c3e4       ??_C@_0CK@EJKAPAFF@?$FO3menu?5file?5not?5found?3?5?$CFs?0?5using@ 400433e4     ui_main.obj
 0002:0000c410       ??_C@_0BC@HIDDINCD@ui?1jamp?1menudef?4h?$AA@ 40043410     ui_main.obj
 0002:0000c424       __real@40a00000            40043424     ui_main.obj
 0002:0000c428       __real@42c80000            40043428     ui_main.obj
 0002:0000c42c       ??_C@_08HBHLIHAM@handicap?$AA@ 4004342c     ui_main.obj
 0002:0000c438       ??_C@_0M@MLHGGMAA@ui_teamName?$AA@ 40043438     ui_main.obj
 0002:0000c444       ??_C@_0BG@NKPMOGAN@CAPTURE_THE_YSALIMARI?$AA@ 40043444     ui_main.obj
 0002:0000c45c       ??_C@_0BB@NFDNICPD@CAPTURE_THE_FLAG?$AA@ 4004345c     ui_main.obj
 0002:0000c470       ??_C@_05MFNFJGDH@SIEGE?$AA@ 40043470     ui_main.obj
 0002:0000c478       ??_C@_08JPMGIABA@TEAM_FFA?$AA@ 40043478     ui_main.obj
 0002:0000c484       ??_C@_09NHOBJKNB@POWERDUEL?$AA@ 40043484     ui_main.obj
 0002:0000c490       ??_C@_04ECOAEGNJ@DUEL?$AA@ 40043490     ui_main.obj
 0002:0000c498       ??_C@_04PJHBGHKA@SAGA?$AA@ 40043498     ui_main.obj
 0002:0000c4a0       ??_C@_0N@IFFHBAH@HOLOCRON_FFA?$AA@ 400434a0     ui_main.obj
 0002:0000c4b0       ??_C@_05ONMCFNBF@MENUS?$AA@ 400434b0     ui_main.obj
 0002:0000c4b8       ??_C@_0N@OPJELAJP@FREE_FOR_ALL?$AA@ 400434b8     ui_main.obj
 0002:0000c4c8       ??_C@_0BF@MGMPAIBH@ui_actualNetGameType?$AA@ 400434c8     ui_main.obj
 0002:0000c4e0       ??_C@_0P@INPBKGBE@ui_netGameType?$AA@ 400434e0     ui_main.obj
 0002:0000c4f0       ??_C@_09FBJDPOOB@MP_INGAME?$AA@ 400434f0     ui_main.obj
 0002:0000c4fc       ??_C@_0M@GHKAFFGG@AUTOSWITCH0?$AA@ 400434fc     ui_main.obj
 0002:0000c508       ??_C@_0M@FFJGDHOE@AUTOSWITCH2?$AA@ 40043508     ui_main.obj
 0002:0000c514       ??_C@_0M@EMINAGKF@AUTOSWITCH3?$AA@ 40043514     ui_main.obj
 0002:0000c520       ??_C@_0M@HOLLGECH@AUTOSWITCH1?$AA@ 40043520     ui_main.obj
 0002:0000c52c       ??_C@_0O@JKEEFDLF@cg_autoswitch?$AA@ 4004352c     ui_main.obj
 0002:0000c53c       ??_C@_0BA@PKEACILF@ui_joinGameType?$AA@ 4004353c     ui_main.obj
 0002:0000c54c       ??_C@_07PGAOKCOL@?$CFs_name?$AA@ 4004354c     ui_main.obj
 0002:0000c554       ??_C@_08KHGKHFFO@?$CFs_metal?$AA@ 40043554     ui_main.obj
 0002:0000c560       ??_C@_06LIMIHEAN@?$CFs?4roq?$AA@ 40043560     ui_main.obj
 0002:0000c568       ??_C@_03OFBIPEA@?$CFi?$AA?$AA@ 40043568     ui_main.obj
 0002:0000c56c       ??_C@_0P@LHEJFLIH@MENUS_TEAM_RED?$AA@ 4004356c     ui_main.obj
 0002:0000c57c       ??_C@_0BA@POGJPFNH@MENUS_TEAM_BLUE?$AA@ 4004357c     ui_main.obj
 0002:0000c58c       ??_C@_0O@LCEJIGL@MENUS_DEFAULT?$AA@ 4004358c     ui_main.obj
 0002:0000c59c       ??_C@_0BF@NOJGOFAC@MENUS_FORCEDESC_DARK?$AA@ 4004359c     ui_main.obj
 0002:0000c5b4       ??_C@_0BB@JKOHNFAK@lightpowers_team?$AA@ 400435b4     ui_main.obj
 0002:0000c5c8       ??_C@_0BA@FFAMFDAO@darkpowers_team?$AA@ 400435c8     ui_main.obj
 0002:0000c5d8       ??_C@_0L@BICDFDBI@darkpowers?$AA@ 400435d8     ui_main.obj
 0002:0000c5e4       ??_C@_0M@HPNGNDDK@lightpowers?$AA@ 400435e4     ui_main.obj
 0002:0000c5f0       ??_C@_0L@LGILNIKN@forcealloc?$AA@ 400435f0     ui_main.obj
 0002:0000c5fc       ??_C@_0BG@IJKFLPMB@MENUS_FORCEDESC_LIGHT?$AA@ 400435fc     ui_main.obj
 0002:0000c614       ??_C@_0BE@OBOCPLPN@g_duelWeaponDisable?$AA@ 40043614     ui_main.obj
 0002:0000c628       ??_C@_0BA@DKHOJHPN@g_weaponDisable?$AA@ 40043628     ui_main.obj
 0002:0000c638       ??_C@_0M@HDALJKN@g_jediVmerc?$AA@ 40043638     ui_main.obj
 0002:0000c644       ??_C@_0BE@EDCPOKDI@g_forcePowerDisable?$AA@ 40043644     ui_main.obj
 0002:0000c658       ??_C@_09MPFFGIMJ@MENUS_YES?$AA@ 40043658     ui_main.obj
 0002:0000c664       ??_C@_08POBJANAH@MENUS_NO?$AA@ 40043664     ui_main.obj
 0002:0000c670       ??_C@_06DJHOIPC@?$CFs?3?5?$CFs?$AA@ 40043670     ui_main.obj
 0002:0000c678       ??_C@_03PADCEAKC@Red?$AA@  40043678     ui_main.obj
 0002:0000c67c       ??_C@_04CAKOHOCJ@Blue?$AA@ 4004367c     ui_main.obj
 0002:0000c684       ??_C@_0L@GHKHHDJL@ui_redTeam?$AA@ 40043684     ui_main.obj
 0002:0000c690       ??_C@_0M@BANABNHI@ui_blueTeam?$AA@ 40043690     ui_main.obj
 0002:0000c69c       ??_C@_06IOLFCPIM@CLOSED?$AA@ 4004369c     ui_main.obj
 0002:0000c6a4       ??_C@_05CLBJJDHK@HUMAN?$AA@ 400436a4     ui_main.obj
 0002:0000c6ac       ??_C@_0O@BLJEIMIH@sv_maxClients?$AA@ 400436ac     ui_main.obj
 0002:0000c6bc       ??_C@_0N@BOLNHJIJ@ui_redteam?$CFi?$AA@ 400436bc     ui_main.obj
 0002:0000c6cc       ??_C@_0O@MBOEOCIO@ui_blueteam?$CFi?$AA@ 400436cc     ui_main.obj
 0002:0000c6dc       ??_C@_0BH@NKLBLPLI@menu?1art?1unknownmap_mp?$AA@ 400436dc     ui_main.obj
 0002:0000c6f4       ??_C@_0BB@OFACPPDM@humanbotnonfield?$AA@ 400436f4     ui_main.obj
 0002:0000c708       ??_C@_0O@LLMAEFMN@humanbotfield?$AA@ 40043708     ui_main.obj
 0002:0000c718       ??_C@_0BE@MJMLKIAB@playerforcespectate?$AA@ 40043718     ui_main.obj
 0002:0000c72c       ??_C@_0BA@HKGGDOFM@playerforceblue?$AA@ 4004372c     ui_main.obj
 0002:0000c73c       ??_C@_0P@DNKNCOFM@playerforcered?$AA@ 4004373c     ui_main.obj
 0002:0000c74c       ??_C@_0BA@KOGLFJKM@playerforcejoin?$AA@ 4004374c     ui_main.obj
 0002:0000c75c       ??_C@_0M@JFACKFNB@playerapply?$AA@ 4004375c     ui_main.obj
 0002:0000c768       ??_C@_08OLKDPGBD@yessaber?$AA@ 40043768     ui_main.obj
 0002:0000c774       ??_C@_0BC@BDPIFPLC@sabernoneconfigme?$AA@ 40043774     ui_main.obj
 0002:0000c788       ??_C@_08FGJPHEOB@yesforce?$AA@ 40043788     ui_main.obj
 0002:0000c794       ??_C@_07HEKACAEE@noforce?$AA@ 40043794     ui_main.obj
 0002:0000c79c       ??_C@_0M@OBPKCPBG@jedinonjedi?$AA@ 4004379c     ui_main.obj
 0002:0000c7a8       ??_C@_0O@PJIPPKNP@ingame_player?$AA@ 400437a8     ui_main.obj
 0002:0000c7b8       ??_C@_05DNIIFBMG@?$CFs?5?$CFs?$AA@ 400437b8     ui_main.obj
 0002:0000c7c0       ??_C@_0L@CJHDKEPC@MENUS_GAME?$AA@ 400437c0     ui_main.obj
 0002:0000c7cc       ??_C@_08BHLPCOBE@Tier?3?5?$CFs?$AA@ 400437cc     ui_main.obj
 0002:0000c7d8       ??_C@_0P@OGEPOBCA@ui_currentTier?$AA@ 400437d8     ui_main.obj
 0002:0000c7e8       ??_C@_03HPADHAHE@N?1A?$AA@ 400437e8     ui_main.obj
 0002:0000c7ec       ??_C@_08LFOMOGKF@Everyone?$AA@ 400437ec     ui_main.obj
 0002:0000c7f8       ??_C@_01EFFIKLCJ@n?$AA@    400437f8     ui_main.obj
 0002:0000c7fc       ??_C@_0O@OCOCOONB@sv_maxclients?$AA@ 400437fc     ui_main.obj
 0002:0000c80c       ??_C@_01PFHFFBPC@t?$AA@    4004380c     ui_main.obj
 0002:0000c810       ??_C@_02JKAOMCMK@tl?$AA@   40043810     ui_main.obj
 0002:0000c814       ??_C@_0BN@CIDKCPCG@MP_INGAME_SERVER_REFRESHTIME?$AA@ 40043814     ui_main.obj
 0002:0000c834       ??_C@_0BI@DIFBAOHB@ui_lastServerRefresh_?$CFi?$AA@ 40043834     ui_main.obj
 0002:0000c84c       ??_C@_0CA@HGNDPDMG@MP_INGAME_GETTINGINFOFORSERVERS?$AA@ 4004384c     ui_main.obj
 0002:0000c870       __real@3fe999999999999a    40043870     ui_main.obj
 0002:0000c878       __real@4008000000000000    40043878     ui_main.obj
 0002:0000c880       __real@4000000000000000    40043880     ui_main.obj
 0002:0000c888       ??_C@_0BE@KBBNIJIF@WAITING_FOR_NEW_KEY?$AA@ 40043888     ui_main.obj
 0002:0000c8a0       __real@4026000000000000    400438a0     ui_main.obj
 0002:0000c8a8       __real@4046800000000000    400438a8     ui_main.obj
 0002:0000c8b0       __real@403e000000000000    400438b0     ui_main.obj
 0002:0000c8b8       ??_C@_0DL@LAIIPCFN@GL_PIXELFORMAT?3?5color?$CI?$CFd?9bits?$CJ?5Z@ 400438b8     ui_main.obj
 0002:0000c8f8       __real@402e000000000000    400438f8     ui_main.obj
 0002:0000c900       ??_C@_0BD@FDNFBAAO@GL_VERSION?3?5?$CFs?3?5?$CFs?$AA@ 40043900     ui_main.obj
 0002:0000c914       ??_C@_0O@LCMFPEGO@GL_VENDOR?3?5?$CFs?$AA@ 40043914     ui_main.obj
 0002:0000c924       ??_C@_0P@DLLGDIAA@JAmp?3?5v1?40?41?40?$AA@ 40043924     ui_main.obj
 0002:0000c934       ??_C@_0O@JEEKIFAP@sv_killserver?$AA@ 40043934     ui_main.obj
 0002:0000c944       __real@40000000            40043944     ui_main.obj
 0002:0000c948       ??_C@_06IPMAANOD@color1?$AA@ 40043948     ui_main.obj
 0002:0000c950       ??_C@_06JMLBDJHL@attack?$AA@ 40043950     ui_main.obj
 0002:0000c958       ??_C@_06BMABBLML@defend?$AA@ 40043958     ui_main.obj
 0002:0000c960       ??_C@_07ENHGAJCI@request?$AA@ 40043960     ui_main.obj
 0002:0000c968       ??_C@_05INAKFKMM@reply?$AA@ 40043968     ui_main.obj
 0002:0000c970       ??_C@_04OEEIACIO@spot?$AA@ 40043970     ui_main.obj
 0002:0000c978       ??_C@_07BFJJCEJD@tactics?$AA@ 40043978     ui_main.obj
 0002:0000c980       ??_C@_06KCOLJDNO@att_01?$AA@ 40043980     ui_main.obj
 0002:0000c988       ??_C@_06IJMGMABN@att_02?$AA@ 40043988     ui_main.obj
 0002:0000c990       ??_C@_06JANNPBFM@att_03?$AA@ 40043990     ui_main.obj
 0002:0000c998       ??_C@_06CCHJKJKF@def_01?$AA@ 40043998     ui_main.obj
 0002:0000c9a0       ??_C@_06JFEPKGG@def_02?$AA@ 400439a0     ui_main.obj
 0002:0000c9a8       ??_C@_06BAEPMLCH@def_03?$AA@ 400439a8     ui_main.obj
 0002:0000c9b0       ??_C@_06FPAOFNOA@def_04?$AA@ 400439b0     ui_main.obj
 0002:0000c9b8       ??_C@_06PELHELMD@req_01?$AA@ 400439b8     ui_main.obj
 0002:0000c9c0       ??_C@_06NPJKBIAA@req_02?$AA@ 400439c0     ui_main.obj
 0002:0000c9c8       ??_C@_06MGIBCJEB@req_03?$AA@ 400439c8     ui_main.obj
 0002:0000c9d0       ??_C@_06IJMALPIG@req_04?$AA@ 400439d0     ui_main.obj
 0002:0000c9d8       ??_C@_06JANLIOMH@req_05?$AA@ 400439d8     ui_main.obj
 0002:0000c9e0       ??_C@_06LLPGNNAE@req_06?$AA@ 400439e0     ui_main.obj
 0002:0000c9e8       ??_C@_06MJNHGCHD@rep_01?$AA@ 400439e8     ui_main.obj
 0002:0000c9f0       ??_C@_06OCPKDBLA@rep_02?$AA@ 400439f0     ui_main.obj
 0002:0000c9f8       ??_C@_06PLOBAAPB@rep_03?$AA@ 400439f8     ui_main.obj
 0002:0000ca00       ??_C@_06LEKAJGDG@rep_04?$AA@ 40043a00     ui_main.obj
 0002:0000ca08       ??_C@_06KNLLKHHH@rep_05?$AA@ 40043a08     ui_main.obj
 0002:0000ca10       ??_C@_07NAMCGAJI@spot_01?$AA@ 40043a10     ui_main.obj
 0002:0000ca18       ??_C@_07PLOPDDFL@spot_02?$AA@ 40043a18     ui_main.obj
 0002:0000ca20       ??_C@_07OCPEACBK@spot_03?$AA@ 40043a20     ui_main.obj
 0002:0000ca28       ??_C@_07KNLFJENN@spot_04?$AA@ 40043a28     ui_main.obj
 0002:0000ca30       ??_C@_06BGNGPIAN@tac_01?$AA@ 40043a30     ui_main.obj
 0002:0000ca38       ??_C@_06DNPLKLMO@tac_02?$AA@ 40043a38     ui_main.obj
 0002:0000ca40       ??_C@_06CEOAJKIP@tac_03?$AA@ 40043a40     ui_main.obj
 0002:0000ca48       ??_C@_06GLKBAMEI@tac_04?$AA@ 40043a48     ui_main.obj
 0002:0000ca50       ??_C@_06HCLKDNAJ@tac_05?$AA@ 40043a50     ui_main.obj
 0002:0000ca58       ??_C@_06FJJHGOMK@tac_06?$AA@ 40043a58     ui_main.obj
 0002:0000ca60       ??_C@_0BD@BJMADOMH@solo_gametypefield?$AA@ 40043a60     ui_main.obj
 0002:0000ca74       ??_C@_08GEJGLEOK@$modlist?$AA@ 40043a74     ui_main.obj
 0002:0000ca80       ??_C@_04PDLFDFDK@?4roq?$AA@ 40043a80     ui_main.obj
 0002:0000ca88       ??_C@_05BPFJLLEL@video?$AA@ 40043a88     ui_main.obj
 0002:0000ca90       ??_C@_03GKCCIMFO@roq?$AA@  40043a90     ui_main.obj
 0002:0000ca94       ??_C@_05GFOLEBJA@?$CFs?1?$CFs?$AA@ 40043a94     ui_main.obj
 0002:0000ca9c       ??_C@_02DJGKEECL@?4?4?$AA@ 40043a9c     ui_main.obj
 0002:0000caa0       ??_C@_01LFCBOECM@?4?$AA@   40043aa0     ui_main.obj
 0002:0000caa4       ??_C@_01KMDKNFGN@?1?$AA@   40043aa4     ui_main.obj
 0002:0000caa8       ??_C@_03NPMJBIL@?$CFs?1?$AA@ 40043aa8     ui_main.obj
 0002:0000caac       ??_C@_06KDKPKJKM@?4dm_?$CFd?$AA@ 40043aac     ui_main.obj
 0002:0000cab4       ??_C@_05CFPGCNL@demos?$AA@ 40043ab4     ui_main.obj
 0002:0000cabc       ??_C@_05BAIDJFLA@dm_?$CFd?$AA@ 40043abc     ui_main.obj
 0002:0000cac4       ??_C@_08NJICDBID@skirmish?$AA@ 40043ac4     ui_main.obj
 0002:0000cad0       ??_C@_0L@EKHLDNPG@m_pitchVeh?$AA@ 40043ad0     ui_main.obj
 0002:0000cadc       ??_C@_0BB@OJMPICMM@ui_mousePitchVeh?$AA@ 40043adc     ui_main.obj
 0002:0000caf0       __real@bcb43958            40043af0     ui_main.obj
 0002:0000caf4       ??_C@_07JIEGLHEC@m_pitch?$AA@ 40043af4     ui_main.obj
 0002:0000cafc       __real@3cb43958            40043afc     ui_main.obj
 0002:0000cb00       ??_C@_0O@OGIMAHGE@ui_mousePitch?$AA@ 40043b00     ui_main.obj
 0002:0000cb10       ??_C@_0BJ@PCPDHFJH@GL_LINEAR_MIPMAP_NEAREST?$AA@ 40043b10     ui_main.obj
 0002:0000cb2c       __real@40400000            40043b2c     ui_main.obj
 0002:0000cb30       ??_C@_0BB@GBAJKCAL@ui_r_texturemode?$AA@ 40043b30     ui_main.obj
 0002:0000cb44       ??_C@_0BI@EMKCPMIG@GL_LINEAR_MIPMAP_LINEAR?$AA@ 40043b44     ui_main.obj
 0002:0000cb5c       ??_C@_0BB@PJFFEJHH@ui_r_inGameVideo?$AA@ 40043b5c     ui_main.obj
 0002:0000cb70       ??_C@_0N@IPNMEDKM@ui_r_fastSky?$AA@ 40043b70     ui_main.obj
 0002:0000cb80       ??_C@_0BB@MGIMHMKB@ui_r_texturebits?$AA@ 40043b80     ui_main.obj
 0002:0000cb94       ??_C@_09KDEPNMFH@ui_r_mode?$AA@ 40043b94     ui_main.obj
 0002:0000cba0       ??_C@_0M@LFGCJFJG@ui_r_picmip?$AA@ 40043ba0     ui_main.obj
 0002:0000cbac       __real@42000000            40043bac     ui_main.obj
 0002:0000cbb0       ??_C@_0BA@FECIFLLB@ui_r_fullScreen?$AA@ 40043bb0     ui_main.obj
 0002:0000cbc0       ??_C@_0O@DBONOGAA@ui_r_glCustom?$AA@ 40043bc0     ui_main.obj
 0002:0000cbd0       __real@40800000            40043bd0     ui_main.obj
 0002:0000cbd4       ??_C@_0BC@ONOLCHFM@ui_r_subdivisions?$AA@ 40043bd4     ui_main.obj
 0002:0000cbe8       __real@41a00000            40043be8     ui_main.obj
 0002:0000cbec       ??_C@_0N@NHLOABKB@ui_r_lodbias?$AA@ 40043bec     ui_main.obj
 0002:0000cbfc       ??_C@_0P@FOKPMCPI@ui_r_depthbits?$AA@ 40043bfc     ui_main.obj
 0002:0000cc0c       __real@41c00000            40043c0c     ui_main.obj
 0002:0000cc10       ??_C@_0P@MFNNJOLC@ui_r_colorbits?$AA@ 40043c10     ui_main.obj
 0002:0000cc20       ??_C@_0L@MNKNEHAB@ui_GetName?$AA@ 40043c20     ui_main.obj
 0002:0000cc30       __real@40af400000000000    40043c30     ui_main.obj
 0002:0000cc38       ??_C@_0N@HCACMDEB@cl_packetdup?$AA@ 40043c38     ui_main.obj
 0002:0000cc48       ??_C@_0O@FAEBFPEP@cl_maxpackets?$AA@ 40043c48     ui_main.obj
 0002:0000cc58       __real@459c4000            40043c58     ui_main.obj
 0002:0000cc5c       ??_C@_04HCCHHEEF@rate?$AA@ 40043c5c     ui_main.obj
 0002:0000cc64       ??_C@_0L@HKMNPIPK@ui_setRate?$AA@ 40043c64     ui_main.obj
 0002:0000cc70       ??_C@_07KBEHLNKJ@ui_Name?$AA@ 40043c70     ui_main.obj
 0002:0000cc78       ??_C@_0L@DFFMHINA@ui_SetName?$AA@ 40043c78     ui_main.obj
 0002:0000cc84       ??_C@_0N@FJNKPAFP@snd_restart?6?$AA@ 40043c84     ui_main.obj
 0002:0000cc94       ??_C@_05GPLACMP@s_khz?$AA@ 40043c94     ui_main.obj
 0002:0000cc9c       ??_C@_0BB@CNBELBNI@ui_rules_backout?$AA@ 40043c9c     ui_main.obj
 0002:0000ccb0       ??_C@_0N@NNENLBAN@RulesBackout?$AA@ 40043cb0     ui_main.obj
 0002:0000ccc0       ??_C@_0O@ICGEAHKA@ui_r_modified?$AA@ 40043cc0     ui_main.obj
 0002:0000ccd0       ??_C@_0L@IPGLFCFH@VideoSetup?$AA@ 40043cd0     ui_main.obj
 0002:0000ccdc       ??_C@_0N@PGDAKNHB@vid_restart?$DL?$AA@ 40043cdc     ui_main.obj
 0002:0000ccec       ??_C@_0L@MAOLAFLC@cg_shadows?$AA@ 40043cec     ui_main.obj
 0002:0000ccf8       ??_C@_0O@NDJCAFHK@ui_cg_shadows?$AA@ 40043cf8     ui_main.obj
 0002:0000cd08       ??_C@_0BC@HJALDEG@r_allowExtensions?$AA@ 40043d08     ui_main.obj
 0002:0000cd1c       ??_C@_0BF@EOAMBIGF@ui_r_allowExtensions?$AA@ 40043d1c     ui_main.obj
 0002:0000cd34       ??_C@_0O@EPDAEHAE@r_inGameVideo?$AA@ 40043d34     ui_main.obj
 0002:0000cd44       ??_C@_09JKEENNLE@r_fastSky?$AA@ 40043d44     ui_main.obj
 0002:0000cd50       ??_C@_0P@CEFBGCNE@r_subdivisions?$AA@ 40043d50     ui_main.obj
 0002:0000cd60       ??_C@_0M@MLADPBHK@r_depthbits?$AA@ 40043d60     ui_main.obj
 0002:0000cd6c       ??_C@_0BI@OCJAALOK@r_ext_compress_textures?$AA@ 40043d6c     ui_main.obj
 0002:0000cd84       ??_C@_0BL@OMICDKKG@ui_r_ext_compress_textures?$AA@ 40043d84     ui_main.obj
 0002:0000cda0       ??_C@_0BB@OJJFINJB@r_detailtextures?$AA@ 40043da0     ui_main.obj
 0002:0000cdb4       ??_C@_0BE@BMHJODHH@ui_r_detailtextures?$AA@ 40043db4     ui_main.obj
 0002:0000cdc8       ??_C@_0O@NHGMKMHI@r_texturemode?$AA@ 40043dc8     ui_main.obj
 0002:0000cdd8       ??_C@_0O@HAOJHCNC@r_texturebits?$AA@ 40043dd8     ui_main.obj
 0002:0000cde8       ??_C@_08PHNBMEML@r_picmip?$AA@ 40043de8     ui_main.obj
 0002:0000cdf4       ??_C@_09MCCGJPLJ@r_lodbias?$AA@ 40043df4     ui_main.obj
 0002:0000ce00       ??_C@_0M@FAHBKNDA@r_colorbits?$AA@ 40043e00     ui_main.obj
 0002:0000ce0c       ??_C@_0N@JILGCMBC@r_fullscreen?$AA@ 40043e0c     ui_main.obj
 0002:0000ce1c       ??_C@_0BA@JLJFGCCN@ui_r_fullscreen?$AA@ 40043e1c     ui_main.obj
 0002:0000ce2c       ??_C@_06LBAPPDBG@r_mode?$AA@ 40043e2c     ui_main.obj
 0002:0000ce34       ??_C@_06IJEAFLEI@addBot?$AA@ 40043e34     ui_main.obj
 0002:0000ce3c       ??_C@_0L@MPAGGMDN@sv_running?$AA@ 40043e3c     ui_main.obj
 0002:0000ce48       ??_C@_02PGHGPEOM@?91?$AA@  40043e48     ui_main.obj
 0002:0000ce4c       ??_C@_0BA@PDECLNK@char_color_blue?$AA@ 40043e4c     ui_main.obj
 0002:0000ce5c       ??_C@_0BB@ECHDKGAH@char_color_green?$AA@ 40043e5c     ui_main.obj
 0002:0000ce70       ??_C@_0P@FBLDEJO@char_color_red?$AA@ 40043e70     ui_main.obj
 0002:0000ce80       ??_C@_0M@OODBKNJH@?$CFs?1?$CFs?$HM?$CFs?$HM?$CFs?$AA@ 40043e80     ui_main.obj
 0002:0000ce8c       ??_C@_0O@EFOJEHBN@class6_button?$AA@ 40043e8c     ui_main.obj
 0002:0000ce9c       ??_C@_0O@HMGEHLNI@class5_button?$AA@ 40043e9c     ui_main.obj
 0002:0000ceac       ??_C@_0O@GLBPGPJL@class4_button?$AA@ 40043eac     ui_main.obj
 0002:0000cebc       ??_C@_0O@PHOACFC@class3_button?$AA@ 40043ebc     ui_main.obj
 0002:0000cecc       ??_C@_0O@BIAFBGBB@class2_button?$AA@ 40043ecc     ui_main.obj
 0002:0000cedc       ??_C@_07IMDGNNHE@onteam1?$AA@ 40043edc     ui_main.obj
 0002:0000cee4       ??_C@_0O@CBIICKNE@class1_button?$AA@ 40043ee4     ui_main.obj
 0002:0000cef4       ??_C@_0P@CIAMGOJB@ui_siege_class?$AA@ 40043ef4     ui_main.obj
 0002:0000cf04       ??_C@_07KHBLIOLH@onteam2?$AA@ 40043f04     ui_main.obj
 0002:0000cf0c       ??_C@_0BK@JKAPHHID@team?$CFi_objective?$CFi_mappos?$AA@ 40043f0c     ui_main.obj
 0002:0000cf28       ??_C@_0O@JLHBAKIH@tm?$CFi_l_icon?$CFi?$AA@ 40043f28     ui_main.obj
 0002:0000cf38       ??_C@_0M@DHPIAGKO@tm?$CFi_icon?$CFi?$AA@ 40043f38     ui_main.obj
 0002:0000cf44       ??_C@_0BM@BPDOBPLD@?$CKteam?$CFi_objective?$CFi_mapicon?$AA@ 40043f44     ui_main.obj
 0002:0000cf60       ??_C@_0BA@CJPPCFCE@forcepowerlevel?$AA@ 40043f60     ui_main.obj
 0002:0000cf70       ??_C@_05BLKJBNOD@stats?$AA@ 40043f70     ui_main.obj
 0002:0000cf78       ??_C@_0O@COFELBGO@objective_pic?$AA@ 40043f78     ui_main.obj
 0002:0000cf88       ??_C@_0N@OCMMKHNE@obj_longdesc?$AA@ 40043f88     ui_main.obj
 0002:0000cf98       ??_C@_08PHCBGHMJ@minidesc?$AA@ 40043f98     ui_main.obj
 0002:0000cfa4       ??_C@_0BB@JJEOAMAH@classdescription?$AA@ 40043fa4     ui_main.obj
 0002:0000cfb8       ??_C@_07DOMDDELG@feeders?$AA@ 40043fb8     ui_main.obj
 0002:0000cfc0       ??_C@_0M@EBJIILPK@class_count?$AA@ 40043fc0     ui_main.obj
 0002:0000cfcc       ??_C@_0N@LANKDNDD@class_button?$AA@ 40043fcc     ui_main.obj
 0002:0000cfdc       ??_C@_0P@HNGDHNNN@g_saber2_color?$AA@ 40043fdc     ui_main.obj
 0002:0000cfec       ??_C@_06KEONFOCA@color2?$AA@ 40043fec     ui_main.obj
 0002:0000cff4       ??_C@_0O@GJFOAGMG@g_saber_color?$AA@ 40043ff4     ui_main.obj
 0002:0000d004       ??_C@_0L@GCEJADDE@box3bottom?$AA@ 40044004     ui_main.obj
 0002:0000d010       __real@43d10000            40044010     ui_main.obj
 0002:0000d014       ??_C@_0L@LIDOGEIM@box3middle?$AA@ 40044014     ui_main.obj
 0002:0000d020       __real@42700000            40044020     ui_main.obj
 0002:0000d024       __real@432a0000            40044024     ui_main.obj
 0002:0000d028       ??_C@_0L@KOODADKK@box2bottom?$AA@ 40044028     ui_main.obj
 0002:0000d034       __real@42300000            40044034     ui_main.obj
 0002:0000d038       __real@435b0000            40044038     ui_main.obj
 0002:0000d03c       __real@42fc0000            4004403c     ui_main.obj
 0002:0000d040       __real@43540000            40044040     ui_main.obj
 0002:0000d044       ??_C@_0L@HEJEGEBC@box2middle?$AA@ 40044044     ui_main.obj
 0002:0000d050       ??_C@_05DDLOIMOJ@staff?$AA@ 40044050     ui_main.obj
 0002:0000d058       ??_C@_04IJNDAMHN@dual?$AA@ 40044058     ui_main.obj
 0002:0000d060       ??_C@_0DK@GJFFNJJM@UI_UpdateSaberHilt?3?5Could?5not?5fi@ 40044060     ui_main.obj
 0002:0000d09c       ??_C@_05KFODFCPJ@saber?$AA@ 4004409c     ui_main.obj
 0002:0000d0a4       ??_C@_0BM@GOKALJHI@models?1players?1?$CFs?1?$HM?$CFs?$HM?$CFs?$HM?$CFs?$AA@ 400440a4     ui_main.obj
 0002:0000d0c0       ??_C@_0EF@PLGNBLOL@UI_UpdateCharacterSkin?3?5Could?5no@ 400440c0     ui_main.obj
 0002:0000d108       ??_C@_09MNKJOHH@character?$AA@ 40044108     ui_main.obj
 0002:0000d114       ??_C@_08HGDHIMPN@colorbox?$AA@ 40044114     ui_main.obj
 0002:0000d120       ??_C@_0N@CNEKIPHP@lowerlistbox?$AA@ 40044120     ui_main.obj
 0002:0000d130       ??_C@_0N@MFCGACAD@torsolistbox?$AA@ 40044130     ui_main.obj
 0002:0000d140       ??_C@_0M@JJJBGDDD@headlistbox?$AA@ 40044140     ui_main.obj
 0002:0000d14c       ??_C@_0M@OAPCOKFL@forceicon?$CFd?$AA@ 4004414c     ui_main.obj
 0002:0000d158       ??_C@_0N@OLFHJEGP@forceicon0?$CFd?$AA@ 40044158     ui_main.obj
 0002:0000d168       ??_C@_0BC@BBDLIMJN@?$CKui_class_power?$CFd?$AA@ 40044168     ui_main.obj
 0002:0000d17c       ??_C@_0M@IAKOKMPN@itemicon0?$CFd?$AA@ 4004417c     ui_main.obj
 0002:0000d188       ??_C@_0BB@LEAKOFKD@?$CKui_class_item?$CFd?$AA@ 40044188     ui_main.obj
 0002:0000d19c       ??_C@_0L@EEOPJNIP@wpnicon0?$CFd?$AA@ 4004419c     ui_main.obj
 0002:0000d1a8       ??_C@_0BD@IILHFKPD@?$CKui_class_weapon?$CFd?$AA@ 400441a8     ui_main.obj
 0002:0000d1bc       ??_C@_04PEPHHPEI@?1red?$AA@ 400441bc     ui_main.obj
 0002:0000d1c4       ??_C@_05GAHFLAHA@?1blue?$AA@ 400441c4     ui_main.obj
 0002:0000d1cc       ??_C@_08OFBBAHIC@?1default?$AA@ 400441cc     ui_main.obj
 0002:0000d1d8       ??_C@_08NJPDEKHO@gametype?$AA@ 400441d8     ui_main.obj
 0002:0000d1e4       ??_C@_07HKJFGNHJ@clients?$AA@ 400441e4     ui_main.obj
 0002:0000d1ec       ??_C@_0BM@OFHFBELM@Welcome?5to?5Jedi?5Academy?5MP?$CB?$AA@ 400441ec     ui_main.obj
 0002:0000d208       ??_C@_0O@GJFLJONJ@cl_motdString?$AA@ 40044208     ui_main.obj
 0002:0000d218       ??_C@_0BB@NNOBJLOI@password_request?$AA@ 40044218     ui_main.obj
 0002:0000d22c       ??_C@_08HHFKLNCD@needpass?$AA@ 4004422c     ui_main.obj
 0002:0000d238       ??_C@_0M@LNGHCJI@connect?5?$CFs?6?$AA@ 40044238     ui_main.obj
 0002:0000d244       ??_C@_0P@GDCMABHL@cg_cameraOrbit?$AA@ 40044244     ui_main.obj
 0002:0000d254       ??_C@_0P@OPFJLCMG@cg_thirdPerson?$AA@ 40044254     ui_main.obj
 0002:0000d264       ??_C@_04OONEELOO@ping?$AA@ 40044264     ui_main.obj
 0002:0000d26c       ??_C@_05DBKDOICH@score?$AA@ 4004426c     ui_main.obj
 0002:0000d274       ??_C@_03IHCLBPIC@num?$AA@  40044274     ui_main.obj
 0002:0000d278       ??_C@_0BK@JABGNFOC@Error?5loading?5teams?5in?5UI?$AA@ 40044278     ui_main.obj
 0002:0000d294       ??_C@_07FKIPFDKM@UseTeam?$AA@ 40044294     ui_main.obj
 0002:0000d29c       ??_C@_05KBLJHFNC@team2?$AA@ 4004429c     ui_main.obj
 0002:0000d2a4       ??_C@_0O@FENJAOEK@cg_siegeTeam2?$AA@ 400442a4     ui_main.obj
 0002:0000d2b4       ??_C@_05IKJECGBB@team1?$AA@ 400442b4     ui_main.obj
 0002:0000d2bc       ??_C@_0O@HPPEFNIJ@cg_siegeTeam1?$AA@ 400442bc     ui_main.obj
 0002:0000d2cc       ??_C@_05EPHHAOKA@Teams?$AA@ 400442cc     ui_main.obj
 0002:0000d2d4       ??_C@_0O@OJPKLLB@maps?1?$CFs?4siege?$AA@ 400442d4     ui_main.obj
 0002:0000d2e4       ??_C@_0BB@EFKCLBJP@ui_class_power?$CFi?$AA@ 400442e4     ui_main.obj
 0002:0000d2f8       ??_C@_0BA@DIHPMMKF@ui_class_item?$CFi?$AA@ 400442f8     ui_main.obj
 0002:0000d308       ??_C@_0O@MHPONILH@gfx?12d?1select?$AA@ 40044308     ui_main.obj
 0002:0000d318       ??_C@_0BC@NLJLEPPM@ui_class_weapon?$CFi?$AA@ 40044318     ui_main.obj
 0002:0000d32c       ??_C@_07EHHPJLF@ui_team?$AA@ 4004432c     ui_main.obj
 0002:0000d334       __real@42140000            40044334     ui_main.obj
 0002:0000d338       __real@42100000            40044338     ui_main.obj
 0002:0000d33c       __real@41b00000            4004433c     ui_main.obj
 0002:0000d340       __real@41a80000            40044340     ui_main.obj
 0002:0000d344       ??_C@_0BK@DLHLILP@models?1players?1?$CFs?1icon_?$CFs?$AA@ 40044344     ui_main.obj
 0002:0000d360       __real@41b80000            40044360     ui_main.obj
 0002:0000d364       __real@42200000            40044364     ui_main.obj
 0002:0000d368       __real@41980000            40044368     ui_main.obj
 0002:0000d36c       __real@42280000            4004436c     ui_main.obj
 0002:0000d370       __real@42240000            40044370     ui_main.obj
 0002:0000d374       __real@41200000            40044374     ui_main.obj
 0002:0000d378       __real@41100000            40044378     ui_main.obj
 0002:0000d37c       __real@41000000            4004437c     ui_main.obj
 0002:0000d380       __real@402c000000000000    40044380     ui_main.obj
 0002:0000d388       __real@402a000000000000    40044388     ui_main.obj
 0002:0000d390       ??_C@_03KHICJKCI@?4?4?4?$AA@ 40044390     ui_main.obj
 0002:0000d394       ??_C@_07NBCGADJA@Unknown?$AA@ 40044394     ui_main.obj
 0002:0000d39c       ??_C@_08PINKDKH@Inactive?$AA@ 4004439c     ui_main.obj
 0002:0000d3a8       ??_C@_07IFMLPBAP@?$CFs?5?$CI?$CFs?$CJ?$AA@ 400443a8     ui_main.obj
 0002:0000d3b0       ??_C@_06MLCMCMG@?$CIA?$CJ?5?$CFs?$AA@ 400443b0     ui_main.obj
 0002:0000d3b8       ??_C@_0BC@DFDLMDDH@sv_allowAnonymous?$AA@ 400443b8     ui_main.obj
 0002:0000d3cc       ??_C@_07HAOKNHOC@?$CFs?5?$FL?$CFs?$FN?$AA@ 400443cc     ui_main.obj
 0002:0000d3d4       ??_C@_08EHKIGBEA@hostname?$AA@ 400443d4     ui_main.obj
 0002:0000d3e0       ??_C@_07EAJPOACB@nettype?$AA@ 400443e0     ui_main.obj
 0002:0000d3e8       ??_C@_08JIDOFFMP@truejedi?$AA@ 400443e8     ui_main.obj
 0002:0000d3f4       ??_C@_08CGDHFBIG@wdisable?$AA@ 400443f4     ui_main.obj
 0002:0000d400       ??_C@_08JNIMAHLE@fdisable?$AA@ 40044400     ui_main.obj
 0002:0000d40c       ??_C@_04HLBMEOMD@addr?$AA@ 4004440c     ui_main.obj
 0002:0000d414       __real@41900000            40044414     ui_main.obj
 0002:0000d418       __real@41880000            40044418     ui_main.obj
 0002:0000d41c       __real@422c0000            4004441c     ui_main.obj
 0002:0000d420       ??_C@_0BK@JKNGBPAN@ui_class_powerlevelslot?$CFi?$AA@ 40044420     ui_main.obj
 0002:0000d43c       ??_C@_0BG@CHPIBCHN@ui_class_powerlevel?$CFi?$AA@ 4004443c     ui_main.obj
 0002:0000d454       ??_C@_0BG@GDHDGPHG@base_class_force_feed?$AA@ 40044454     ui_main.obj
 0002:0000d46c       __real@421c0000            4004446c     ui_main.obj
 0002:0000d470       __real@42180000            40044470     ui_main.obj
 0002:0000d474       ??_C@_05KDHLENLH@icon_?$AA@ 40044474     ui_main.obj
 0002:0000d47c       ??_C@_0BC@EALEMOON@models?1players?1?$CFs?$AA@ 4004447c     ui_main.obj
 0002:0000d490       ??_C@_0P@CDNMBAJP@ui_class_speed?$AA@ 40044490     ui_main.obj
 0002:0000d4a0       ??_C@_05KLHICNFN@?$CF3?42f?$AA@ 400444a0     ui_main.obj
 0002:0000d4a8       ??_C@_0BE@OKEDHDBF@ui_class_itemdesc?$CFi?$AA@ 400444a8     ui_main.obj
 0002:0000d4bc       ??_C@_0BK@DOBGMPNF@gfx?1hud?1w_icon_saberstaff?$AA@ 400444bc     ui_main.obj
 0002:0000d4d8       ??_C@_0M@KCMILOII@SABER_STAFF?$AA@ 400444d8     ui_main.obj
 0002:0000d4e4       ??_C@_0BO@FFKCLDKB@gfx?1hud?1w_icon_duallightsaber?$AA@ 400444e4     ui_main.obj
 0002:0000d504       ??_C@_0BG@LMCEBDMO@ui_class_weapondesc?$CFi?$AA@ 40044504     ui_main.obj
 0002:0000d51c       ??_C@_0O@MJDHKOPJ@ui_class_icon?$AA@ 4004451c     ui_main.obj
 0002:0000d52c       ??_C@_0P@MDLJPIIB@ui_class_armor?$AA@ 4004452c     ui_main.obj
 0002:0000d53c       ??_C@_0BA@GPNLKCEM@ui_class_health?$AA@ 4004453c     ui_main.obj
 0002:0000d54c       ??_C@_0BB@KJJNHJDC@ui_classPortrait?$AA@ 4004454c     ui_main.obj
 0002:0000d560       ??_C@_0N@HMPBMGHL@ui_classDesc?$AA@ 40044560     ui_main.obj
 0002:0000d570       ??_C@_0BE@FPKHHEIG@ui_itemforceinvdesc?$AA@ 40044570     ui_main.obj
 0002:0000d584       ??_C@_0N@JIGKLBIC@ui_move_desc?$AA@ 40044584     ui_main.obj
 0002:0000d594       ??_C@_0BA@LMLFIFFM@rulesMenu_moves?$AA@ 40044594     ui_main.obj
 0002:0000d5a4       ??_C@_0CI@IFAKKCDN@Too?5many?5game?5types?0?5last?5one?5re@ 400445a4     ui_main.obj
 0002:0000d5cc       ??_C@_0CM@LGCBCNPC@Too?5many?5net?5game?5types?0?5last?5on@ 400445cc     ui_main.obj
 0002:0000d5f8       ??_C@_0CD@INHJOHKK@Too?5many?5maps?0?5last?5one?5replaced@ 400445f8     ui_main.obj
 0002:0000d61c       ??_C@_0BE@CAPBAJFM@levelshots?1?$CFs_small?$AA@ 4004461c     ui_main.obj
 0002:0000d630       ??_C@_04ILAGGJBN@maps?$AA@ 40044630     ui_main.obj
 0002:0000d638       ??_C@_0O@EBHHCFIL@joingametypes?$AA@ 40044638     ui_main.obj
 0002:0000d648       ??_C@_09LDHGIFEE@gametypes?$AA@ 40044648     ui_main.obj
 0002:0000d654       ??_C@_09DIABHAFB@cl_paused?$AA@ 40044654     ui_main.obj
 0002:0000d660       ??_C@_0O@LAIEPDMG@forcecfg?1dark?$AA@ 40044660     ui_main.obj
 0002:0000d670       ??_C@_0P@IAEGIPNM@forcecfg?1light?$AA@ 40044670     ui_main.obj
 0002:0000d680       ??_C@_03LJMADBGE@fcf?$AA@  40044680     ui_main.obj
 0002:0000d684       ??_C@_06IFGIOHDE@Custom?$AA@ 40044684     ui_main.obj
 0002:0000d68c       ??_C@_0BO@BHADLJEM@models?1players?1?$CFs?1icon_?$CFs?4tga?$AA@ 4004468c     ui_main.obj
 0002:0000d6ac       ??_C@_0BO@MBOKLCBC@models?1players?1?$CFs?1icon_?$CFs?4png?$AA@ 400446ac     ui_main.obj
 0002:0000d6cc       ??_C@_0BO@OIPGILJD@models?1players?1?$CFs?1icon_?$CFs?4jpg?$AA@ 400446cc     ui_main.obj
 0002:0000d6ec       ??_C@_0P@KAKFFEJE@models?1players?$AA@ 400446ec     ui_main.obj
 0002:0000d6fc       ??_C@_0CJ@KLKCMJCL@Couldn?8t?5find?5any?5player?5teams?5f@ 400446fc     ui_main.obj
 0002:0000d728       ??_C@_0CL@BBGLILIJ@Couldn?8t?5find?5any?5player?5classes@ 40044728     ui_main.obj
 0002:0000d754       ??_C@_06PKHLHNNE@lower_?$AA@ 40044754     ui_main.obj
 0002:0000d75c       ??_C@_06HCGBIGN@torso_?$AA@ 4004475c     ui_main.obj
 0002:0000d764       ??_C@_05KCPJJFH@head_?$AA@ 40044764     ui_main.obj
 0002:0000d76c       ??_C@_0BF@PKIKNPLA@models?1players?1?$CFs?1?$CFs?$AA@ 4004476c     ui_main.obj
 0002:0000d784       ??_C@_0N@PLNEKBEI@fs_copyfiles?$AA@ 40044784     ui_main.obj
 0002:0000d794       ??_C@_05JNLGGGIB@?4skin?$AA@ 40044794     ui_main.obj
 0002:0000d79c       ??_C@_0DB@DGPOGINK@?$FO1UI_BuildPlayerModel_List?3?5Erro@ 4004479c     ui_main.obj
 0002:0000d7d0       ??_C@_0CD@HDLBCOLF@models?1players?1?$CFs?1PlayerChoice?4t@ 400447d0     ui_main.obj
 0002:0000d7f4       ??_C@_0BC@LAHPGJIN@ingame_siegeclass?$AA@ 400447f4     ui_main.obj
 0002:0000d808       ??_C@_0BB@JAANANPO@ingame_voicechat?$AA@ 40044808     ui_main.obj
 0002:0000d81c       __real@40c00000            4004481c     ui_main.obj
 0002:0000d820       ??_C@_0BH@PPHHFDOB@ingame_siegeobjectives?$AA@ 40044820     ui_main.obj
 0002:0000d838       ??_C@_0O@MFMAGGCJ@siege_popmenu?$AA@ 40044838     ui_main.obj
 0002:0000d848       ??_C@_06LOEOLLDH@ingame?$AA@ 40044848     ui_main.obj
 0002:0000d850       ??_C@_09LIOFIACL@endofgame?$AA@ 40044850     ui_main.obj
 0002:0000d85c       ??_C@_04KADBPNCB@team?$AA@ 4004485c     ui_main.obj
 0002:0000d864       ??_C@_0O@PEPHHCN@error_popmenu?$AA@ 40044864     ui_main.obj
 0002:0000d874       ??_C@_0BB@GDGLAKGE@com_errorMessage?$AA@ 40044874     ui_main.obj
 0002:0000d888       ??_C@_04GHJNJNPO@main?$AA@ 40044888     ui_main.obj
 0002:0000d890       ??_C@_08FFCBIDLK@?$CFd?5bytes?$AA@ 40044890     ui_main.obj
 0002:0000d89c       ??_C@_05GLFMPLMM@?$CFd?5KB?$AA@ 4004489c     ui_main.obj
 0002:0000d8a4       ??_C@_08HFAPJAAB@?4?$CF02d?5MB?$AA@ 400448a4     ui_main.obj
 0002:0000d8b0       ??_C@_08HIJIBFNH@?4?$CF02d?5GB?$AA@ 400448b0     ui_main.obj
 0002:0000d8bc       ??_C@_07DPFFKEEK@?$CF2d?5sec?$AA@ 400448bc     ui_main.obj
 0002:0000d8c4       ??_C@_0BA@EJDPLOKB@?$CF2d?5min?5?$CF2d?5sec?$AA@ 400448c4     ui_main.obj
 0002:0000d8d4       ??_C@_0O@ICFIHIJP@?$CFd?5hr?5?$CF2d?5min?$AA@ 400448d4     ui_main.obj
 0002:0000d8e8       ??_C@_0EM@DEPKLKAJ@?$CFd?5servers?5not?5listed?5due?5to?5fil@ 400448e8     ui_main.obj
 0002:0000d934       ??_C@_0L@KMOIMFOM@cl_maxPing?$AA@ 40044934     ui_main.obj
 0002:0000d940       ??_C@_0CP@JCONBAAO@?$CFd?5servers?5listed?5in?5browser?5wit@ 40044940     ui_main.obj
 0002:0000d970       ??_C@_03JIHJHPIE@Jan?$AA@  40044970     ui_main.obj
 0002:0000d974       ??_C@_06PFPCCALD@MONTHS?$AA@ 40044974     ui_main.obj
 0002:0000d97c       ??_C@_02HHFHKOHM@?$DP?$DP?$AA@ 4004497c     ui_main.obj
 0002:0000d980       ??_C@_0M@POGPACHD@NET_SOURCES?$AA@ 40044980     ui_main.obj
 0002:0000d98c       ??_C@_0BF@MGJNPIJB@ui?1jamp?1gameinfo?4txt?$AA@ 4004498c     ui_main.obj
 0002:0000d9a4       ??_C@_0BC@JODHCHLJ@ui?1jampingame?4txt?$AA@ 400449a4     ui_main.obj
 0002:0000d9b8       ??_C@_0N@DMCGCPKM@MENUS_SOURCE?$AA@ 400449b8     ui_main.obj
 0002:0000d9c8       ??_C@_06DELKPIEN@?$CFi?4?5?$CFs?$AA@ 400449c8     ui_main.obj
 0002:0000d9d0       ??_C@_05OHCDHBAC@Human?$AA@ 400449d0     ui_main.obj
 0002:0000d9d8       ??_C@_03IPHJCBHH@YES?$AA@  400449d8     ui_main.obj
 0002:0000d9dc       ??_C@_02NFLNFON@NO?$AA@    400449dc     ui_main.obj
 0002:0000d9e0       ??_C@_0P@PMJMCPLH@FORCEDESC_DARK?$AA@ 400449e0     ui_main.obj
 0002:0000d9f0       ??_C@_0BA@DCIMPCAI@FORCEDESC_LIGHT?$AA@ 400449f0     ui_main.obj
 0002:0000da00       ??_C@_08DPIMAKME@TEAM_RED?$AA@ 40044a00     ui_main.obj
 0002:0000da0c       ??_C@_09BBDECAKM@TEAM_BLUE?$AA@ 40044a0c     ui_main.obj
 0002:0000da18       ??_C@_07MGCPDNLD@DEFAULT?$AA@ 40044a18     ui_main.obj
 0002:0000da20       ??_C@_0M@FKIBDECH@ui_gameType?$AA@ 40044a20     ui_main.obj
 0002:0000da2c       ??_C@_0BF@NOPONDOP@ui_actualnetGameType?$AA@ 40044a2c     ui_main.obj
 0002:0000da44       ??_C@_0BL@FAEKLKLG@wait?5?$DL?5addbot?5?$CFs?5?$CFf?5?0?5?$CFi?5?6?$AA@ 40044a44     ui_main.obj
 0002:0000da60       ??_C@_0BC@PLCOEMKP@wait?55?$DL?5team?5Red?6?$AA@ 40044a60     ui_main.obj
 0002:0000da74       ??_C@_0BJ@ENECNDNG@addbot?5?$CC?$CFs?$CC?5?$CFf?5?$CFs?5?$CFi?5?$CFs?6?$AA@ 40044a74     ui_main.obj
 0002:0000da90       ??_C@_0BE@CELIAELA@ui_recordSPDemoName?$AA@ 40044a90     ui_main.obj
 0002:0000daa4       ??_C@_05LOPJBLNH@?$CFs_?$CFi?$AA@ 40044aa4     ui_main.obj
 0002:0000daac       ??_C@_0O@HACBLENO@ui_maxClients?$AA@ 40044aac     ui_main.obj
 0002:0000dabc       ??_C@_0M@KJJNNCLO@ui_scoreMap?$AA@ 40044abc     ui_main.obj
 0002:0000dac8       ??_C@_0BG@IEGGLJFO@wait?5?$DL?5wait?5?$DL?5map?5?$CFs?6?$AA@ 40044ac8     ui_main.obj
 0002:0000dae0       ??_C@_0EB@FIFAIGEN@UI_UpdateCharacter?3?5Could?5not?5fi@ 40044ae0     ui_main.obj
 0002:0000db24       ??_C@_0N@PIDHMKOM@ui_heavy_cnt?$AA@ 40044b24     ui_main.obj
 0002:0000db34       ??_C@_0M@ELMIAOPO@ui_demo_cnt?$AA@ 40044b34     ui_main.obj
 0002:0000db40       ??_C@_0M@MAMLHDKC@ui_jedi_cnt?$AA@ 40044b40     ui_main.obj
 0002:0000db4c       ??_C@_0P@LDIIIHAH@ui_support_cnt?$AA@ 40044b4c     ui_main.obj
 0002:0000db5c       ??_C@_0BA@LPPKCGJF@ui_vanguard_cnt?$AA@ 40044b5c     ui_main.obj
 0002:0000db6c       ??_C@_0BA@EMECKJKP@ui_infantry_cnt?$AA@ 40044b6c     ui_main.obj
 0002:0000db7c       __real@41600000            40044b7c     ui_main.obj
 0002:0000db80       ??_C@_01LKDEMHDF@s?$AA@    40044b80     ui_main.obj
 0002:0000db84       ??_C@_0BI@ICIKICGM@MENUS_SERVERS_FOUNDWITH?$AA@ 40044b84     ui_main.obj
 0002:0000db9c       ??_C@_0BB@LOIEJCIF@no?5servers?5found?$AA@ 40044b9c     ui_main.obj
 0002:0000dbb0       ??_C@_0BG@CJDALBBP@ui_playerServersFound?$AA@ 40044bb0     ui_main.obj
 0002:0000dbc8       ??_C@_0BA@KGBMAGOJ@MENUS_SEARCHING?$AA@ 40044bc8     ui_main.obj
 0002:0000dbd8       ??_C@_0BK@NLNALACG@cl_serverStatusResendTime?$AA@ 40044bd8     ui_main.obj
 0002:0000dbf8       __real@4071000000000000    40044bf8     ui_main.obj
 0002:0000dc00       ??_C@_07OEKBAJML@?$CI?$CFs?5?$CFs?$CJ?$AA@ 40044c00     ui_main.obj
 0002:0000dc08       ??_C@_0L@MBCOHHKN@estimating?$AA@ 40044c08     ui_main.obj
 0002:0000dc18       __real@4064000000000000    40044c18     ui_main.obj
 0002:0000dc20       ??_C@_0O@GGKDMBIP@?$CI?$CFs?5?$CFs?5?$CFs?5?$CFs?$CJ?$AA@ 40044c20     ui_main.obj
 0002:0000dc30       __real@43a00000            40044c30     ui_main.obj
 0002:0000dc38       __real@406b000000000000    40044c38     ui_main.obj
 0002:0000dc40       __real@4061000000000000    40044c40     ui_main.obj
 0002:0000dc48       ??_C@_09KPPELEEE@?$CFs?5?$CI?$CFd?$CF?$CF?$CJ?$AA@ 40044c48     ui_main.obj
 0002:0000dc58       __real@406f000000000000    40044c58     ui_main.obj
 0002:0000dc60       __real@4068000000000000    40044c60     ui_main.obj
 0002:0000dc68       __real@405c000000000000    40044c68     ui_main.obj
 0002:0000dc70       ??_C@_0BA@CHCCPCBI@cl_downloadTime?$AA@ 40044c70     ui_main.obj
 0002:0000dc80       ??_C@_0BB@FAHDFBEE@cl_downloadCount?$AA@ 40044c80     ui_main.obj
 0002:0000dc94       ??_C@_0BA@IMGLJLPN@cl_downloadSize?$AA@ 40044c94     ui_main.obj
 0002:0000dca4       ??_C@_0P@LJADJEPN@DOWNLOAD_STUFF?$AA@ 40044ca4     ui_main.obj
 0002:0000dcb4       __real@44200000            40044cb4     ui_main.obj
 0002:0000dcb8       __real@43f00000            40044cb8     ui_main.obj
 0002:0000dcbc       __real@3f000000            40044cbc     ui_main.obj
 0002:0000dcc0       ??_C@_0BK@LJNOAJEC@MENUS_AWAITING_CONNECTION?$AA@ 40044cc0     ui_main.obj
 0002:0000dcdc       ??_C@_0BJ@GEPNJPLO@MENUS_AWAITING_CHALLENGE?$AA@ 40044cdc     ui_main.obj
 0002:0000dcf8       ??_C@_0BJ@OKIBNKAA@MENUS_AWAITING_GAMESTATE?$AA@ 40044cf8     ui_main.obj
 0002:0000dd14       __real@43020000            40044d14     ui_main.obj
 0002:0000dd18       ??_C@_0BA@MIMGFFNE@cl_downloadName?$AA@ 40044d18     ui_main.obj
 0002:0000dd28       ??_C@_04GJFDDCGE@motd?$AA@ 40044d28     ui_main.obj
 0002:0000dd30       ??_C@_0BE@BDBJFBJK@MENUS_CONNECTING_TO?$AA@ 40044d30     ui_main.obj
 0002:0000dd44       ??_C@_0BC@IMNKPPLH@MENUS_STARTING_UP?$AA@ 40044d44     ui_main.obj
 0002:0000dd58       ??_C@_09IPAEKDAI@localhost?$AA@ 40044d58     ui_main.obj
 0002:0000dd68       __real@4074000000000000    40044d68     ui_main.obj
 0002:0000dd70       ??_C@_0BG@ILPEHJFI@MENUS_LOADING_MAPNAME?$AA@ 40044d70     ui_main.obj
 0002:0000dd88       ??_C@_07FJPHLACI@Connect?$AA@ 40044d88     ui_main.obj
 0002:0000dd90       ??_C@_0BF@OIDAJKAK@globalservers?5?$CFd?5?$CFd?6?$AA@ 40044d90     ui_main.obj
 0002:0000dda8       ??_C@_0BF@PBFJCPPP@globalservers?5?$CFd?5?$CFs?6?$AA@ 40044da8     ui_main.obj
 0002:0000ddc0       ??_C@_0P@EAAPMMHH@debug_protocol?$AA@ 40044dc0     ui_main.obj
 0002:0000ddd0       ??_C@_0O@GPLHFEBB@localservers?6?$AA@ 40044dd0     ui_main.obj
 0002:0000dde0       ??_C@_0BD@LBKOHDFN@?$CFs?9?$CFi?0?5?$CFi?5?$EA?5?$CFi?3?$CF2i?$AA@ 40044de0     ui_main.obj
 0002:0000ddf4       ??_C@_0N@IAGLNLB@SET_NEW_RANK?$AA@ 40044df4     ui_main.obj
 0002:0000de04       __real@42400000            40044e04     ui_main.obj
 0002:0000de08       ??_C@_0BG@CKECLFAA@unknown?5UI?5script?5?$CFs?6?$AA@ 40044e08     ui_main.obj
 0002:0000de20       ??_C@_0BA@BOOMJJJF@clampmaxplayers?$AA@ 40044e20     ui_main.obj
 0002:0000de30       ??_C@_0O@JFOFDMJO@getmousepitch?$AA@ 40044e30     ui_main.obj
 0002:0000de40       ??_C@_0N@NJGLFHB@resetmaplist?$AA@ 40044e40     ui_main.obj
 0002:0000de50       ??_C@_07PANIJHFC@maplist?$AA@ 40044e50     ui_main.obj
 0002:0000de58       ??_C@_0BB@DDCAGBHM@setcurrentNetMap?$AA@ 40044e58     ui_main.obj
 0002:0000de6c       ??_C@_0BH@GJEMFJHA@updatesiegestatusicons?$AA@ 40044e6c     ui_main.obj
 0002:0000de84       ??_C@_0BE@OPNFBBHA@resetsiegelistboxes?$AA@ 40044e84     ui_main.obj
 0002:0000de98       ??_C@_0BA@EBEIJLAH@itemdescription?$AA@ 40044e98     ui_main.obj
 0002:0000dea8       ??_C@_0BF@OLGFCJPH@resetitemdescription?$AA@ 40044ea8     ui_main.obj
 0002:0000dec0       ??_C@_0BF@HKCNIGAN@updatesiegeforcedesc?$AA@ 40044ec0     ui_main.obj
 0002:0000ded8       ??_C@_0BK@OOPAFGHN@base_class_inventory_feed?$AA@ 40044ed8     ui_main.obj
 0002:0000def4       ??_C@_0BJ@FOGOFGLL@updatesiegeinventorydesc?$AA@ 40044ef4     ui_main.obj
 0002:0000df10       ??_C@_0BI@CAJMDKNH@base_class_weapons_feed?$AA@ 40044f10     ui_main.obj
 0002:0000df28       ??_C@_0BG@HOOHFEEK@updatesiegeweapondesc?$AA@ 40044f28     ui_main.obj
 0002:0000df40       ??_C@_0BC@LEANKIJC@setteamclassicons?$AA@ 40044f40     ui_main.obj
 0002:0000df54       ??_C@_0BB@BNCJKHME@updatesiegecvars?$AA@ 40044f54     ui_main.obj
 0002:0000df68       ??_C@_0BE@DDPMHALA@updatesiegeclasscnt?$AA@ 40044f68     ui_main.obj
 0002:0000df7c       ??_C@_0BM@OKEKCGBI@currentObjMapIconBackground?$AA@ 40044f7c     ui_main.obj
 0002:0000df98       ??_C@_0BG@PIFHLIOL@currentObjMapIconItem?$AA@ 40044f98     ui_main.obj
 0002:0000dfb0       ??_C@_0BD@KJBNOFGI@setsiegeobjbuttons?$AA@ 40044fb0     ui_main.obj
 0002:0000dfc4       ??_C@_0BH@MPIOFIPF@updatesiegeobjgraphics?$AA@ 40044fc4     ui_main.obj
 0002:0000dfdc       ??_C@_0BB@IKMDCPME@updatesabercvars?$AA@ 40044fdc     ui_main.obj
 0002:0000dff0       ??_C@_0N@NGEANCK@saber2_color?$AA@ 40044ff0     ui_main.obj
 0002:0000e000       ??_C@_0M@EMOBKBMN@saber2_hilt?$AA@ 40045000     ui_main.obj
 0002:0000e00c       ??_C@_0P@OALPMJIP@hiltbut_staves?$AA@ 4004500c     ui_main.obj
 0002:0000e01c       ??_C@_0BE@OBDEJJBO@setscreensaberstaff?$AA@ 4004501c     ui_main.obj
 0002:0000e030       ??_C@_08OMNHPKEF@hiltbut2?$AA@ 40045030     ui_main.obj
 0002:0000e03c       ??_C@_0BE@CDEKAPOG@setscreensaberhilt2?$AA@ 4004503c     ui_main.obj
 0002:0000e050       ??_C@_08MHPKKJIG@hiltbut1?$AA@ 40045050     ui_main.obj
 0002:0000e05c       ??_C@_0BE@IGHFMCF@setscreensaberhilt1?$AA@ 4004505c     ui_main.obj
 0002:0000e070       ??_C@_07HMNPDCEB@hiltbut?$AA@ 40045070     ui_main.obj
 0002:0000e078       ??_C@_0BD@FLLPAIHH@setscreensaberhilt?$AA@ 40045078     ui_main.obj
 0002:0000e08c       ??_C@_0M@ENKHOMD@saber_color?$AA@ 4004508c     ui_main.obj
 0002:0000e098       ??_C@_0L@EENOGDMB@saber_hilt?$AA@ 40045098     ui_main.obj
 0002:0000e0a4       ??_C@_0L@PHDCDHNJ@saber_type?$AA@ 400450a4     ui_main.obj
 0002:0000e0b0       ??_C@_0BG@IOCDCAKJ@setsaberboxesandhilts?$AA@ 400450b0     ui_main.obj
 0002:0000e0c8       ??_C@_0O@BDEHIDKC@getsabercvars?$AA@ 400450c8     ui_main.obj
 0002:0000e0d8       ??_C@_0O@ODEKLGOE@setBotButtons?$AA@ 400450d8     ui_main.obj
 0002:0000e0e8       ??_C@_06HDLLMMEJ@update?$AA@ 400450e8     ui_main.obj
 0002:0000e0f0       ??_C@_0BC@KAOKGCMG@updateForceStatus?$AA@ 400450f0     ui_main.obj
 0002:0000e104       ??_C@_0P@BLMLGIOD@clearmouseover?$AA@ 40045104     ui_main.obj
 0002:0000e114       ??_C@_0P@IGNPDGBD@bot_minplayers?$AA@ 40045114     ui_main.obj
 0002:0000e124       ??_C@_0P@EBIPKDDC@setSiegeNoBots?$AA@ 40045124     ui_main.obj
 0002:0000e134       ??_C@_0O@BJNHPHDC@weaponDisable?$AA@ 40045134     ui_main.obj
 0002:0000e144       ??_C@_0BD@FJFBNPB@forcePowersDisable?$AA@ 40045144     ui_main.obj
 0002:0000e158       ??_C@_0BA@JDEFNDFP@dualForcePowers?$AA@ 40045158     ui_main.obj
 0002:0000e168       ??_C@_0BC@MNKKCNGC@ui_dualforcepower?$AA@ 40045168     ui_main.obj
 0002:0000e17c       ??_C@_0BF@CNEOFDFE@setui_dualforcepower?$AA@ 4004517c     ui_main.obj
 0002:0000e194       ??_C@_09LFFNIMNI@char_skin?$AA@ 40045194     ui_main.obj
 0002:0000e1a0       ??_C@_0N@OPNDMMAM@getcharcvars?$AA@ 400451a0     ui_main.obj
 0002:0000e1b0       ??_C@_0BA@NGDJMPNF@updatecharmodel?$AA@ 400451b0     ui_main.obj
 0002:0000e1c0       ??_C@_0BA@GCCOBAAP@updatecharcvars?$AA@ 400451c0     ui_main.obj
 0002:0000e1d0       ??_C@_0BB@GNNLJJAN@characterchanged?$AA@ 400451d0     ui_main.obj
 0002:0000e1e4       ??_C@_0BB@KEMAOIGK@setMoveCharacter?$AA@ 400451e4     ui_main.obj
 0002:0000e1f8       ??_C@_0BI@ELGJCDJA@resetcharacterlistboxes?$AA@ 400451f8     ui_main.obj
 0002:0000e210       ??_C@_0P@GHOMHNCH@resetMovesList?$AA@ 40045210     ui_main.obj
 0002:0000e220       ??_C@_0BE@CCCKMIDK@setMovesListDefault?$AA@ 40045220     ui_main.obj
 0002:0000e234       ??_C@_08EBELHFHN@glCustom?$AA@ 40045234     ui_main.obj
 0002:0000e240       ??_C@_0N@NDDLJAP@refreshForce?$AA@ 40045240     ui_main.obj
 0002:0000e250       ??_C@_0N@KHMHBFNB@saveTemplate?$AA@ 40045250     ui_main.obj
 0002:0000e260       ??_C@_0N@OALBNGAO@setBotButton?$AA@ 40045260     ui_main.obj
 0002:0000e270       ??_C@_0BB@IKPDFLKJ@siegeclass?5?$CC?$CFs?$CC?6?$AA@ 40045270     ui_main.obj
 0002:0000e284       ??_C@_0BD@DKKNDOGD@ui_startsiegeclass?$AA@ 40045284     ui_main.obj
 0002:0000e298       ??_C@_0BA@NOFPOCEH@ui_mySiegeClass?$AA@ 40045298     ui_main.obj
 0002:0000e2a8       ??_C@_0BC@KKOKLGCA@ui_startsiegeteam?$AA@ 400452a8     ui_main.obj
 0002:0000e2bc       ??_C@_0M@PDKKLFLJ@ui_holdteam?$AA@ 400452bc     ui_main.obj
 0002:0000e2c8       ??_C@_0BF@MNMOBPCJ@setsiegeclassandteam?$AA@ 400452c8     ui_main.obj
 0002:0000e2e0       ??_C@_04FMLAMFAK@same?$AA@ 400452e0     ui_main.obj
 0002:0000e2e8       ??_C@_08BLKMFMH@setForce?$AA@ 400452e8     ui_main.obj
 0002:0000e2f4       ??_C@_0M@JLOCKKJD@voiceOrders?$AA@ 400452f4     ui_main.obj
 0002:0000e300       ??_C@_0BA@CIKCJHJJ@voiceOrdersTeam?$AA@ 40045300     ui_main.obj
 0002:0000e310       ??_C@_01EEMJAFIK@?6?$AA@   40045310     ui_main.obj
 0002:0000e314       ??_C@_06GKKKPAPA@orders?$AA@ 40045314     ui_main.obj
 0002:0000e31c       ??_C@_0BE@GHLACGPA@Favorite?5list?5full?6?$AA@ 4004531c     ui_main.obj
 0002:0000e330       ??_C@_0BK@MJOGKENH@Favorite?5already?5in?5list?6?$AA@ 40045330     ui_main.obj
 0002:0000e34c       ??_C@_0BD@IEIPHBLJ@ui_favoriteAddress?$AA@ 4004534c     ui_main.obj
 0002:0000e360       ??_C@_0BA@LFABJOCG@ui_favoriteName?$AA@ 40045360     ui_main.obj
 0002:0000e370       ??_C@_0P@OAONNFHL@createFavorite?$AA@ 40045370     ui_main.obj
 0002:0000e380       ??_C@_0P@PMAAHNFK@deleteFavorite?$AA@ 40045380     ui_main.obj
 0002:0000e390       ??_C@_0BK@FHDFKECC@Added?5favorite?5server?5?$CFs?6?$AA@ 40045390     ui_main.obj
 0002:0000e3ac       ??_C@_0M@EGEBIODJ@addFavorite?$AA@ 400453ac     ui_main.obj
 0002:0000e3b8       ??_C@_0BD@JODIIMGK@addbot?5?$CC?$CFs?$CC?5?$CFi?5?$CFs?6?$AA@ 400453b8     ui_main.obj
 0002:0000e3cc       ??_C@_0BK@IIDJGHM@callteamvote?5leader?5?$CC?$CFs?$CC?6?$AA@ 400453cc     ui_main.obj
 0002:0000e3e8       ??_C@_0L@PNGBIKK@voteLeader?$AA@ 400453e8     ui_main.obj
 0002:0000e3f4       ??_C@_0BI@HLNKMHP@callvote?5g_gametype?5?$CFi?6?$AA@ 400453f4     ui_main.obj
 0002:0000e40c       ??_C@_08OCFGFKGG@voteGame?$AA@ 4004540c     ui_main.obj
 0002:0000e418       ??_C@_0BK@PAGDHLNA@callvote?5clientkick?5?$CC?$CFi?$CC?6?$AA@ 40045418     ui_main.obj
 0002:0000e434       ??_C@_08HGAPJPAM@voteKick?$AA@ 40045434     ui_main.obj
 0002:0000e440       ??_C@_0BB@MMOGBGK@callvote?5map?5?$CFs?6?$AA@ 40045440     ui_main.obj
 0002:0000e454       ??_C@_07EDCJGLGG@voteMap?$AA@ 40045454     ui_main.obj
 0002:0000e45c       ??_C@_0M@CMDMBGBD@closeingame?$AA@ 4004545c     ui_main.obj
 0002:0000e468       ??_C@_0O@NIAKDABK@SkirmishStart?$AA@ 40045468     ui_main.obj
 0002:0000e478       ??_C@_0N@ENKJLKKO@nextSkirmish?$AA@ 40045478     ui_main.obj
 0002:0000e488       ??_C@_0L@GJDENEEM@ServerSort?$AA@ 40045488     ui_main.obj
 0002:0000e494       ??_C@_0BB@PAGDEKNE@updatevideosetup?$AA@ 40045494     ui_main.obj
 0002:0000e4a8       ??_C@_0O@MHPDJFEB@checkforsiege?$AA@ 400454a8     ui_main.obj
 0002:0000e4b8       ??_C@_0BB@ONDMGGMI@getsaberhiltinfo?$AA@ 400454b8     ui_main.obj
 0002:0000e4cc       ??_C@_0O@GJOHOGLC@getvideosetup?$AA@ 400454cc     ui_main.obj
 0002:0000e4dc       ??_C@_0M@MNJNCGPD@disconnect?6?$AA@ 400454dc     ui_main.obj
 0002:0000e4e8       ??_C@_05KMBJHHBA@Leave?$AA@ 400454e8     ui_main.obj
 0002:0000e4f0       ??_C@_0M@ELCNGBBL@setup_menu2?$AA@ 400454f0     ui_main.obj
 0002:0000e4fc       ??_C@_08BJJAFCGA@Controls?$AA@ 400454fc     ui_main.obj
 0002:0000e508       ??_C@_04KNNLNNGO@quit?$AA@ 40045508     ui_main.obj
 0002:0000e510       ??_C@_04GMBKPCGK@Quit?$AA@ 40045510     ui_main.obj
 0002:0000e518       ??_C@_0BG@HCFHGGBJ@FoundPlayerJoinServer?$AA@ 40045518     ui_main.obj
 0002:0000e530       ??_C@_0L@GBIFOGGA@JoinServer?$AA@ 40045530     ui_main.obj
 0002:0000e53c       ??_C@_0O@BIEPCOGB@checkpassword?$AA@ 4004553c     ui_main.obj
 0002:0000e54c       ??_C@_0BA@OKOAECLI@checkservername?$AA@ 4004554c     ui_main.obj
 0002:0000e55c       ??_C@_0L@PKOEMDLA@FindPlayer?$AA@ 4004555c     ui_main.obj
 0002:0000e568       ??_C@_0BI@NGEOLCDJ@FoundPlayerServerStatus?$AA@ 40045568     ui_main.obj
 0002:0000e580       ??_C@_0N@MFALOAHE@ServerStatus?$AA@ 40045580     ui_main.obj
 0002:0000e590       ??_C@_0N@MIKCKLPA@UpdateFilter?$AA@ 40045590     ui_main.obj
 0002:0000e5a0       ??_C@_0M@DFCCPELD@StopRefresh?$AA@ 400455a0     ui_main.obj
 0002:0000e5ac       ??_C@_0L@CIKEFACL@joinserver?$AA@ 400455ac     ui_main.obj
 0002:0000e5b8       ??_C@_09NNPOKNDJ@closeJoin?$AA@ 400455b8     ui_main.obj
 0002:0000e5c4       ??_C@_07FMAMAFJE@fs_game?$AA@ 400455c4     ui_main.obj
 0002:0000e5cc       ??_C@_06EONMBMPE@Quake3?$AA@ 400455cc     ui_main.obj
 0002:0000e5d4       ??_C@_0L@NDAIPINK@demo?5?$CC?$CFs?$CC?6?$AA@ 400455d4     ui_main.obj
 0002:0000e5e0       ??_C@_07CJBJDCI@RunDemo?$AA@ 400455e0     ui_main.obj
 0002:0000e5e8       ??_C@_06IAFACPBP@RunMod?$AA@ 400455e8     ui_main.obj
 0002:0000e5f0       ??_C@_0BE@GDKNLHFF@cinematic?5?$CFs?4roq?52?6?$AA@ 400455f0     ui_main.obj
 0002:0000e604       ??_C@_09IMKGDMFP@playMovie?$AA@ 40045604     ui_main.obj
 0002:0000e610       ??_C@_08BONFJBCM@LoadMods?$AA@ 40045610     ui_main.obj
 0002:0000e61c       ??_C@_0L@NBLDIGEO@LoadMovies?$AA@ 4004561c     ui_main.obj
 0002:0000e628       ??_C@_09DDFPMPLA@LoadDemos?$AA@ 40045628     ui_main.obj
 0002:0000e634       ??_C@_0M@FADNIBBJ@demo?5?$CFs_?$CFi?6?$AA@ 40045634     ui_main.obj
 0002:0000e640       ??_C@_09MDJDNIJB@RunSPDemo?$AA@ 40045640     ui_main.obj
 0002:0000e64c       ??_C@_0O@IEJIOIFM@RefreshFilter?$AA@ 4004564c     ui_main.obj
 0002:0000e65c       ??_C@_0P@NGKMMKLC@RefreshServers?$AA@ 4004565c     ui_main.obj
 0002:0000e66c       ??_C@_0M@ECEPFMDA@resetScores?$AA@ 4004566c     ui_main.obj
 0002:0000e678       ??_C@_0N@EDJNMDIG@loadGameInfo?$AA@ 40045678     ui_main.obj
 0002:0000e688       ??_C@_0L@KEOECIBG@clearError?$AA@ 40045688     ui_main.obj
 0002:0000e694       ??_C@_0N@HHDEHNGC@loadControls?$AA@ 40045694     ui_main.obj
 0002:0000e6a4       ??_C@_0N@GFHNGHOF@saveControls?$AA@ 400456a4     ui_main.obj
 0002:0000e6b4       ??_C@_0N@LKMLHDLL@createserver?$AA@ 400456b4     ui_main.obj
 0002:0000e6c4       ??_C@_0L@JCFJAPJP@loadArenas?$AA@ 400456c4     ui_main.obj
 0002:0000e6d0       ??_C@_0BA@DOMILBID@com_introPlayed?$AA@ 400456d0     ui_main.obj
 0002:0000e6e0       ??_C@_0N@DAGNKKMD@vid_restart?6?$AA@ 400456e0     ui_main.obj
 0002:0000e6f0       ??_C@_0BE@HCEDAJLB@exec?5mpdefault?4cfg?6?$AA@ 400456f0     ui_main.obj
 0002:0000e704       ??_C@_0O@FOFBEHAC@cvar_restart?6?$AA@ 40045704     ui_main.obj
 0002:0000e714       ??_C@_0O@JMPPEAEI@resetDefaults?$AA@ 40045714     ui_main.obj
 0002:0000e724       ??_C@_0N@DKFPEKGB@updateSPMenu?$AA@ 40045724     ui_main.obj
 0002:0000e734       ??_C@_0BB@CJNAALAM@addbot?5?$CC?$CFs?$CC?5?$CFf?5?6?$AA@ 40045734     ui_main.obj
 0002:0000e748       ??_C@_0BD@GPGODOLP@addbot?5?$CC?$CFs?$CC?5?$CFf?5?$CFs?6?$AA@ 40045748     ui_main.obj
 0002:0000e75c       ??_C@_03GOIFLICK@120?$AA@  4004575c     ui_main.obj
 0002:0000e760       ??_C@_09BJOAODLF@dedicated?$AA@ 40045760     ui_main.obj
 0002:0000e76c       ??_C@_0M@JNAJLIPJ@StartServer?$AA@ 4004576c     ui_main.obj
 0002:0000e778       ??_C@_07GAIGJCKN@ui_name?$AA@ 40045778     ui_main.obj
 0002:0000e780       ??_C@_05PMAELIEO@white?$AA@ 40045780     ui_main.obj
 0002:0000e788       ??_C@_0BD@CHEDBJDN@menu?1art?13_cursor2?$AA@ 40045788     ui_main.obj
 0002:0000e7a0       __real@3ff5555555555555    400457a0     ui_main.obj
 0002:0000e7a8       __real@3f5999999999999a    400457a8     ui_main.obj
 0002:0000e7b0       __real@3f61111111111111    400457b0     ui_main.obj
 0002:0000e7b8       ??_C@_0BC@HHPGHHIK@g_siegeTeamSwitch?$AA@ 400457b8     ui_main.obj
 0002:0000e7cc       ??_C@_0BP@GGIPNFEP@gfx?1effects?1sabers?1purple_line?$AA@ 400457cc     ui_saber.obj
 0002:0000e7ec       ??_C@_0BP@FPLHAOII@gfx?1effects?1sabers?1purple_glow?$AA@ 400457ec     ui_saber.obj
 0002:0000e80c       ??_C@_0BN@HODAECEB@gfx?1effects?1sabers?1blue_line?$AA@ 4004580c     ui_saber.obj
 0002:0000e82c       ??_C@_0BN@EHAIJJIG@gfx?1effects?1sabers?1blue_glow?$AA@ 4004582c     ui_saber.obj
 0002:0000e84c       ??_C@_0BO@CIEHACAD@gfx?1effects?1sabers?1green_line?$AA@ 4004584c     ui_saber.obj
 0002:0000e86c       ??_C@_0BO@BBHPNJME@gfx?1effects?1sabers?1green_glow?$AA@ 4004586c     ui_saber.obj
 0002:0000e88c       ??_C@_0BP@FIINKBCP@gfx?1effects?1sabers?1yellow_line?$AA@ 4004588c     ui_saber.obj
 0002:0000e8ac       ??_C@_0BP@GBLFHKOI@gfx?1effects?1sabers?1yellow_glow?$AA@ 400458ac     ui_saber.obj
 0002:0000e8cc       ??_C@_0BP@MEMJANBP@gfx?1effects?1sabers?1orange_line?$AA@ 400458cc     ui_saber.obj
 0002:0000e8ec       ??_C@_0BP@PNPBNGNI@gfx?1effects?1sabers?1orange_glow?$AA@ 400458ec     ui_saber.obj
 0002:0000e90c       ??_C@_0BM@FMMFHOBL@gfx?1effects?1sabers?1red_line?$AA@ 4004590c     ui_saber.obj
 0002:0000e928       ??_C@_0BM@GFPNKFNM@gfx?1effects?1sabers?1red_glow?$AA@ 40045928     ui_saber.obj
 0002:0000e944       ??_C@_0BO@NBJEGAHB@required?5string?5?8?$CFs?8?5missing?6?$AA@ 40045944     ui_saber.obj
 0002:0000e964       ??_C@_0CM@LKMGCIC@?$FO1ERROR?3?5unexpected?5EOF?5while?5pa@ 40045964     ui_saber.obj
 0002:0000e990       ??_C@_09KGFNABEN@saberinfo?$AA@ 40045990     ui_saber.obj
 0002:0000e99c       ??_C@_0L@MHEAGHEK@saberModel?$AA@ 4004599c     ui_saber.obj
 0002:0000e9a8       ??_C@_0L@EKGCMDJL@customSkin?$AA@ 400459a8     ui_saber.obj
 0002:0000e9b4       ??_C@_09NAGGCFBE@saberType?$AA@ 400459b4     ui_saber.obj
 0002:0000e9c0       ??_C@_09NEDLCGJM@numBlades?$AA@ 400459c0     ui_saber.obj
 0002:0000e9cc       ??_C@_07OINOPDEA@noBlade?$AA@ 400459cc     ui_saber.obj
 0002:0000e9d4       ??_C@_08JLEEMLBC@noBlade2?$AA@ 400459d4     ui_saber.obj
 0002:0000e9e0       ??_C@_0BB@HJNEKDIH@bladeStyle2Start?$AA@ 400459e0     ui_saber.obj
 0002:0000e9f4       ??_C@_09BHFJEHJB@twoHanded?$AA@ 400459f4     ui_saber.obj
 0002:0000ea00       ??_C@_0O@NPHLGLOI@saberLength?$CFd?$AA@ 40045a00     ui_saber.obj
 0002:0000ea10       ??_C@_0M@MOIKADHG@saberLength?$AA@ 40045a10     ui_saber.obj
 0002:0000ea1c       ??_C@_0O@BLDBDLOB@saberRadius?$CFd?$AA@ 40045a1c     ui_saber.obj
 0002:0000ea2c       ??_C@_0M@GAGBGIMM@saberRadius?$AA@ 40045a2c     ui_saber.obj
 0002:0000ea38       ??_C@_07POBCBIAL@notInMP?$AA@ 40045a38     ui_saber.obj
 0002:0000ea40       ??_C@_0FN@DBBIAKFH@UI_SaberLoadParms?3?5ran?5out?5of?5sp@ 40045a40     ui_saber.obj
 0002:0000eaa0       ??_C@_0DG@DBPDBKBJ@UI_SaberLoadParms?3?5file?5?$CFs?5too?5l@ 40045aa0     ui_saber.obj
 0002:0000ead8       ??_C@_0CF@MHFDKMHE@UI_SaberLoadParms?3?5error?5reading@ 40045ad8     ui_saber.obj
 0002:0000eb00       ??_C@_0BD@NNPCBGHA@ext_data?1sabers?1?$CFs?$AA@ 40045b00     ui_saber.obj
 0002:0000eb14       ??_C@_0BA@MIBHFBCE@ext_data?1sabers?$AA@ 40045b14     ui_saber.obj
 0002:0000eb24       ??_C@_04CAHIDOMH@?4sab?$AA@ 40045b24     ui_saber.obj
 0002:0000eb30       __real@40dfffc000000000    40045b30     ui_saber.obj
 0002:0000eb38       __real@3fb3333340000000    40045b38     ui_saber.obj
 0002:0000eb40       ??_C@_06GEHONCEN@purple?$AA@ 40045b40     ui_saber.obj
 0002:0000eb48       ??_C@_05GBEEJKMC@green?$AA@ 40045b48     ui_saber.obj
 0002:0000eb50       ??_C@_06HDDOCMMN@orange?$AA@ 40045b50     ui_saber.obj
 0002:0000eb58       ??_C@_06NLFCANPD@random?$AA@ 40045b58     ui_saber.obj
 0002:0000eb60       ??_C@_0BB@JEAOEMBG@SABER_SITH_SWORD?$AA@ 40045b60     ui_saber.obj
 0002:0000eb74       ??_C@_0O@JGGDFEFK@SABER_TRIDENT?$AA@ 40045b74     ui_saber.obj
 0002:0000eb84       ??_C@_0L@BONOMJND@SABER_STAR?$AA@ 40045b84     ui_saber.obj
 0002:0000eb90       ??_C@_0M@INMNJHEK@SABER_LANCE?$AA@ 40045b90     ui_saber.obj
 0002:0000eb9c       ??_C@_0L@JGOENFGE@SABER_CLAW?$AA@ 40045b9c     ui_saber.obj
 0002:0000eba8       ??_C@_09IIGKGANJ@SABER_SAI?$AA@ 40045ba8     ui_saber.obj
 0002:0000ebb4       ??_C@_09JGPFAKGO@SABER_ARC?$AA@ 40045bb4     ui_saber.obj
 0002:0000ebc0       ??_C@_0N@KPJEOBIO@SABER_DAGGER?$AA@ 40045bc0     ui_saber.obj
 0002:0000ebd0       ??_C@_0M@FMMLCOEM@SABER_PRONG?$AA@ 40045bd0     ui_saber.obj
 0002:0000ebdc       ??_C@_0M@DCKEJJCC@SABER_BROAD?$AA@ 40045bdc     ui_saber.obj
 0002:0000ebe8       ??_C@_0N@OGPMBMML@SABER_SINGLE?$AA@ 40045be8     ui_saber.obj
 0002:0000ebf8       __real@4040000000000000    40045bf8     ui_saber.obj
 0002:0000ec00       __real@4038000000000000    40045c00     ui_saber.obj
 0002:0000ec08       __real@bfe570a3e0000000    40045c08     ui_saber.obj
 0002:0000ec10       __real@bfd51eb860000000    40045c10     ui_saber.obj
 0002:0000ec18       __real@3fe570a3e0000000    40045c18     ui_saber.obj
 0002:0000ec20       __real@3fd51eb860000000    40045c20     ui_saber.obj
 0002:0000ec28       __real@bfe8000000000000    40045c28     ui_saber.obj
 0002:0000ec30       __real@4030000000000000    40045c30     ui_saber.obj
 0002:0000ec38       __real@bfd0000000000000    40045c38     ui_saber.obj
 0002:0000ec40       __real@3fd0000000000000    40045c40     ui_saber.obj
 0002:0000ec48       __real@3fe8000000000000    40045c48     ui_saber.obj
 0002:0000ec50       __real@4020000000000000    40045c50     ui_saber.obj
 0002:0000ec58       __real@4028000000000000    40045c58     ui_saber.obj
 0002:0000ec60       ??_C@_06PDDIJHJI@?$CKflash?$AA@ 40045c60     ui_saber.obj
 0002:0000ec68       ??_C@_08EMAEECNA@?$CKblade?$CFd?$AA@ 40045c68     ui_saber.obj
 0002:0000ec74       ??_C@_06DCJKKMHM@dual_1?$AA@ 40045c74     ui_saber.obj
 0002:0000ec7c       ??_C@_07CKKFCGNI@?$CKl_hand?$AA@ 40045c7c     ui_saber.obj
 0002:0000ec84       ??_C@_07BNEEMBEL@?$CKr_hand?$AA@ 40045c84     ui_saber.obj
 0002:0000ec8c       ??_C@_0DK@KKBLCDJB@WARNING?3?5too?5many?5one?9handed?5sab@ 40045c8c     ui_saber.obj
 0002:0000ecc8       ??_C@_0DK@BNNGOFDP@WARNING?3?5too?5many?5two?9handed?5sab@ 40045cc8     ui_saber.obj
 0002:0000ed04       ??_C@_09EALBBMIF@saberlist?$AA@ 40045d04     ui_saber.obj
 0002:0000ed10       ??_C@_05EIEHMANA@popup?$AA@ 40045d10     ui_shared.obj
 0002:0000ed18       ??_C@_06CJGNFCEB@onOpen?$AA@ 40045d18     ui_shared.obj
 0002:0000ed20       ??_C@_0BB@FOHPFLED@outOfBoundsClick?$AA@ 40045d20     ui_shared.obj
 0002:0000ed34       ??_C@_05IIPJAONP@onESC?$AA@ 40045d34     ui_shared.obj
 0002:0000ed3c       ??_C@_08POJJMKJK@onAccept?$AA@ 40045d3c     ui_shared.obj
 0002:0000ed48       ??_C@_07LAOJOJAJ@onClose?$AA@ 40045d48     ui_shared.obj
 0002:0000ed50       ??_C@_07BNAIEIKL@itemDef?$AA@ 40045d50     ui_shared.obj
 0002:0000ed58       ??_C@_0L@GIACNHMO@fullscreen?$AA@ 40045d58     ui_shared.obj
 0002:0000ed64       ??_C@_0L@OKFLOHAM@focuscolor?$AA@ 40045d64     ui_shared.obj
 0002:0000ed70       ??_C@_0N@EEPADJLO@disablecolor?$AA@ 40045d70     ui_shared.obj
 0002:0000ed80       ??_C@_09MEFJHNGH@descScale?$AA@ 40045d80     ui_shared.obj
 0002:0000ed8c       ??_C@_05NEOIHHDL@descY?$AA@ 40045d8c     ui_shared.obj
 0002:0000ed94       ??_C@_05MNPDEGHK@descX?$AA@ 40045d94     ui_shared.obj
 0002:0000ed9c       ??_C@_09PAHMHFNJ@desccolor?$AA@ 40045d9c     ui_shared.obj
 0002:0000eda8       ??_C@_0O@COCPBLJA@descAlignment?$AA@ 40045da8     ui_shared.obj
 0002:0000edb8       ??_C@_0L@NBMNMLHL@borderSize?$AA@ 40045db8     ui_shared.obj
 0002:0000edc4       ??_C@_0BE@MBDLAKDH@appearanceIncrement?$AA@ 40045dc4     ui_shared.obj
 0002:0000edd8       ??_C@_09GCPJPMCM@xoffset?7?7?$AA@ 40045dd8     ui_shared.obj
 0002:0000ede4       ??_C@_0N@OJPOMGGP@scrollhidden?$AA@ 40045de4     ui_shared.obj
 0002:0000edf4       ??_C@_0M@IMNLLLNC@invertyesno?$AA@ 40045df4     ui_shared.obj
 0002:0000ee00       ??_C@_0L@PPHHMIKE@lineHeight?$AA@ 40045e00     ui_shared.obj
 0002:0000ee0c       ??_C@_0N@NGJINDLF@maxLineChars?$AA@ 40045e0c     ui_shared.obj
 0002:0000ee1c       ??_C@_07FJHHECNJ@wrapped?$AA@ 40045e1c     ui_shared.obj
 0002:0000ee24       ??_C@_07DPDAEJMK@visible?$AA@ 40045e24     ui_shared.obj
 0002:0000ee2c       ??_C@_0M@NBEMMMLH@text2aligny?$AA@ 40045e2c     ui_shared.obj
 0002:0000ee38       ??_C@_0M@MIFHPNPG@text2alignx?$AA@ 40045e38     ui_shared.obj
 0002:0000ee44       ??_C@_05JPFPPFDI@text2?$AA@ 40045e44     ui_shared.obj
 0002:0000ee4c       ??_C@_09FMCFHDEN@textstyle?$AA@ 40045e4c     ui_shared.obj
 0002:0000ee58       ??_C@_09BLEIEHKP@textscale?$AA@ 40045e58     ui_shared.obj
 0002:0000ee64       ??_C@_0L@FCLMCIJC@textaligny?$AA@ 40045e64     ui_shared.obj
 0002:0000ee70       ??_C@_0L@ELKHBJND@textalignx?$AA@ 40045e70     ui_shared.obj
 0002:0000ee7c       ??_C@_09PNBDGNCL@textalign?$AA@ 40045e7c     ui_shared.obj
 0002:0000ee88       ??_C@_04CIMGMMMG@text?$AA@ 40045e88     ui_shared.obj
 0002:0000ee90       ??_C@_05IAKJCFIM@style?$AA@ 40045e90     ui_shared.obj
 0002:0000ee98       ??_C@_07BELCMIIP@special?$AA@ 40045e98     ui_shared.obj
 0002:0000eea0       ??_C@_08LNBEMJIA@showCvar?$AA@ 40045ea0     ui_shared.obj
 0002:0000eeac       ??_C@_08LBJPPPMM@rectcvar?$AA@ 40045eac     ui_shared.obj
 0002:0000eeb8       ??_C@_04LHPFHFPH@rect?$AA@ 40045eb8     ui_shared.obj
 0002:0000eec0       ??_C@_0O@DACAJCLK@ownerdrawFlag?$AA@ 40045ec0     ui_shared.obj
 0002:0000eed0       ??_C@_09HGLBOMNF@ownerdraw?$AA@ 40045ed0     ui_shared.obj
 0002:0000eedc       ??_C@_0N@LGJOCBPD@outlinecolor?$AA@ 40045edc     ui_shared.obj
 0002:0000eeec       ??_C@_07PFEHHELH@onFocus?$AA@ 40045eec     ui_shared.obj
 0002:0000eef4       ??_C@_0O@FDEIBLKE@notselectable?$AA@ 40045ef4     ui_shared.obj
 0002:0000ef04       ??_C@_0O@GFPABKKP@mouseExitText?$AA@ 40045f04     ui_shared.obj
 0002:0000ef14       ??_C@_09OIHCIOIA@mouseExit?$AA@ 40045f14     ui_shared.obj
 0002:0000ef20       ??_C@_0P@BCEPHLNB@mouseEnterText?$AA@ 40045f20     ui_shared.obj
 0002:0000ef30       ??_C@_0L@KAGOMOPN@mouseEnter?$AA@ 40045f30     ui_shared.obj
 0002:0000ef3c       ??_C@_0N@ONFNKGDF@model_g2anim?$AA@ 40045f3c     ui_shared.obj
 0002:0000ef4c       ??_C@_0N@OLIOMBCG@model_g2skin?$AA@ 40045f4c     ui_shared.obj
 0002:0000ef5c       ??_C@_0O@DMCMCDJO@model_g2scale?$AA@ 40045f5c     ui_shared.obj
 0002:0000ef6c       ??_C@_0N@LJGLKNPK@model_g2maxs?$AA@ 40045f6c     ui_shared.obj
 0002:0000ef7c       ??_C@_0N@GEHEFKNH@model_g2mins?$AA@ 40045f7c     ui_shared.obj
 0002:0000ef8c       ??_C@_0P@NOKHMHPD@model_rotation?$AA@ 40045f8c     ui_shared.obj
 0002:0000ef9c       ??_C@_0N@LHLPLFLG@model_origin?$AA@ 40045f9c     ui_shared.obj
 0002:0000efac       ??_C@_0L@NMCIJLPA@model_fovy?$AA@ 40045fac     ui_shared.obj
 0002:0000efb8       ??_C@_0L@MFDDKKLB@model_fovx?$AA@ 40045fb8     ui_shared.obj
 0002:0000efc4       ??_C@_0M@HHMGANAM@model_angle?$AA@ 40045fc4     ui_shared.obj
 0002:0000efd0       ??_C@_0O@HPCOAMJM@maxPaintChars?$AA@ 40045fd0     ui_shared.obj
 0002:0000efe0       ??_C@_08IHGPPBOI@maxChars?$AA@ 40045fe0     ui_shared.obj
 0002:0000efec       ??_C@_0L@LMAJDKOE@leaveFocus?$AA@ 40045fec     ui_shared.obj
 0002:0000eff8       ??_C@_08EPHDKOFL@isSaber2?$AA@ 40045ff8     ui_shared.obj
 0002:0000f004       ??_C@_07GEILFICD@isSaber?$AA@ 40046004     ui_shared.obj
 0002:0000f00c       ??_C@_0M@JODFBNF@isCharacter?$AA@ 4004600c     ui_shared.obj
 0002:0000f018       ??_C@_0BB@EIBMEDHI@horizontalscroll?$AA@ 40046018     ui_shared.obj
 0002:0000f02c       ??_C@_08BDDCOCNI@hideCvar?$AA@ 4004602c     ui_shared.obj
 0002:0000f038       ??_C@_05MGJOOGAJ@group?$AA@ 40046038     ui_shared.obj
 0002:0000f040       ??_C@_09MONNBKNO@forecolor?$AA@ 40046040     ui_shared.obj
 0002:0000f04c       ??_C@_0L@NOGKCHFE@focusSound?$AA@ 4004604c     ui_shared.obj
 0002:0000f058       ??_C@_04DNPGJOMD@flag?$AA@ 40046058     ui_shared.obj
 0002:0000f060       ??_C@_06GEEPENGB@feeder?$AA@ 40046060     ui_shared.obj
 0002:0000f068       ??_C@_0L@LCDHKNEJ@enableCvar?$AA@ 40046068     ui_shared.obj
 0002:0000f074       ??_C@_0N@MILKKPGL@elementwidth?$AA@ 40046074     ui_shared.obj
 0002:0000f084       ??_C@_0M@HBNIAHKL@elementtype?$AA@ 40046084     ui_shared.obj
 0002:0000f090       ??_C@_0O@MNJDKOBB@elementheight?$AA@ 40046090     ui_shared.obj
 0002:0000f0a0       ??_C@_0M@IHJKFHF@doubleclick?$AA@ 400460a0     ui_shared.obj
 0002:0000f0ac       ??_C@_0M@FBHLBFCC@disableCvar?$AA@ 400460ac     ui_shared.obj
 0002:0000f0b8       ??_C@_0L@GFEIECKE@decoration?$AA@ 400460b8     ui_shared.obj
 0002:0000f0c4       ??_C@_08MCIJOGEA@desctext?$AA@ 400460c4     ui_shared.obj
 0002:0000f0d0       ??_C@_08KBIDCBHN@cvarTest?$AA@ 400460d0     ui_shared.obj
 0002:0000f0dc       ??_C@_0M@GOKMFACI@cvarStrList?$AA@ 400460dc     ui_shared.obj
 0002:0000f0e8       ??_C@_0O@IKNDJMDK@cvarFloatList?$AA@ 400460e8     ui_shared.obj
 0002:0000f0f8       ??_C@_09CGGKHKAP@cvarFloat?$AA@ 400460f8     ui_shared.obj
 0002:0000f104       ??_C@_04PNAHEAFM@cvar?$AA@ 40046104     ui_shared.obj
 0002:0000f10c       ??_C@_07HIFEPIJN@columns?$AA@ 4004610c     ui_shared.obj
 0002:0000f114       ??_C@_09DHDJHDLH@cinematic?$AA@ 40046114     ui_shared.obj
 0002:0000f120       ??_C@_0L@BAAMOEHP@bordersize?$AA@ 40046120     ui_shared.obj
 0002:0000f12c       ??_C@_0M@CJNAABJD@bordercolor?$AA@ 4004612c     ui_shared.obj
 0002:0000f138       ??_C@_06ODFLABIG@border?$AA@ 40046138     ui_shared.obj
 0002:0000f140       ??_C@_0L@EGCKCJDC@background?$AA@ 40046140     ui_shared.obj
 0002:0000f14c       ??_C@_09OPNKCLNO@backcolor?$AA@ 4004614c     ui_shared.obj
 0002:0000f158       ??_C@_0N@HLFJAKEA@asset_shader?$AA@ 40046158     ui_shared.obj
 0002:0000f168       ??_C@_0M@DKAIGAGN@asset_model?$AA@ 40046168     ui_shared.obj
 0002:0000f174       ??_C@_0BA@HJNHMKEG@appearance_slot?$AA@ 40046174     ui_shared.obj
 0002:0000f184       ??_C@_0M@HHKOOJO@autowrapped?$AA@ 40046184     ui_shared.obj
 0002:0000f190       ??_C@_05CBJPDLOK@align?$AA@ 40046190     ui_shared.obj
 0002:0000f198       ??_C@_0O@BGFKBLBI@addColorRange?$AA@ 40046198     ui_shared.obj
 0002:0000f1a8       ??_C@_06DDLLCOJG@action?$AA@ 400461a8     ui_shared.obj
 0002:0000f1b0       ??_C@_09GLHNJALG@voicechat?$AA@ 400461b0     ui_shared.obj
 0002:0000f1bc       ??_C@_0P@HBEPEMGI@automap_toggle?$AA@ 400461bc     ui_shared.obj
 0002:0000f1cc       ??_C@_0P@FDFCLGNA@automap_button?$AA@ 400461cc     ui_shared.obj
 0002:0000f1dc       ??_C@_0BB@IOOMJMJB@cg_thirdperson?5?$CB?$AA@ 400461dc     ui_shared.obj
 0002:0000f1f0       ??_C@_0L@HCOPHPIB@use_sentry?$AA@ 400461f0     ui_shared.obj
 0002:0000f1fc       ??_C@_0BG@OOGFIKBA@use_electrobinoculars?$AA@ 400461fc     ui_shared.obj
 0002:0000f214       ??_C@_09GPEOCDOP@use_bacta?$AA@ 40046214     ui_shared.obj
 0002:0000f220       ??_C@_09IOIGHDGJ@use_field?$AA@ 40046220     ui_shared.obj
 0002:0000f22c       ??_C@_0L@PHNIGFGH@use_seeker?$AA@ 4004622c     ui_shared.obj
 0002:0000f238       ??_C@_07FMBGBNAB@invprev?$AA@ 40046238     ui_shared.obj
 0002:0000f240       ??_C@_07GIMAAJGF@invnext?$AA@ 40046240     ui_shared.obj
 0002:0000f248       ??_C@_09EANJKMNE@forceprev?$AA@ 40046248     ui_shared.obj
 0002:0000f254       ??_C@_09HEAPLILA@forcenext?$AA@ 40046254     ui_shared.obj
 0002:0000f260       ??_C@_09LMEPJCFC@?$CLuseforce?$AA@ 40046260     ui_shared.obj
 0002:0000f26c       ??_C@_0N@PIIHDBOG@force_seeing?$AA@ 4004626c     ui_shared.obj
 0002:0000f27c       ??_C@_0BG@IPJAFHDH@force_forcepowerother?$AA@ 4004627c     ui_shared.obj
 0002:0000f294       ??_C@_0BA@FAEJBFDN@force_healother?$AA@ 40046294     ui_shared.obj
 0002:0000f2a4       ??_C@_0N@LHEDBPBG@force_absorb?$AA@ 400462a4     ui_shared.obj
 0002:0000f2b4       ??_C@_0O@MHNHIGKF@force_protect?$AA@ 400462b4     ui_shared.obj
 0002:0000f2c4       ??_C@_0L@PNAILJHA@force_rage?$AA@ 400462c4     ui_shared.obj
 0002:0000f2d0       ??_C@_0N@FFCOOBHL@?$CLforce_drain?$AA@ 400462d0     ui_shared.obj
 0002:0000f2e0       ??_C@_0BB@PDNGOECE@?$CLforce_lightning?$AA@ 400462e0     ui_shared.obj
 0002:0000f2f4       ??_C@_0M@FDHOJKJI@?$CLforce_grip?$AA@ 400462f4     ui_shared.obj
 0002:0000f300       ??_C@_0L@INHFGGPP@force_heal?$AA@ 40046300     ui_shared.obj
 0002:0000f30c       ??_C@_0P@PMALMCEF@force_distract?$AA@ 4004630c     ui_shared.obj
 0002:0000f31c       ??_C@_0M@GNLMHCDK@force_speed?$AA@ 4004631c     ui_shared.obj
 0002:0000f328       ??_C@_0L@IFCEHOHA@force_pull?$AA@ 40046328     ui_shared.obj
 0002:0000f334       ??_C@_0M@IBJPDFKD@force_throw?$AA@ 40046334     ui_shared.obj
 0002:0000f340       ??_C@_0M@DBDAMOEM@?$CLforce_jump?$AA@ 40046340     ui_shared.obj
 0002:0000f34c       ??_C@_0N@NFNJCLFL@messagemode4?$AA@ 4004634c     ui_shared.obj
 0002:0000f35c       ??_C@_0N@JKJILNJM@messagemode3?$AA@ 4004635c     ui_shared.obj
 0002:0000f36c       ??_C@_0N@IDIDIMNN@messagemode2?$AA@ 4004636c     ui_shared.obj
 0002:0000f37c       ??_C@_0M@JINOELJH@messagemode?$AA@ 4004637c     ui_shared.obj
 0002:0000f388       ??_C@_0L@JEAJCAAH@scoresDown?$AA@ 40046388     ui_shared.obj
 0002:0000f394       ??_C@_08NILIEBDN@scoresUp?$AA@ 40046394     ui_shared.obj
 0002:0000f3a0       ??_C@_0O@BNPKDDEF@tauntGauntlet?$AA@ 400463a0     ui_shared.obj
 0002:0000f3b0       ??_C@_0BB@DHLHLJJP@tauntDeathInsult?$AA@ 400463b0     ui_shared.obj
 0002:0000f3c4       ??_C@_0L@OFGCNOGN@tauntTaunt?$AA@ 400463c4     ui_shared.obj
 0002:0000f3d0       ??_C@_0M@FHJJKLIB@tauntPraise?$AA@ 400463d0     ui_shared.obj
 0002:0000f3dc       ??_C@_0BA@LAKLAIKA@tauntKillInsult?$AA@ 400463dc     ui_shared.obj
 0002:0000f3ec       ??_C@_0M@HEJOPHDA@taskSuicide?$AA@ 400463ec     ui_shared.obj
 0002:0000f3f8       ??_C@_0M@NPBCACOK@taskOwnFlag?$AA@ 400463f8     ui_shared.obj
 0002:0000f404       ??_C@_0L@JKHNIMGE@taskEscort?$AA@ 40046404     ui_shared.obj
 0002:0000f410       ??_C@_0N@DNLIECKN@taskRetrieve?$AA@ 40046410     ui_shared.obj
 0002:0000f420       ??_C@_0L@HALHAPMG@taskFollow?$AA@ 40046420     ui_shared.obj
 0002:0000f42c       ??_C@_08OELCHPPI@taskCamp?$AA@ 4004642c     ui_shared.obj
 0002:0000f438       ??_C@_0L@HNDPADH@taskPatrol?$AA@ 40046438     ui_shared.obj
 0002:0000f444       ??_C@_0M@JPJGJJPF@taskDefense?$AA@ 40046444     ui_shared.obj
 0002:0000f450       ??_C@_0M@PDBEJPDO@taskOffense?$AA@ 40046450     ui_shared.obj
 0002:0000f45c       ??_C@_09PEFBKJOE@denyOrder?$AA@ 4004645c     ui_shared.obj
 0002:0000f468       ??_C@_0N@KJLGMAFH@confirmOrder?$AA@ 40046468     ui_shared.obj
 0002:0000f478       ??_C@_09DIHAGAEB@nextOrder?$AA@ 40046478     ui_shared.obj
 0002:0000f484       ??_C@_0P@GJIGAACM@nextTeamMember?$AA@ 40046484     ui_shared.obj
 0002:0000f494       ??_C@_0P@NMPIEJIB@prevTeamMember?$AA@ 40046494     ui_shared.obj
 0002:0000f4a4       ??_C@_08IJHOKAF@weapnext?$AA@ 400464a4     ui_shared.obj
 0002:0000f4b0       ??_C@_08DMEBPOGB@weapprev?$AA@ 400464b0     ui_shared.obj
 0002:0000f4bc       ??_C@_05GGANABEC@gloat?$AA@ 400464bc     ui_shared.obj
 0002:0000f4c4       ??_C@_08KJHFDKHF@flourish?$AA@ 400464c4     ui_shared.obj
 0002:0000f4d0       ??_C@_08LIGJJMBO@meditate?$AA@ 400464d0     ui_shared.obj
 0002:0000f4dc       ??_C@_03GMGBHMEH@bow?$AA@  400464dc     ui_shared.obj
 0002:0000f4e0       ??_C@_05CPCHEFAA@taunt?$AA@ 400464e0     ui_shared.obj
 0002:0000f4e8       ??_C@_0M@HCFMJNJ@engage_duel?$AA@ 400464e8     ui_shared.obj
 0002:0000f4f4       ??_C@_04JNBAAPLC@?$CLuse?$AA@ 400464f4     ui_shared.obj
 0002:0000f4fc       ??_C@_0L@GDIPNNOO@?$CLaltattack?$AA@ 400464fc     ui_shared.obj
 0002:0000f508       ??_C@_07MAODEHGM@?$CLattack?$AA@ 40046508     ui_shared.obj
 0002:0000f510       ??_C@_09EAGNIMIH@weapon?513?$AA@ 40046510     ui_shared.obj
 0002:0000f51c       ??_C@_09FJHGLNMG@weapon?512?$AA@ 4004651c     ui_shared.obj
 0002:0000f528       ??_C@_09HCFLOOAF@weapon?511?$AA@ 40046528     ui_shared.obj
 0002:0000f534       ??_C@_0BB@CFPBIBMB@saberAttackCycle?$AA@ 40046534     ui_shared.obj
 0002:0000f548       ??_C@_09GLEANPEE@weapon?510?$AA@ 40046548     ui_shared.obj
 0002:0000f554       ??_C@_08MFIOAKPE@weapon?59?$AA@ 40046554     ui_shared.obj
 0002:0000f560       ??_C@_08NMJFDLLF@weapon?58?$AA@ 40046560     ui_shared.obj
 0002:0000f56c       ??_C@_08FLANCHHK@weapon?57?$AA@ 4004656c     ui_shared.obj
 0002:0000f578       ??_C@_08ECBGBGDL@weapon?56?$AA@ 40046578     ui_shared.obj
 0002:0000f584       ??_C@_08GJDLEFPI@weapon?55?$AA@ 40046584     ui_shared.obj
 0002:0000f590       ??_C@_08HACAHELJ@weapon?54?$AA@ 40046590     ui_shared.obj
 0002:0000f59c       ??_C@_08DPGBOCHO@weapon?53?$AA@ 4004659c     ui_shared.obj
 0002:0000f5a8       ??_C@_08CGHKNDDP@weapon?52?$AA@ 400465a8     ui_shared.obj
 0002:0000f5b4       ??_C@_08NFHIAPM@weapon?51?$AA@ 400465b4     ui_shared.obj
 0002:0000f5c0       ??_C@_0L@FHIBDANG@centerview?$AA@ 400465c0     ui_shared.obj
 0002:0000f5cc       ??_C@_06OBEGBCAL@?$CLmlook?$AA@ 400465cc     ui_shared.obj
 0002:0000f5d4       ??_C@_09KCKOGCLI@?$CLlookdown?$AA@ 400465d4     ui_shared.obj
 0002:0000f5e0       ??_C@_07BDFIGFL@?$CLlookup?$AA@ 400465e0     ui_shared.obj
 0002:0000f5e8       ??_C@_07CHKKNAEO@?$CLstrafe?$AA@ 400465e8     ui_shared.obj
 0002:0000f5f0       ??_C@_06NGIHBNMB@?$CLright?$AA@ 400465f0     ui_shared.obj
 0002:0000f5f8       ??_C@_05HEGFDNLE@?$CLleft?$AA@ 400465f8     ui_shared.obj
 0002:0000f600       ??_C@_09HNJJMOJG@?$CLmovedown?$AA@ 40046600     ui_shared.obj
 0002:0000f60c       ??_C@_07CKGNAPCP@?$CLmoveup?$AA@ 4004660c     ui_shared.obj
 0002:0000f614       ??_C@_0L@FMBJCMEG@?$CLmoveright?$AA@ 40046614     ui_shared.obj
 0002:0000f620       ??_C@_09IPJNFGKP@?$CLmoveleft?$AA@ 40046620     ui_shared.obj
 0002:0000f62c       ??_C@_05IPKGNIPH@?$CLback?$AA@ 4004662c     ui_shared.obj
 0002:0000f634       ??_C@_08KKEOHAPB@?$CLforward?$AA@ 40046634     ui_shared.obj
 0002:0000f640       ??_C@_06JIDIHCBO@?$CLspeed?$AA@ 40046640     ui_shared.obj
 0002:0000f648       ??_C@_08GFFBPDLD@?$CLbutton2?$AA@ 40046648     ui_shared.obj
 0002:0000f654       ??_C@_07PNHLECKB@?$CLscores?$AA@ 40046654     ui_shared.obj
 0002:0000f65c       ??_C@_0M@FLLAMNPB@transition2?$AA@ 4004665c     ui_shared.obj
 0002:0000f668       ??_C@_0M@CIHCAJBI@rundeferred?$AA@ 40046668     ui_shared.obj
 0002:0000f674       ??_C@_05MBNCFBEN@defer?$AA@ 40046674     ui_shared.obj
 0002:0000f67c       ??_C@_07DBNODEFN@disable?$AA@ 4004667c     ui_shared.obj
 0002:0000f684       ??_C@_05MHMEBBGO@scale?$AA@ 40046684     ui_shared.obj
 0002:0000f68c       ??_C@_05KJPHCDKJ@orbit?$AA@ 4004668c     ui_shared.obj
 0002:0000f694       ??_C@_0L@NDOCJLDE@playlooped?$AA@ 40046694     ui_shared.obj
 0002:0000f6a0       ??_C@_04GBHMDDO@play?$AA@  400466a0     ui_shared.obj
 0002:0000f6a8       ??_C@_04MGEIEJAD@exec?$AA@ 400466a8     ui_shared.obj
 0002:0000f6b0       ??_C@_0O@DOIJMEIF@setcvartocvar?$AA@ 400466b0     ui_shared.obj
 0002:0000f6c0       ??_C@_07DFOFNCMO@setcvar?$AA@ 400466c0     ui_shared.obj
 0002:0000f6c8       ??_C@_0L@KGLELNDP@transition?$AA@ 400466c8     ui_shared.obj
 0002:0000f6d4       ??_C@_0P@COHLPKKB@setplayermodel?$AA@ 400466d4     ui_shared.obj
 0002:0000f6e4       ??_C@_08OKIAJKBO@setfocus?$AA@ 400466e4     ui_shared.obj
 0002:0000f6f0       ??_C@_0N@KMLJLNON@setteamcolor?$AA@ 400466f0     ui_shared.obj
 0002:0000f700       ??_C@_0M@DCMJNPEK@setitemrect?$AA@ 40046700     ui_shared.obj
 0002:0000f70c       ??_C@_0BB@HMPBEODN@setitemcolorcvar?$AA@ 4004670c     ui_shared.obj
 0002:0000f720       ??_C@_0N@EBBIOPHN@setitemcolor?$AA@ 40046720     ui_shared.obj
 0002:0000f730       ??_C@_0M@KNPKGGHL@setitemtext?$AA@ 40046730     ui_shared.obj
 0002:0000f73c       ??_C@_0BC@IHOKDANM@setitembackground?$AA@ 4004673c     ui_shared.obj
 0002:0000f750       ??_C@_0BA@GEEJLPGN@setitemrectcvar?$AA@ 40046750     ui_shared.obj
 0002:0000f760       ??_C@_0O@FOIIKEEB@setbackground?$AA@ 40046760     ui_shared.obj
 0002:0000f770       ??_C@_08FBOLLCAN@setasset?$AA@ 40046770     ui_shared.obj
 0002:0000f77c       ??_C@_05LBOHBHFK@close?$AA@ 4004677c     ui_shared.obj
 0002:0000f784       ??_C@_04PMOCAHAA@open?$AA@ 40046784     ui_shared.obj
 0002:0000f78c       ??_C@_08OKIEAMBM@setcolor?$AA@ 4004678c     ui_shared.obj
 0002:0000f798       ??_C@_04IBOFHAPJ@hide?$AA@ 40046798     ui_shared.obj
 0002:0000f7a0       ??_C@_04FKMICODN@show?$AA@ 400467a0     ui_shared.obj
 0002:0000f7a8       ??_C@_07BJADIKJG@fadeout?$AA@ 400467a8     ui_shared.obj
 0002:0000f7b0       ??_C@_06JFGPOFJL@fadein?$AA@ 400467b0     ui_shared.obj
 0002:0000f7b8       ??_C@_0BF@GHBOAADB@ITEM_TYPE_TEXTSCROLL?$AA@ 400467b8     ui_shared.obj
 0002:0000f7d0       ??_C@_0P@LFNHJNLI@ITEM_TYPE_BIND?$AA@ 400467d0     ui_shared.obj
 0002:0000f7e0       ??_C@_0BA@GNNLLMC@ITEM_TYPE_MULTI?$AA@ 400467e0     ui_shared.obj
 0002:0000f7f0       ??_C@_0BA@LBOLKKCE@ITEM_TYPE_YESNO?$AA@ 400467f0     ui_shared.obj
 0002:0000f800       ??_C@_0BB@HPDKNELK@ITEM_TYPE_SLIDER?$AA@ 40046800     ui_shared.obj
 0002:0000f814       ??_C@_0BH@GLLADPJF@ITEM_TYPE_NUMERICFIELD?$AA@ 40046814     ui_shared.obj
 0002:0000f82c       ??_C@_0BE@EAPBKGDL@ITEM_TYPE_OWNERDRAW?$AA@ 4004682c     ui_shared.obj
 0002:0000f840       ??_C@_0BA@IJKKCBAM@ITEM_TYPE_MODEL?$AA@ 40046840     ui_shared.obj
 0002:0000f850       ??_C@_0BC@OFIOAFNP@ITEM_TYPE_LISTBOX?$AA@ 40046850     ui_shared.obj
 0002:0000f864       ??_C@_0BA@OAMKEKLA@ITEM_TYPE_COMBO?$AA@ 40046864     ui_shared.obj
 0002:0000f874       ??_C@_0BE@MNNMOPPO@ITEM_TYPE_EDITFIELD?$AA@ 40046874     ui_shared.obj
 0002:0000f888       ??_C@_0BD@ILDGMNNN@ITEM_TYPE_CHECKBOX?$AA@ 40046888     ui_shared.obj
 0002:0000f89c       ??_C@_0BG@BAAHBGEB@ITEM_TYPE_RADIOBUTTON?$AA@ 4004689c     ui_shared.obj
 0002:0000f8b4       ??_C@_0BB@LJMDMMLE@ITEM_TYPE_BUTTON?$AA@ 400468b4     ui_shared.obj
 0002:0000f8c8       ??_C@_0P@ECMIINLB@ITEM_TYPE_TEXT?$AA@ 400468c8     ui_shared.obj
 0002:0000f8d8       ??_C@_0BB@MDDHAHGK@ITEM_ALIGN_RIGHT?$AA@ 400468d8     ui_shared.obj
 0002:0000f8ec       ??_C@_0BC@JJHJJEIH@ITEM_ALIGN_CENTER?$AA@ 400468ec     ui_shared.obj
 0002:0000f900       ??_C@_0BA@CFDMPPCB@ITEM_ALIGN_LEFT?$AA@ 40046900     ui_shared.obj
 0002:0000f910       ??_C@_0BH@CDGHPFEH@WINDOW_STYLE_CINEMATIC?$AA@ 40046910     ui_shared.obj
 0002:0000f928       ??_C@_0BH@KNCNDPMK@WINDOW_STYLE_TEAMCOLOR?$AA@ 40046928     ui_shared.obj
 0002:0000f940       ??_C@_0BE@HECCLBFC@WINDOW_STYLE_SHADER?$AA@ 40046940     ui_shared.obj
 0002:0000f954       ??_C@_0BG@IEFBEMMN@WINDOW_STYLE_GRADIENT?$AA@ 40046954     ui_shared.obj
 0002:0000f96c       ??_C@_0BE@KLCEIIBH@WINDOW_STYLE_FILLED?$AA@ 4004696c     ui_shared.obj
 0002:0000f980       ??_C@_0BD@BJJNFIHK@WINDOW_STYLE_EMPTY?$AA@ 40046980     ui_shared.obj
 0002:0000f994       ??_C@_0BA@NNDAHIHE@WINDOW_INACTIVE?$AA@ 40046994     ui_shared.obj
 0002:0000f9c8       ??_C@_0CD@LBKPCJLM@UI_Alloc?3?5Failure?4?5Out?5of?5memory@ 400469c8     ui_shared.obj
 0002:0000f9ec       ??_C@_0DG@OMGKABNP@Memory?5Pool?5is?5?$CF?41f?$CF?$CF?5full?0?5?$CFi?5b@ 400469ec     ui_shared.obj
 0002:0000fa28       __real@3ea0000000000000    40046a28     ui_shared.obj
 0002:0000fa30       ??_C@_0DG@MABFDHIF@String?5Pool?5is?5?$CF?41f?$CF?$CF?5full?0?5?$CFi?5b@ 40046a30     ui_shared.obj
 0002:0000fa68       __real@4059000000000000    40046a68     ui_shared.obj
 0002:0000fa70       __real@4118000000000000    40046a70     ui_shared.obj
 0002:0000fa78       ??_C@_0BC@DKLFONDB@?9?9?9?9?9?9?9?9?9?9?9?9?9?9?9?9?6?$AA@ 40046a78     ui_shared.obj
 0002:0000fa8c       ??_C@_0BJ@GAPDFKFM@Memory?1String?5Pool?5Info?6?$AA@ 40046a8c     ui_shared.obj
 0002:0000faa8       ??_C@_0BK@OKFEFFGN@?$FO1ERROR?3?5?$CFs?0?5line?5?$CFd?3?5?$CFs?6?$AA@ 40046aa8     ui_shared.obj
 0002:0000fac4       ??_C@_0BN@CKJPOGNB@expected?5float?5but?5found?5?$CFs?6?$AA@ 40046ac4     ui_shared.obj
 0002:0000fae4       ??_C@_0BP@FLADEANJ@expected?5integer?5but?5found?5?$CFs?6?$AA@ 40046ae4     ui_shared.obj
 0002:0000fb04       ??_C@_04OEDFLLKD@?$CC?$CFs?$CC?$AA@ 40046b04     ui_shared.obj
 0002:0000fb0c       ??_C@_0CL@IDBGDCGN@?$FO3WARNING?3?5item?5has?5neither?5name@ 40046b0c     ui_shared.obj
 0002:0000fb38       ??_C@_0DD@ICNKGIM@?$FO3WARNING?3?5Script_Transition2?3?5e@ 40046b38     ui_shared.obj
 0002:0000fb6c       ??_C@_05LKKGNBCL@?$CFs?5?$DL?5?$AA@ 40046b6c     ui_shared.obj
 0002:0000fb78       __real@4058000000000000    40046b78     ui_shared.obj
 0002:0000fb80       __real@4034000000000000    40046b80     ui_shared.obj
 0002:0000fb88       ??_C@_02NJPGOMH@?$CFf?$AA@ 40046b88     ui_shared.obj
 0002:0000fb8c       ??_C@_0BI@MLGEDDNA@slider?5handle?5key?5exit?6?$AA@ 40046b8c     ui_shared.obj
 0002:0000fba4       __real@42cc0000            40046ba4     ui_shared.obj
 0002:0000fba8       ??_C@_04KMMDIKEB@?5?$CFs?5?$AA@ 40046ba8     ui_shared.obj
 0002:0000fbb0       ??_C@_0BB@ECGEJEGA@MENUS_KEYBIND_OR?$AA@ 40046bb0     ui_shared.obj
 0002:0000fbc4       __real@42c00000            40046bc4     ui_shared.obj
 0002:0000fbc8       ??_C@_05DJCKAPIL@FIXME?$AA@ 40046bc8     ui_shared.obj
 0002:0000fbd0       __real@3fa99999a0000000    40046bd0     ui_shared.obj
 0002:0000fbd8       __real@4084000000000000    40046bd8     ui_shared.obj
 0002:0000fbe0       __real@3fe99999a0000000    40046be0     ui_shared.obj
 0002:0000fbe8       __real@3f4ccccd            40046be8     ui_shared.obj
 0002:0000fbf0       __real@4010000000000000    40046bf0     ui_shared.obj
 0002:0000fbf8       __real@3f0ccccd            40046bf8     ui_shared.obj
 0002:0000fbfc       ??_C@_0L@OPBBEMAA@model_root?$AA@ 40046bfc     ui_shared.obj
 0002:0000fc08       __real@4049000000000000    40046c08     ui_shared.obj
 0002:0000fc10       ??_C@_0P@BNFHKDFH@?1animation?4cfg?$AA@ 40046c10     ui_shared.obj
 0002:0000fc20       ??_C@_04HAEDHBJD@?4glm?$AA@ 40046c20     ui_shared.obj
 0002:0000fc28       ??_C@_0CH@JIJGKJHM@Could?5not?5find?5?8?$CFs?8?5in?5the?5anim?5@ 40046c28     ui_shared.obj
 0002:0000fc50       ??_C@_0CA@MBEPFCBH@?$FO3Unknown?5item?5style?5value?5?8?$CFs?8?$AA@ 40046c50     ui_shared.obj
 0002:0000fc70       ??_C@_0BL@LEGNDHIH@?$FO3Unknown?5item?5style?5value?$AA@ 40046c70     ui_shared.obj
 0002:0000fc8c       ??_C@_0BP@JDCINHG@?$FO3Unknown?5text?5alignment?5value?$AA@ 40046c8c     ui_shared.obj
 0002:0000fcac       ??_C@_0BO@GKGLOPGG@end?5of?5file?5inside?5menu?5item?6?$AA@ 40046cac     ui_shared.obj
 0002:0000fccc       ??_C@_09FCFBCLEB@?$EAMENUS_?$CFs?$AA@ 40046ccc     ui_shared.obj
 0002:0000fcd8       ??_C@_0CE@OIGKMGKE@couldn?8t?5parse?5menu?5item?5keyword@ 40046cd8     ui_shared.obj
 0002:0000fcfc       ??_C@_0BN@JHFMAPJL@unknown?5menu?5item?5keyword?5?$CFs?$AA@ 40046cfc     ui_shared.obj
 0002:0000fd1c       ??_C@_04GJDJEMBE@?$CFc?$CFc?$AA@ 40046d1c     ui_shared.obj
 0002:0000fd28       __real@4024000000000000    40046d28     ui_shared.obj
 0002:0000fd30       ??_C@_0BL@EDFDLOD@?$FO3Unknown?5menu?5style?5value?$AA@ 40046d30     ui_shared.obj
 0002:0000fd4c       ??_C@_0BP@CHKMFCMK@?$FO3Unknown?5desc?5alignment?5value?$AA@ 40046d4c     ui_shared.obj
 0002:0000fd6c       ??_C@_0BP@HJCDHJDP@couldn?8t?5parse?5menu?5keyword?5?$CFs?$AA@ 40046d6c     ui_shared.obj
 0002:0000fd8c       ??_C@_0BJ@MPIMCBOA@end?5of?5file?5inside?5menu?6?$AA@ 40046d8c     ui_shared.obj
 0002:0000fda8       ??_C@_0BI@PALCAEGK@unknown?5menu?5keyword?5?$CFs?$AA@ 40046da8     ui_shared.obj
 0002:0000fdc0       ??_C@_03NFKEKGGK@all?$AA@  40046dc0     ui_shared.obj
 0002:0000fdc4       __real@447a0000            40046dc4     ui_shared.obj
 0002:0000fdc8       __real@405ca5dc00000000    40046dc8     ui_shared.obj
 0002:0000fdd0       __real@3fd126e978d4fdf4    40046dd0     ui_shared.obj
 0002:0000fdd8       __real@bfe0000000000000    40046dd8     ui_shared.obj
 0002:0000fde0       __real@c1c00000            40046de0     ui_shared.obj
 0002:0000fde4       __real@c1800000            40046de4     ui_shared.obj
 0002:0000fde8       __real@3faaceea00000000    40046de8     ui_shared.obj
 0002:0000fdf0       __real@42340000            40046df0     ui_shared.obj
 0002:0000fdf4       ??_C@_0M@CDGBDLAG@x?3?5?$CFd?5?5y?3?$CFd?$AA@ 40046df4     ui_shared.obj
 0002:0000fe00       __real@41c80000            40046e00     ui_shared.obj
 0002:0000fe04       __real@3f400000            40046e04     ui_shared.obj
 0002:0000fe08       ??_C@_07KLAFGBNN@fps?3?5?$CFf?$AA@ 40046e08     ui_shared.obj
 0002:0000fe10       ??_C@_0M@FHKEBODE@screenshot?6?$AA@ 40046e10     ui_shared.obj
 0002:0000fe1c       ??_C@_09DNECJBKD@developer?$AA@ 40046e1c     ui_shared.obj
 0002:0000fe28       __FPinit                   40046e28     LIBCMT:_fpinit_.obj
 0002:0000fe30       __OP_FMODjmptab            40046e30     LIBCMT:_87fmod_.obj
 0002:0000ff20       __pDefaultRawDllMain       40046f20     LIBCMT:dllcrt0.obj
 0002:0000ff20       __pRawDllMain              40046f20     LIBCMT:dllcrt0.obj
 0002:0000ff24       ??_C@_05KLBDPFGC@e?$CL000?$AA@ 40046f24     LIBCMT:cvt.obj
 0002:0000ff30       __OP_ATAN2jmptab           40046f30     LIBCMT:_87triga_.obj
 0002:00010860       __indefinite               40047860     LIBCMT:_87disp_.obj
 0002:0001086a       __piby2                    4004786a     LIBCMT:_87disp_.obj
 0002:00010898       __DEFAULT_CW_in_mem        40047898     LIBCMT:_common_.obj
 0002:0001089a       __pi_by_2_to_61            4004789a     LIBCMT:_common_.obj
 0002:00011180       ??_C@_1BC@GDGBMEMK@?$AAH?$AAH?$AA?3?$AAm?$AAm?$AA?3?$AAs?$AAs?$AA?$AA@ 40048180     LIBCMT:nlsdata2.obj
 0002:00011194       ??_C@_1CI@KNAKOEBC@?$AAd?$AAd?$AAd?$AAd?$AA?0?$AA?5?$AAM?$AAM?$AAM?$AAM?$AA?5?$AAd?$AAd?$AA?0?$AA?5?$AAy?$AAy?$AAy?$AAy?$AA?$AA@ 40048194     LIBCMT:nlsdata2.obj
 0002:000111bc       ??_C@_1BC@IEBCMHCM@?$AAM?$AAM?$AA?1?$AAd?$AAd?$AA?1?$AAy?$AAy?$AA?$AA@ 400481bc     LIBCMT:nlsdata2.obj
 0002:000111d0       ??_C@_15CLMNNGEL@?$AAP?$AAM?$AA?$AA@ 400481d0     LIBCMT:nlsdata2.obj
 0002:000111d8       ??_C@_15ODEHAHHF@?$AAA?$AAM?$AA?$AA@ 400481d8     LIBCMT:nlsdata2.obj
 0002:000111e0       ??_C@_1BC@FEMKIFH@?$AAD?$AAe?$AAc?$AAe?$AAm?$AAb?$AAe?$AAr?$AA?$AA@ 400481e0     LIBCMT:nlsdata2.obj
 0002:000111f4       ??_C@_1BC@BGLIFPF@?$AAN?$AAo?$AAv?$AAe?$AAm?$AAb?$AAe?$AAr?$AA?$AA@ 400481f4     LIBCMT:nlsdata2.obj
 0002:00011208       ??_C@_1BA@EPANDLNG@?$AAO?$AAc?$AAt?$AAo?$AAb?$AAe?$AAr?$AA?$AA@ 40048208     LIBCMT:nlsdata2.obj
 0002:00011218       ??_C@_1BE@DKAAMBJL@?$AAS?$AAe?$AAp?$AAt?$AAe?$AAm?$AAb?$AAe?$AAr?$AA?$AA@ 40048218     LIBCMT:nlsdata2.obj
 0002:0001122c       ??_C@_1O@PAHLKOAC@?$AAA?$AAu?$AAg?$AAu?$AAs?$AAt?$AA?$AA@ 4004822c     LIBCMT:nlsdata2.obj
 0002:0001123c       ??_C@_19BIFMLPCD@?$AAJ?$AAu?$AAl?$AAy?$AA?$AA@ 4004823c     LIBCMT:nlsdata2.obj
 0002:00011248       ??_C@_19EPFLPGAP@?$AAJ?$AAu?$AAn?$AAe?$AA?$AA@ 40048248     LIBCMT:nlsdata2.obj
 0002:00011254       ??_C@_1M@GJNLMHFD@?$AAA?$AAp?$AAr?$AAi?$AAl?$AA?$AA@ 40048254     LIBCMT:nlsdata2.obj
 0002:00011260       ??_C@_1M@IKEENEDF@?$AAM?$AAa?$AAr?$AAc?$AAh?$AA?$AA@ 40048260     LIBCMT:nlsdata2.obj
 0002:0001126c       ??_C@_1BC@JGDDFFAM@?$AAF?$AAe?$AAb?$AAr?$AAu?$AAa?$AAr?$AAy?$AA?$AA@ 4004826c     LIBCMT:nlsdata2.obj
 0002:00011280       ??_C@_1BA@EFMEIEBA@?$AAJ?$AAa?$AAn?$AAu?$AAa?$AAr?$AAy?$AA?$AA@ 40048280     LIBCMT:nlsdata2.obj
 0002:00011290       ??_C@_17EGKACKIF@?$AAD?$AAe?$AAc?$AA?$AA@ 40048290     LIBCMT:nlsdata2.obj
 0002:00011298       ??_C@_17BBDMLCIG@?$AAN?$AAo?$AAv?$AA?$AA@ 40048298     LIBCMT:nlsdata2.obj
 0002:000112a0       ??_C@_17FNLKOI@?$AAO?$AAc?$AAt?$AA?$AA@ 400482a0     LIBCMT:nlsdata2.obj
 0002:000112a8       ??_C@_17HCHCOKMG@?$AAS?$AAe?$AAp?$AA?$AA@ 400482a8     LIBCMT:nlsdata2.obj
 0002:000112b0       ??_C@_17ICPELBCN@?$AAA?$AAu?$AAg?$AA?$AA@ 400482b0     LIBCMT:nlsdata2.obj
 0002:000112b8       ??_C@_17IJPCKHK@?$AAJ?$AAu?$AAl?$AA?$AA@ 400482b8     LIBCMT:nlsdata2.obj
 0002:000112c0       ??_C@_17KCJGOCPB@?$AAJ?$AAu?$AAn?$AA?$AA@ 400482c0     LIBCMT:nlsdata2.obj
 0002:000112c8       ??_C@_17PNNKMEED@?$AAM?$AAa?$AAy?$AA?$AA@ 400482c8     LIBCMT:nlsdata2.obj
 0002:000112d0       ??_C@_17LFPOIHDD@?$AAA?$AAp?$AAr?$AA?$AA@ 400482d0     LIBCMT:nlsdata2.obj
 0002:000112d8       ??_C@_17CKNLEDEC@?$AAM?$AAa?$AAr?$AA?$AA@ 400482d8     LIBCMT:nlsdata2.obj
 0002:000112e0       ??_C@_17LMDJEKJN@?$AAF?$AAe?$AAb?$AA?$AA@ 400482e0     LIBCMT:nlsdata2.obj
 0002:000112e8       ??_C@_17DKNBKCHM@?$AAJ?$AAa?$AAn?$AA?$AA@ 400482e8     LIBCMT:nlsdata2.obj
 0002:000112f0       ??_C@_1BC@ENMNNPAJ@?$AAS?$AAa?$AAt?$AAu?$AAr?$AAd?$AAa?$AAy?$AA?$AA@ 400482f0     LIBCMT:nlsdata2.obj
 0002:00011304       ??_C@_1O@PDICJHAG@?$AAF?$AAr?$AAi?$AAd?$AAa?$AAy?$AA?$AA@ 40048304     LIBCMT:nlsdata2.obj
 0002:00011314       ??_C@_1BC@HHMNLIHE@?$AAT?$AAh?$AAu?$AAr?$AAs?$AAd?$AAa?$AAy?$AA?$AA@ 40048314     LIBCMT:nlsdata2.obj
 0002:00011328       ??_C@_1BE@EBOGMDOH@?$AAW?$AAe?$AAd?$AAn?$AAe?$AAs?$AAd?$AAa?$AAy?$AA?$AA@ 40048328     LIBCMT:nlsdata2.obj
 0002:0001133c       ??_C@_1BA@ENFBFFEK@?$AAT?$AAu?$AAe?$AAs?$AAd?$AAa?$AAy?$AA?$AA@ 4004833c     LIBCMT:nlsdata2.obj
 0002:0001134c       ??_C@_1O@MMNBFLIA@?$AAM?$AAo?$AAn?$AAd?$AAa?$AAy?$AA?$AA@ 4004834c     LIBCMT:nlsdata2.obj
 0002:0001135c       ??_C@_1O@IHNHDHPB@?$AAS?$AAu?$AAn?$AAd?$AAa?$AAy?$AA?$AA@ 4004835c     LIBCMT:nlsdata2.obj
 0002:0001136c       ??_C@_17GGIBDPIH@?$AAS?$AAa?$AAt?$AA?$AA@ 4004836c     LIBCMT:nlsdata2.obj
 0002:00011374       ??_C@_17HFOLPPLP@?$AAF?$AAr?$AAi?$AA?$AA@ 40048374     LIBCMT:nlsdata2.obj
 0002:0001137c       ??_C@_17PDPHAADD@?$AAT?$AAh?$AAu?$AA?$AA@ 4004837c     LIBCMT:nlsdata2.obj
 0002:00011384       ??_C@_17CJEDCEPE@?$AAW?$AAe?$AAd?$AA?$AA@ 40048384     LIBCMT:nlsdata2.obj
 0002:0001138c       ??_C@_17BMKGEGOJ@?$AAT?$AAu?$AAe?$AA?$AA@ 4004838c     LIBCMT:nlsdata2.obj
 0002:00011394       ??_C@_17KBOMKBF@?$AAM?$AAo?$AAn?$AA?$AA@ 40048394     LIBCMT:nlsdata2.obj
 0002:0001139c       ??_C@_17MBGCMIPB@?$AAS?$AAu?$AAn?$AA?$AA@ 4004839c     LIBCMT:nlsdata2.obj
 0002:000113a4       ??_C@_08JCCMCCIL@HH?3mm?3ss?$AA@ 400483a4     LIBCMT:nlsdata2.obj
 0002:000113b0       ??_C@_0BE@CKGJFCPC@dddd?0?5MMMM?5dd?0?5yyyy?$AA@ 400483b0     LIBCMT:nlsdata2.obj
 0002:000113c4       ??_C@_08BPBNCDIB@MM?1dd?1yy?$AA@ 400483c4     LIBCMT:nlsdata2.obj
 0002:000113d0       ??_C@_02CJNFDJBF@PM?$AA@   400483d0     LIBCMT:nlsdata2.obj
 0002:000113d4       ??_C@_02DEDBPAFC@AM?$AA@   400483d4     LIBCMT:nlsdata2.obj
 0002:000113d8       ??_C@_08EDHMEBNP@December?$AA@ 400483d8     LIBCMT:nlsdata2.obj
 0002:000113e4       ??_C@_08HCHEGEOA@November?$AA@ 400483e4     LIBCMT:nlsdata2.obj
 0002:000113f0       ??_C@_07JJNFCEND@October?$AA@ 400483f0     LIBCMT:nlsdata2.obj
 0002:000113f8       ??_C@_09BHHEALKD@September?$AA@ 400483f8     LIBCMT:nlsdata2.obj
 0002:00011404       ??_C@_06LBBHFDDG@August?$AA@ 40048404     LIBCMT:nlsdata2.obj
 0002:0001140c       ??_C@_04MIEPOIFP@July?$AA@ 4004840c     LIBCMT:nlsdata2.obj
 0002:00011414       ??_C@_04CNLMGBGM@June?$AA@ 40048414     LIBCMT:nlsdata2.obj
 0002:0001141c       ??_C@_05DMJDNLEJ@April?$AA@ 4004841c     LIBCMT:nlsdata2.obj
 0002:00011424       ??_C@_05HPCKOFNC@March?$AA@ 40048424     LIBCMT:nlsdata2.obj
 0002:0001142c       ??_C@_08GNJGEPFN@February?$AA@ 4004842c     LIBCMT:nlsdata2.obj
 0002:00011438       ??_C@_07CGJPFGJA@January?$AA@ 40048438     LIBCMT:nlsdata2.obj
 0002:00011440       ??_C@_03MKABNOCG@Dec?$AA@  40048440     LIBCMT:nlsdata2.obj
 0002:00011444       ??_C@_03JPJOFNIA@Nov?$AA@  40048444     LIBCMT:nlsdata2.obj
 0002:00011448       ??_C@_03BMAOKBAD@Oct?$AA@  40048448     LIBCMT:nlsdata2.obj
 0002:0001144c       ??_C@_03GGCAPAJC@Sep?$AA@  4004844c     LIBCMT:nlsdata2.obj
 0002:00011450       ??_C@_03IFJFEIGA@Aug?$AA@  40048450     LIBCMT:nlsdata2.obj
 0002:00011454       ??_C@_03LBGABGKK@Jul?$AA@  40048454     LIBCMT:nlsdata2.obj
 0002:00011458       ??_C@_03IDFGHECI@Jun?$AA@  40048458     LIBCMT:nlsdata2.obj
 0002:0001145c       ??_C@_03CNMDKL@May?$AA@    4004845c     LIBCMT:nlsdata2.obj
 0002:00011460       ??_C@_03LEOLGMJP@Apr?$AA@  40048460     LIBCMT:nlsdata2.obj
 0002:00011464       ??_C@_03ODNJBKGA@Mar?$AA@  40048464     LIBCMT:nlsdata2.obj
 0002:00011468       ??_C@_03HJBDCHOM@Feb?$AA@  40048468     LIBCMT:nlsdata2.obj
 0002:0001146c       ??_C@_08INBOOONO@Saturday?$AA@ 4004846c     LIBCMT:nlsdata2.obj
 0002:00011478       ??_C@_06JECMNKMI@Friday?$AA@ 40048478     LIBCMT:nlsdata2.obj
 0002:00011480       ??_C@_08HACCIKIA@Thursday?$AA@ 40048480     LIBCMT:nlsdata2.obj
 0002:0001148c       ??_C@_09DLIGFAKA@Wednesday?$AA@ 4004848c     LIBCMT:nlsdata2.obj
 0002:00011498       ??_C@_07BAAGCFCM@Tuesday?$AA@ 40048498     LIBCMT:nlsdata2.obj
 0002:000114a0       ??_C@_06JLEDEDGH@Monday?$AA@ 400484a0     LIBCMT:nlsdata2.obj
 0002:000114a8       ??_C@_06OOPIFAJ@Sunday?$AA@ 400484a8     LIBCMT:nlsdata2.obj
 0002:000114b0       ??_C@_03FEFJNEK@Sat?$AA@   400484b0     LIBCMT:nlsdata2.obj
 0002:000114b4       ??_C@_03IDIOELNC@Fri?$AA@  400484b4     LIBCMT:nlsdata2.obj
 0002:000114b8       ??_C@_03IOFIKPDN@Thu?$AA@  400484b8     LIBCMT:nlsdata2.obj
 0002:000114bc       ??_C@_03MHOMLAJA@Wed?$AA@  400484bc     LIBCMT:nlsdata2.obj
 0002:000114c0       ??_C@_03NAGEINEP@Tue?$AA@  400484c0     LIBCMT:nlsdata2.obj
 0002:000114c4       ??_C@_03PDAGKDH@Mon?$AA@   400484c4     LIBCMT:nlsdata2.obj
 0002:000114c8       ??_C@_03KOEHGMDN@Sun?$AA@  400484c8     LIBCMT:nlsdata2.obj
 0002:000114cc       ??_C@_1BK@DBDEIDLH@?$AAK?$AAE?$AAR?$AAN?$AAE?$AAL?$AA3?$AA2?$AA?4?$AAD?$AAL?$AAL?$AA?$AA@ 400484cc     LIBCMT:tidtable.obj
 0002:000114e8       ??_C@_07PEJMOBNF@FlsFree?$AA@ 400484e8     LIBCMT:tidtable.obj
 0002:000114f0       ??_C@_0M@JCPCPOEF@FlsSetValue?$AA@ 400484f0     LIBCMT:tidtable.obj
 0002:000114fc       ??_C@_0M@GDNOONDI@FlsGetValue?$AA@ 400484fc     LIBCMT:tidtable.obj
 0002:00011508       ??_C@_08KNHFBNJ@FlsAlloc?$AA@ 40048508     LIBCMT:tidtable.obj
 0002:00012d40       ??_C@_1O@CEDCILHN@?$AA?$CI?$AAn?$AAu?$AAl?$AAl?$AA?$CJ?$AA?$AA@ 40049d40     LIBCMT:output.obj
 0002:00012d50       ??_C@_06OJHGLDPL@?$CInull?$CJ?$AA@ 40049d50     LIBCMT:output.obj
 0002:00012d58       ___lookuptable             40049d58     LIBCMT:output.obj
 0002:00012ea0       ??_C@_03IIINPABG@tan?$AA@  40049ea0     LIBCMT:_libm_error_.obj
 0002:00012ea4       ??_C@_03LALBNOCG@cos?$AA@  40049ea4     LIBCMT:_libm_error_.obj
 0002:00012ea8       ??_C@_03BLEJJJBH@sin?$AA@  40049ea8     LIBCMT:_libm_error_.obj
 0002:00012eac       ??_C@_04EHEDPDJG@modf?$AA@ 40049eac     LIBCMT:_libm_error_.obj
 0002:00012eb4       ??_C@_05PBJFFIGL@floor?$AA@ 40049eb4     LIBCMT:_libm_error_.obj
 0002:00012ebc       ??_C@_04GFPJNGEK@ceil?$AA@ 40049ebc     LIBCMT:_libm_error_.obj
 0002:00012ec4       ??_C@_04MLLJIGOK@atan?$AA@ 40049ec4     LIBCMT:_libm_error_.obj
 0002:00012ecc       ??_C@_05EOHGHCHD@exp10?$AA@ 40049ecc     LIBCMT:_libm_error_.obj
 0002:00012ed4       ??_C@_04PDIFKINK@acos?$AA@ 40049ed4     LIBCMT:_libm_error_.obj
 0002:00012edc       ??_C@_04FIHNOPOL@asin?$AA@ 40049edc     LIBCMT:_libm_error_.obj
 0002:00012ee4       ??_C@_03MGHMBJCF@log?$AA@  40049ee4     LIBCMT:_libm_error_.obj
 0002:00012ee8       ??_C@_05HGHHAHAP@log10?$AA@ 40049ee8     LIBCMT:_libm_error_.obj
 0002:00012ef0       ??_C@_03KHJOGHMM@exp?$AA@  40049ef0     LIBCMT:_libm_error_.obj
 0002:00012ef4       ??_C@_03JGHBODFD@pow?$AA@  40049ef4     LIBCMT:_libm_error_.obj
 0002:000145a0       ??_C@_0P@MIGLKIOC@CorExitProcess?$AA@ 4004b5a0     LIBCMT:crt0dat.obj
 0002:000145b0       ??_C@_1BI@BGOHAHKC@?$AAm?$AAs?$AAc?$AAo?$AAr?$AAe?$AAe?$AA?4?$AAd?$AAl?$AAl?$AA?$AA@ 4004b5b0     LIBCMT:crt0dat.obj
 0002:000145c8       __XcptActTab               4004b5c8     LIBCMT:winxfltr.obj
 0002:00014658       __First_FPE_Indx           4004b658     LIBCMT:winxfltr.obj
 0002:0001465c       __Num_FPE                  4004b65c     LIBCMT:winxfltr.obj
 0002:00014660       __XcptActTabSize           4004b660     LIBCMT:winxfltr.obj
 0002:00014664       __XcptActTabCount          4004b664     LIBCMT:winxfltr.obj
 0002:00014668       ___newctype                4004b668     LIBCMT:ctype.obj
 0002:00014968       __wctype                   4004b968     LIBCMT:ctype.obj
 0002:00014b70       ___newclmap                4004bb70     LIBCMT:ctype.obj
 0002:00014cf0       ___newcumap                4004bcf0     LIBCMT:ctype.obj
 0002:00014e78       ___lookuptable_s           4004be78     LIBCMT:outputs.obj
 0002:00014ed4       ??_C@_0L@KDOEJCKC@_nextafter?$AA@ 4004bed4     LIBCMT:_fpexcept_.obj
 0002:00014ee0       ??_C@_05JGDBENOH@_logb?$AA@ 4004bee0     LIBCMT:_fpexcept_.obj
 0002:00014ee8       ??_C@_03ONILCKOB@_yn?$AA@  4004bee8     LIBCMT:_fpexcept_.obj
 0002:00014eec       ??_C@_03NAKIGLHK@_y1?$AA@  4004beec     LIBCMT:_fpexcept_.obj
 0002:00014ef0       ??_C@_03MJLDFKDL@_y0?$AA@  4004bef0     LIBCMT:_fpexcept_.obj
 0002:00014ef4       ??_C@_05GKKHEGJL@frexp?$AA@ 4004bef4     LIBCMT:_fpexcept_.obj
 0002:00014efc       ??_C@_04KEPJIHGP@fmod?$AA@ 4004befc     LIBCMT:_fpexcept_.obj
 0002:00014f04       ??_C@_06MEIMCGCF@_hypot?$AA@ 4004bf04     LIBCMT:_fpexcept_.obj
 0002:00014f0c       ??_C@_05KBKMEMPO@_cabs?$AA@ 4004bf0c     LIBCMT:_fpexcept_.obj
 0002:00014f14       ??_C@_05CEJMAHNP@ldexp?$AA@ 4004bf14     LIBCMT:_fpexcept_.obj
 0002:00014f1c       ??_C@_04ODHECPBC@fabs?$AA@ 4004bf1c     LIBCMT:_fpexcept_.obj
 0002:00014f24       ??_C@_04EIAKFFMI@sqrt?$AA@ 4004bf24     LIBCMT:_fpexcept_.obj
 0002:00014f2c       ??_C@_05KNGEOGJB@atan2?$AA@ 4004bf2c     LIBCMT:_fpexcept_.obj
 0002:00014f34       ??_C@_04FJHINJAO@tanh?$AA@ 4004bf34     LIBCMT:_fpexcept_.obj
 0002:00014f3c       ??_C@_04HPJJNFIM@cosh?$AA@ 4004bf3c     LIBCMT:_fpexcept_.obj
 0002:00014f44       ??_C@_04COOMCNPB@sinh?$AA@ 4004bf44     LIBCMT:_fpexcept_.obj
 0002:00014f4c       ??_C@_1BO@BKOMIGKJ@?$AAr?$AAu?$AAn?$AAt?$AAi?$AAm?$AAe?$AA?5?$AAe?$AAr?$AAr?$AAo?$AAr?$AA?5?$AA?$AA@ 4004bf4c     LIBCMT:crt0msg.obj
 0002:00014f6c       ??_C@_15JNBOKNOG@?$AA?$AN?$AA?6?$AA?$AA@ 4004bf6c     LIBCMT:crt0msg.obj
 0002:00014f74       ??_C@_1BM@JBBEPPHI@?$AAT?$AAL?$AAO?$AAS?$AAS?$AA?5?$AAe?$AAr?$AAr?$AAo?$AAr?$AA?$AN?$AA?6?$AA?$AA@ 4004bf74     LIBCMT:crt0msg.obj
 0002:00014f90       ??_C@_1BK@KMOMNAAI@?$AAS?$AAI?$AAN?$AAG?$AA?5?$AAe?$AAr?$AAr?$AAo?$AAr?$AA?$AN?$AA?6?$AA?$AA@ 4004bf90     LIBCMT:crt0msg.obj
 0002:00014fac       ??_C@_1BO@BFCDCGC@?$AAD?$AAO?$AAM?$AAA?$AAI?$AAN?$AA?5?$AAe?$AAr?$AAr?$AAo?$AAr?$AA?$AN?$AA?6?$AA?$AA@ 4004bfac     LIBCMT:crt0msg.obj
 0002:00014fd0       ??_C@_1BOO@KGEDBGAJ@?$AAR?$AA6?$AA0?$AA3?$AA3?$AA?$AN?$AA?6?$AA?9?$AA?5?$AAA?$AAt?$AAt?$AAe?$AAm?$AAp?$AAt?$AA?5?$AAt?$AAo?$AA?5?$AAu?$AAs?$AAe?$AA?5?$AAM?$AAS?$AAI?$AAL?$AA?5?$AAc?$AAo?$AAd@ 4004bfd0     LIBCMT:crt0msg.obj
 0002:000151c0       ??_C@_1GG@GOPILAJP@?$AAR?$AA6?$AA0?$AA3?$AA2?$AA?$AN?$AA?6?$AA?9?$AA?5?$AAn?$AAo?$AAt?$AA?5?$AAe?$AAn?$AAo?$AAu?$AAg?$AAh?$AA?5?$AAs?$AAp?$AAa?$AAc?$AAe?$AA?5?$AAf?$AAo?$AAr?$AA?5?$AAl?$AAo@ 4004c1c0     LIBCMT:crt0msg.obj
 0002:00015228       ??_C@_1MG@ENCOOIDF@?$AAR?$AA6?$AA0?$AA3?$AA1?$AA?$AN?$AA?6?$AA?9?$AA?5?$AAA?$AAt?$AAt?$AAe?$AAm?$AAp?$AAt?$AA?5?$AAt?$AAo?$AA?5?$AAi?$AAn?$AAi?$AAt?$AAi?$AAa?$AAl?$AAi?$AAz?$AAe?$AA?5?$AAt@ 4004c228     LIBCMT:crt0msg.obj
 0002:000152f0       ??_C@_1DO@BMFCDCD@?$AAR?$AA6?$AA0?$AA3?$AA0?$AA?$AN?$AA?6?$AA?9?$AA?5?$AAC?$AAR?$AAT?$AA?5?$AAn?$AAo?$AAt?$AA?5?$AAi?$AAn?$AAi?$AAt?$AAi?$AAa?$AAl?$AAi?$AAz?$AAe?$AAd?$AA?$AN?$AA?6?$AA?$AA@ 4004c2f0     LIBCMT:crt0msg.obj
 0002:00015330       ??_C@_1EK@HHFLMAOL@?$AAR?$AA6?$AA0?$AA2?$AA8?$AA?$AN?$AA?6?$AA?9?$AA?5?$AAu?$AAn?$AAa?$AAb?$AAl?$AAe?$AA?5?$AAt?$AAo?$AA?5?$AAi?$AAn?$AAi?$AAt?$AAi?$AAa?$AAl?$AAi?$AAz?$AAe?$AA?5?$AAh?$AAe@ 4004c330     LIBCMT:crt0msg.obj
 0002:00015380       ??_C@_1GK@MFGOKLAG@?$AAR?$AA6?$AA0?$AA2?$AA7?$AA?$AN?$AA?6?$AA?9?$AA?5?$AAn?$AAo?$AAt?$AA?5?$AAe?$AAn?$AAo?$AAu?$AAg?$AAh?$AA?5?$AAs?$AAp?$AAa?$AAc?$AAe?$AA?5?$AAf?$AAo?$AAr?$AA?5?$AAl?$AAo@ 4004c380     LIBCMT:crt0msg.obj
 0002:000153f0       ??_C@_1GK@MCAAGJMO@?$AAR?$AA6?$AA0?$AA2?$AA6?$AA?$AN?$AA?6?$AA?9?$AA?5?$AAn?$AAo?$AAt?$AA?5?$AAe?$AAn?$AAo?$AAu?$AAg?$AAh?$AA?5?$AAs?$AAp?$AAa?$AAc?$AAe?$AA?5?$AAf?$AAo?$AAr?$AA?5?$AAs?$AAt@ 4004c3f0     LIBCMT:crt0msg.obj
 0002:00015460       ??_C@_1EM@MAADIHMB@?$AAR?$AA6?$AA0?$AA2?$AA5?$AA?$AN?$AA?6?$AA?9?$AA?5?$AAp?$AAu?$AAr?$AAe?$AA?5?$AAv?$AAi?$AAr?$AAt?$AAu?$AAa?$AAl?$AA?5?$AAf?$AAu?$AAn?$AAc?$AAt?$AAi?$AAo?$AAn?$AA?5?$AAc@ 4004c460     LIBCMT:crt0msg.obj
 0002:000154b0       ??_C@_1GK@FHCKBEFA@?$AAR?$AA6?$AA0?$AA2?$AA4?$AA?$AN?$AA?6?$AA?9?$AA?5?$AAn?$AAo?$AAt?$AA?5?$AAe?$AAn?$AAo?$AAu?$AAg?$AAh?$AA?5?$AAs?$AAp?$AAa?$AAc?$AAe?$AA?5?$AAf?$AAo?$AAr?$AA?5?$AA_?$AAo@ 4004c4b0     LIBCMT:crt0msg.obj
 0002:00015520       ??_C@_1FC@ECHBIFBC@?$AAR?$AA6?$AA0?$AA1?$AA9?$AA?$AN?$AA?6?$AA?9?$AA?5?$AAu?$AAn?$AAa?$AAb?$AAl?$AAe?$AA?5?$AAt?$AAo?$AA?5?$AAo?$AAp?$AAe?$AAn?$AA?5?$AAc?$AAo?$AAn?$AAs?$AAo?$AAl?$AAe?$AA?5@ 4004c520     LIBCMT:crt0msg.obj
 0002:00015578       ??_C@_1EC@JIBHAOPH@?$AAR?$AA6?$AA0?$AA1?$AA8?$AA?$AN?$AA?6?$AA?9?$AA?5?$AAu?$AAn?$AAe?$AAx?$AAp?$AAe?$AAc?$AAt?$AAe?$AAd?$AA?5?$AAh?$AAe?$AAa?$AAp?$AA?5?$AAe?$AAr?$AAr?$AAo?$AAr?$AA?$AN?$AA?6@ 4004c578     LIBCMT:crt0msg.obj
 0002:000155c0       ??_C@_1FK@BEOGODMC@?$AAR?$AA6?$AA0?$AA1?$AA7?$AA?$AN?$AA?6?$AA?9?$AA?5?$AAu?$AAn?$AAe?$AAx?$AAp?$AAe?$AAc?$AAt?$AAe?$AAd?$AA?5?$AAm?$AAu?$AAl?$AAt?$AAi?$AAt?$AAh?$AAr?$AAe?$AAa?$AAd?$AA?5@ 4004c5c0     LIBCMT:crt0msg.obj
 0002:00015620       ??_C@_1FI@LOGNIKDM@?$AAR?$AA6?$AA0?$AA1?$AA6?$AA?$AN?$AA?6?$AA?9?$AA?5?$AAn?$AAo?$AAt?$AA?5?$AAe?$AAn?$AAo?$AAu?$AAg?$AAh?$AA?5?$AAs?$AAp?$AAa?$AAc?$AAe?$AA?5?$AAf?$AAo?$AAr?$AA?5?$AAt?$AAh@ 4004c620     LIBCMT:crt0msg.obj
 0002:00015678       ??_C@_1EG@BEHAGFJD@?$AAR?$AA6?$AA0?$AA1?$AA0?$AA?$AN?$AA?6?$AA?9?$AA?5?$AAa?$AAb?$AAo?$AAr?$AAt?$AA?$CI?$AA?$CJ?$AA?5?$AAh?$AAa?$AAs?$AA?5?$AAb?$AAe?$AAe?$AAn?$AA?5?$AAc?$AAa?$AAl?$AAl?$AAe?$AAd@ 4004c678     LIBCMT:crt0msg.obj
 0002:000156c0       ??_C@_1FI@HONFMGBI@?$AAR?$AA6?$AA0?$AA0?$AA9?$AA?$AN?$AA?6?$AA?9?$AA?5?$AAn?$AAo?$AAt?$AA?5?$AAe?$AAn?$AAo?$AAu?$AAg?$AAh?$AA?5?$AAs?$AAp?$AAa?$AAc?$AAe?$AA?5?$AAf?$AAo?$AAr?$AA?5?$AAe?$AAn@ 4004c6c0     LIBCMT:crt0msg.obj
 0002:00015718       ??_C@_1FE@LLNEDJMD@?$AAR?$AA6?$AA0?$AA0?$AA8?$AA?$AN?$AA?6?$AA?9?$AA?5?$AAn?$AAo?$AAt?$AA?5?$AAe?$AAn?$AAo?$AAu?$AAg?$AAh?$AA?5?$AAs?$AAp?$AAa?$AAc?$AAe?$AA?5?$AAf?$AAo?$AAr?$AA?5?$AAa?$AAr@ 4004c718     LIBCMT:crt0msg.obj
 0002:00015770       ??_C@_1FK@PGACCAFB@?$AAR?$AA6?$AA0?$AA0?$AA2?$AA?$AN?$AA?6?$AA?9?$AA?5?$AAf?$AAl?$AAo?$AAa?$AAt?$AAi?$AAn?$AAg?$AA?5?$AAp?$AAo?$AAi?$AAn?$AAt?$AA?5?$AAs?$AAu?$AAp?$AAp?$AAo?$AAr?$AAt?$AA?5@ 4004c770     LIBCMT:crt0msg.obj
 0002:00015880       ??_C@_1EK@MBDPDCGA@?$AAM?$AAi?$AAc?$AAr?$AAo?$AAs?$AAo?$AAf?$AAt?$AA?5?$AAV?$AAi?$AAs?$AAu?$AAa?$AAl?$AA?5?$AAC?$AA?$CL?$AA?$CL?$AA?5?$AAR?$AAu?$AAn?$AAt?$AAi?$AAm?$AAe?$AA?5?$AAL?$AAi?$AAb@ 4004c880     LIBCMT:crt0msg.obj
 0002:000158cc       ??_C@_15IABLJNFO@?$AA?6?$AA?6?$AA?$AA@ 4004c8cc     LIBCMT:crt0msg.obj
 0002:000158d4       ??_C@_17LGKOMLJ@?$AA?4?$AA?4?$AA?4?$AA?$AA@ 4004c8d4     LIBCMT:crt0msg.obj
 0002:000158dc       ??_C@_1CO@EAEJAADC@?$AA?$DM?$AAp?$AAr?$AAo?$AAg?$AAr?$AAa?$AAm?$AA?5?$AAn?$AAa?$AAm?$AAe?$AA?5?$AAu?$AAn?$AAk?$AAn?$AAo?$AAw?$AAn?$AA?$DO?$AA?$AA@ 4004c8dc     LIBCMT:crt0msg.obj
 0002:0001590c       ??_C@_1DE@JNGNBFGO@?$AAR?$AAu?$AAn?$AAt?$AAi?$AAm?$AAe?$AA?5?$AAE?$AAr?$AAr?$AAo?$AAr?$AA?$CB?$AA?6?$AA?6?$AAP?$AAr?$AAo?$AAg?$AAr?$AAa?$AAm?$AA?3?$AA?5?$AA?$AA@ 4004c90c     LIBCMT:crt0msg.obj
 0002:00015940       ??_C@_06IMKFLFPG@1?$CDQNAN?$AA@ 4004c940     LIBCMT:_x10fout_.obj
 0002:00015948       ??_C@_05DNEBIAHO@1?$CDINF?$AA@ 4004c948     LIBCMT:_x10fout_.obj
 0002:00015950       ??_C@_05PHHOCPM@1?$CDIND?$AA@ 4004c950     LIBCMT:_x10fout_.obj
 0002:00015958       ??_C@_06PGGFOGJG@1?$CDSNAN?$AA@ 4004c958     LIBCMT:_x10fout_.obj
 0002:00015960       ??_C@_0BI@DFKBFLJE@GetProcessWindowStation?$AA@ 4004c960     LIBCMT:crtmboxw.obj
 0002:00015978       ??_C@_0BK@DEKFELLI@GetUserObjectInformationW?$AA@ 4004c978     LIBCMT:crtmboxw.obj
 0002:00015994       ??_C@_0BD@HHGDFDBJ@GetLastActivePopup?$AA@ 4004c994     LIBCMT:crtmboxw.obj
 0002:000159a8       ??_C@_0BA@HNOPNCHB@GetActiveWindow?$AA@ 4004c9a8     LIBCMT:crtmboxw.obj
 0002:000159b8       ??_C@_0M@DLDCCGNP@MessageBoxW?$AA@ 4004c9b8     LIBCMT:crtmboxw.obj
 0002:000159c4       ??_C@_1BG@GOEBHBDC@?$AAU?$AAS?$AAE?$AAR?$AA3?$AA2?$AA?4?$AAD?$AAL?$AAL?$AA?$AA@ 4004c9c4     LIBCMT:crtmboxw.obj
 0002:000159dc       ??_C@_1BA@BALFACEM@?$AAC?$AAO?$AAN?$AAO?$AAU?$AAT?$AA$?$AA?$AA@ 4004c9dc     LIBCMT:initcon.obj
 0002:000159f0       __load_config_used         4004c9f0     LIBCMT:loadcfg.obj
 0002:00015a40       ___safe_se_handler_table   4004ca40     <linker-defined>
 0002:00015a4c       ___rtc_iaa                 4004ca4c     LIBCMT:_initsect_.obj
 0002:00015a50       ___rtc_izz                 4004ca50     LIBCMT:_initsect_.obj
 0002:00015a54       ___rtc_taa                 4004ca54     LIBCMT:_initsect_.obj
 0002:00015a58       ___rtc_tzz                 4004ca58     LIBCMT:_initsect_.obj
 0002:00015d34       __IMPORT_DESCRIPTOR_KERNEL32 4004cd34     kernel32:KERNEL32.dll
 0002:00015d48       __NULL_IMPORT_DESCRIPTOR   4004cd48     kernel32:KERNEL32.dll
 0003:00000000       _bgToggleableSurfaces      4004e000     bg_misc.obj
 0003:0000007c       _bg_numItems               4004e07c     bg_misc.obj
 0003:00000080       _bg_customSiegeSoundNames  4004e080     bg_misc.obj
 0003:000000f8       _forceMasteryLevels        4004e0f8     bg_misc.obj
 0003:00000118       _forceMasteryPoints        4004e118     bg_misc.obj
 0003:00000138       _bgForcePowerCost          4004e138     bg_misc.obj
 0003:00000258       _forcePowerSorted          4004e258     bg_misc.obj
 0003:000002a0       _forcePowerDarkLight       4004e2a0     bg_misc.obj
 0003:000002e8       _WeaponReadyAnim           4004e2e8     bg_misc.obj
 0003:00000338       _WeaponReadyLegsAnim       4004e338     bg_misc.obj
 0003:00000388       _WeaponAttackAnim          4004e388     bg_misc.obj
 0003:000003d8       _bg_itemlist               4004e3d8     bg_misc.obj
 0003:00000f38       _eventnames                4004ef38     bg_misc.obj
 0003:00001108       _bgSiegeClassFlagNames     4004f108     bg_saga.obj
 0003:00001150       _StanceTable               4004f150     bg_saga.obj
 0003:00001198       _WPTable                   4004f198     bg_saga.obj
 0003:00001248       _FPTable                   4004f248     bg_saga.obj
 0003:000012e0       _HoldableTable             4004f2e0     bg_saga.obj
 0003:00001348       _PowerupTable              4004f348     bg_saga.obj
 0003:000013d0       _classTitles               4004f3d0     bg_saga.obj
 0003:000013e8       _numVehicleWeapons         4004f3e8     bg_vehicleLoad.obj
 0003:000013f0       _vehWeaponFields           4004f3f0     bg_vehicleLoad.obj
 0003:00001520       _vehicleFields             4004f520     bg_vehicleLoad.obj
 0003:00001d54       _VehicleTable              4004fd54     bg_vehicleLoad.obj
 0003:00001d90       _WP_MuzzlePoint            4004fd90     bg_weapons.obj
 0003:00001e78       _weaponData                4004fe78     bg_weapons.obj
 0003:000022a0       _ammoData                  400502a0     bg_weapons.obj
 0003:000022c8       _axisDefault               400502c8     q_math.obj
 0003:000022ec       _colorBlack                400502ec     q_math.obj
 0003:000022fc       _colorRed                  400502fc     q_math.obj
 0003:0000230c       _colorGreen                4005030c     q_math.obj
 0003:0000231c       _colorBlue                 4005031c     q_math.obj
 0003:0000232c       _colorYellow               4005032c     q_math.obj
 0003:0000233c       _colorMagenta              4005033c     q_math.obj
 0003:0000234c       _colorCyan                 4005034c     q_math.obj
 0003:0000235c       _colorWhite                4005035c     q_math.obj
 0003:0000236c       _colorLtGrey               4005036c     q_math.obj
 0003:0000237c       _colorMdGrey               4005037c     q_math.obj
 0003:0000238c       _colorDkGrey               4005038c     q_math.obj
 0003:0000239c       _colorLtBlue               4005039c     q_math.obj
 0003:000023ac       _colorDkBlue               400503ac     q_math.obj
 0003:000023c0       _g_color_table             400503c0     q_math.obj
 0003:00002440       _bytedirs                  40050440     q_math.obj
 0003:00002bd8       _uiForceSide               40050bd8     ui_force.obj
 0003:00002bdc       _uiJediNonJedi             40050bdc     ui_force.obj
 0003:00002be0       _uiForceRank               40050be0     ui_force.obj
 0003:00002be4       _uiMaxRank                 40050be4     ui_force.obj
 0003:00002be8       _uiMaxPoints               40050be8     ui_force.obj
 0003:00002bf0       _uiForcePowersRank         40050bf0     ui_force.obj
 0003:00002c38       _uiForcePowerDarkLight     40050c38     ui_force.obj
 0003:00002c80       _gCustPowersRank           40050c80     ui_force.obj
 0003:00002cc8       _animTable                 40050cc8     ui_main.obj
 0003:00005d08       _HolocronIcons             40053d08     ui_main.obj
 0003:00005d50       _forcepowerDesc            40053d50     ui_main.obj
 0003:00005d98       _datapadMoveTitleData      40053d98     ui_main.obj
 0003:00005db0       _datapadMoveTitleBaseAnims 40053db0     ui_main.obj
 0003:000063c8       _g_UIGloballySelectedSiegeClass 400543c8     ui_main.obj
 0003:000063cc       _uiNumAllAnims             400543cc     ui_main.obj
 0003:000064b0       _serverStatusCvars         400544b0     ui_main.obj
 0003:00006b38       _itemFlags                 40054b38     ui_shared.obj
 0003:00006b48       _styles                    40054b48     ui_shared.obj
 0003:00006b64       _alignment                 40054b64     ui_shared.obj
 0003:00006b78       _types                     40054b78     ui_shared.obj
 0003:00006bbc       _scriptCommandCount        40054bbc     ui_shared.obj
 0003:00006bc0       _commandList               40054bc0     ui_shared.obj
 0003:000075b0       _itemParseKeywords         400555b0     ui_shared.obj
 0003:000079a0       _menuParseKeywords         400559a0     ui_shared.obj
 0003:00007b54       __fltused                  40055b54     LIBCMT:_fpinit_.obj
 0003:00007b58       __ldused                   40055b58     LIBCMT:_fpinit_.obj
 0003:00007bb0       __cfltcvt_tab              40055bb0     LIBCMT:cmiscdat.obj
 0003:00007be0       ___initialmbcinfo          40055be0     LIBCMT:mbctype.obj
 0003:00007e00       __mbctype                  40055e00     LIBCMT:mbctype.obj
 0003:00007f08       __mbcasemap                40055f08     LIBCMT:mbctype.obj
 0003:00008008       ___ptmbcinfo               40056008     LIBCMT:mbctype.obj
 0003:00008100       ___globallocalestatus      40056100     LIBCMT:glstatus.obj
 0003:00008104       ___clocalestr              40056104     LIBCMT:nlsdata2.obj
 0003:00008108       ___lc_time_c               40056108     LIBCMT:nlsdata2.obj
 0003:00008270       ___initiallocinfo          40056270     LIBCMT:nlsdata2.obj
 0003:00008348       ___ptlocinfo               40056348     LIBCMT:nlsdata2.obj
 0003:0000834c       ___initiallocalestructinfo 4005634c     LIBCMT:nlsdata2.obj
 0003:00008354       ___flsindex                40056354     LIBCMT:tidtable.obj
 0003:00008358       ___getvalueindex           40056358     LIBCMT:tidtable.obj
 0003:000084d0       ___security_cookie         400564d0     LIBCMT:gs_cookie.obj
 0003:000084d4       ___security_cookie_complement 400564d4     LIBCMT:gs_cookie.obj
 0003:000084e0       ___nullstring              400564e0     LIBCMT:output.obj
 0003:000084e4       ___wnullstring             400564e4     LIBCMT:output.obj
 0003:00008500       ___badioinfo               40056500     LIBCMT:ioinit.obj
 0003:00008660       ___lconv_static_decimal    40056660     LIBCMT:lconv.obj
 0003:00008664       ___lconv_static_W_decimal  40056664     LIBCMT:lconv.obj
 0003:00008668       ___lconv_c                 40056668     LIBCMT:lconv.obj
 0003:000086b8       ___lconv                   400566b8     LIBCMT:lconv.obj
 0003:000086bc       __pctype                   400566bc     LIBCMT:ctype.obj
 0003:000086c0       __pwctype                  400566c0     LIBCMT:ctype.obj
 0003:000086f8       __pow10pos                 400566f8     LIBCMT:_constpow_.obj
 0003:00008858       __pow10neg                 40056858     LIBCMT:_constpow_.obj
 0003:000089c0       __iob                      400569c0     LIBCMT:_file.obj
 0003:00008c40       ___mb_cur_max              40056c40     LIBCMT:nlsdata1.obj
 0003:00008c44       ___decimal_point           40056c44     LIBCMT:nlsdata1.obj
 0003:00008c48       ___decimal_point_length    40056c48     LIBCMT:nlsdata1.obj
 0003:00008c50       __matherr_flag             40056c50     LIBCMT:_matherr_.obj
 0003:00008d40       __d_inf                    40056d40     LIBCMT:_util_.obj
 0003:00008d48       __d_ind                    40056d48     LIBCMT:_util_.obj
 0003:00008d50       __d_max                    40056d50     LIBCMT:_util_.obj
 0003:00008d58       __d_min                    40056d58     LIBCMT:_util_.obj
 0003:00008d60       __d_mzero                  40056d60     LIBCMT:_util_.obj
 0003:00008d90       __lookuptrailbytes         40056d90     LIBCMT:read.obj
 0003:00008e90       ___abort_behavior          40056e90     LIBCMT:abort.obj
 0003:00008ea0       __NLG_Destination          40056ea0     LIBCMT:exsup.obj
 0003:00008eb0       __confh                    40056eb0     LIBCMT:initcon.obj
 0003:00085ed4       _siege_valid               400d3ed4     bg_saga.obj
 0003:00085ed8       _team1Theme                400d3ed8     bg_saga.obj
 0003:00085edc       _team2Theme                400d3edc     bg_saga.obj
 0003:00085ee0       _bgNumSiegeClasses         400d3ee0     bg_saga.obj
 0003:00085ee4       _bgNumSiegeTeams           400d3ee4     bg_saga.obj
 0003:00085ef0       _numVehicles               400d3ef0     bg_vehicleLoad.obj
 0003:00085f38       _vec3_origin               400d3f38     q_math.obj
 0003:0009c968       _newUI                     400ea968     ui_atoms.obj
 0003:0009c978       _uiForceUsed               400ea978     ui_force.obj
 0003:0009c97c       _uiForceAvailable          400ea97c     ui_force.obj
 0003:0009c980       _gTouchedForce             400ea980     ui_force.obj
 0003:0009c984       _gCustRank                 400ea984     ui_force.obj
 0003:0009c988       _uiForcePowersDisabled     400ea988     ui_force.obj
 0003:0009c9d0       _gCustSide                 400ea9d0     ui_force.obj
 0003:000b75b4       _siegeTeam1                401055b4     ui_main.obj
 0003:000b75b8       _siegeTeam2                401055b8     ui_main.obj
 0003:000b75bc       _UIPAFtextLoaded           401055bc     ui_main.obj
 0003:000b75c0       _holdSPString              401055c0     ui_main.obj
 0003:000b79c0       _holdSPString2             401059c0     ui_main.obj
 0003:000b7dc0       _uiSkinColor               40105dc0     ui_main.obj
 0003:000b7dc4       _uiHoldSkinColor           40105dc4     ui_main.obj
 0003:000b7dc8       _frameCount                40105dc8     ui_main.obj
 0003:000b7dcc       _defaultMenu               40105dcc     ui_main.obj
 0003:000b81d0       _gUISelectedMap            401061d0     ui_main.obj
 0003:000b81d8       _g_siegedFeederForcedSet   401061d8     ui_main.obj
 0003:00138218       _ui_saber_parms_parsed     40186218     ui_saber.obj
 0003:0039c25c       _DC                        403ea25c     ui_shared.obj
 0003:0039c270       _menuCount                 403ea270     ui_shared.obj
 0003:0039c274       _openMenuCount             403ea274     ui_shared.obj
 0003:0039c288       _FPMessageTime             403ea288     ui_shared.obj
 0003:0039c28c       _ui_deferredScriptItem     403ea28c     ui_shared.obj
 0003:0039c294       _ui_G2PtrTracker           403ea294     ui_shared.obj
 0003:0039c298       ___fastflag                403ea298     LIBCMT:_fpinit_.obj
 0003:0039c2a0       __aenvptr                  403ea2a0     LIBCMT:dllcrt0.obj
 0003:0039c2a4       __wenvptr                  403ea2a4     LIBCMT:dllcrt0.obj
 0003:0039c2a8       ___error_mode              403ea2a8     LIBCMT:dllcrt0.obj
 0003:0039c2ac       ___app_type                403ea2ac     LIBCMT:dllcrt0.obj
 0003:0039c2b4       ___mbulinfo                403ea2b4     LIBCMT:mbctype.obj
 0003:0039c2c0       ___mbcodepage              403ea2c0     LIBCMT:mbctype.obj
 0003:0039c2c4       ___ismbcodepage            403ea2c4     LIBCMT:mbctype.obj
 0003:0039c2c8       ___mblcid                  403ea2c8     LIBCMT:mbctype.obj
 0003:0039c2cc       _gpFlsAlloc                403ea2cc     LIBCMT:tidtable.obj
 0003:0039c2d0       _gpFlsGetValue             403ea2d0     LIBCMT:tidtable.obj
 0003:0039c2d4       _gpFlsSetValue             403ea2d4     LIBCMT:tidtable.obj
 0003:0039c2d8       _gpFlsFree                 403ea2d8     LIBCMT:tidtable.obj
 0003:0039c2dc       ___pInvalidArgHandler      403ea2dc     LIBCMT:invarg.obj
 0003:0039c2e0       ___locale_changed          403ea2e0     LIBCMT:setlocal.obj
 0003:0039c2e8       __maxwait                  403ea2e8     LIBCMT:crtheap.obj
 0003:0039c2ec       __umaskval                 403ea2ec     LIBCMT:crt0dat.obj
 0003:0039c2f0       ___argc                    403ea2f0     LIBCMT:crt0dat.obj
 0003:0039c2f4       ___argv                    403ea2f4     LIBCMT:crt0dat.obj
 0003:0039c2f8       ___wargv                   403ea2f8     LIBCMT:crt0dat.obj
 0003:0039c2fc       __environ                  403ea2fc     LIBCMT:crt0dat.obj
 0003:0039c300       ___initenv                 403ea300     LIBCMT:crt0dat.obj
 0003:0039c304       __wenviron                 403ea304     LIBCMT:crt0dat.obj
 0003:0039c308       ___winitenv                403ea308     LIBCMT:crt0dat.obj
 0003:0039c30c       __pgmptr                   403ea30c     LIBCMT:crt0dat.obj
 0003:0039c310       __wpgmptr                  403ea310     LIBCMT:crt0dat.obj
 0003:0039c314       __exitflag                 403ea314     LIBCMT:crt0dat.obj
 0003:0039c318       __C_Termination_Done       403ea318     LIBCMT:crt0dat.obj
 0003:0039c31c       __C_Exit_Done              403ea31c     LIBCMT:crt0dat.obj
 0003:0039c428       __crtheap                  403ea428     LIBCMT:heapinit.obj
 0003:0039c42c       __outputformat             403ea42c     LIBCMT:outputformat.obj
 0003:0039c580       ___lconv_static_null       403ea580     LIBCMT:lconv.obj
 0003:0039c584       ___lconv_static_W_null     403ea584     LIBCMT:lconv.obj
 0003:0039c8ac       __cflush                   403ea8ac     LIBCMT:_file.obj
 0003:0039c8b4       ?__pInconsistency@@3P6AXXZA 403ea8b4     LIBCMT:hooks.obj
 0003:0039c8d0       ___pPurecall               403ea8d0     LIBCMT:inithelp.obj
 0003:0039c8d4       ?_pnhHeap@@3P6AHI@ZA       403ea8d4     LIBCMT:handler.obj
 0003:0039cf00       __stdbuf                   403eaf00     LIBCMT:_sftbuf.obj
 0003:0039cf08       __newmode                  403eaf08     LIBCMT:_newmode.obj
 0003:0039cf20       _itemParseKeywordHash      403eaf20     <common>
 0003:0039d720       _Menus                     403eb720     <common>
 0003:003b2420       _g_nameBind1               40400420     <common>
 0003:003b2440       _currLanguage              40400440     <common>
 0003:003b3440       _g_nameBind2               40401440     <common>
 0003:003b3460       _menuParseKeywordHash      40401460     <common>
 0003:003b3c60       _menuStack                 40401c60     <common>
 0003:003b3ca0       _ui_deferredScript         40401ca0     <common>
 0003:003b44a0       _ui_ctf_capturelimit       404024a0     <common>
 0003:003b45c0       _ui_redteam4               404025c0     <common>
 0003:003b46e0       _ui_blueteam8              404026e0     <common>
 0003:003b4800       _ui_char_skin_head         40402800     <common>
 0003:003b4920       _ui_redteam                40402920     <common>
 0003:003b4a40       _ui_saber_color            40402a40     <common>
 0003:003b4b60       _ui_serverFilterType       40402b60     <common>
 0003:003b4c80       _ui_spSkill                40402c80     <common>
 0003:003b4da0       _ui_ffa_timelimit          40402da0     <common>
 0003:003b4ec0       _ui_opponentName           40402ec0     <common>
 0003:003b4fe0       _ui_blueteam6              40402fe0     <common>
 0003:003b5100       _ui_browserGameType        40403100     <common>
 0003:003b5220       _ui_selectedPlayerName     40403220     <common>
 0003:003b5340       _ui_saber2_color           40403340     <common>
 0003:003b5460       _g_UIClassDescriptions     40403460     <common>
 0003:00435460       _ui_char_color_green       40483460     <common>
 0003:00435580       _ui_initialized            40483580     <common>
 0003:004356a0       _ui_netSource              404836a0     <common>
 0003:004357c0       _ui_lastServerRefresh_3    404837c0     <common>
 0003:004358e0       _ui_marks                  404838e0     <common>
 0003:00435a00       _ui_currentOpponent        40483a00     <common>
 0003:00435b20       _ui_scoreDefends           40483b20     <common>
 0003:00435c40       _ui_blueteam               40483c40     <common>
 0003:00435d60       _ui_gameType               40483d60     <common>
 0003:00435e80       _saberSingleHiltInfo       40483e80     <common>
 0003:00435f80       _ui_blueteam2              40483f80     <common>
 0003:004360a0       _ui_blueteam4              404840a0     <common>
 0003:004361c0       _ui_scoreAccuracy          404841c0     <common>
 0003:004362e0       _ui_selectedPlayer         404842e0     <common>
 0003:00436400       _ui_debug                  40484400     <common>
 0003:00436520       _uiHumanoidAnimations      40484520     <common>
 0003:00438f60       _ui_drawCrosshair          40486f60     <common>
 0003:00439080       _bgAllAnims                40487080     <common>
 0003:004394c0       _ui_currentNetMap          404874c0     <common>
 0003:004395e0       _ui_char_color_blue        404875e0     <common>
 0003:00439700       _ui_char_skin_legs         40487700     <common>
 0003:00439820       _ui_mapIndex               40487820     <common>
 0003:00439940       _ui_redteam2               40487940     <common>
 0003:00439a60       _ui_scoreExcellents        40487a60     <common>
 0003:00439b80       _ui_lastServerRefresh_0    40487b80     <common>
 0003:00439ca0       _ui_redteam5               40487ca0     <common>
 0003:00439dc0       _ui_scoreTimeBonus         40487dc0     <common>
 0003:00439ee0       _ui_blueteam5              40487ee0     <common>
 0003:0043a000       _ui_char_color_red         40488000     <common>
 0003:0043a120       _ui_scoreBase              40488120     <common>
 0003:0043a240       _ui_browserSortKey         40488240     <common>
 0003:0043a360       _sharedBuffer              40488360     <common>
 0003:0044e360       _ui_team_timelimit         4049c360     <common>
 0003:0044e480       _ui_redteam7               4049c480     <common>
 0003:0044e5a0       _ui_bypassMainMenuLoad     4049c5a0     <common>
 0003:0044e6c0       _ui_browserMaster          4049c6c0     <common>
 0003:0044e7e0       _ui_scoreCaptures          4049c7e0     <common>
 0003:0044e900       _ui_ffa_fraglimit          4049c900     <common>
 0003:0044ea20       _ui_realWarmUp             4049ca20     <common>
 0003:0044eb40       _ui_scoreShutoutBonus      4049cb40     <common>
 0003:0044ec60       _ui_currentMap             4049cc60     <common>
 0003:0044ed80       _ui_PrecacheModels         4049cd80     <common>
 0003:0044eea0       _saberStaffHiltInfo        4049cea0     <common>
 0003:0044efa0       _ui_scoreAssists           4049cfa0     <common>
 0003:0044f0c0       _ui_netGameType            4049d0c0     <common>
 0003:0044f1e0       _ui_blueteam1              4049d1e0     <common>
 0003:0044f300       _ui_saber_type             4049d300     <common>
 0003:0044f420       _ui_redteam6               4049d420     <common>
 0003:0044f540       _ui_blueteam3              4049d540     <common>
 0003:0044f660       _ui_saber2                 4049d660     <common>
 0003:0044f780       _ui_rankChange             4049d780     <common>
 0003:0044f8a0       _ui_captureLimit           4049d8a0     <common>
 0003:0044f9c0       _ui_findPlayer             4049d9c0     <common>
 0003:0044fae0       _ui_joinGameType           4049dae0     <common>
 0003:0044fc00       _ui_browserShowEmpty       4049dc00     <common>
 0003:0044fd20       _ui_team_friendly          4049dd20     <common>
 0003:0044fe40       _ui_ctf_friendly           4049de40     <common>
 0003:0044ff60       _ui_blueteam7              4049df60     <common>
 0003:00450080       _ui_redteam8               4049e080     <common>
 0003:004501a0       _ui_scoreGauntlets         4049e1a0     <common>
 0003:004502c0       _uiInfo                    4049e2c0     <common>
 0003:004a4b00       _ui_lastServerRefresh_2    404f2b00     <common>
 0003:004a4c20       _ui_recordSPDemo           404f2c20     <common>
 0003:004a4d40       _ui_dedicated              404f2d40     <common>
 0003:004a4e60       _ui_char_anim              404f2e60     <common>
 0003:004a4f80       _ui_scoreSkillBonus        404f2f80     <common>
 0003:004a50a0       _ui_selectedModelIndex     404f30a0     <common>
 0003:004a51c0       _ui_actualNetGameType      404f31c0     <common>
 0003:004a52e0       _ui_char_skin_torso        404f32e0     <common>
 0003:004a5400       _ui_fragLimit              404f3400     <common>
 0003:004a5520       _ui_serverStatusTimeOut    404f3520     <common>
 0003:004a5640       _ui_redteam1               404f3640     <common>
 0003:004a5760       _se_language               404f3760     <common>
 0003:004a5880       _ui_browserShowFull        404f3880     <common>
 0003:004a59a0       _ui_singlePlayerActive     404f39a0     <common>
 0003:004a5ac0       _ui_saber                  404f3ac0     <common>
 0003:004a5be0       _ui_scoreTeam              404f3be0     <common>
 0003:004a5d00       _ui_menuFiles              404f3d00     <common>
 0003:004a5e20       _ui_realCaptureLimit       404f3e20     <common>
 0003:004a5f40       _ui_botsFile               404f3f40     <common>
 0003:004a6060       _ui_lastServerRefresh_1    404f4060     <common>
 0003:004a6180       _parsedFPMessage           404f4180     <common>
 0003:004a6580       _ui_scoreScore             404f4580     <common>
 0003:004a66a0       _ui_scoreImpressives       404f46a0     <common>
 0003:004a67c0       _ui_char_model             404f47c0     <common>
 0003:004a68e0       _ui_drawCrosshairNames     404f48e0     <common>
 0003:004a6a00       _ui_team_fraglimit         404f4a00     <common>
 0003:004a6b20       _ui_scorePerfect           404f4b20     <common>
 0003:004a6c40       _ui_redteam3               404f4c40     <common>
 0003:004a6d60       _ui_scoreTime              404f4d60     <common>
 0003:004a6e80       _ui_ctf_timelimit          404f4e80     <common>
 0003:004a6f90       _ui_numBots                404f4f90     <common>
 0003:004a6fa0       _ui_forcePowerDisable      404f4fa0     <common>
 0003:004a70c0       _ui_freeSaber              404f50c0     <common>
 0003:004a71e0       _uiForceStarShaders        404f51e0     <common>
 0003:004a7240       _uiSaberColorShaders       404f5240     <common>
 0003:004a7260       _bgSiegeClasses            404f5260     <common>
 0003:004d7860       _bgSiegeTeams              40525860     <common>
 0003:004d9ce0       _siege_info                40527ce0     <common>
 0003:004ddce0       ___piob                    4052bce0     <common>
 0003:004ddd00       __bufin                    4052bd00     <common>
 0003:004ded00       __nstream                  4052cd00     <common>
 0003:004ded04       __debugger_hook_dummy      4052cd04     <common>
 0003:004ded08       __pDestructExceptionObject 4052cd08     <common>
 0003:004ded0c       __nhandle                  4052cd0c     <common>
 0003:004ded20       ___pioinfo                 4052cd20     <common>
 0003:004dee20       ___env_initialized         4052ce20     <common>
 0003:004dee24       ___onexitend               4052ce24     <common>
 0003:004dee28       ___onexitbegin             4052ce28     <common>
 0003:004dee2c       ___mbctype_initialized     4052ce2c     <common>
 0003:004dee30       ___dyn_tls_init_callback   4052ce30     <common>
 0003:004dee34       __pmatherr                 4052ce34     <common>
 0003:004dee38       ___sse2_available          4052ce38     <common>
 0003:004dee3c       ___use_sse2_mathfcns       4052ce3c     <common>
 0003:004dee40       __acmdln                   4052ce40     <common>

 entry point at        0001:00029ceb

 Static symbols

 0001:000033a0       _UI_Cache_f                400043a0 f   ui_atoms.obj
 0001:000033f0       _UI_CalcPostGameStats      400043f0 f   ui_atoms.obj
 0001:000054f0       _UI_LoadArenasFromFile     400064f0 f   ui_gameinfo.obj
 0001:00005910       _UI_LoadBotsFromFile       40006910 f   ui_gameinfo.obj
 0001:000064f0       _Text_Paint_Limit          400074f0 f   ui_main.obj
 0001:000071d0       _UI_DrawHandicap           400081d0 f   ui_main.obj
 0001:000072e0       _UI_DrawClanName           400082e0 f   ui_main.obj
 0001:000073b0       _UI_GetGameTypeName        400083b0 f   ui_main.obj
 0001:000074d0       _UI_DrawGameType           400084d0 f   ui_main.obj
 0001:000075a0       _UI_DrawNetGameType        400085a0 f   ui_main.obj
 0001:000076a0       _UI_DrawAutoSwitch         400086a0 f   ui_main.obj
 0001:000077c0       _UI_DrawJoinGameType       400087c0 f   ui_main.obj
 0001:000078b0       _UI_TeamIndexFromName      400088b0 f   ui_main.obj
 0001:00007900       _UI_DrawClanLogo           40008900 f   ui_main.obj
 0001:000079e0       _UI_DrawClanCinematic      400089e0 f   ui_main.obj
 0001:00007b50       _UI_DrawPreviewCinematic   40008b50 f   ui_main.obj
 0001:00007bf0       _UI_DrawSkill              40008bf0 f   ui_main.obj
 0001:00007d00       _UI_DrawGenericNum         40008d00 f   ui_main.obj
 0001:00007de0       _UI_DrawForceMastery       40008de0 f   ui_main.obj
 0001:00007ee0       _UI_DrawSkinColor          40008ee0 f   ui_main.obj
 0001:00007fe0       _UI_DrawForceSide          40008fe0 f   ui_main.obj
 0001:00008330       _UI_AllForceDisabled       40009330 f   ui_main.obj
 0001:00008420       _UI_DrawJediNonJedi        40009420 f   ui_main.obj
 0001:00008540       _UI_DrawTeamName           40009540 f   ui_main.obj
 0001:000085e0       _UI_DrawTeamMember         400095e0 f   ui_main.obj
 0001:000087a0       _UI_DrawEffects            400097a0 f   ui_main.obj
 0001:000087e0       _UI_DrawMapPreview         400097e0 f   ui_main.obj
 0001:000088a0       _UI_DrawMapTimeToBeat      400098a0 f   ui_main.obj
 0001:000089d0       _UI_DrawMapCinematic       400099d0 f   ui_main.obj
 0001:00008ad0       _UI_SetForceDisabled       40009ad0 f   ui_main.obj
 0001:00008ed0       _UI_DrawNetMapPreview      40009ed0 f   ui_main.obj
 0001:00008f10       _UI_DrawNetMapCinematic    40009f10 f   ui_main.obj
 0001:00008fd0       _UI_DrawNetFilter          40009fd0 f   ui_main.obj
 0001:000090f0       _UI_DrawTier               4000a0f0 f   ui_main.obj
 0001:000091e0       _UI_DrawTierMap            4000a1e0 f   ui_main.obj
 0001:00009270       _UI_EnglishMapName         4000a270 f   ui_main.obj
 0001:000092c0       _UI_DrawTierMapName        4000a2c0 f   ui_main.obj
 0001:000093d0       _UI_DrawTierGameType       4000a3d0 f   ui_main.obj
 0001:000094e0       _UI_AIFromName             4000a4e0 f   ui_main.obj
 0001:00009530       _UI_NextOpponent           4000a530 f   ui_main.obj
 0001:000095a0       _UI_PriorOpponent          4000a5a0 f   ui_main.obj
 0001:00009600       _UI_DrawPlayerLogo         4000a600 f   ui_main.obj
 0001:000096d0       _UI_DrawPlayerLogoMetal    4000a6d0 f   ui_main.obj
 0001:000097a0       _UI_DrawPlayerLogoName     4000a7a0 f   ui_main.obj
 0001:00009870       _UI_DrawOpponentLogo       4000a870 f   ui_main.obj
 0001:00009940       _UI_DrawOpponentLogoMetal  4000a940 f   ui_main.obj
 0001:00009a10       _UI_DrawOpponentLogoName   4000aa10 f   ui_main.obj
 0001:00009ae0       _UI_DrawAllMapsSelection   4000aae0 f   ui_main.obj
 0001:00009b40       _UI_DrawOpponentName       4000ab40 f   ui_main.obj
 0001:00009c10       _UI_DrawBotName            4000ac10 f   ui_main.obj
 0001:00009cf0       _UI_DrawBotSkill           4000acf0 f   ui_main.obj
 0001:00009d70       _UI_DrawRedBlue            4000ad70 f   ui_main.obj
 0001:00009e70       _UI_DrawCrosshair          4000ae70 f   ui_main.obj
 0001:00009ed0       _UI_BuildPlayerList        4000aed0 f   ui_main.obj
 0001:0000a150       _UI_DrawSelectedPlayer     4000b150 f   ui_main.obj
 0001:0000a240       _UI_DrawServerRefreshDate  4000b240 f   ui_main.obj
 0001:0000a4a0       _UI_DrawServerMOTD         4000b4a0 f   ui_main.obj
 0001:0000a6e0       _UI_DrawKeyBindStatus      4000b6e0 f   ui_main.obj
 0001:0000a7e0       _UI_DrawGLInfo             4000b7e0 f   ui_main.obj
 0001:0000aba0       _UI_Version                4000bba0 f   ui_main.obj
 0001:0000ac00       _UI_OwnerDrawVisible       4000bc00 f   ui_main.obj
 0001:0000ae50       _UI_Handicap_HandleKey     4000be50 f   ui_main.obj
 0001:0000aef0       _UI_Effects_HandleKey      4000bef0 f   ui_main.obj
 0001:0000af90       _UI_Chat_Main_HandleKey    4000bf90 f   ui_main.obj
 0001:0000b030       _UI_Chat_Attack_HandleKey  4000c030 f   ui_main.obj
 0001:0000b090       _UI_Chat_Defend_HandleKey  4000c090 f   ui_main.obj
 0001:0000b110       _UI_Chat_Request_HandleKey 4000c110 f   ui_main.obj
 0001:0000b1b0       _UI_Chat_Reply_HandleKey   4000c1b0 f   ui_main.obj
 0001:0000b240       _UI_Chat_Spot_HandleKey    4000c240 f   ui_main.obj
 0001:0000b2c0       _UI_Chat_Tactical_HandleKey 4000c2c0 f   ui_main.obj
 0001:0000b360       _UI_AutoSwitch_HandleKey   4000c360 f   ui_main.obj
 0001:0000b3d0       _UI_Skill_HandleKey        4000c3d0 f   ui_main.obj
 0001:0000b440       _UI_TeamName_HandleKey     4000c440 f   ui_main.obj
 0001:0000b4d0       _UI_TeamMember_HandleKey   4000c4d0 f   ui_main.obj
 0001:0000b5a0       _UI_OpponentName_HandleKey 4000c5a0 f   ui_main.obj
 0001:0000b5e0       _UI_BotName_HandleKey      4000c5e0 f   ui_main.obj
 0001:0000b640       _UI_BotSkill_HandleKey     4000c640 f   ui_main.obj
 0001:0000b6b0       _UI_Crosshair_HandleKey    4000c6b0 f   ui_main.obj
 0001:0000b720       _UI_SelectedPlayer_HandleKey 4000c720 f   ui_main.obj
 0001:0000b7d0       _UI_GetValue               4000c7d0 f   ui_main.obj
 0001:0000b7e0       _UI_ServersQsortCompare    4000c7e0 f   ui_main.obj
 0001:0000b810       _UI_LoadMods               4000c810 f   ui_main.obj
 0001:0000b8d0       _UI_LoadMovies             4000c8d0 f   ui_main.obj
 0001:0000b990       _UI_RecurseGetDemos        4000c990 f   ui_main.obj
 0001:0000bb60       _UI_LoadDemos              4000cb60 f   ui_main.obj
 0001:0000bc70       _UI_SetNextMap             4000cc70 f   ui_main.obj
 0001:0000bcc0       _UI_Update                 4000ccc0 f   ui_main.obj
 0001:0000c270       _UI_DeferMenuScript        4000d270 f   ui_main.obj
 0001:0000c790       _UI_SetBotButton           4000d790 f   ui_main.obj
 0001:0000c7f0       _UI_UpdateCharacterCvars   4000d7f0 f   ui_main.obj
 0001:0000c8e0       _UI_GetCharacterCvars      4000d8e0 f   ui_main.obj
 0001:0000cdf0       _UI_UpdateSaberCvars       4000ddf0 f   ui_main.obj
 0001:0000cea0       _UI_SetSaberBoxesandHilts  4000dea0 f   ui_main.obj
 0001:0000cfd0       _UI_UpdateSaberType        4000dfd0 f   ui_main.obj
 0001:0000d030       _UI_UpdateSaberHilt        4000e030 f   ui_main.obj
 0001:0000d110       _UI_GetSaberCvars          4000e110 f   ui_main.obj
 0001:0000d280       _UI_ResetCharacterListBoxes 4000e280 f   ui_main.obj
 0001:0000d330       _UI_GetTeamColor           4000e330 f   ui_main.obj
 0001:0000d4e0       _UI_MapCountByGameType     4000e4e0 f   ui_main.obj
 0001:0000d560       _UI_HeadCountByColor       4000e560 f   ui_main.obj
 0001:0000d5d0       _UI_InsertServerIntoDisplayList 4000e5d0 f   ui_main.obj
 0001:0000d610       _UI_RemoveServerFromDisplayList 4000e610 f   ui_main.obj
 0001:0000d660       _UI_BinaryServerInsertion  4000e660 f   ui_main.obj
 0001:0000d700       _UI_BuildServerDisplayList 4000e700 f   ui_main.obj
 0001:0000d9d0       _UI_SortServerStatusInfo   4000e9d0 f   ui_main.obj
 0001:0000dac0       _UI_CheckPassword          4000eac0 f   ui_main.obj
 0001:0000db30       _UI_JoinServer             4000eb30 f   ui_main.obj
 0001:0000dbc0       _UI_CheckServerName        4000ebc0 f   ui_main.obj
 0001:0000dc30       _UI_GetServerStatusInfo    4000ec30 f   ui_main.obj
 0001:0000df10       _stristr                   4000ef10 f   ui_main.obj
 0001:0000df80       _UI_BuildServerStatus      4000ef80 f   ui_main.obj
 0001:0000e340       _UI_FeederCount            4000f340 f   ui_main.obj
 0001:0000e7d0       _UI_SelectedMap            4000f7d0 f   ui_main.obj
 0001:0000e810       _UI_SelectedTeamHead       4000f810 f   ui_main.obj
 0001:0000e8a0       _UI_FeederItemText         4000f8a0 f   ui_main.obj
 0001:0000f230       _UI_FeederItemImage        40010230 f   ui_main.obj
 0001:00010720       _GameType_Parse            40011720 f   ui_main.obj
 0001:00010880       _MapList_Parse             40011880 f   ui_main.obj
 0001:00010a70       _UI_ParseGameInfo          40011a70 f   ui_main.obj
 0001:00010b40       _UI_Pause                  40011b40 f   ui_main.obj
 0001:00010b90       _UI_PlayCinematic          40011b90 f   ui_main.obj
 0001:00010bd0       _UI_StopCinematic          40011bd0 f   ui_main.obj
 0001:00010cb0       _UI_DrawCinematic          40011cb0 f   ui_main.obj
 0001:00010cf0       _UI_RunCinematicFrame      40011cf0 f   ui_main.obj
 0001:00010e40       _bIsImageFile              40011e40 f   ui_main.obj
 0001:00010ee0       _UI_BuildQ3Model_List      40011ee0 f   ui_main.obj
 0001:00011170       _UI_ParseColorData         40012170 f   ui_main.obj
 0001:00011270       _UI_BuildPlayerModel_List  40012270 f   ui_main.obj
 0001:00011a00       _UI_ReadableSize           40012a00 f   ui_main.obj
 0001:00011b50       _UI_PrintTime              40012b50 f   ui_main.obj
 0001:00011d20       _UI_StopServerRefresh      40012d20 f   ui_main.obj
 0001:00011d90       _UI_DoServerRefresh        40012d90 f   ui_main.obj
 0001:00011e30       _GetCRDelineatedString     40012e30 f   ui_main.obj
 0001:00011eb0       _GetNetSourceString        40012eb0 f   ui_main.obj
 0001:00011fd0       _UI_DrawNetSource          40012fd0 f   ui_main.obj
 0001:000120f0       _UI_OwnerDrawWidth         400130f0 f   ui_main.obj
 0001:00012620       _UI_OwnerDraw              40013620 f   ui_main.obj
 0001:00012e90       _UI_GameType_HandleKey     40013e90 f   ui_main.obj
 0001:00012fb0       _UI_NetGameType_HandleKey  40013fb0 f   ui_main.obj
 0001:000130d0       _UI_JoinGameType_HandleKey 400140d0 f   ui_main.obj
 0001:00013150       _UI_NetFilter_HandleKey    40014150 f   ui_main.obj
 0001:000131d0       _UI_StartSkirmish          400141d0 f   ui_main.obj
 0001:00013a30       _UI_UpdateCharacter        40014a30 f   ui_main.obj
 0001:00013b10       _UI_SiegeClassCnt          40014b10 f   ui_main.obj
 0001:00013be0       _UI_BuildFindPlayerList    40014be0 f   ui_main.obj
 0001:00014040       _UI_DisplayDownloadInfo    40015040 f   ui_main.obj
 0001:00014ce0       _UI_StartServerRefresh     40015ce0 f   ui_main.obj
 0001:00015130       _UI_NetSource_HandleKey    40016130 f   ui_main.obj
 0001:000151d0       _UI_OwnerDrawHandleKey     400161d0 f   ui_main.obj
 0001:00015530       _UI_RunMenuScript          40016530 f   ui_main.obj
 0001:00019d30       _hashForString             4001ad30 f   ui_shared.obj
 0001:0001d4a0       _Scroll_TextScroll_AutoFunc 4001e4a0 f   ui_shared.obj
 0001:0001d510       _Scroll_TextScroll_ThumbFunc 4001e510 f   ui_shared.obj
 0001:0001d640       _Scroll_ListBox_AutoFunc   4001e640 f   ui_shared.obj
 0001:0001d6b0       _Scroll_ListBox_ThumbFunc  4001e6b0 f   ui_shared.obj
 0001:0001d8c0       _Scroll_Slider_ThumbFunc   4001e8c0 f   ui_shared.obj
 0001:0001dde0       _Display_CloseCinematics   4001ede0 f   ui_shared.obj
 0001:00022c90       _Item_TextScroll_BuildLines 40023c90 f   ui_shared.obj
 0001:00023b60       _Menu_OverActiveItem       40024b60 f   ui_shared.obj
 0001:00029200       _shortsort                 4002a200 f   LIBCMT:qsort.obj
 0001:00029bf5       ___DllMainCRTStartup       4002abf5 f   LIBCMT:dllcrt0.obj
 0001:00029e7c       __shift                    4002ae7c f   LIBCMT:cvt.obj
 0001:00029ec1       __cftoe2_l                 4002aec1 f   LIBCMT:cvt.obj
 0001:0002a47f       __cftof2_l                 4002b47f f   LIBCMT:cvt.obj
 0001:0002a826       ?strtoxl@@YAKPAUlocaleinfo_struct@@PBDPAPBDHH@Z 4002b826 f   LIBCMT:strtol.obj
 0001:0002b4f8       ?CPtoLCID@@YAHH@Z          4002c4f8 f   LIBCMT:mbctype.obj
 0001:0002b527       ?setSBCS@@YAXPAUthreadmbcinfostruct@@@Z 4002c527 f   LIBCMT:mbctype.obj
 0001:0002b58b       ?setSBUpLow@@YAXPAUthreadmbcinfostruct@@@Z 4002c58b f   LIBCMT:mbctype.obj
 0001:0002b7bf       ?getSystemCP@@YAHH@Z       4002c7bf f   LIBCMT:mbctype.obj
 0001:0002d688       _write_char                4002e688 f   LIBCMT:output.obj
 0001:0002d6bb       _write_string              4002e6bb f   LIBCMT:output.obj
 0001:0002e2fb       ?__crtLCMapStringA_stat@@YAHPAUlocaleinfo_struct@@KKPBDHPADHHH@Z 4002f2fb f   LIBCMT:a_map.obj
 0001:0002efaf       _doexit                    4002ffaf f   LIBCMT:crt0dat.obj
 0001:0002f4a6       _parse_cmdline             400304a6 f   LIBCMT:stdargv.obj
 0001:000303b4       ?__crtGetStringTypeA_stat@@YAHPAUlocaleinfo_struct@@KPBDHPAGHHH@Z 400313b4 f   LIBCMT:a_str.obj
 0001:000337dd       _siglookup                 400347dd f   LIBCMT:winsig.obj
 0001:00033a19       __onexit_nolock            40034a19 f   LIBCMT:onexit.obj
 0001:00033eba       ?x_ismbbtype_l@@YAHPAUlocaleinfo_struct@@IHH@Z 40034eba f   LIBCMT:ismbbyte.obj
 0001:00033fc0       __unwind_handler4          40034fc0 f   LIBCMT:exsup4.obj
 0001:0003497a       __hw_cw                    4003597a f   LIBCMT:_ieee87_.obj
 0001:00034a08       ___hw_cw_sse2              40035a08 f   LIBCMT:_ieee87_.obj
 0001:000350fd       _flsall                    400360fd f   LIBCMT:fflush.obj
 0001:00035850       __unwind_handler           40036850 f   LIBCMT:exsup.obj
 0001:00035d58       ?_strupr_s_l_stat@@YAHPADIPAUlocaleinfo_struct@@@Z 40036d58 f   LIBCMT:strupr.obj
