 uix86

 Timestamp is 4974de37 (Mon Jan 19 15:10:31 2009)

 Preferred load address is 40000000

 Start         Length     Name                   Class
 0001:00000000 00062539H .textbss                DATA
 0002:00000000 000c9b25H .text                   CODE
 0002:000c9b30 00001161H .text$x                 CODE
 0003:00000000 00000104H .CRT$XCA                DATA
 0003:00000104 00000104H .CRT$XCZ                DATA
 0003:00000208 00000104H .CRT$XIA                DATA
 0003:0000030c 00000118H .CRT$XIC                DATA
 0003:00000424 00000104H .CRT$XIZ                DATA
 0003:00000528 00000104H .CRT$XPA                DATA
 0003:0000062c 00000109H .CRT$XPX                DATA
 0003:00000738 00000104H .CRT$XPXA               DATA
 0003:0000083c 00000104H .CRT$XPZ                DATA
 0003:00000940 00000104H .CRT$XTA                DATA
 0003:00000a44 00000104H .CRT$XTZ                DATA
 0003:00000b50 0002a4a3H .rdata                  DATA
 0003:0002aff4 000001a9H .rdata$debug            DATA
 0003:0002b1a0 0000032fH .rdata$r                DATA
 0003:0002b4d0 00000104H .rtc$IAA                DATA
 0003:0002b5d4 00000139H .rtc$IMZ                DATA
 0003:0002b710 00000104H .rtc$IZZ                DATA
 0003:0002b814 00000104H .rtc$TAA                DATA
 0003:0002b918 00000139H .rtc$TMZ                DATA
 0003:0002ba54 00000104H .rtc$TZZ                DATA
 0003:0002bb58 000010b2H .xdata$x                DATA
 0003:0002cc10 00000167H .edata                  DATA
 0004:00000000 0000b29cH .data                   DATA
 0004:0000b2a0 005ea118H .bss                    DATA
 0005:00000000 00000014H .idata$2                DATA
 0005:00000014 00000014H .idata$3                DATA
 0005:00000028 000001f8H .idata$4                DATA
 0005:00000220 000001f8H .idata$5                DATA
 0005:00000418 000008a1H .idata$6                DATA
 0006:00000000 000001c0H .rsrc$01                DATA
 0006:000001c0 00000e63H .rsrc$02                DATA

  Address         Publics by Value              Rva+Base       Lib:Object

 0000:00000000       ___safe_se_handler_count   00000000     <absolute>
 0000:00000000       __except_list              00000000     <absolute>
 0000:00000000       ___safe_se_handler_table   00000000     <absolute>
 0000:00000000       ___ImageBase               40000000     <linker-defined>
 0001:00000000       __enc$textbss$begin        40001000     <linker-defined>
 0001:00062539       __enc$textbss$end          40063539     <linker-defined>
 0002:00004bd0       _BG_FileExists             40068bd0 f   bg_misc.obj
 0002:00004ca0       _BG_LegalizedForcePowers   40068ca0 f   bg_misc.obj
 0002:00005890       _vectoyaw                  40069890 f   bg_misc.obj
 0002:000059c0       _BG_HasYsalamiri           400699c0 f   bg_misc.obj
 0002:00005a40       _BG_CanUseFPNow            40069a40 f   bg_misc.obj
 0002:00005c10       _BG_FindItemForPowerup     40069c10 f   bg_misc.obj
 0002:00005cc0       _BG_FindItemForHoldable    40069cc0 f   bg_misc.obj
 0002:00005d80       _BG_FindItemForWeapon      40069d80 f   bg_misc.obj
 0002:00005e20       _BG_FindItemForAmmo        40069e20 f   bg_misc.obj
 0002:00005ec0       _BG_FindItem               40069ec0 f   bg_misc.obj
 0002:00005f50       _BG_PlayerTouchesItem      40069f50 f   bg_misc.obj
 0002:000060a0       _BG_ProperForceIndex       4006a0a0 f   bg_misc.obj
 0002:00006110       _BG_CycleForce             4006a110 f   bg_misc.obj
 0002:000062f0       _BG_GetItemIndexByTag      4006a2f0 f   bg_misc.obj
 0002:00006380       _BG_IsItemSelectable       4006a380 f   bg_misc.obj
 0002:000063d0       _BG_CycleInven             4006a3d0 f   bg_misc.obj
 0002:00006540       _BG_CanItemBeGrabbed       4006a540 f   bg_misc.obj
 0002:00006ae0       _BG_EvaluateTrajectory     4006aae0 f   bg_misc.obj
 0002:00006f40       _BG_EvaluateTrajectoryDelta 4006af40 f   bg_misc.obj
 0002:000072b0       _BG_AddPredictableEventToPlayerstate 4006b2b0 f   bg_misc.obj
 0002:000073d0       _BG_TouchJumpPad           4006b3d0 f   bg_misc.obj
 0002:00007540       _BG_EmplacedView           4006b540 f   bg_misc.obj
 0002:000076a0       _BG_IsValidCharacterModel  4006b6a0 f   bg_misc.obj
 0002:00007790       _BG_ValidateSkinForTeam    4006b790 f   bg_misc.obj
 0002:00007bb0       _BG_PlayerStateToEntityState 4006bbb0 f   bg_misc.obj
 0002:000083f0       _BG_PlayerStateToEntityStateExtraPolate 4006c3f0 f   bg_misc.obj
 0002:00008b70       _BG_ModelCache             4006cb70 f   bg_misc.obj
 0002:00008be0       _BG_Alloc                  4006cbe0 f   bg_misc.obj
 0002:00008ca0       _BG_AllocUnaligned         4006cca0 f   bg_misc.obj
 0002:00008d40       _BG_TempAlloc              4006cd40 f   bg_misc.obj
 0002:00008df0       _BG_TempFree               4006cdf0 f   bg_misc.obj
 0002:00008e90       _BG_StringAlloc            4006ce90 f   bg_misc.obj
 0002:00008f10       _BG_OutOfMemory            4006cf10 f   bg_misc.obj
 0002:00008f60       _BG_SiegeStripTabs         4006cf60 f   bg_saga.obj
 0002:00009010       _BG_SiegeGetValueGroup     4006d010 f   bg_saga.obj
 0002:000098e0       _BG_SiegeGetPairedValue    4006d8e0 f   bg_saga.obj
 0002:00009f70       _BG_SiegeTranslateForcePowers 4006df70 f   bg_saga.obj
 0002:0000a490       _BG_SiegeTranslateGenericTable 4006e490 f   bg_saga.obj
 0002:0000a770       _BG_SiegeParseClassFile    4006e770 f   bg_saga.obj
 0002:0000b4d0       _BG_SiegeCountBaseClass    4006f4d0 f   bg_saga.obj
 0002:0000b5a0       _BG_GetUIPortraitFile      4006f5a0 f   bg_saga.obj
 0002:0000b690       _BG_GetUIPortrait          4006f690 f   bg_saga.obj
 0002:0000b780       _BG_GetClassOnBaseClass    4006f780 f   bg_saga.obj
 0002:0000b860       _BG_SiegeLoadClasses       4006f860 f   bg_saga.obj
 0002:0000ba40       _BG_SiegeFindClassByName   4006fa40 f   bg_saga.obj
 0002:0000baf0       _BG_SiegeParseTeamFile     4006faf0 f   bg_saga.obj
 0002:0000bec0       _BG_SiegeLoadTeams         4006fec0 f   bg_saga.obj
 0002:0000c060       _BG_SiegeFindThemeForTeam  40070060 f   bg_saga.obj
 0002:0000c0c0       _BG_SiegeCheckClassLegality 400700c0 f   bg_saga.obj
 0002:0000c1d0       _BG_SiegeFindTeamForTheme  400701d0 f   bg_saga.obj
 0002:0000c290       _BG_SiegeSetTeamTheme      40070290 f   bg_saga.obj
 0002:0000c310       _BG_SiegeFindClassIndexByName 40070310 f   bg_saga.obj
 0002:0000c3b0       _BG_ClearVehicleParseParms 400703b0 f   bg_vehicleLoad.obj
 0002:0000c3f0       _VEH_LoadVehWeapon         400703f0 f   bg_vehicleLoad.obj
 0002:0000cd30       _VEH_VehWeaponIndexForName 40070d30 f   bg_vehicleLoad.obj
 0002:0000ce60       _BG_SetSharedVehicleFunctions 40070e60 f   bg_vehicleLoad.obj
 0002:0000ce90       _BG_VehicleSetDefaults     40070e90 f   bg_vehicleLoad.obj
 0002:0000cef0       _BG_VehicleClampData       40070ef0 f   bg_vehicleLoad.obj
 0002:0000cfe0       _VEH_LoadVehicle           40070fe0 f   bg_vehicleLoad.obj
 0002:0000e4f0       _VEH_VehicleIndexForName   400724f0 f   bg_vehicleLoad.obj
 0002:0000e620       _BG_VehWeaponLoadParms     40072620 f   bg_vehicleLoad.obj
 0002:0000e8e0       _BG_VehicleLoadParms       400728e0 f   bg_vehicleLoad.obj
 0002:0000ebe0       _BG_VehicleGetIndex        40072be0 f   bg_vehicleLoad.obj
 0002:0000ec30       _BG_GetVehicleModelName    40072c30 f   bg_vehicleLoad.obj
 0002:0000ed00       _BG_GetVehicleSkinName     40072d00 f   bg_vehicleLoad.obj
 0002:0000ee10       _Q_rand                    40072e10 f   q_math.obj
 0002:0000ee60       _Q_random                  40072e60 f   q_math.obj
 0002:0000eee0       _Q_crandom                 40072ee0 f   q_math.obj
 0002:0000ef50       _ClampChar                 40072f50 f   q_math.obj
 0002:0000efa0       _ClampShort                40072fa0 f   q_math.obj
 0002:0000f000       _DirToByte                 40073000 f   q_math.obj
 0002:0000f0f0       _ByteToDir                 400730f0 f   q_math.obj
 0002:0000f1b0       _ColorBytes3               400731b0 f   q_math.obj
 0002:0000f2d0       _ColorBytes4               400732d0 f   q_math.obj
 0002:0000f430       _NormalizeColor            40073430 f   q_math.obj
 0002:0000f520       _PlaneFromPoints           40073520 f   q_math.obj
 0002:0000f730       _RotatePointAroundVector   40073730 f   q_math.obj
 0002:0000fad0       _RotateAroundDirection     40073ad0 f   q_math.obj
 0002:0000fbe0       _vectoangles               40073be0 f   q_math.obj
 0002:0000fde0       _AnglesToAxis              40073de0 f   q_math.obj
 0002:0000feb0       _AxisClear                 40073eb0 f   q_math.obj
 0002:0000ff40       _AxisCopy                  40073f40 f   q_math.obj
 0002:00010000       _ProjectPointOnPlane       40074000 f   q_math.obj
 0002:000101a0       _MakeNormalVectors         400741a0 f   q_math.obj
 0002:000102c0       _VectorRotate              400742c0 f   q_math.obj
 0002:000103a0       _Q_rsqrt                   400743a0 f   q_math.obj
 0002:00010430       _Q_fabs                    40074430 f   q_math.obj
 0002:00010480       _LerpAngle                 40074480 f   q_math.obj
 0002:00010520       _AngleSubtract             40074520 f   q_math.obj
 0002:000105e0       _AnglesSubtract            400745e0 f   q_math.obj
 0002:000106a0       _AngleMod                  400746a0 f   q_math.obj
 0002:00010720       _AngleNormalize360         40074720 f   q_math.obj
 0002:000107a0       _AngleNormalize180         400747a0 f   q_math.obj
 0002:00010820       _AngleDelta                40074820 f   q_math.obj
 0002:00010890       _SetPlaneSignbits          40074890 f   q_math.obj
 0002:00010930       _BoxOnPlaneSide            40074930 f   q_math.obj
 0002:00010c00       _RadiusFromBounds          40074c00 f   q_math.obj
 0002:00010dc0       _ClearBounds               40074dc0 f   q_math.obj
 0002:00010e50       _DistanceHorizontal        40074e50 f   q_math.obj
 0002:00010f30       _DistanceHorizontalSquared 40074f30 f   q_math.obj
 0002:00010ff0       _AddPointToBounds          40074ff0 f   q_math.obj
 0002:00011110       _VectorNormalize           40075110 f   q_math.obj
 0002:00011200       _VectorNormalize2          40075200 f   q_math.obj
 0002:00011310       __VectorMA                 40075310 f   q_math.obj
 0002:00011390       __DotProduct               40075390 f   q_math.obj
 0002:00011400       __VectorSubtract           40075400 f   q_math.obj
 0002:00011470       __VectorAdd                40075470 f   q_math.obj
 0002:000114e0       __VectorCopy               400754e0 f   q_math.obj
 0002:00011540       __VectorScale              40075540 f   q_math.obj
 0002:000115b0       _Vector4Scale              400755b0 f   q_math.obj
 0002:00011630       _Q_log2                    40075630 f   q_math.obj
 0002:00011690       _MatrixMultiply            40075690 f   q_math.obj
 0002:000118c0       _AngleVectors              400758c0 f   q_math.obj
 0002:00011b60       _PerpendicularVector       40075b60 f   q_math.obj
 0002:00011cb0       _NormalToLatLong           40075cb0 f   q_math.obj
 0002:00011e30       _Rand_Init                 40075e30 f   q_math.obj
 0002:00011e70       _flrand                    40075e70 f   q_math.obj
 0002:00011f40       _Q_flrand                  40075f40 f   q_math.obj
 0002:00011fa0       _irand                     40075fa0 f   q_math.obj
 0002:00012060       _Q_irand                   40076060 f   q_math.obj
 0002:000120c0       _FIXEDpowf                 400760c0 f   q_math.obj
 0002:00012130       _DotProductNormalize       40076130 f   q_math.obj
 0002:00012210       _G_FindClosestPointOnLineSegment 40076210 f   q_math.obj
 0002:00012720       _G_PointDistFromLineSegment 40076720 f   q_math.obj
 0002:00012bd0       _GetIDForString            40076bd0 f   q_shared.obj
 0002:00012c80       _GetStringForID            40076c80 f   q_shared.obj
 0002:00012d10       _Com_Clampi                40076d10 f   q_shared.obj
 0002:00012d70       _Com_Clamp                 40076d70 f   q_shared.obj
 0002:00012de0       _COM_SkipPath              40076de0 f   q_shared.obj
 0002:00012e50       _COM_StripExtension        40076e50 f   q_shared.obj
 0002:00012ed0       _COM_DefaultExtension      40076ed0 f   q_shared.obj
 0002:00012ff0       _ShortSwap                 40076ff0 f   q_shared.obj
 0002:00013050       _ShortNoSwap               40077050 f   q_shared.obj
 0002:00013090       _LongSwap                  40077090 f   q_shared.obj
 0002:00013130       _LongNoSwap                40077130 f   q_shared.obj
 0002:00013170       _Long64Swap                40077170 f   q_shared.obj
 0002:00013220       _Long64NoSwap              40077220 f   q_shared.obj
 0002:00013260       _FloatSwap                 40077260 f   q_shared.obj
 0002:00013300       _FloatNoSwap               40077300 f   q_shared.obj
 0002:00013340       _COM_BeginParseSession     40077340 f   q_shared.obj
 0002:000133b0       _COM_GetCurrentParseLine   400773b0 f   q_shared.obj
 0002:000133f0       _COM_Parse                 400773f0 f   q_shared.obj
 0002:00013440       _COM_ParseError            40077440 f   q_shared.obj
 0002:000134d0       _COM_ParseWarning          400774d0 f   q_shared.obj
 0002:00013560       _SkipWhitespace            40077560 f   q_shared.obj
 0002:000135f0       _COM_Compress              400775f0 f   q_shared.obj
 0002:00013890       _COM_ParseExt              40077890 f   q_shared.obj
 0002:00013bc0       _COM_ParseString           40077bc0 f   q_shared.obj
 0002:00013c40       _COM_ParseInt              40077c40 f   q_shared.obj
 0002:00013ce0       _COM_ParseFloat            40077ce0 f   q_shared.obj
 0002:00013d80       _COM_ParseVec4             40077d80 f   q_shared.obj
 0002:00013e50       _COM_MatchToken            40077e50 f   q_shared.obj
 0002:00013ee0       _SkipBracedSection         40077ee0 f   q_shared.obj
 0002:00013f90       _SkipRestOfLine            40077f90 f   q_shared.obj
 0002:00014040       _Parse1DMatrix             40078040 f   q_shared.obj
 0002:00014100       _Parse2DMatrix             40078100 f   q_shared.obj
 0002:000141c0       _Parse3DMatrix             400781c0 f   q_shared.obj
 0002:00014280       _Q_isprint                 40078280 f   q_shared.obj
 0002:000142d0       _Q_islower                 400782d0 f   q_shared.obj
 0002:00014320       _Q_isupper                 40078320 f   q_shared.obj
 0002:00014370       _Q_isalpha                 40078370 f   q_shared.obj
 0002:000143d0       _Q_strrchr                 400783d0 f   q_shared.obj
 0002:00014460       _Q_strncpyz                40078460 f   q_shared.obj
 0002:00014520       _Q_stricmpn                40078520 f   q_shared.obj
 0002:00014650       _Q_strncmp                 40078650 f   q_shared.obj
 0002:00014700       _Q_stricmp                 40078700 f   q_shared.obj
 0002:00014790       _Q_strlwr                  40078790 f   q_shared.obj
 0002:00014810       _Q_strupr                  40078810 f   q_shared.obj
 0002:00014890       _Q_strcat                  40078890 f   q_shared.obj
 0002:00014920       _Q_PrintStrlen             40078920 f   q_shared.obj
 0002:00014a00       _Q_CleanStr                40078a00 f   q_shared.obj
 0002:00014af0       _Com_sprintf               40078af0 f   q_shared.obj
 0002:00014c20       _va                        40078c20 f   q_shared.obj
 0002:00014cc0       _Info_ValueForKey          40078cc0 f   q_shared.obj
 0002:00014f20       _Info_NextPair             40078f20 f   q_shared.obj
 0002:00015050       _Info_RemoveKey            40079050 f   q_shared.obj
 0002:000152b0       _Info_RemoveKey_Big        400792b0 f   q_shared.obj
 0002:00015510       _Info_Validate             40079510 f   q_shared.obj
 0002:00015590       _Info_SetValueForKey       40079590 f   q_shared.obj
 0002:000157e0       _Info_SetValueForKey_Big   400797e0 f   q_shared.obj
 0002:00015a20       _Com_Error                 40079a20 f   ui_atoms.obj
 0002:00015b00       _Com_Printf                40079b00 f   ui_atoms.obj
 0002:00015be0       _UI_ClampCvar              40079be0 f   ui_atoms.obj
 0002:00015c50       _UI_StartDemoLoop          40079c50 f   ui_atoms.obj
 0002:00015cb0       _UI_Argv                   40079cb0 f   ui_atoms.obj
 0002:00015d10       _UI_Cvar_VariableString    40079d10 f   ui_atoms.obj
 0002:00015d70       _UI_SetBestScores          40079d70 f   ui_atoms.obj
 0002:00016300       _UI_LoadBestScores         4007a300 f   ui_atoms.obj
 0002:00016520       _UI_ClearScores            4007a520 f   ui_atoms.obj
 0002:00016790       _UI_ConsoleCommand         4007a790 f   ui_atoms.obj
 0002:000171f0       _UI_Shutdown               4007b1f0 f   ui_atoms.obj
 0002:00017220       _UI_DrawNamedPic           4007b220 f   ui_atoms.obj
 0002:000172d0       _UI_DrawHandlePic          4007b2d0 f   ui_atoms.obj
 0002:000173e0       _UI_FillRect               4007b3e0 f   ui_atoms.obj
 0002:00017490       _UI_DrawSides              4007b490 f   ui_atoms.obj
 0002:00017590       _UI_DrawTopBottom          4007b590 f   ui_atoms.obj
 0002:00017690       _UI_DrawRect               4007b690 f   ui_atoms.obj
 0002:00017750       _UI_SetColor               4007b750 f   ui_atoms.obj
 0002:000177a0       _UI_UpdateScreen           4007b7a0 f   ui_atoms.obj
 0002:000177f0       _UI_DrawTextBox            4007b7f0 f   ui_atoms.obj
 0002:00017940       _UI_CursorInRect           4007b940 f   ui_atoms.obj
 0002:000179c0       _UI_InitForceShaders       4007b9c0 f   ui_force.obj
 0002:00017c20       _UI_DrawForceStars         4007bc20 f   ui_force.obj
 0002:00017e60       _UI_UpdateClientForcePowers 4007be60 f   ui_force.obj
 0002:00017fd0       _UI_TranslateFCFIndex      4007bfd0 f   ui_force.obj
 0002:00018030       _UI_SaveForceTemplate      4007c030 f   ui_force.obj
 0002:00018420       _UpdateForceUsed           4007c420 f   ui_force.obj
 0002:000189e0       _UI_ReadLegalForce         4007c9e0 f   ui_force.obj
 0002:000191d0       _UI_UpdateForcePowers      4007d1d0 f   ui_force.obj
 0002:000197c0       _UI_SkinColor_HandleKey    4007d7c0 f   ui_force.obj
 0002:000198c0       _UI_ForceSide_HandleKey    4007d8c0 f   ui_force.obj
 0002:00019b40       _UI_JediNonJedi_HandleKey  4007db40 f   ui_force.obj
 0002:00019dc0       _UI_ForceMaxRank_HandleKey 4007ddc0 f   ui_force.obj
 0002:00019ed0       _UI_ForcePowerRank_HandleKey 4007ded0 f   ui_force.obj
 0002:0001a1c0       _UI_ForceConfigHandle      4007e1c0 f   ui_force.obj
 0002:0001aa10       _UI_ParseInfos             4007ea10 f   ui_gameinfo.obj
 0002:0001ad90       _UI_LoadArenas             4007ed90 f   ui_gameinfo.obj
 0002:0001b560       _UI_LoadBots               4007f560 f   ui_gameinfo.obj
 0002:0001b9d0       _UI_GetBotInfoByNumber     4007f9d0 f   ui_gameinfo.obj
 0002:0001ba60       _UI_GetBotInfoByName       4007fa60 f   ui_gameinfo.obj
 0002:0001bb20       _UI_GetNumBots             4007fb20 f   ui_gameinfo.obj
 0002:0001bb60       _UI_GetBotNameByNumber     4007fb60 f   ui_gameinfo.obj
 0002:0001bbe0       _vmMain                    4007fbe0 f   ui_main.obj
 0002:0001bd60       _UI_AnimsetAlloc           4007fd60 f   ui_main.obj
 0002:0001be00       _UI_ParseAnimationFile     4007fe00 f   ui_main.obj
 0002:0001c3a0       _UI_TeamName               400803a0 f   ui_main.obj
 0002:0001c410       _AssetCache                40080410 f   ui_main.obj
 0002:0001c6a0       __UI_DrawSides             400806a0 f   ui_main.obj
 0002:0001c7b0       __UI_DrawTopBottom         400807b0 f   ui_main.obj
 0002:0001c8c0       __UI_DrawRect              400808c0 f   ui_main.obj
 0002:0001c990       _MenuFontToHandle          40080990 f   ui_main.obj
 0002:0001ca40       _Text_Width                40080a40 f   ui_main.obj
 0002:0001cab0       _Text_Height               40080ab0 f   ui_main.obj
 0002:0001cb20       _Text_Paint                40080b20 f   ui_main.obj
 0002:0001cc80       _Text_PaintWithCursor      40080c80 f   ui_main.obj
 0002:0001cf30       _UI_ShowPostGame           40080f30 f   ui_main.obj
 0002:0001cfd0       _UI_DrawCenteredPic        40080fd0 f   ui_main.obj
 0002:0001d070       _UI_GetStringEdString      40081070 f   ui_main.obj
 0002:0001d0f0       __UI_Refresh               400810f0 f   ui_main.obj
 0002:0001d480       __UI_Shutdown              40081480 f   ui_main.obj
 0002:0001d4d0       _GetMenuBuffer             400814d0 f   ui_main.obj
 0002:0001d620       _Asset_Parse               40081620 f   ui_main.obj
 0002:0001e1b0       _UI_Report                 400821b0 f   ui_main.obj
 0002:0001e200       _UI_ParseMenu              40082200 f   ui_main.obj
 0002:0001e390       _Load_Menu                 40082390 f   ui_main.obj
 0002:0001e4d0       _UI_LoadMenus              400824d0 f   ui_main.obj
 0002:0001e6c0       _UI_Load                   400826c0 f   ui_main.obj
 0002:0001e840       _UI_HasSetSaberOnly        40082840 f   ui_main.obj
 0002:0001ea20       _UI_TrueJediEnabled        40082a20 f   ui_main.obj
 0002:0001ec80       _UpdateBotButtons          40082c80 f   ui_main.obj
 0002:0001ed50       _UpdateForceStatus         40082d50 f   ui_main.obj
 0002:0001f470       _UI_ServersSort            40083470 f   ui_main.obj
 0002:0001f560       _UI_UpdateVideoSetup       40083560 f   ui_main.obj
 0002:0001f7d0       _UI_GetVideoSetup          400837d0 f   ui_main.obj
 0002:0001fc40       _UI_SetSiegeObjectiveGraphicPos 40083c40 f   ui_main.obj
 0002:0001fe90       _UI_FindCurrentSiegeTeamClass 40083e90 f   ui_main.obj
 0002:00020080       _UI_UpdateSiegeObjectiveGraphics 40084080 f   ui_main.obj
 0002:00020310       _UI_UpdateCharacterSkin    40084310 f   ui_main.obj
 0002:00020510       _UI_ClampMaxPlayers        40084510 f   ui_main.obj
 0002:00020690       _UI_UpdateSiegeStatusIcons 40084690 f   ui_main.obj
 0002:00020870       _UI_hasSkinForBase         40084870 f   ui_main.obj
 0002:00021bd0       _UI_SiegeClassNum          40085bd0 f   ui_main.obj
 0002:00021c50       _UI_SetSiegeTeams          40085c50 f   ui_main.obj
 0002:000221b0       _UI_SiegeSetCvarsForClass  400861b0 f   ui_main.obj
 0002:00022900       _UI_UpdateCvarsForClass    40086900 f   ui_main.obj
 0002:00022ab0       _UI_FeederSelection        40086ab0 f   ui_main.obj
 0002:00024380       _UI_LoadForceConfig_List   40088380 f   ui_main.obj
 0002:00024670       _UI_SiegeInit              40088670 f   ui_main.obj
 0002:00024710       __UI_Init                  40088710 f   ui_main.obj
 0002:000396b0       __UI_KeyEvent              4009d6b0 f   ui_main.obj
 0002:00039780       __UI_MouseEvent            4009d780 f   ui_main.obj
 0002:00039870       _UI_LoadNonIngame          4009d870 f   ui_main.obj
 0002:00039900       __UI_SetActiveMenu         4009d900 f   ui_main.obj
 0002:00039ce0       __UI_IsFullscreen          4009dce0 f   ui_main.obj
 0002:00039d30       _Text_PaintCenter          4009dd30 f   ui_main.obj
 0002:00039e00       _UI_DrawConnectScreen      4009de00 f   ui_main.obj
 0002:0003b340       _UI_RegisterCvars          4009f340 f   ui_main.obj
 0002:0003b3f0       _UI_UpdateCvars            4009f3f0 f   ui_main.obj
 0002:0003b9f0       _UI_CacheSaberGlowGraphics 4009f9f0 f   ui_saber.obj
 0002:0003bb40       _UI_ParseLiteral           4009fb40 f   ui_saber.obj
 0002:0003bc00       _UI_ParseLiteralSilent     4009fc00 f   ui_saber.obj
 0002:0003bc90       _UI_SaberParseParm         4009fc90 f   ui_saber.obj
 0002:0003bec0       _UI_SaberModelForSaber     4009fec0 f   ui_saber.obj
 0002:0003bf20       _UI_SaberSkinForSaber      4009ff20 f   ui_saber.obj
 0002:0003bf80       _UI_SaberTypeForSaber      4009ff80 f   ui_saber.obj
 0002:0003bfe0       _UI_SaberNumBladesForSaber 4009ffe0 f   ui_saber.obj
 0002:0003c0f0       _UI_SaberShouldDrawBlade   400a00f0 f   ui_saber.obj
 0002:0003c2d0       _UI_IsSaberTwoHanded       400a02d0 f   ui_saber.obj
 0002:0003c3d0       _UI_SaberBladeLengthForSaber 400a03d0 f   ui_saber.obj
 0002:0003c550       _UI_SaberBladeRadiusForSaber 400a0550 f   ui_saber.obj
 0002:0003c6d0       _UI_SaberProperNameForSaber 400a06d0 f   ui_saber.obj
 0002:0003c800       _UI_SaberValidForPlayerInMP 400a0800 f   ui_saber.obj
 0002:0003c900       _UI_SaberLoadParms         400a0900 f   ui_saber.obj
 0002:0003cc00       _UI_DoSaber                400a0c00 f   ui_saber.obj
 0002:0003d1b0       _SaberColorToString        400a11b0 f   ui_saber.obj
 0002:0003d250       _TranslateSaberColor       400a1250 f   ui_saber.obj
 0002:0003d3a0       _TranslateSaberType        400a13a0 f   ui_saber.obj
 0002:0003d5b0       _UI_SaberDrawBlade         400a15b0 f   ui_saber.obj
 0002:0003f040       _UI_GetSaberForMenu        400a3040 f   ui_saber.obj
 0002:0003f2c0       _UI_SaberDrawBlades        400a32c0 f   ui_saber.obj
 0002:0003f620       _UI_SaberAttachToChar      400a3620 f   ui_saber.obj
 0002:0003f940       _UI_SaberGetHiltInfo       400a3940 f   ui_saber.obj
 0002:0003fb40       _UI_Alloc                  400a3b40 f   ui_shared.obj
 0002:0003fc10       _UI_InitMemory             400a3c10 f   ui_shared.obj
 0002:0003fc60       _UI_OutOfMemory            400a3c60 f   ui_shared.obj
 0002:0003fca0       _String_Alloc              400a3ca0 f   ui_shared.obj
 0002:0003ff60       _String_Report             400a3f60 f   ui_shared.obj
 0002:00040070       _String_Init               400a4070 f   ui_shared.obj
 0002:00040150       _PC_SourceWarning          400a4150 f   ui_shared.obj
 0002:00040280       _PC_SourceError            400a4280 f   ui_shared.obj
 0002:000403b0       _LerpColor                 400a43b0 f   ui_shared.obj
 0002:00040490       _Float_Parse               400a4490 f   ui_shared.obj
 0002:00040520       _PC_Float_Parse            400a4520 f   ui_shared.obj
 0002:00040680       _Color_Parse               400a4680 f   ui_shared.obj
 0002:00040750       _PC_Color_Parse            400a4750 f   ui_shared.obj
 0002:00040820       _Int_Parse                 400a4820 f   ui_shared.obj
 0002:000408b0       _PC_Int_Parse              400a48b0 f   ui_shared.obj
 0002:00040a10       _Rect_Parse                400a4a10 f   ui_shared.obj
 0002:00040ad0       _PC_Rect_Parse             400a4ad0 f   ui_shared.obj
 0002:00040b90       _String_Parse              400a4b90 f   ui_shared.obj
 0002:00040c30       _PC_String_Parse           400a4c30 f   ui_shared.obj
 0002:00040d30       _PC_Script_Parse           400a4d30 f   ui_shared.obj
 0002:00040f30       _Init_Display              400a4f30 f   ui_shared.obj
 0002:00040f70       _GradientBar_Paint         400a4f70 f   ui_shared.obj
 0002:00041050       _Window_Init               400a5050 f   ui_shared.obj
 0002:000410f0       _Fade                      400a50f0 f   ui_shared.obj
 0002:00041200       _Window_Paint              400a5200 f   ui_shared.obj
 0002:00041ba0       _Item_SetScreenCoords      400a5ba0 f   ui_shared.obj
 0002:00041ce0       _Item_UpdatePosition       400a5ce0 f   ui_shared.obj
 0002:00041db0       _Menu_UpdatePosition       400a5db0 f   ui_shared.obj
 0002:00041e90       _Menu_PostParse            400a5e90 f   ui_shared.obj
 0002:00041f30       _Menu_ClearFocus           400a5f30 f   ui_shared.obj
 0002:00042070       _IsVisible                 400a6070 f   ui_shared.obj
 0002:000420e0       _Rect_ContainsPoint        400a60e0 f   ui_shared.obj
 0002:00042190       _Menu_ItemsMatchingGroup   400a6190 f   ui_shared.obj
 0002:000422d0       _Menu_GetMatchingItemByNumber 400a62d0 f   ui_shared.obj
 0002:000423e0       _Script_SetColor           400a63e0 f   ui_shared.obj
 0002:000425a0       _Script_SetAsset           400a65a0 f   ui_shared.obj
 0002:00042630       _Script_SetBackground      400a6630 f   ui_shared.obj
 0002:000426f0       _Script_SetItemRectCvar    400a66f0 f   ui_shared.obj
 0002:00042a80       _Script_SetItemBackground  400a6a80 f   ui_shared.obj
 0002:00042b70       _Script_SetItemText        400a6b70 f   ui_shared.obj
 0002:00042c60       _Menu_FindItemByName       400a6c60 f   ui_shared.obj
 0002:00042d20       _Script_SetTeamColor       400a6d20 f   ui_shared.obj
 0002:00042e10       _Script_SetItemColor       400a6e10 f   ui_shared.obj
 0002:000430f0       _Script_SetItemColorCvar   400a70f0 f   ui_shared.obj
 0002:000435c0       _Script_SetItemRect        400a75c0 f   ui_shared.obj
 0002:00043760       _Menu_ShowGroup            400a7760 f   ui_shared.obj
 0002:00043830       _Menu_ShowItemByName       400a7830 f   ui_shared.obj
 0002:00043950       _Menu_FadeItemByName       400a7950 f   ui_shared.obj
 0002:00043a50       _Menus_FindByName          400a7a50 f   ui_shared.obj
 0002:00043b00       _Menus_ShowByName          400a7b00 f   ui_shared.obj
 0002:00043b70       _Menus_OpenByName          400a7b70 f   ui_shared.obj
 0002:00043bc0       _Menus_CloseByName         400a7bc0 f   ui_shared.obj
 0002:00043d80       _Menus_CloseAll            400a7d80 f   ui_shared.obj
 0002:00043e50       _Script_Show               400a7e50 f   ui_shared.obj
 0002:00043f00       _Script_Hide               400a7f00 f   ui_shared.obj
 0002:00043fb0       _Script_FadeIn             400a7fb0 f   ui_shared.obj
 0002:00044060       _Script_FadeOut            400a8060 f   ui_shared.obj
 0002:00044110       _Script_Open               400a8110 f   ui_shared.obj
 0002:000441c0       _Script_Close              400a81c0 f   ui_shared.obj
 0002:00044290       _Menu_TransitionItemByName 400a8290 f   ui_shared.obj
 0002:000444a0       _Menu_Transition3ItemByName 400a84a0 f   ui_shared.obj
 0002:000447d0       _Script_Defer              400a87d0 f   ui_shared.obj
 0002:00044870       _Script_RunDeferred        400a8870 f   ui_shared.obj
 0002:000448f0       _Script_Transition         400a88f0 f   ui_shared.obj
 0002:00044a80       _Menu_OrbitItemByName      400a8a80 f   ui_shared.obj
 0002:00044b80       _Menu_ItemDisable          400a8b80 f   ui_shared.obj
 0002:00044c40       _Script_Disable            400a8c40 f   ui_shared.obj
 0002:00044db0       _Script_Scale              400a8db0 f   ui_shared.obj
 0002:00045020       _Script_Orbit              400a9020 f   ui_shared.obj
 0002:000451e0       _Script_SetFocus           400a91e0 f   ui_shared.obj
 0002:00045360       _Script_SetPlayerModel     400a9360 f   ui_shared.obj
 0002:00045420       _ParseRect                 400a9420 f   ui_shared.obj
 0002:000454e0       _Script_Transition2        400a94e0 f   ui_shared.obj
 0002:00045650       _Script_Transition3        400a9650 f   ui_shared.obj
 0002:00045980       _Script_SetCvar            400a9980 f   ui_shared.obj
 0002:00045a70       _Script_SetCvarToCvar      400a9a70 f   ui_shared.obj
 0002:00045bc0       _Script_Exec               400a9bc0 f   ui_shared.obj
 0002:00045c90       _Script_Play               400a9c90 f   ui_shared.obj
 0002:00045d70       _Script_playLooped         400a9d70 f   ui_shared.obj
 0002:00045e50       _Menu_SetItemBackground    400a9e50 f   ui_shared.obj
 0002:00045f30       _Menu_SetItemText          400a9f30 f   ui_shared.obj
 0002:000460d0       _Item_RunScript            400aa0d0 f   ui_shared.obj
 0002:00046330       _Item_EnableShowViaCvar    400aa330 f   ui_shared.obj
 0002:000465d0       _Item_SetFocus             400aa5d0 f   ui_shared.obj
 0002:00046920       _Item_TextScroll_MaxScroll 400aa920 f   ui_shared.obj
 0002:000469b0       _Item_TextScroll_ThumbPosition 400aa9b0 f   ui_shared.obj
 0002:00046aa0       _Item_TextScroll_ThumbDrawPosition 400aaaa0 f   ui_shared.obj
 0002:00046bc0       _Item_TextScroll_OverLB    400aabc0 f   ui_shared.obj
 0002:00046e00       _Item_TextScroll_MouseEnter 400aae00 f   ui_shared.obj
 0002:00046e90       _Item_TextScroll_HandleKey 400aae90 f   ui_shared.obj
 0002:000471e0       _Item_ListBox_MaxScroll    400ab1e0 f   ui_shared.obj
 0002:000472e0       _Item_ListBox_ThumbPosition 400ab2e0 f   ui_shared.obj
 0002:00047460       _Item_ListBox_ThumbDrawPosition 400ab460 f   ui_shared.obj
 0002:00047670       _Item_Slider_ThumbPosition 400ab670 f   ui_shared.obj
 0002:000477e0       _Item_Slider_OverSlider    400ab7e0 f   ui_shared.obj
 0002:000478d0       _Item_ListBox_OverLB       400ab8d0 f   ui_shared.obj
 0002:00047e30       _Item_ListBox_MouseEnter   400abe30 f   ui_shared.obj
 0002:00048180       _Item_MouseEnter           400ac180 f   ui_shared.obj
 0002:00048430       _Item_MouseLeave           400ac430 f   ui_shared.obj
 0002:000484f0       _Menu_HitTest              400ac4f0 f   ui_shared.obj
 0002:000485a0       _Item_SetMouseOver         400ac5a0 f   ui_shared.obj
 0002:00048610       _Item_OwnerDraw_HandleKey  400ac610 f   ui_shared.obj
 0002:00048750       _Item_ListBox_HandleKey    400ac750 f   ui_shared.obj
 0002:00049270       _Item_YesNo_HandleKey      400ad270 f   ui_shared.obj
 0002:000493f0       _Item_Multi_CountSettings  400ad3f0 f   ui_shared.obj
 0002:00049450       _Item_Multi_FindCvarByValue 400ad450 f   ui_shared.obj
 0002:00049650       _Item_Multi_Setting        400ad650 f   ui_shared.obj
 0002:00049890       _Item_Multi_HandleKey      400ad890 f   ui_shared.obj
 0002:00049b70       _Leaving_EditField         400adb70 f   ui_shared.obj
 0002:00049be0       _Item_TextField_HandleKey  400adbe0 f   ui_shared.obj
 0002:0004a4f0       _Item_StartCapture         400ae4f0 f   ui_shared.obj
 0002:0004b2f0       _Item_StopCapture          400af2f0 f   ui_shared.obj
 0002:0004b320       _Item_Slider_HandleKey     400af320 f   ui_shared.obj
 0002:0004b5e0       _Item_HandleKey            400af5e0 f   ui_shared.obj
 0002:0004b8b0       _Item_HandleAccept         400af8b0 f   ui_shared.obj
 0002:0004b930       _Item_Action               400af930 f   ui_shared.obj
 0002:0004b9a0       _Menu_SetPrevCursorItem    400af9a0 f   ui_shared.obj
 0002:0004bba0       _Menu_SetNextCursorItem    400afba0 f   ui_shared.obj
 0002:0004bd90       _Menus_Activate            400afd90 f   ui_shared.obj
 0002:0004c0f0       _Display_VisibleMenuCount  400b00f0 f   ui_shared.obj
 0002:0004c180       _Menus_HandleOOBClick      400b0180 f   ui_shared.obj
 0002:0004c380       _Menu_HandleKey            400b0380 f   ui_shared.obj
 0002:0004cc20       _ToWindowCoords            400b0c20 f   ui_shared.obj
 0002:0004ccb0       _Rect_ToWindowCoords       400b0cb0 f   ui_shared.obj
 0002:0004cd10       _Item_SetTextExtents       400b0d10 f   ui_shared.obj
 0002:0004d190       _Item_TextColor            400b1190 f   ui_shared.obj
 0002:0004d530       _Item_Text_AutoWrapped_Paint 400b1530 f   ui_shared.obj
 0002:0004db00       _Item_Text_Wrapped_Paint   400b1b00 f   ui_shared.obj
 0002:0004df30       _Item_Text_Paint           400b1f30 f   ui_shared.obj
 0002:0004e330       _Item_TextField_Paint      400b2330 f   ui_shared.obj
 0002:0004e830       _Item_YesNo_Paint          400b2830 f   ui_shared.obj
 0002:0004ec70       _Item_Multi_Paint          400b2c70 f   ui_shared.obj
 0002:0004f050       _Controls_GetConfig        400b3050 f   ui_shared.obj
 0002:0004f2a0       _Controls_SetConfig        400b32a0 f   ui_shared.obj
 0002:0004f3c0       _BindingIDFromName         400b33c0 f   ui_shared.obj
 0002:0004f460       _BindingFromName           400b3460 f   ui_shared.obj
 0002:0004f650       _Item_Slider_Paint         400b3650 f   ui_shared.obj
 0002:0004f9c0       _Item_Bind_Paint           400b39c0 f   ui_shared.obj
 0002:0004ff50       _Display_KeyBindPending    400b3f50 f   ui_shared.obj
 0002:0004ff90       _Item_Bind_HandleKey       400b3f90 f   ui_shared.obj
 0002:000504f0       _UI_ScaleModelAxis         400b44f0 f   ui_shared.obj
 0002:000506e0       _Item_Model_Paint          400b46e0 f   ui_shared.obj
 0002:00051420       _Item_Image_Paint          400b5420 f   ui_shared.obj
 0002:00051520       _Item_TextScroll_Paint     400b5520 f   ui_shared.obj
 0002:00051ad0       _Item_ListBox_Paint        400b5ad0 f   ui_shared.obj
 0002:00053530       _Item_OwnerDraw_Paint      400b7530 f   ui_shared.obj
 0002:00053cb0       _Item_Paint                400b7cb0 f   ui_shared.obj
 0002:000553f0       _Menu_Init                 400b93f0 f   ui_shared.obj
 0002:000554c0       _Menu_GetFocusedItem       400b94c0 f   ui_shared.obj
 0002:00055550       _Menu_GetFocused           400b9550 f   ui_shared.obj
 0002:000555f0       _Menu_ScrollFeeder         400b95f0 f   ui_shared.obj
 0002:000556c0       _Menu_SetFeederSelection   400b96c0 f   ui_shared.obj
 0002:00055850       _Menus_AnyFullScreenVisible 400b9850 f   ui_shared.obj
 0002:000558e0       _Menus_ActivateByName      400b98e0 f   ui_shared.obj
 0002:00055a50       _Item_Init                 400b9a50 f   ui_shared.obj
 0002:00055ad0       _Menu_HandleMouseMove      400b9ad0 f   ui_shared.obj
 0002:00055df0       _Menu_Paint                400b9df0 f   ui_shared.obj
 0002:00056130       _Item_ValidateTypeData     400ba130 f   ui_shared.obj
 0002:00056340       _KeywordHash_Key           400ba340 f   ui_shared.obj
 0002:00056430       _KeywordHash_Add           400ba430 f   ui_shared.obj
 0002:000564b0       _KeywordHash_Find          400ba4b0 f   ui_shared.obj
 0002:00056550       _ItemParse_name            400ba550 f   ui_shared.obj
 0002:000565c0       _ItemParse_focusSound      400ba5c0 f   ui_shared.obj
 0002:000566b0       _ItemParse_text            400ba6b0 f   ui_shared.obj
 0002:00056720       _ItemParse_descText        400ba720 f   ui_shared.obj
 0002:00056790       _ItemParse_text2           400ba790 f   ui_shared.obj
 0002:00056800       _ItemParse_text2alignx     400ba800 f   ui_shared.obj
 0002:00056870       _ItemParse_text2aligny     400ba870 f   ui_shared.obj
 0002:000568e0       _ItemParse_group           400ba8e0 f   ui_shared.obj
 0002:00056950       _UI_InsertG2Pointer        400ba950 f   ui_shared.obj
 0002:00056a30       _UI_ClearG2Pointer         400baa30 f   ui_shared.obj
 0002:00056ab0       _UI_CleanupGhoul2          400baab0 f   ui_shared.obj
 0002:00056b40       _ItemParse_asset_model_go  400bab40 f   ui_shared.obj
 0002:00056f90       _ItemParse_asset_model     400baf90 f   ui_shared.obj
 0002:00057150       _ItemParse_asset_shader    400bb150 f   ui_shared.obj
 0002:00057240       _ItemParse_model_origin    400bb240 f   ui_shared.obj
 0002:00057300       _ItemParse_model_fovx      400bb300 f   ui_shared.obj
 0002:00057390       _ItemParse_model_fovy      400bb390 f   ui_shared.obj
 0002:00057420       _ItemParse_model_rotation  400bb420 f   ui_shared.obj
 0002:000574b0       _ItemParse_model_angle     400bb4b0 f   ui_shared.obj
 0002:00057530       _ItemParse_model_g2mins    400bb530 f   ui_shared.obj
 0002:000575f0       _ItemParse_model_g2maxs    400bb5f0 f   ui_shared.obj
 0002:000576b0       _ItemParse_model_g2scale   400bb6b0 f   ui_shared.obj
 0002:00057770       _ItemParse_model_g2skin    400bb770 f   ui_shared.obj
 0002:00057880       _ItemParse_model_g2anim    400bb880 f   ui_shared.obj
 0002:00057a00       _ItemParse_model_g2skin_go 400bba00 f   ui_shared.obj
 0002:00057af0       _ItemParse_model_g2anim_go 400bbaf0 f   ui_shared.obj
 0002:00057bf0       _ItemParse_rectcvar        400bbbf0 f   ui_shared.obj
 0002:00057e40       _ItemParse_rect            400bbe40 f   ui_shared.obj
 0002:00057eb0       _ItemParse_flag            400bbeb0 f   ui_shared.obj
 0002:00058010       _ItemParse_style           400bc010 f   ui_shared.obj
 0002:00058090       _ItemParse_decoration      400bc090 f   ui_shared.obj
 0002:000580e0       _ItemParse_notselectable   400bc0e0 f   ui_shared.obj
 0002:00058170       _ItemParse_scrollhidden    400bc170 f   ui_shared.obj
 0002:00058200       _ItemParse_wrapped         400bc200 f   ui_shared.obj
 0002:00058250       _ItemParse_autowrapped     400bc250 f   ui_shared.obj
 0002:000582a0       _ItemParse_horizontalscroll 400bc2a0 f   ui_shared.obj
 0002:000582f0       _ItemParse_type            400bc2f0 f   ui_shared.obj
 0002:00058370       _ItemParse_elementwidth    400bc370 f   ui_shared.obj
 0002:00058400       _ItemParse_elementheight   400bc400 f   ui_shared.obj
 0002:00058490       _ItemParse_feeder          400bc490 f   ui_shared.obj
 0002:00058500       _ItemParse_elementtype     400bc500 f   ui_shared.obj
 0002:000585a0       _ItemParse_columns         400bc5a0 f   ui_shared.obj
 0002:00058790       _ItemParse_border          400bc790 f   ui_shared.obj
 0002:00058800       _ItemParse_bordersize      400bc800 f   ui_shared.obj
 0002:00058870       _ItemParse_visible         400bc870 f   ui_shared.obj
 0002:00058930       _ItemParse_ownerdraw       400bc930 f   ui_shared.obj
 0002:000589b0       _ItemParse_align           400bc9b0 f   ui_shared.obj
 0002:00058a20       _ItemParse_isCharacter     400bca20 f   ui_shared.obj
 0002:00058b00       _ItemParse_textalign       400bcb00 f   ui_shared.obj
 0002:00058b80       _ItemParse_textalignx      400bcb80 f   ui_shared.obj
 0002:00058bf0       _ItemParse_textaligny      400bcbf0 f   ui_shared.obj
 0002:00058c60       _ItemParse_textscale       400bcc60 f   ui_shared.obj
 0002:00058cd0       _ItemParse_textstyle       400bccd0 f   ui_shared.obj
 0002:00058d40       _ItemParse_invertyesno     400bcd40 f   ui_shared.obj
 0002:00058db0       _ItemParse_xoffset         400bcdb0 f   ui_shared.obj
 0002:00058e20       _ItemParse_backcolor       400bce20 f   ui_shared.obj
 0002:00058ef0       _ItemParse_forecolor       400bcef0 f   ui_shared.obj
 0002:00059000       _ItemParse_bordercolor     400bd000 f   ui_shared.obj
 0002:000590d0       _ItemParse_outlinecolor    400bd0d0 f   ui_shared.obj
 0002:00059140       _ItemParse_background      400bd140 f   ui_shared.obj
 0002:00059230       _ItemParse_cinematic       400bd230 f   ui_shared.obj
 0002:000592a0       _ItemParse_doubleClick     400bd2a0 f   ui_shared.obj
 0002:00059340       _ItemParse_onFocus         400bd340 f   ui_shared.obj
 0002:000593b0       _ItemParse_leaveFocus      400bd3b0 f   ui_shared.obj
 0002:00059420       _ItemParse_mouseEnter      400bd420 f   ui_shared.obj
 0002:00059490       _ItemParse_mouseExit       400bd490 f   ui_shared.obj
 0002:00059500       _ItemParse_mouseEnterText  400bd500 f   ui_shared.obj
 0002:00059570       _ItemParse_mouseExitText   400bd570 f   ui_shared.obj
 0002:000595e0       _ItemParse_action          400bd5e0 f   ui_shared.obj
 0002:00059650       _ItemParse_special         400bd650 f   ui_shared.obj
 0002:000596c0       _ItemParse_cvarTest        400bd6c0 f   ui_shared.obj
 0002:00059730       _ItemParse_cvar            400bd730 f   ui_shared.obj
 0002:00059850       _ItemParse_font            400bd850 f   ui_shared.obj
 0002:000598d0       _ItemParse_maxChars        400bd8d0 f   ui_shared.obj
 0002:000599b0       _ItemParse_maxPaintChars   400bd9b0 f   ui_shared.obj
 0002:00059a90       _ItemParse_maxLineChars    400bda90 f   ui_shared.obj
 0002:00059b70       _ItemParse_lineHeight      400bdb70 f   ui_shared.obj
 0002:00059c50       _ItemParse_cvarFloat       400bdc50 f   ui_shared.obj
 0002:00059d40       _ItemParse_cvarStrList     400bdd40 f   ui_shared.obj
 0002:0005a270       _ItemParse_cvarFloatList   400be270 f   ui_shared.obj
 0002:0005a4f0       _ItemParse_addColorRange   400be4f0 f   ui_shared.obj
 0002:0005a620       _ItemParse_ownerdrawFlag   400be620 f   ui_shared.obj
 0002:0005a6d0       _ItemParse_enableCvar      400be6d0 f   ui_shared.obj
 0002:0005a750       _ItemParse_disableCvar     400be750 f   ui_shared.obj
 0002:0005a7d0       _ItemParse_showCvar        400be7d0 f   ui_shared.obj
 0002:0005a850       _ItemParse_hideCvar        400be850 f   ui_shared.obj
 0002:0005a8d0       _ItemParse_Appearance_slot 400be8d0 f   ui_shared.obj
 0002:0005a940       _ItemParse_isSaber         400be940 f   ui_shared.obj
 0002:0005aa30       _ItemParse_isSaber2        400bea30 f   ui_shared.obj
 0002:0005ab20       _Item_SetupKeywordHash     400beb20 f   ui_shared.obj
 0002:0005abd0       _Item_Parse                400bebd0 f   ui_shared.obj
 0002:0005b360       _Item_InitControls         400bf360 f   ui_shared.obj
 0002:0005b410       _MenuParse_font            400bf410 f   ui_shared.obj
 0002:0005b4e0       _MenuParse_name            400bf4e0 f   ui_shared.obj
 0002:0005b570       _MenuParse_fullscreen      400bf570 f   ui_shared.obj
 0002:0005b5e0       _MenuParse_rect            400bf5e0 f   ui_shared.obj
 0002:0005b650       _MenuParse_style           400bf650 f   ui_shared.obj
 0002:0005b6d0       _MenuParse_visible         400bf6d0 f   ui_shared.obj
 0002:0005b790       _MenuParse_onOpen          400bf790 f   ui_shared.obj
 0002:0005b800       _MenuParse_onClose         400bf800 f   ui_shared.obj
 0002:0005b870       _MenuParse_onAccept        400bf870 f   ui_shared.obj
 0002:0005b8e0       _MenuParse_onESC           400bf8e0 f   ui_shared.obj
 0002:0005b950       _MenuParse_border          400bf950 f   ui_shared.obj
 0002:0005b9c0       _MenuParse_borderSize      400bf9c0 f   ui_shared.obj
 0002:0005ba30       _MenuParse_backcolor       400bfa30 f   ui_shared.obj
 0002:0005bb00       _MenuParse_descAlignment   400bfb00 f   ui_shared.obj
 0002:0005bb80       _MenuParse_descX           400bfb80 f   ui_shared.obj
 0002:0005bbf0       _MenuParse_descY           400bfbf0 f   ui_shared.obj
 0002:0005bc60       _MenuParse_descScale       400bfc60 f   ui_shared.obj
 0002:0005bcd0       _MenuParse_descColor       400bfcd0 f   ui_shared.obj
 0002:0005bda0       _MenuParse_forecolor       400bfda0 f   ui_shared.obj
 0002:0005bec0       _MenuParse_bordercolor     400bfec0 f   ui_shared.obj
 0002:0005bf90       _MenuParse_focuscolor      400bff90 f   ui_shared.obj
 0002:0005c060       _MenuParse_disablecolor    400c0060 f   ui_shared.obj
 0002:0005c130       _MenuParse_outlinecolor    400c0130 f   ui_shared.obj
 0002:0005c1a0       _MenuParse_background      400c01a0 f   ui_shared.obj
 0002:0005c2a0       _MenuParse_cinematic       400c02a0 f   ui_shared.obj
 0002:0005c310       _MenuParse_ownerdrawFlag   400c0310 f   ui_shared.obj
 0002:0005c3d0       _MenuParse_ownerdraw       400c03d0 f   ui_shared.obj
 0002:0005c440       _MenuParse_popup           400c0440 f   ui_shared.obj
 0002:0005c4a0       _MenuParse_outOfBounds     400c04a0 f   ui_shared.obj
 0002:0005c500       _MenuParse_soundLoop       400c0500 f   ui_shared.obj
 0002:0005c570       _MenuParse_fadeClamp       400c0570 f   ui_shared.obj
 0002:0005c5e0       _MenuParse_fadeAmount      400c05e0 f   ui_shared.obj
 0002:0005c650       _MenuParse_fadeCycle       400c0650 f   ui_shared.obj
 0002:0005c6c0       _MenuParse_itemDef         400c06c0 f   ui_shared.obj
 0002:0005c810       _MenuParse_appearanceIncrement 400c0810 f   ui_shared.obj
 0002:0005c880       _Menu_SetupKeywordHash     400c0880 f   ui_shared.obj
 0002:0005c930       _Menu_Parse                400c0930 f   ui_shared.obj
 0002:0005cb10       _Menu_New                  400c0b10 f   ui_shared.obj
 0002:0005cbc0       _Menu_Count                400c0bc0 f   ui_shared.obj
 0002:0005cc00       _Menu_PaintAll             400c0c00 f   ui_shared.obj
 0002:0005ce10       _Menu_Reset                400c0e10 f   ui_shared.obj
 0002:0005ce50       _Display_GetContext        400c0e50 f   ui_shared.obj
 0002:0005ce90       _Display_CaptureItem       400c0e90 f   ui_shared.obj
 0002:0005cf40       _Display_MouseMove         400c0f40 f   ui_shared.obj
 0002:0005d070       _Display_CursorType        400c1070 f   ui_shared.obj
 0002:0005d190       _Display_HandleKey         400c1190 f   ui_shared.obj
 0002:0005d220       _Display_CacheAll          400c1220 f   ui_shared.obj
 0002:0005d680       _dllEntry                  400c1680 f   ui_syscalls.obj
 0002:0005d6c0       _PASSFLOAT                 400c16c0 f   ui_syscalls.obj
 0002:0005d700       _trap_Print                400c1700 f   ui_syscalls.obj
 0002:0005d760       _trap_Error                400c1760 f   ui_syscalls.obj
 0002:0005d7c0       _trap_Milliseconds         400c17c0 f   ui_syscalls.obj
 0002:0005d820       _trap_Cvar_Register        400c1820 f   ui_syscalls.obj
 0002:0005d890       _trap_Cvar_Update          400c1890 f   ui_syscalls.obj
 0002:0005d8f0       _trap_Cvar_Set             400c18f0 f   ui_syscalls.obj
 0002:0005d960       _trap_Cvar_VariableValue   400c1960 f   ui_syscalls.obj
 0002:0005d9d0       _trap_Cvar_VariableStringBuffer 400c19d0 f   ui_syscalls.obj
 0002:0005da40       _trap_Cvar_SetValue        400c1a40 f   ui_syscalls.obj
 0002:0005dab0       _trap_Cvar_Reset           400c1ab0 f   ui_syscalls.obj
 0002:0005db10       _trap_Cvar_Create          400c1b10 f   ui_syscalls.obj
 0002:0005db80       _trap_Cvar_InfoStringBuffer 400c1b80 f   ui_syscalls.obj
 0002:0005dbf0       _trap_Argc                 400c1bf0 f   ui_syscalls.obj
 0002:0005dc50       _trap_Argv                 400c1c50 f   ui_syscalls.obj
 0002:0005dcc0       _trap_Cmd_ExecuteText      400c1cc0 f   ui_syscalls.obj
 0002:0005dd30       _trap_FS_FOpenFile         400c1d30 f   ui_syscalls.obj
 0002:0005dda0       _trap_FS_Read              400c1da0 f   ui_syscalls.obj
 0002:0005de10       _trap_FS_Write             400c1e10 f   ui_syscalls.obj
 0002:0005de80       _trap_FS_FCloseFile        400c1e80 f   ui_syscalls.obj
 0002:0005dee0       _trap_FS_GetFileList       400c1ee0 f   ui_syscalls.obj
 0002:0005df50       _trap_R_RegisterModel      400c1f50 f   ui_syscalls.obj
 0002:0005dfb0       _trap_R_RegisterSkin       400c1fb0 f   ui_syscalls.obj
 0002:0005e010       _trap_R_RegisterFont       400c2010 f   ui_syscalls.obj
 0002:0005e070       _trap_R_Font_StrLenPixels  400c2070 f   ui_syscalls.obj
 0002:0005e0f0       _trap_R_Font_StrLenChars   400c20f0 f   ui_syscalls.obj
 0002:0005e150       _trap_R_Font_HeightPixels  400c2150 f   ui_syscalls.obj
 0002:0005e1c0       _trap_R_Font_DrawString    400c21c0 f   ui_syscalls.obj
 0002:0005e250       _trap_Language_IsAsian     400c2250 f   ui_syscalls.obj
 0002:0005e2b0       _trap_Language_UsesSpaces  400c22b0 f   ui_syscalls.obj
 0002:0005e310       _trap_AnyLanguage_ReadCharFromString 400c2310 f   ui_syscalls.obj
 0002:0005e380       _trap_R_RegisterShaderNoMip 400c2380 f   ui_syscalls.obj
 0002:0005e490       _trap_R_ShaderNameFromIndex 400c2490 f   ui_syscalls.obj
 0002:0005e500       _trap_R_ClearScene         400c2500 f   ui_syscalls.obj
 0002:0005e560       _trap_R_AddRefEntityToScene 400c2560 f   ui_syscalls.obj
 0002:0005e5c0       _trap_R_AddPolyToScene     400c25c0 f   ui_syscalls.obj
 0002:0005e630       _trap_R_AddLightToScene    400c2630 f   ui_syscalls.obj
 0002:0005e6e0       _trap_R_RenderScene        400c26e0 f   ui_syscalls.obj
 0002:0005e740       _trap_R_SetColor           400c2740 f   ui_syscalls.obj
 0002:0005e7a0       _trap_R_DrawStretchPic     400c27a0 f   ui_syscalls.obj
 0002:0005e8a0       _trap_R_ModelBounds        400c28a0 f   ui_syscalls.obj
 0002:0005e910       _trap_UpdateScreen         400c2910 f   ui_syscalls.obj
 0002:0005e970       _trap_CM_LerpTag           400c2970 f   ui_syscalls.obj
 0002:0005ea00       _trap_S_StartLocalSound    400c2a00 f   ui_syscalls.obj
 0002:0005ea70       _trap_S_RegisterSound      400c2a70 f   ui_syscalls.obj
 0002:0005ead0       _trap_Key_KeynumToStringBuf 400c2ad0 f   ui_syscalls.obj
 0002:0005eb40       _trap_Key_GetBindingBuf    400c2b40 f   ui_syscalls.obj
 0002:0005ebb0       _trap_Key_SetBinding       400c2bb0 f   ui_syscalls.obj
 0002:0005ec20       _trap_Key_IsDown           400c2c20 f   ui_syscalls.obj
 0002:0005ec80       _trap_Key_GetOverstrikeMode 400c2c80 f   ui_syscalls.obj
 0002:0005ece0       _trap_Key_SetOverstrikeMode 400c2ce0 f   ui_syscalls.obj
 0002:0005ed40       _trap_Key_ClearStates      400c2d40 f   ui_syscalls.obj
 0002:0005eda0       _trap_Key_GetCatcher       400c2da0 f   ui_syscalls.obj
 0002:0005ee00       _trap_Key_SetCatcher       400c2e00 f   ui_syscalls.obj
 0002:0005ee60       _trap_GetClipboardData     400c2e60 f   ui_syscalls.obj
 0002:0005eed0       _trap_GetClientState       400c2ed0 f   ui_syscalls.obj
 0002:0005ef30       _trap_GetGlconfig          400c2f30 f   ui_syscalls.obj
 0002:0005ef90       _trap_GetConfigString      400c2f90 f   ui_syscalls.obj
 0002:0005f000       _trap_LAN_GetServerCount   400c3000 f   ui_syscalls.obj
 0002:0005f060       _trap_LAN_GetServerAddressString 400c3060 f   ui_syscalls.obj
 0002:0005f0d0       _trap_LAN_GetServerInfo    400c30d0 f   ui_syscalls.obj
 0002:0005f140       _trap_LAN_GetServerPing    400c3140 f   ui_syscalls.obj
 0002:0005f1b0       _trap_LAN_GetPingQueueCount 400c31b0 f   ui_syscalls.obj
 0002:0005f210       _trap_LAN_ServerStatus     400c3210 f   ui_syscalls.obj
 0002:0005f280       _trap_LAN_SaveCachedServers 400c3280 f   ui_syscalls.obj
 0002:0005f2e0       _trap_LAN_LoadCachedServers 400c32e0 f   ui_syscalls.obj
 0002:0005f340       _trap_LAN_ResetPings       400c3340 f   ui_syscalls.obj
 0002:0005f3a0       _trap_LAN_ClearPing        400c33a0 f   ui_syscalls.obj
 0002:0005f400       _trap_LAN_GetPing          400c3400 f   ui_syscalls.obj
 0002:0005f470       _trap_LAN_GetPingInfo      400c3470 f   ui_syscalls.obj
 0002:0005f4e0       _trap_LAN_MarkServerVisible 400c34e0 f   ui_syscalls.obj
 0002:0005f550       _trap_LAN_ServerIsVisible  400c3550 f   ui_syscalls.obj
 0002:0005f5c0       _trap_LAN_UpdateVisiblePings 400c35c0 f   ui_syscalls.obj
 0002:0005f620       _trap_LAN_AddServer        400c3620 f   ui_syscalls.obj
 0002:0005f690       _trap_LAN_RemoveServer     400c3690 f   ui_syscalls.obj
 0002:0005f700       _trap_LAN_CompareServers   400c3700 f   ui_syscalls.obj
 0002:0005f770       _trap_MemoryRemaining      400c3770 f   ui_syscalls.obj
 0002:0005f7d0       _trap_PC_AddGlobalDefine   400c37d0 f   ui_syscalls.obj
 0002:0005f830       _trap_PC_LoadSource        400c3830 f   ui_syscalls.obj
 0002:0005f890       _trap_PC_FreeSource        400c3890 f   ui_syscalls.obj
 0002:0005f8f0       _trap_PC_ReadToken         400c38f0 f   ui_syscalls.obj
 0002:0005f960       _trap_PC_SourceFileAndLine 400c3960 f   ui_syscalls.obj
 0002:0005f9d0       _trap_PC_LoadGlobalDefines 400c39d0 f   ui_syscalls.obj
 0002:0005fa30       _trap_PC_RemoveAllGlobalDefines 400c3a30 f   ui_syscalls.obj
 0002:0005fa90       _trap_S_StopBackgroundTrack 400c3a90 f   ui_syscalls.obj
 0002:0005faf0       _trap_S_StartBackgroundTrack 400c3af0 f   ui_syscalls.obj
 0002:0005fb60       _trap_RealTime             400c3b60 f   ui_syscalls.obj
 0002:0005fbc0       _trap_CIN_PlayCinematic    400c3bc0 f   ui_syscalls.obj
 0002:0005fc40       _trap_CIN_StopCinematic    400c3c40 f   ui_syscalls.obj
 0002:0005fca0       _trap_CIN_RunCinematic     400c3ca0 f   ui_syscalls.obj
 0002:0005fd00       _trap_CIN_DrawCinematic    400c3d00 f   ui_syscalls.obj
 0002:0005fd60       _trap_CIN_SetExtents       400c3d60 f   ui_syscalls.obj
 0002:0005fdd0       _trap_R_RemapShader        400c3dd0 f   ui_syscalls.obj
 0002:0005fe40       _trap_SP_GetNumLanguages   400c3e40 f   ui_syscalls.obj
 0002:0005fea0       _trap_GetLanguageName      400c3ea0 f   ui_syscalls.obj
 0002:0005ff10       _trap_SP_GetStringTextString 400c3f10 f   ui_syscalls.obj
 0002:0005ff80       _trap_G2_ListModelSurfaces 400c3f80 f   ui_syscalls.obj
 0002:0005ffe0       _trap_G2_ListModelBones    400c3fe0 f   ui_syscalls.obj
 0002:00060050       _trap_G2_SetGhoul2ModelIndexes 400c4050 f   ui_syscalls.obj
 0002:000600c0       _trap_G2_HaveWeGhoul2Models 400c40c0 f   ui_syscalls.obj
 0002:00060120       _trap_G2API_GetBoltMatrix  400c4120 f   ui_syscalls.obj
 0002:000601b0       _trap_G2API_GetBoltMatrix_NoReconstruct 400c41b0 f   ui_syscalls.obj
 0002:00060240       _trap_G2API_GetBoltMatrix_NoRecNoRot 400c4240 f   ui_syscalls.obj
 0002:000602d0       _trap_G2API_InitGhoul2Model 400c42d0 f   ui_syscalls.obj
 0002:00060350       _trap_G2API_SetSkin        400c4350 f   ui_syscalls.obj
 0002:000603c0       _trap_G2API_CollisionDetect 400c43c0 f   ui_syscalls.obj
 0002:00060470       _trap_G2API_CollisionDetectCache 400c4470 f   ui_syscalls.obj
 0002:00060520       _trap_G2API_CleanGhoul2Models 400c4520 f   ui_syscalls.obj
 0002:00060580       _trap_G2API_SetBoneAngles  400c4580 f   ui_syscalls.obj
 0002:00060620       _trap_G2API_SetBoneAnim    400c4620 f   ui_syscalls.obj
 0002:000606d0       _trap_G2API_GetBoneAnim    400c46d0 f   ui_syscalls.obj
 0002:00060760       _trap_G2API_GetBoneFrame   400c4760 f   ui_syscalls.obj
 0002:000607e0       _trap_G2API_GetGLAName     400c47e0 f   ui_syscalls.obj
 0002:00060850       _trap_G2API_CopyGhoul2Instance 400c4850 f   ui_syscalls.obj
 0002:000608c0       _trap_G2API_CopySpecificGhoul2Model 400c48c0 f   ui_syscalls.obj
 0002:00060930       _trap_G2API_DuplicateGhoul2Instance 400c4930 f   ui_syscalls.obj
 0002:000609a0       _trap_G2API_HasGhoul2ModelOnIndex 400c49a0 f   ui_syscalls.obj
 0002:00060a10       _trap_G2API_RemoveGhoul2Model 400c4a10 f   ui_syscalls.obj
 0002:00060a80       _trap_G2API_AddBolt        400c4a80 f   ui_syscalls.obj
 0002:00060af0       _trap_G2API_SetBoltInfo    400c4af0 f   ui_syscalls.obj
 0002:00060b60       _trap_G2API_SetRootSurface 400c4b60 f   ui_syscalls.obj
 0002:00060bd0       _trap_G2API_SetSurfaceOnOff 400c4bd0 f   ui_syscalls.obj
 0002:00060c40       _trap_G2API_SetNewOrigin   400c4c40 f   ui_syscalls.obj
 0002:00060cb0       _trap_G2API_GetTime        400c4cb0 f   ui_syscalls.obj
 0002:00060d10       _trap_G2API_SetTime        400c4d10 f   ui_syscalls.obj
 0002:00060d80       _trap_G2API_SetRagDoll     400c4d80 f   ui_syscalls.obj
 0002:00060df0       _trap_G2API_AnimateG2Models 400c4df0 f   ui_syscalls.obj
 0002:00060e60       _trap_G2API_SetBoneIKState 400c4e60 f   ui_syscalls.obj
 0002:00060ee0       _trap_G2API_IKMove         400c4ee0 f   ui_syscalls.obj
 0002:00060f50       _trap_G2API_GetSurfaceName 400c4f50 f   ui_syscalls.obj
 0002:00060fc0       _trap_G2API_AttachG2Model  400c4fc0 f   ui_syscalls.obj
 0002:00061040       __RTC_CheckEsp             400c5040 f   LIBCMTD:_stack_.obj
 0002:00061070       @_RTC_CheckStackVars@8     400c5070 f   LIBCMTD:_stack_.obj
 0002:000610f0       @_RTC_AllocaHelper@12      400c50f0 f   LIBCMTD:_stack_.obj
 0002:00061130       @_RTC_CheckStackVars2@12   400c5130 f   LIBCMTD:_stack_.obj
 0002:00061240       __RTC_InitBase             400c5240 f   LIBCMTD:_init_.obj
 0002:00061280       __RTC_Shutdown             400c5280 f   LIBCMTD:_init_.obj
 0002:000612a0       _atol                      400c52a0 f   LIBCMTD:atox.obj
 0002:000612c0       __atol_l                   400c52c0 f   LIBCMTD:atox.obj
 0002:000612f0       _atoi                      400c52f0 f   LIBCMTD:atox.obj
 0002:00061310       __atoi_l                   400c5310 f   LIBCMTD:atox.obj
 0002:00061330       __atoi64                   400c5330 f   LIBCMTD:atox.obj
 0002:00061350       __atoi64_l                 400c5350 f   LIBCMTD:atox.obj
 0002:00061380       _strcpy                    400c5380 f   LIBCMTD:strcat.obj
 0002:00061390       _strcat                    400c5390 f   LIBCMTD:strcat.obj
 0002:000614c0       _strlen                    400c54c0 f   LIBCMTD:strlen.obj
 0002:00061570       @__security_check_cookie@4 400c5570 f   LIBCMTD:secchk.obj
 0002:00061590       _atan2                     400c5590 f   LIBCMTD:_87ctriga_.obj
 0002:0006159a       __CIatan2                  400c559a f   LIBCMTD:_87ctriga_.obj
 0002:000615b0       __fpmath                   400c55b0 f   LIBCMTD:_fpinit_.obj
 0002:000615e0       __fpclear                  400c55e0 f   LIBCMTD:_fpinit_.obj
 0002:000615f0       __cfltcvt_init             400c55f0 f   LIBCMTD:_fpinit_.obj
 0002:00061680       ___setfflag                400c5680 f   LIBCMTD:_fpinit_.obj
 0002:000616b0       _cos                       400c56b0 f   LIBCMTD:_cos_.obj
 0002:000616f0       __CIcos                    400c56f0 f   LIBCMTD:_cos_.obj
 0002:0006172b       __CIcos_default            400c572b f   LIBCMTD:_cos_.obj
 0002:0006173f       __cos_default              400c573f     LIBCMTD:_cos_.obj
 0002:00061830       _sin                       400c5830 f   LIBCMTD:_sin_.obj
 0002:00061870       __CIsin                    400c5870 f   LIBCMTD:_sin_.obj
 0002:000618ab       __CIsin_default            400c58ab f   LIBCMTD:_sin_.obj
 0002:000618bf       __sin_default              400c58bf     LIBCMTD:_sin_.obj
 0002:000619b0       _fabs                      400c59b0 f   LIBCMTD:_fabs_.obj
 0002:00061b00       _strchr                    400c5b00 f   LIBCMTD:strchr.obj
 0002:00061b06       ___from_strstr_to_strchr   400c5b06     LIBCMTD:strchr.obj
 0002:00061c00       __alloca_probe             400c5c00     LIBCMTD:chkstk.obj
 0002:00061c00       __chkstk                   400c5c00 f   LIBCMTD:chkstk.obj
 0002:00061c40       _strcmp                    400c5c40 f   LIBCMTD:strcmp.obj
 0002:00061cf0       _memcpy                    400c5cf0 f   LIBCMTD:memcpy.obj
 0002:00062130       __atof_l                   400c6130 f   LIBCMTD:atof.obj
 0002:000622b0       ??0_LocaleUpdate@@QAE@PAUlocaleinfo_struct@@@Z 400c62b0 f i LIBCMTD:atof.obj
 0002:000623c0       ??1_LocaleUpdate@@QAE@XZ   400c63c0 f i LIBCMTD:atof.obj
 0002:00062400       ?GetLocaleT@_LocaleUpdate@@QAEPAUlocaleinfo_struct@@XZ 400c6400 f i LIBCMTD:atof.obj
 0002:00062420       _atof                      400c6420 f   LIBCMTD:atof.obj
 0002:00062440       ___strgtold12              400c6440 f   LIBCMTD:atof.obj
 0002:000624b0       ___STRINGTOLD              400c64b0 f   LIBCMTD:atof.obj
 0002:00062510       __wassert                  400c6510 f   LIBCMTD:wassert.obj
 0002:00063380       __invoke_watson_if_error   400c7380 f i LIBCMTD:wassert.obj
 0002:00063410       _sscanf                    400c7410 f   LIBCMTD:sscanf.obj
 0002:000635e0       __sscanf_l                 400c75e0 f   LIBCMTD:sscanf.obj
 0002:00063620       _sscanf_s                  400c7620 f   LIBCMTD:sscanf.obj
 0002:00063660       __sscanf_s_l               400c7660 f   LIBCMTD:sscanf.obj
 0002:000636a0       _memset                    400c76a0 f   LIBCMTD:memset.obj
 0002:00063740       __CIsqrt                   400c7740 f   LIBCMTD:_sqrt_.obj
 0002:00063754       _sqrt                      400c7754     LIBCMTD:_sqrt_.obj
 0002:00063830       _fmod                      400c7830 f   LIBCMTD:_87fmod_.obj
 0002:0006383a       __CIfmod                   400c783a f   LIBCMTD:_87fmod_.obj
 0002:00063870       __ftol2_sse                400c7870 f   LIBCMTD:ftol2.obj
 0002:00063879       __ftol2_pentium4           400c7879 f   LIBCMTD:ftol2.obj
 0002:0006388c       __ftol2_sse_excpt          400c788c f   LIBCMTD:ftol2.obj
 0002:000638a6       __ftol2                    400c78a6 f   LIBCMTD:ftol2.obj
 0002:00063950       _acos                      400c7950 f   LIBCMTD:_acos_.obj
 0002:00063990       __CIacos                   400c7990 f   LIBCMTD:_acos_.obj
 0002:000639cb       __CIacos_default           400c79cb f   LIBCMTD:_acos_.obj
 0002:000639df       __acos_default             400c79df     LIBCMTD:_acos_.obj
 0002:00063af0       __vsprintf_l               400c7af0 f   LIBCMTD:vsprintf.obj
 0002:00063cc0       _vsprintf                  400c7cc0 f   LIBCMTD:vsprintf.obj
 0002:00063cf0       __vscprintf_helper         400c7cf0 f   LIBCMTD:vsprintf.obj
 0002:00063de0       __vscprintf                400c7de0 f   LIBCMTD:vsprintf.obj
 0002:00063e10       __vscprintf_l              400c7e10 f   LIBCMTD:vsprintf.obj
 0002:00063e40       __vscprintf_p              400c7e40 f   LIBCMTD:vsprintf.obj
 0002:00063e70       __vscprintf_p_l            400c7e70 f   LIBCMTD:vsprintf.obj
 0002:00063ea0       _strncpy                   400c7ea0 f   LIBCMTD:strncpy.obj
 0002:00064010       __tolower                  400c8010 f   LIBCMTD:tolower.obj
 0002:00064020       __tolower_l                400c8020 f   LIBCMTD:tolower.obj
 0002:00064270       _tolower                   400c8270 f   LIBCMTD:tolower.obj
 0002:000642d0       __toupper                  400c82d0 f   LIBCMTD:toupper.obj
 0002:000642e0       __toupper_l                400c82e0 f   LIBCMTD:toupper.obj
 0002:00064530       _toupper                   400c8530 f   LIBCMTD:toupper.obj
 0002:00064590       _strstr                    400c8590 f   LIBCMTD:strstr.obj
 0002:00064640       _ceil                      400c8640 f   LIBCMTD:_ceil_pentium4_.obj
 0002:00064680       __ceil_pentium4            400c8680 f   LIBCMTD:_ceil_pentium4_.obj
 0002:000647b0       _floor                     400c87b0 f   LIBCMTD:_floor_pentium4_.obj
 0002:000647f0       __floor_pentium4           400c87f0 f   LIBCMTD:_floor_pentium4_.obj
 0002:00064920       _qsort                     400c8920 f   LIBCMTD:qsort.obj
 0002:00065040       _sprintf                   400c9040 f   LIBCMTD:sprintf.obj
 0002:00065220       __sprintf_l                400c9220 f   LIBCMTD:sprintf.obj
 0002:00065260       _sprintf_s                 400c9260 f   LIBCMTD:sprintf.obj
 0002:000652a0       __sprintf_s_l              400c92a0 f   LIBCMTD:sprintf.obj
 0002:000652e0       __snprintf_s               400c92e0 f   LIBCMTD:sprintf.obj
 0002:00065320       __snprintf_s_l             400c9320 f   LIBCMTD:sprintf.obj
 0002:00065360       __sprintf_p                400c9360 f   LIBCMTD:sprintf.obj
 0002:000653a0       __sprintf_p_l              400c93a0 f   LIBCMTD:sprintf.obj
 0002:000653e0       __scprintf                 400c93e0 f   LIBCMTD:sprintf.obj
 0002:00065410       __scprintf_p               400c9410 f   LIBCMTD:sprintf.obj
 0002:00065440       __scprintf_l               400c9440 f   LIBCMTD:sprintf.obj
 0002:00065470       __scprintf_p_l             400c9470 f   LIBCMTD:sprintf.obj
 0002:000654a0       _strrchr                   400c94a0 f   LIBCMTD:strrchr.obj
 0002:000654e0       _abs                       400c94e0 f   LIBCMTD:abs.obj
 0002:00065510       __abs64                    400c9510 f   LIBCMTD:abs.obj
 0002:00065570       _srand                     400c9570 f   LIBCMTD:rand.obj
 0002:00065590       _rand                      400c9590 f   LIBCMTD:rand.obj
 0002:000655e0       _DebuggerKnownHandle       400c95e0 f   LIBCMTD:_error_.obj
 0002:000656c0       ?_RTC_Failure@@YAXPAXH@Z   400c96c0 f   LIBCMTD:_error_.obj
 0002:00065a90       ?_RTC_StackFailure@@YAXPAXPBD@Z 400c9a90 f   LIBCMTD:_error_.obj
 0002:00065bd0       ?_RTC_AllocaFailure@@YAXPAXPAU_RTC_ALLOCA_NODE@@H@Z 400c9bd0 f   LIBCMTD:_error_.obj
 0002:00065de0       __RTC_UninitUse            400c9de0 f   LIBCMTD:_error_.obj
 0002:00065f10       _memmove                   400c9f10 f   LIBCMTD:memmove.obj
 0002:00066350       _tan                       400ca350 f   LIBCMTD:_tan_.obj
 0002:00066390       __CItan                    400ca390 f   LIBCMTD:_tan_.obj
 0002:000663cb       __CItan_default            400ca3cb f   LIBCMTD:_tan_.obj
 0002:000663df       __tan_default              400ca3df     LIBCMTD:_tan_.obj
 0002:000664d0       __CRT_INIT@12              400ca4d0 f   LIBCMTD:dllcrt0.obj
 0002:00066710       __DllMainCRTStartup@12     400ca710 f   LIBCMTD:dllcrt0.obj
 0002:00066970       __RTC_NumErrors            400ca970 f   LIBCMTD:_userapi_.obj
 0002:00066980       __RTC_GetErrDesc           400ca980 f   LIBCMTD:_userapi_.obj
 0002:000669a0       __RTC_SetErrorType         400ca9a0 f   LIBCMTD:_userapi_.obj
 0002:000669d0       __RTC_SetErrorFunc         400ca9d0 f   LIBCMTD:_userapi_.obj
 0002:00066a00       __RTC_SetErrorFuncW        400caa00 f   LIBCMTD:_userapi_.obj
 0002:00066a30       ?_RTC_GetErrorFunc@@YAP6AHHPBDH00ZZPBX@Z 400caa30 f   LIBCMTD:_userapi_.obj
 0002:00066a40       ?_RTC_GetErrorFuncW@@YAP6AHHPB_WH00ZZPBX@Z 400caa40 f   LIBCMTD:_userapi_.obj
 0002:00066a50       __chkesp                   400caa50 f   LIBCMTD:chkesp.obj
 0002:00066aa0       __CRT_RTC_INIT             400caaa0 f   LIBCMTD:chkesp.obj
 0002:00066ab0       __CRT_RTC_INITW            400caab0 f   LIBCMTD:chkesp.obj
 0002:00066ac0       _strtol                    400caac0 f   LIBCMTD:strtol.obj
 0002:00067140       __strtol_l                 400cb140 f   LIBCMTD:strtol.obj
 0002:00067170       _strtoul                   400cb170 f   LIBCMTD:strtol.obj
 0002:000671d0       __strtoul_l                400cb1d0 f   LIBCMTD:strtol.obj
 0002:00067200       __strtoi64                 400cb200 f   LIBCMTD:strtoq.obj
 0002:000678d0       __strtoi64_l               400cb8d0 f   LIBCMTD:strtoq.obj
 0002:00067900       __strtoui64                400cb900 f   LIBCMTD:strtoq.obj
 0002:00067960       __strtoui64_l              400cb960 f   LIBCMTD:strtoq.obj
 0002:00067990       ___report_gsfailure        400cb990 f   LIBCMTD:gs_report.obj
 0002:00067b0c       __fFATN2                   400cbb0c     LIBCMTD:_87triga_.obj
 0002:00067b5c       __rtpiby2                  400cbb5c     LIBCMTD:_87triga_.obj
 0002:00067bd0       __cintrindisp2             400cbbd0 f   LIBCMTD:_87cdisp_.obj
 0002:00067c0e       __cintrindisp1             400cbc0e f   LIBCMTD:_87cdisp_.obj
 0002:00067c4b       __ctrandisp2               400cbc4b f   LIBCMTD:_87cdisp_.obj
 0002:00067de1       __ctrandisp1               400cbde1 f   LIBCMTD:_87cdisp_.obj
 0002:00067e14       __fload                    400cbe14 f   LIBCMTD:_87cdisp_.obj
 0002:00067ef0       __setdefaultprecision      400cbef0 f   LIBCMTD:fp8.obj
 0002:00067f40       __ms_p5_test_fdiv          400cbf40 f   LIBCMTD:_testfdiv_.obj
 0002:00067fa0       __ms_p5_mp_test_fdiv       400cbfa0 f   LIBCMTD:_testfdiv_.obj
 0002:00068000       __forcdecpt                400cc000 f   LIBCMTD:cvt.obj
 0002:00068020       __forcdecpt_l              400cc020 f   LIBCMTD:cvt.obj
 0002:00068110       __cropzeros                400cc110 f   LIBCMTD:cvt.obj
 0002:00068130       __cropzeros_l              400cc130 f   LIBCMTD:cvt.obj
 0002:00068280       __positive                 400cc280 f   LIBCMTD:cvt.obj
 0002:000682c0       __fassign_l                400cc2c0 f   LIBCMTD:cvt.obj
 0002:00068330       __fassign                  400cc330 f   LIBCMTD:cvt.obj
 0002:00068360       __cftoe_l                  400cc360 f   LIBCMTD:cvt.obj
 0002:00068a00       __cftoe                    400cca00 f   LIBCMTD:cvt.obj
 0002:00068a30       __cftoa_l                  400cca30 f   LIBCMTD:cvt.obj
 0002:000693f0       ?strrchr@@YAPADPADH@Z      400cd3f0 f i LIBCMTD:cvt.obj
 0002:00069410       __cftoa                    400cd410 f   LIBCMTD:cvt.obj
 0002:00069440       __cftof_l                  400cd440 f   LIBCMTD:cvt.obj
 0002:00069940       __cftof                    400cd940 f   LIBCMTD:cvt.obj
 0002:00069970       __cftog_l                  400cd970 f   LIBCMTD:cvt.obj
 0002:00069c30       __cftog                    400cdc30 f   LIBCMTD:cvt.obj
 0002:00069c60       __cfltcvt_l                400cdc60 f   LIBCMTD:cvt.obj
 0002:00069d50       __cfltcvt                  400cdd50 f   LIBCMTD:cvt.obj
 0002:00069dd0       __initp_misc_cfltcvt_tab   400cddd0 f   LIBCMTD:cmiscdat.obj
 0002:00069e30       __sse2_mathfcns_init       400cde30 f   LIBCMTD:_mathfcns_.obj
 0002:00069e60       __set_SSE2_enable          400cde60 f   LIBCMTD:_mathfcns_.obj
 0002:00069e90       __CIcos_pentium4           400cde90 f   LIBCMTD:_cos_pentium4_.obj
 0002:00069ea8       __cos_pentium4             400cdea8     LIBCMTD:_cos_pentium4_.obj
 0002:0006a0b0       __trandisp1                400ce0b0 f   LIBCMTD:_87disp_.obj
 0002:0006a117       __trandisp2                400ce117 f   LIBCMTD:_87disp_.obj
 0002:0006a1a3       __rttospopde               400ce1a3     LIBCMTD:_87disp_.obj
 0002:0006a1a8       __rttospop                 400ce1a8     LIBCMTD:_87disp_.obj
 0002:0006a1aa       __rtnospop                 400ce1aa     LIBCMTD:_87disp_.obj
 0002:0006a1ac       __rttosnpop                400ce1ac     LIBCMTD:_87disp_.obj
 0002:0006a1ad       __rtnospopde               400ce1ad     LIBCMTD:_87disp_.obj
 0002:0006a1b4       __rtzeropop                400ce1b4     LIBCMTD:_87disp_.obj
 0002:0006a1b6       __rtzeronpop               400ce1b6     LIBCMTD:_87disp_.obj
 0002:0006a1bb       __rtonepop                 400ce1bb     LIBCMTD:_87disp_.obj
 0002:0006a1bd       __rtonenpop                400ce1bd     LIBCMTD:_87disp_.obj
 0002:0006a1c2       __tosnan1                  400ce1c2     LIBCMTD:_87disp_.obj
 0002:0006a1ed       __nosnan2                  400ce1ed     LIBCMTD:_87disp_.obj
 0002:0006a1ef       __tosnan2                  400ce1ef     LIBCMTD:_87disp_.obj
 0002:0006a217       __nan2                     400ce217     LIBCMTD:_87disp_.obj
 0002:0006a256       __rtindfpop                400ce256     LIBCMTD:_87disp_.obj
 0002:0006a258       __rtindfnpop               400ce258     LIBCMTD:_87disp_.obj
 0002:0006a269       __rttosnpopde              400ce269     LIBCMTD:_87disp_.obj
 0002:0006a273       __rtchsifneg               400ce273     LIBCMTD:_87disp_.obj
 0002:0006a2f0       __twoToTOS                 400ce2f0 f   LIBCMTD:_common_.obj
 0002:0006a305       __load_CW                  400ce305 f   LIBCMTD:_common_.obj
 0002:0006a31c       __convertTOStoQNaN         400ce31c f   LIBCMTD:_common_.obj
 0002:0006a335       __fload_withFB             400ce335 f   LIBCMTD:_common_.obj
 0002:0006a378       __checkTOS_withFB          400ce378 f   LIBCMTD:_common_.obj
 0002:0006a38e       __fast_exit                400ce38e f   LIBCMTD:_common_.obj
 0002:0006a39b       __math_exit                400ce39b f   LIBCMTD:_common_.obj
 0002:0006a3c5       __check_overflow_exit      400ce3c5 f   LIBCMTD:_common_.obj
 0002:0006a3d9       __check_range_exit         400ce3d9 f   LIBCMTD:_common_.obj
 0002:0006a4e0       __startTwoArgErrorHandling 400ce4e0 f   LIBCMTD:_genexcep_.obj
 0002:0006a4f7       __startOneArgErrorHandling 400ce4f7 f   LIBCMTD:_genexcep_.obj
 0002:0006a550       __CIsin_pentium4           400ce550 f   LIBCMTD:_sin_pentium4_.obj
 0002:0006a568       __sin_pentium4             400ce568     LIBCMTD:_sin_pentium4_.obj
 0002:0006a790       __handle_qnan1             400ce790 f   LIBCMTD:_fpexcept_.obj
 0002:0006a810       __handle_qnan2             400ce810 f   LIBCMTD:_fpexcept_.obj
 0002:0006a8a0       __except1                  400ce8a0 f   LIBCMTD:_fpexcept_.obj
 0002:0006a9e0       __except2                  400ce9e0 f   LIBCMTD:_fpexcept_.obj
 0002:0006ab30       __raise_exc_ex             400ceb30 f   LIBCMTD:_fpexcept_.obj
 0002:0006b1b0       __raise_exc                400cf1b0 f   LIBCMTD:_fpexcept_.obj
 0002:0006b1f0       __raise_excf               400cf1f0 f   LIBCMTD:_fpexcept_.obj
 0002:0006b230       __handle_exc               400cf230 f   LIBCMTD:_fpexcept_.obj
 0002:0006b600       __umatherr                 400cf600 f   LIBCMTD:_fpexcept_.obj
 0002:0006b6d0       __set_errno_from_matherr   400cf6d0 f   LIBCMTD:_fpexcept_.obj
 0002:0006b780       __errcode                  400cf780 f   LIBCMTD:_fpexcept_.obj
 0002:0006b810       __set_exp                  400cf810 f   LIBCMTD:_util_.obj
 0002:0006b860       __get_exp                  400cf860 f   LIBCMTD:_util_.obj
 0002:0006b8a0       __add_exp                  400cf8a0 f   LIBCMTD:_util_.obj
 0002:0006b8e0       __set_bexp                 400cf8e0 f   LIBCMTD:_util_.obj
 0002:0006b920       __sptype                   400cf920 f   LIBCMTD:_util_.obj
 0002:0006b9c0       __decomp                   400cf9c0 f   LIBCMTD:_util_.obj
 0002:0006bb30       __statfp                   400cfb30 f   LIBCMTD:_fpctrl_.obj
 0002:0006bb50       __clrfp                    400cfb50 f   LIBCMTD:_fpctrl_.obj
 0002:0006bb70       __ctrlfp                   400cfb70 f   LIBCMTD:_fpctrl_.obj
 0002:0006bbb0       __set_statfp               400cfbb0 f   LIBCMTD:_fpctrl_.obj
 0002:0006bc30       ___get_fpsr_sse2           400cfc30 f   LIBCMTD:_fpctrl_.obj
 0002:0006bc60       ___set_fpsr_sse2           400cfc60 f   LIBCMTD:_fpctrl_.obj
 0002:0006bd70       ___fclrf_sse2              400cfd70 f   LIBCMTD:_fpctrl_.obj
 0002:0006bda0       ___statfp_sse2             400cfda0 f   LIBCMTD:_fpctrl_.obj
 0002:0006bde0       ___clrfp_sse2              400cfde0 f   LIBCMTD:_fpctrl_.obj
 0002:0006be30       ___ctrlfp_sse2             400cfe30 f   LIBCMTD:_fpctrl_.obj
 0002:0006bea0       ___set_statfp_sse2         400cfea0 f   LIBCMTD:_fpctrl_.obj
 0002:0006bee0       __VEC_memcpy               400cfee0 f   LIBCMTD:p4_memcpy.obj
 0002:0006c0b0       __fltin2                   400d00b0 f   LIBCMTD:_cfin_.obj
 0002:0006c1c0       __chvalidator              400d01c0 f   LIBCMTD:isctype.obj
 0002:0006c220       __chvalidator_l            400d0220 f   LIBCMTD:isctype.obj
 0002:0006c300       __isctype_l                400d0300 f   LIBCMTD:isctype.obj
 0002:0006c460       __isctype                  400d0460 f   LIBCMTD:isctype.obj
 0002:0006c4b0       __initp_misc_invarg        400d04b0 f   LIBCMTD:invarg.obj
 0002:0006c4d0       __invalid_parameter        400d04d0 f   LIBCMTD:invarg.obj
 0002:0006c560       __invoke_watson            400d0560 f   LIBCMTD:invarg.obj
 0002:0006c700       __set_invalid_parameter_handler 400d0700 f   LIBCMTD:invarg.obj
 0002:0006c760       __get_invalid_parameter_handler 400d0760 f   LIBCMTD:invarg.obj
 0002:0006c7a0       ?_invalid_parameter@@YAXPBG00II@Z 400d07a0 f   LIBCMTD:invarg.obj
 0002:0006c7d0       ?_invoke_watson@@YAXPBG00II@Z 400d07d0 f   LIBCMTD:invarg.obj
 0002:0006c800       __dosmaperr                400d0800 f   LIBCMTD:dosmap.obj
 0002:0006c840       __get_errno_from_oserr     400d0840 f   LIBCMTD:dosmap.obj
 0002:0006c8e0       __set_errno                400d08e0 f   LIBCMTD:dosmap.obj
 0002:0006c920       __get_errno                400d0920 f   LIBCMTD:dosmap.obj
 0002:0006c9c0       __set_doserrno             400d09c0 f   LIBCMTD:dosmap.obj
 0002:0006ca00       __get_doserrno             400d0a00 f   LIBCMTD:dosmap.obj
 0002:0006caa0       __errno                    400d0aa0 f   LIBCMTD:dosmap.obj
 0002:0006cad0       ___doserrno                400d0ad0 f   LIBCMTD:dosmap.obj
 0002:0006cb00       __CrtSetReportHookW2       400d0b00 f   LIBCMTD:dbgrptw.obj
 0002:0006cef0       __CrtDbgReportW            400d0ef0 f   LIBCMTD:dbgrptw.obj
 0002:0006cf40       __CrtDbgReportWV           400d0f40 f i LIBCMTD:dbgrptw.obj
 0002:0006cf70       ___crtMessageWindowW       400d0f70 f   LIBCMTD:dbgrptw.obj
 0002:0006d470       __invoke_watson_if_oneof   400d1470 f i LIBCMTD:dbgrptw.obj
 0002:0006d4d0       ?_CrtDbgReportW@@YAHHPBGH00ZZ 400d14d0 f   LIBCMTD:dbgrptw.obj
 0002:0006d520       ___updatetmbcinfo          400d1520 f   LIBCMTD:mbctype.obj
 0002:0006d670       __setmbcp                  400d1670 f   LIBCMTD:mbctype.obj
 0002:0006db00       __setmbcp_nolock           400d1b00 f   LIBCMTD:mbctype.obj
 0002:0006e4e0       __getmbcp                  400d24e0 f   LIBCMTD:mbctype.obj
 0002:0006e570       ___initmbctable            400d2570 f   LIBCMTD:mbctype.obj
 0002:0006e5a0       ____setlc_active_func      400d25a0 f   LIBCMTD:setlocal.obj
 0002:0006e5b0       ____unguarded_readlc_active_add_func 400d25b0 f   LIBCMTD:setlocal.obj
 0002:0006e5c0       ___freetlocinfo            400d25c0 f   LIBCMTD:setlocal.obj
 0002:0006e960       ___addlocaleref            400d2960 f   LIBCMTD:setlocal.obj
 0002:0006ead0       ___removelocaleref         400d2ad0 f   LIBCMTD:setlocal.obj
 0002:0006ec50       ___updatetlocinfo          400d2c50 f   LIBCMTD:setlocal.obj
 0002:0006edf0       __configthreadlocale       400d2df0 f   LIBCMTD:setlocal.obj
 0002:0006ef40       __locterm                  400d2f40 f   LIBCMTD:setlocal.obj
 0002:0006f000       __free_locale              400d3000 f   LIBCMTD:setlocal.obj
 0002:0006f190       ___free_locale             400d3190 f   LIBCMTD:setlocal.obj
 0002:0006f1b0       __create_locale            400d31b0 f   LIBCMTD:setlocal.obj
 0002:0006f460       ___create_locale           400d3460 f   LIBCMTD:setlocal.obj
 0002:0006f480       __get_current_locale       400d3480 f   LIBCMTD:setlocal.obj
 0002:0006f5e0       ___get_current_locale      400d35e0 f   LIBCMTD:setlocal.obj
 0002:0006f5f0       _setlocale                 400d35f0 f   LIBCMTD:setlocal.obj
 0002:000708c0       __expandlocale             400d48c0 f   LIBCMTD:setlocal.obj
 0002:00070c10       ___init_dummy              400d4c10 f   LIBCMTD:setlocal.obj
 0002:00070c20       __strcats                  400d4c20 f   LIBCMTD:setlocal.obj
 0002:00070cc0       ___lc_strtolc              400d4cc0 f   LIBCMTD:setlocal.obj
 0002:00070f40       ___lc_lctostr              400d4f40 f   LIBCMTD:setlocal.obj
 0002:00071000       __encode_pointer           400d5000 f   LIBCMTD:tidtable.obj
 0002:000710c0       __crt_wait_module_handle   400d50c0 f i LIBCMTD:tidtable.obj
 0002:00071100       __encoded_null             400d5100 f   LIBCMTD:tidtable.obj
 0002:00071120       __decode_pointer           400d5120 f   LIBCMTD:tidtable.obj
 0002:000711e0       ___crtTlsAlloc@4           400d51e0 f   LIBCMTD:tidtable.obj
 0002:00071200       ___fls_getvalue@4          400d5200 f   LIBCMTD:tidtable.obj
 0002:00071230       ___get_flsindex            400d5230 f   LIBCMTD:tidtable.obj
 0002:00071240       ___set_flsgetvalue         400d5240 f   LIBCMTD:tidtable.obj
 0002:000712a0       ___fls_setvalue@8          400d52a0 f   LIBCMTD:tidtable.obj
 0002:000712d0       __mtinit                   400d52d0 f   LIBCMTD:tidtable.obj
 0002:00071560       __mtterm                   400d5560 f   LIBCMTD:tidtable.obj
 0002:000715d0       __initptd                  400d55d0 f   LIBCMTD:tidtable.obj
 0002:00071780       __getptd_noexit            400d5780 f   LIBCMTD:tidtable.obj
 0002:00071870       __getptd                   400d5870 f   LIBCMTD:tidtable.obj
 0002:000718a0       __freefls@4                400d58a0 f   LIBCMTD:tidtable.obj
 0002:00071b30       __freeptd                  400d5b30 f   LIBCMTD:tidtable.obj
 0002:00071bd0       ___threadid                400d5bd0 f   LIBCMTD:tidtable.obj
 0002:00071be0       ___threadhandle            400d5be0 f   LIBCMTD:tidtable.obj
 0002:00071bf0       ___strgtold12_l            400d5bf0 f   LIBCMTD:_strgtold_.obj
 0002:00072950       ___multtenpow12            400d6950 f i LIBCMTD:_strgtold_.obj
 0002:00072a60       ___ld12mul                 400d6a60 f i LIBCMTD:_strgtold_.obj
 0002:00072f60       ___addl                    400d6f60 f i LIBCMTD:_strgtold_.obj
 0002:00072fb0       ___shl_12                  400d6fb0 f i LIBCMTD:_strgtold_.obj
 0002:00073030       ___shr_12                  400d7030 f i LIBCMTD:_strgtold_.obj
 0002:000730b0       ___STRINGTOLD_L            400d70b0 f   LIBCMTD:_strgtold_.obj
 0002:00073140       __crt_waiting_on_module_handle 400d7140 f   LIBCMTD:crt0dat.obj
 0002:000731b0       __cinit                    400d71b0 f   LIBCMTD:crt0dat.obj
 0002:00073280       _exit                      400d7280 f   LIBCMTD:crt0dat.obj
 0002:000732a0       __exit                     400d72a0 f   LIBCMTD:crt0dat.obj
 0002:000732c0       __cexit                    400d72c0 f   LIBCMTD:crt0dat.obj
 0002:000732e0       __c_exit                   400d72e0 f   LIBCMTD:crt0dat.obj
 0002:00073300       __amsg_exit                400d7300 f   LIBCMTD:crt0dat.obj
 0002:00073350       ___freeCrtMemory           400d7350 f   LIBCMTD:crt0dat.obj
 0002:00073770       ___crtCorExitProcess       400d7770 f   LIBCMTD:crt0dat.obj
 0002:000737c0       ___crtExitProcess          400d77c0 f   LIBCMTD:crt0dat.obj
 0002:000737f0       __lockexit                 400d77f0 f   LIBCMTD:crt0dat.obj
 0002:00073810       __unlockexit               400d7810 f   LIBCMTD:crt0dat.obj
 0002:00073830       __init_pointers            400d7830 f   LIBCMTD:crt0dat.obj
 0002:00073920       __initterm_e               400d7920 f   LIBCMTD:crt0dat.obj
 0002:00073970       __get_wpgmptr              400d7970 f   LIBCMTD:crt0dat.obj
 0002:00073aa0       __get_pgmptr               400d7aa0 f   LIBCMTD:crt0dat.obj
 0002:00073bd0       __initp_misc_winsig        400d7bd0 f   LIBCMTD:winsig.obj
 0002:00073c10       _signal                    400d7c10 f   LIBCMTD:winsig.obj
 0002:000741e0       _raise                     400d81e0 f   LIBCMTD:winsig.obj
 0002:00074630       ___get_sigabrt             400d8630 f   LIBCMTD:winsig.obj
 0002:00074650       ___fpecode                 400d8650 f   LIBCMTD:winsig.obj
 0002:00074670       ___pxcptinfoptrs           400d8670 f   LIBCMTD:winsig.obj
 0002:00074690       ___crtMessageBoxW          400d8690 f   LIBCMTD:crtmboxw.obj
 0002:00074940       __itow_s                   400d8940 f   LIBCMTD:xtows.obj
 0002:00074e10       __ltow_s                   400d8e10 f   LIBCMTD:xtows.obj
 0002:00074e60       __ultow_s                  400d8e60 f   LIBCMTD:xtows.obj
 0002:00074e90       __i64tow_s                 400d8e90 f   LIBCMTD:xtows.obj
 0002:000753b0       __ui64tow_s                400d93b0 f   LIBCMTD:xtows.obj
 0002:000753e0       _wcsncat_s                 400d93e0 f   LIBCMTD:wcsncat_s.obj
 0002:000759c0       _wcsncpy_s                 400d99c0 f   LIBCMTD:wcsncpy_s.obj
 0002:00075ed0       _wcscat_s                  400d9ed0 f   LIBCMTD:wcscat_s.obj
 0002:000763b0       _wcscpy_s                  400da3b0 f   LIBCMTD:wcscpy_s.obj
 0002:00076750       _fflush                    400da750 f   LIBCMTD:fflush.obj
 0002:00076810       __fflush_nolock            400da810 f   LIBCMTD:fflush.obj
 0002:00076880       __flush                    400da880 f   LIBCMTD:fflush.obj
 0002:00076970       __flushall                 400da970 f   LIBCMTD:fflush.obj
 0002:00076ba0       _fwprintf                  400daba0 f   LIBCMTD:fwprintf.obj
 0002:00076d80       __fwprintf_l               400dad80 f   LIBCMTD:fwprintf.obj
 0002:00076dc0       __fwprintf_s_l             400dadc0 f   LIBCMTD:fwprintf.obj
 0002:00076e00       _fwprintf_s                400dae00 f   LIBCMTD:fwprintf.obj
 0002:00076e30       __fwprintf_p_l             400dae30 f   LIBCMTD:fwprintf.obj
 0002:00076e70       __fwprintf_p               400dae70 f   LIBCMTD:fwprintf.obj
 0002:00076ea0       _setvbuf                   400daea0 f   LIBCMTD:setvbuf.obj
 0002:00077230       ___iob_func                400db230 f   LIBCMTD:_file.obj
 0002:00077240       ___initstdio               400db240 f   LIBCMTD:_file.obj
 0002:000773e0       ___endstdio                400db3e0 f   LIBCMTD:_file.obj
 0002:00077420       __lock_file                400db420 f   LIBCMTD:_file.obj
 0002:00077490       __lock_file2               400db490 f   LIBCMTD:_file.obj
 0002:000774e0       __unlock_file              400db4e0 f   LIBCMTD:_file.obj
 0002:00077550       __unlock_file2             400db550 f   LIBCMTD:_file.obj
 0002:000775a0       _abort                     400db5a0 f   LIBCMTD:abort.obj
 0002:00077720       __set_abort_behavior       400db720 f   LIBCMTD:abort.obj
 0002:00077760       _wcslen                    400db760 f   LIBCMTD:wcslen.obj
 0002:000777a0       __set_error_mode           400db7a0 f   LIBCMTD:errmode.obj
 0002:00077890       ___set_app_type            400db890 f   LIBCMTD:errmode.obj
 0002:000778b0       ___get_app_type            400db8b0 f   LIBCMTD:errmode.obj
 0002:000778c0       __vswprintf_helper         400db8c0 f   LIBCMTD:vswprnc.obj
 0002:00077b80       __vswprintf_c              400dbb80 f   LIBCMTD:vswprnc.obj
 0002:00077be0       __vswprintf_c_l            400dbbe0 f   LIBCMTD:vswprnc.obj
 0002:00077c40       __vswprintf_s_l            400dbc40 f   LIBCMTD:vswprnc.obj
 0002:00077f40       _vswprintf_s               400dbf40 f   LIBCMTD:vswprnc.obj
 0002:00077f70       __vsnwprintf_s_l           400dbf70 f   LIBCMTD:vswprnc.obj
 0002:00078410       __vsnwprintf_s             400dc410 f   LIBCMTD:vswprnc.obj
 0002:00078440       __vswprintf_p              400dc440 f   LIBCMTD:vswprnc.obj
 0002:000784a0       __vswprintf_p_l            400dc4a0 f   LIBCMTD:vswprnc.obj
 0002:00078500       __input_l                  400dc500 f   LIBCMTD:input.obj
 0002:0007a350       __INTRN_LOCALE_CONV        400de350 f i LIBCMTD:input.obj
 0002:0007a4c0       __input_s_l                400de4c0 f   LIBCMTD:inputs.obj
 0002:0007c900       __VEC_memzero              400e0900 f   LIBCMTD:p4_memset.obj
 0002:0007ca30       _fdiv_main_routine         400e0a30 f   LIBCMTD:_adj_fdiv_.obj
 0002:0007cb47       __adj_fdiv_r               400e0b47 f   LIBCMTD:_adj_fdiv_.obj
 0002:0007cfe6       __fdivp_sti_st             400e0fe6 f   LIBCMTD:_adj_fdiv_.obj
 0002:0007cff9       __fdivrp_sti_st            400e0ff9 f   LIBCMTD:_adj_fdiv_.obj
 0002:0007d00c       __adj_fdiv_m32             400e100c f   LIBCMTD:_adj_fdiv_.obj
 0002:0007d058       __adj_fdiv_m64             400e1058 f   LIBCMTD:_adj_fdiv_.obj
 0002:0007d0a4       __adj_fdiv_m16i            400e10a4 f   LIBCMTD:_adj_fdiv_.obj
 0002:0007d0d8       __adj_fdiv_m32i            400e10d8 f   LIBCMTD:_adj_fdiv_.obj
 0002:0007d10c       __adj_fdivr_m32            400e110c f   LIBCMTD:_adj_fdiv_.obj
 0002:0007d158       __adj_fdivr_m64            400e1158 f   LIBCMTD:_adj_fdiv_.obj
 0002:0007d1a4       __adj_fdivr_m16i           400e11a4 f   LIBCMTD:_adj_fdiv_.obj
 0002:0007d1d8       __adj_fdivr_m32i           400e11d8 f   LIBCMTD:_adj_fdiv_.obj
 0002:0007d20c       __safe_fdiv                400e120c f   LIBCMTD:_adj_fdiv_.obj
 0002:0007d221       __safe_fdivr               400e1221 f   LIBCMTD:_adj_fdiv_.obj
 0002:0007d236       __fprem_common             400e1236 f   LIBCMTD:_adj_fdiv_.obj
 0002:0007d43c       __adj_fprem                400e143c f   LIBCMTD:_adj_fdiv_.obj
 0002:0007d4ee       __fprem1_common            400e14ee f   LIBCMTD:_adj_fdiv_.obj
 0002:0007d6f4       __adj_fprem1               400e16f4 f   LIBCMTD:_adj_fdiv_.obj
 0002:0007d7a9       __safe_fprem               400e17a9 f   LIBCMTD:_adj_fdiv_.obj
 0002:0007d7af       __safe_fprem1              400e17af f   LIBCMTD:_adj_fdiv_.obj
 0002:0007d7b5       __adj_fpatan               400e17b5 f   LIBCMTD:_adj_fdiv_.obj
 0002:0007d7b8       __adj_fptan                400e17b8 f   LIBCMTD:_adj_fdiv_.obj
 0002:0007db20       __CIacos_pentium4          400e1b20 f   LIBCMTD:_acos_pentium4_.obj
 0002:0007db38       __acos_pentium4            400e1b38     LIBCMTD:_acos_pentium4_.obj
 0002:0007e1d0       __flsbuf                   400e21d0 f   LIBCMTD:_flsbuf.obj
 0002:0007e540       __output_l                 400e2540 f   LIBCMTD:output.obj
 0002:0007fe80       _get_int_arg               400e3e80 f i LIBCMTD:output.obj
 0002:0007feb0       _get_int64_arg             400e3eb0 f i LIBCMTD:output.obj
 0002:0007fee0       _get_short_arg             400e3ee0 f i LIBCMTD:output.obj
 0002:0007ff10       __validate_param_reuseA    400e3f10 f   LIBCMTD:outputp.obj
 0002:00080220       __output_p_l               400e4220 f   LIBCMTD:outputp.obj
 0002:00084ce0       _get_crtdouble_arg         400e8ce0 f i LIBCMTD:outputp.obj
 0002:00084d10       ___crtLCMapStringA         400e8d10 f   LIBCMTD:a_map.obj
 0002:000853c0       __MarkAllocaS              400e93c0 f i LIBCMTD:a_map.obj
 0002:000853f0       __freea                    400e93f0 f i LIBCMTD:a_map.obj
 0002:000854d0       __isleadbyte_l             400e94d0 f i LIBCMTD:_wctype.obj
 0002:00085530       _isleadbyte                400e9530 f i LIBCMTD:_wctype.obj
 0002:00085550       __iswalpha_l               400e9550 f i LIBCMTD:_wctype.obj
 0002:00085580       _iswalpha                  400e9580 f i LIBCMTD:_wctype.obj
 0002:000855a0       __iswupper_l               400e95a0 f i LIBCMTD:_wctype.obj
 0002:000855c0       _iswupper                  400e95c0 f i LIBCMTD:_wctype.obj
 0002:000855e0       __iswlower_l               400e95e0 f i LIBCMTD:_wctype.obj
 0002:00085600       _iswlower                  400e9600 f i LIBCMTD:_wctype.obj
 0002:00085620       __iswdigit_l               400e9620 f i LIBCMTD:_wctype.obj
 0002:00085640       _iswdigit                  400e9640 f i LIBCMTD:_wctype.obj
 0002:00085660       __iswxdigit_l              400e9660 f i LIBCMTD:_wctype.obj
 0002:00085690       _iswxdigit                 400e9690 f i LIBCMTD:_wctype.obj
 0002:000856b0       __iswspace_l               400e96b0 f i LIBCMTD:_wctype.obj
 0002:000856d0       _iswspace                  400e96d0 f i LIBCMTD:_wctype.obj
 0002:000856f0       __iswpunct_l               400e96f0 f i LIBCMTD:_wctype.obj
 0002:00085710       _iswpunct                  400e9710 f i LIBCMTD:_wctype.obj
 0002:00085730       __iswalnum_l               400e9730 f i LIBCMTD:_wctype.obj
 0002:00085760       _iswalnum                  400e9760 f i LIBCMTD:_wctype.obj
 0002:00085780       __iswprint_l               400e9780 f i LIBCMTD:_wctype.obj
 0002:000857b0       _iswprint                  400e97b0 f i LIBCMTD:_wctype.obj
 0002:000857d0       __iswgraph_l               400e97d0 f i LIBCMTD:_wctype.obj
 0002:00085800       _iswgraph                  400e9800 f i LIBCMTD:_wctype.obj
 0002:00085820       __iswcntrl_l               400e9820 f i LIBCMTD:_wctype.obj
 0002:00085840       _iswcntrl                  400e9840 f i LIBCMTD:_wctype.obj
 0002:00085860       _iswascii                  400e9860 f i LIBCMTD:_wctype.obj
 0002:00085880       __iswcsym_l                400e9880 f i LIBCMTD:_wctype.obj
 0002:000858d0       ___iswcsym                 400e98d0 f i LIBCMTD:_wctype.obj
 0002:00085920       __iswcsymf_l               400e9920 f i LIBCMTD:_wctype.obj
 0002:00085970       ___iswcsymf                400e9970 f i LIBCMTD:_wctype.obj
 0002:000859c0       ___libm_setusermatherr     400e99c0 f   LIBCMTD:_libm_error_.obj
 0002:00085a10       ___libm_error_support      400e9a10 f   LIBCMTD:_libm_error_.obj
 0002:00086820       __ceil_default             400ea820 f   LIBCMTD:_ceil_.obj
 0002:000869b0       __floor_default            400ea9b0 f   LIBCMTD:_floor_.obj
 0002:00086b40       __vsnprintf_helper         400eab40 f   LIBCMTD:vsnprnc.obj
 0002:00086d80       __vsnprintf_c              400ead80 f   LIBCMTD:vsnprnc.obj
 0002:00086de0       __vsnprintf_c_l            400eade0 f   LIBCMTD:vsnprnc.obj
 0002:00086e40       __vsprintf_s_l             400eae40 f   LIBCMTD:vsnprnc.obj
 0002:00087140       _vsprintf_s                400eb140 f   LIBCMTD:vsnprnc.obj
 0002:00087170       __vsnprintf_s_l            400eb170 f   LIBCMTD:vsnprnc.obj
 0002:000875f0       __vsnprintf_s              400eb5f0 f   LIBCMTD:vsnprnc.obj
 0002:00087620       __vsprintf_p               400eb620 f   LIBCMTD:vsnprnc.obj
 0002:00087680       __vsprintf_p_l             400eb680 f   LIBCMTD:vsnprnc.obj
 0002:000876e0       __except_handler4          400eb6e0 f   LIBCMTD:chandler4.obj
 0002:00087990       ?_RTC_GetSrcLine@@YAHPAEPA_WKPAH1K@Z 400eb990 f   LIBCMTD:_pdblkup_.obj
 0002:00087f50       __CItan_pentium4           400ebf50 f   LIBCMTD:_tan_pentium4_.obj
 0002:00087f68       __tan_pentium4             400ebf68     LIBCMTD:_tan_pentium4_.obj
 0002:00088250       __malloc_dbg               400ec250 f   LIBCMTD:dbgheap.obj
 0002:00088290       __nh_malloc                400ec290 f   LIBCMTD:dbgheap.obj
 0002:000882c0       __nh_malloc_dbg            400ec2c0 f   LIBCMTD:dbgheap.obj
 0002:000883b0       __heap_alloc               400ec3b0 f   LIBCMTD:dbgheap.obj
 0002:00088870       __heap_alloc_dbg           400ec870 f   LIBCMTD:dbgheap.obj
 0002:000888e0       __calloc_dbg_impl          400ec8e0 f   LIBCMTD:dbgheap.obj
 0002:000889e0       __calloc_dbg               400ec9e0 f   LIBCMTD:dbgheap.obj
 0002:00088a50       __recalloc                 400eca50 f   LIBCMTD:dbgheap.obj
 0002:00088a90       __realloc_dbg              400eca90 f   LIBCMTD:dbgheap.obj
 0002:000892d0       __recalloc_dbg             400ed2d0 f   LIBCMTD:dbgheap.obj
 0002:00089410       __expand                   400ed410 f   LIBCMTD:dbgheap.obj
 0002:00089440       __expand_dbg               400ed440 f   LIBCMTD:dbgheap.obj
 0002:00089590       __free_nolock              400ed590 f   LIBCMTD:dbgheap.obj
 0002:000895b0       __free_dbg                 400ed5b0 f   LIBCMTD:dbgheap.obj
 0002:00089650       __free_dbg_nolock          400ed650 f   LIBCMTD:dbgheap.obj
 0002:00089c70       __msize                    400edc70 f   LIBCMTD:dbgheap.obj
 0002:00089c90       __msize_dbg                400edc90 f   LIBCMTD:dbgheap.obj
 0002:00089ef0       __CrtSetBreakAlloc         400edef0 f   LIBCMTD:dbgheap.obj
 0002:00089f20       __CrtSetDbgBlockType       400edf20 f   LIBCMTD:dbgheap.obj
 0002:0008a040       __CrtSetAllocHook          400ee040 f   LIBCMTD:dbgheap.obj
 0002:0008a070       __CrtGetAllocHook          400ee070 f   LIBCMTD:dbgheap.obj
 0002:0008a0e0       __CrtCheckMemory           400ee0e0 f   LIBCMTD:dbgheap.obj
 0002:0008a650       __CrtSetDbgFlag            400ee650 f   LIBCMTD:dbgheap.obj
 0002:0008a7f0       __CrtDoForAllClientObjects 400ee7f0 f   LIBCMTD:dbgheap.obj
 0002:0008a960       __CrtIsValidPointer        400ee960 f   LIBCMTD:dbgheap.obj
 0002:0008a980       __CrtIsValidHeapPointer    400ee980 f   LIBCMTD:dbgheap.obj
 0002:0008aa40       __CrtIsMemoryBlock         400eea40 f   LIBCMTD:dbgheap.obj
 0002:0008ac10       __CrtReportBlockType       400eec10 f   LIBCMTD:dbgheap.obj
 0002:0008ac50       __CrtSetDumpClient         400eec50 f   LIBCMTD:dbgheap.obj
 0002:0008ac80       __CrtGetDumpClient         400eec80 f   LIBCMTD:dbgheap.obj
 0002:0008ac90       __CrtMemCheckpoint         400eec90 f   LIBCMTD:dbgheap.obj
 0002:0008af30       __CrtMemDifference         400eef30 f   LIBCMTD:dbgheap.obj
 0002:0008b1d0       __CrtMemDumpAllObjectsSince 400ef1d0 f   LIBCMTD:dbgheap.obj
 0002:0008b800       __CrtDumpMemoryLeaks       400ef800 f   LIBCMTD:dbgheap.obj
 0002:0008b890       __CrtMemDumpStatistics     400ef890 f   LIBCMTD:dbgheap.obj
 0002:0008b9e0       __aligned_malloc           400ef9e0 f   LIBCMTD:dbgheap.obj
 0002:0008ba10       __aligned_malloc_dbg       400efa10 f   LIBCMTD:dbgheap.obj
 0002:0008ba40       __aligned_realloc          400efa40 f   LIBCMTD:dbgheap.obj
 0002:0008ba70       __aligned_recalloc         400efa70 f   LIBCMTD:dbgheap.obj
 0002:0008baa0       __aligned_realloc_dbg      400efaa0 f   LIBCMTD:dbgheap.obj
 0002:0008bad0       __aligned_recalloc_dbg     400efad0 f   LIBCMTD:dbgheap.obj
 0002:0008bb10       __aligned_offset_malloc    400efb10 f   LIBCMTD:dbgheap.obj
 0002:0008bb40       __aligned_offset_malloc_dbg 400efb40 f   LIBCMTD:dbgheap.obj
 0002:0008bd50       __aligned_offset_realloc   400efd50 f   LIBCMTD:dbgheap.obj
 0002:0008bd80       __aligned_offset_recalloc  400efd80 f   LIBCMTD:dbgheap.obj
 0002:0008bdb0       __aligned_offset_realloc_dbg 400efdb0 f   LIBCMTD:dbgheap.obj
 0002:0008c130       __aligned_offset_recalloc_dbg 400f0130 f   LIBCMTD:dbgheap.obj
 0002:0008c280       __aligned_free             400f0280 f   LIBCMTD:dbgheap.obj
 0002:0008c2a0       __aligned_free_dbg         400f02a0 f   LIBCMTD:dbgheap.obj
 0002:0008c380       __CrtSetDebugFillThreshold 400f0380 f   LIBCMTD:dbgheap.obj
 0002:0008c3b0       __CrtSetCheckCount         400f03b0 f   LIBCMTD:dbgheap.obj
 0002:0008c3d0       __CrtGetCheckCount         400f03d0 f   LIBCMTD:dbgheap.obj
 0002:0008c3e0       __aligned_msize            400f03e0 f   LIBCMTD:dbgheap.obj
 0002:0008c410       __aligned_msize_dbg        400f0410 f   LIBCMTD:dbgheap.obj
 0002:0008c560       __ioinit                   400f0560 f   LIBCMTD:ioinit.obj
 0002:0008cb30       __ioterm                   400f0b30 f   LIBCMTD:ioinit.obj
 0002:0008cc00       __setenvp                  400f0c00 f   LIBCMTD:stdenvp.obj
 0002:0008ce10       __setargv                  400f0e10 f   LIBCMTD:stdargv.obj
 0002:0008cf70       __set_pgmptr               400f0f70 f i LIBCMTD:stdargv.obj
 0002:0008d3d0       ___crtGetEnvironmentStringsA 400f13d0 f   LIBCMTD:a_env.obj
 0002:0008d670       __RTC_Initialize           400f1670 f   LIBCMTD:_initsect_.obj
 0002:0008d6a0       __RTC_Terminate            400f16a0 f   LIBCMTD:_initsect_.obj
 0002:0008d6d0       ___heap_select             400f16d0 f   LIBCMTD:heapinit.obj
 0002:0008d6f0       __heap_init                400f16f0 f   LIBCMTD:heapinit.obj
 0002:0008d790       __heap_term                400f1790 f   LIBCMTD:heapinit.obj
 0002:0008d860       __get_heap_handle          400f1860 f   LIBCMTD:heapinit.obj
 0002:0008d8b0       ___security_init_cookie    400f18b0 f   LIBCMTD:gs_support.obj
 0002:0008d9d0       __initp_misc_winxfltr      400f19d0 f   LIBCMTD:winxfltr.obj
 0002:0008d9e0       ___CppXcptFilter           400f19e0 f   LIBCMTD:winxfltr.obj
 0002:0008da10       __XcptFilter               400f1a10 f   LIBCMTD:winxfltr.obj
 0002:0008dcc0       _DllMain@12                400f1cc0 f   LIBCMTD:dllmain.obj
 0002:0008dce0       __CrtSetReportHook2        400f1ce0 f   LIBCMTD:dbgrpt.obj
 0002:0008e0d0       __CrtDbgReport             400f20d0 f   LIBCMTD:dbgrpt.obj
 0002:0008e120       __CrtDbgReportV            400f2120 f i LIBCMTD:dbgrpt.obj
 0002:0008e150       ___crtMessageWindowA       400f2150 f   LIBCMTD:dbgrpt.obj
 0002:0008e650       ?_JumpToContinuation@@YGXPAXPAUEHRegistrationNode@@@Z 400f2650 f   LIBCMTD:_trnsctrl_.obj
 0002:0008e6a0       ?_CallMemberFunction0@@YGXPAX0@Z 400f26a0 f   LIBCMTD:_trnsctrl_.obj
 0002:0008e6b0       ?_CallMemberFunction1@@YGXPAX00@Z 400f26b0 f   LIBCMTD:_trnsctrl_.obj
 0002:0008e6c0       ?_CallMemberFunction2@@YGXPAX00H@Z 400f26c0 f   LIBCMTD:_trnsctrl_.obj
 0002:0008e6d0       ?_UnwindNestedFrames@@YGXPAUEHRegistrationNode@@PAUEHExceptionRecord@@@Z 400f26d0 f   LIBCMTD:_trnsctrl_.obj
 0002:0008e740       ___CxxFrameHandler         400f2740 f   LIBCMTD:_trnsctrl_.obj
 0002:0008e790       ___CxxFrameHandler3        400f2790 f   LIBCMTD:_trnsctrl_.obj
 0002:0008e7e0       ___CxxFrameHandler2        400f27e0 f   LIBCMTD:_trnsctrl_.obj
 0002:0008e830       ___CxxLongjmpUnwind@4      400f2830 f   LIBCMTD:_trnsctrl_.obj
 0002:0008e870       ?_CallCatchBlock2@@YAPAXPAUEHRegistrationNode@@PBU_s_FuncInfo@@PAXHK@Z 400f2870 f   LIBCMTD:_trnsctrl_.obj
 0002:0008e960       ?_CallSETranslator@@YAHPAUEHExceptionRecord@@PAUEHRegistrationNode@@PAX2PBU_s_FuncInfo@@H1@Z 400f2960 f   LIBCMTD:_trnsctrl_.obj
 0002:0008eb70       ?_GetRangeOfTrysToCheck@@YAPBU_s_TryBlockMapEntry@@PBU_s_FuncInfo@@HHPAI1@Z 400f2b70 f   LIBCMTD:_trnsctrl_.obj
 0002:0008ec10       __CreateFrameInfo          400f2c10 f   LIBCMTD:_trnsctrl_.obj
 0002:0008ec50       __IsExceptionObjectToBeDestroyed 400f2c50 f   LIBCMTD:_trnsctrl_.obj
 0002:0008ec90       __FindAndUnlinkFrame       400f2c90 f   LIBCMTD:_trnsctrl_.obj
 0002:0008ed00       __allmul                   400f2d00 f   LIBCMTD:llmul.obj
 0002:0008ed50       __aullrem                  400f2d50 f   LIBCMTD:ullrem.obj
 0002:0008edf0       __aulldiv                  400f2df0 f   LIBCMTD:ulldiv.obj
 0002:0008ee80       __CrtDefaultAllocHook      400f2e80 f   LIBCMTD:dbghook.obj
 0002:0008ee90       __crt_debugger_hook        400f2e90 f   LIBCMTD:dbghook.obj
 0002:0008eeb0       __87except                 400f2eb0 f   LIBCMTD:_87except_.obj
 0002:0008f0d0       __controlfp_s              400f30d0 f   LIBCMTD:_contrlfp_.obj
 0002:0008f1f0       __isalpha_l                400f31f0 f i LIBCMTD:_ctype.obj
 0002:0008f2a0       _isalpha                   400f32a0 f i LIBCMTD:_ctype.obj
 0002:0008f2e0       __isupper_l                400f32e0 f i LIBCMTD:_ctype.obj
 0002:0008f380       _isupper                   400f3380 f i LIBCMTD:_ctype.obj
 0002:0008f3c0       __islower_l                400f33c0 f i LIBCMTD:_ctype.obj
 0002:0008f460       _islower                   400f3460 f i LIBCMTD:_ctype.obj
 0002:0008f4a0       __isdigit_l                400f34a0 f i LIBCMTD:_ctype.obj
 0002:0008f540       _isdigit                   400f3540 f i LIBCMTD:_ctype.obj
 0002:0008f580       __isxdigit_l               400f3580 f i LIBCMTD:_ctype.obj
 0002:0008f630       _isxdigit                  400f3630 f i LIBCMTD:_ctype.obj
 0002:0008f670       __isspace_l                400f3670 f i LIBCMTD:_ctype.obj
 0002:0008f710       _isspace                   400f3710 f i LIBCMTD:_ctype.obj
 0002:0008f750       __ispunct_l                400f3750 f i LIBCMTD:_ctype.obj
 0002:0008f7f0       _ispunct                   400f37f0 f i LIBCMTD:_ctype.obj
 0002:0008f830       __isalnum_l                400f3830 f i LIBCMTD:_ctype.obj
 0002:0008f8e0       _isalnum                   400f38e0 f i LIBCMTD:_ctype.obj
 0002:0008f920       __isprint_l                400f3920 f i LIBCMTD:_ctype.obj
 0002:0008f9d0       _isprint                   400f39d0 f i LIBCMTD:_ctype.obj
 0002:0008fa10       __isgraph_l                400f3a10 f i LIBCMTD:_ctype.obj
 0002:0008fac0       _isgraph                   400f3ac0 f i LIBCMTD:_ctype.obj
 0002:0008fb00       __iscntrl_l                400f3b00 f i LIBCMTD:_ctype.obj
 0002:0008fba0       _iscntrl                   400f3ba0 f i LIBCMTD:_ctype.obj
 0002:0008fbe0       ___isascii                 400f3be0 f i LIBCMTD:_ctype.obj
 0002:0008fc00       ___toascii                 400f3c00 f i LIBCMTD:_ctype.obj
 0002:0008fc10       __iscsymf_l                400f3c10 f i LIBCMTD:_ctype.obj
 0002:0008fc60       ___iscsymf                 400f3c60 f i LIBCMTD:_ctype.obj
 0002:0008fca0       __iscsym_l                 400f3ca0 f i LIBCMTD:_ctype.obj
 0002:0008fcf0       ___iscsym                  400f3cf0 f i LIBCMTD:_ctype.obj
 0002:0008fd40       __atodbl_l                 400f3d40 f   LIBCMTD:atodbl.obj
 0002:0008fe90       __atodbl                   400f3e90 f   LIBCMTD:atodbl.obj
 0002:0008feb0       __atoldbl_l                400f3eb0 f   LIBCMTD:atodbl.obj
 0002:00090000       __atoldbl                  400f4000 f   LIBCMTD:atodbl.obj
 0002:00090020       __atoflt_l                 400f4020 f   LIBCMTD:atodbl.obj
 0002:00090170       __atoflt                   400f4170 f   LIBCMTD:atodbl.obj
 0002:00090190       __fptostr                  400f4190 f   LIBCMTD:_fptostr.obj
 0002:000904e0       __fltout2                  400f44e0 f   LIBCMTD:_cfout_.obj
 0002:000905c0       ___dtold                   400f45c0 f   LIBCMTD:_cfout_.obj
 0002:00090770       __set_output_format        400f4770 f   LIBCMTD:outputformat.obj
 0002:00090810       __get_output_format        400f4810 f   LIBCMTD:outputformat.obj
 0002:00090820       _strcpy_s                  400f4820 f   LIBCMTD:strcpy_s.obj
 0002:00090bb0       __allrem                   400f4bb0 f   LIBCMTD:llrem.obj
 0002:00090c90       __alldiv                   400f4c90 f   LIBCMTD:lldiv.obj
 0002:00090d70       __allshl                   400f4d70 f   LIBCMTD:llshl.obj
 0002:00090da0       __aullshr                  400f4da0 f   LIBCMTD:ullshr.obj
 0002:00090dd0       __fptrap                   400f4dd0 f   LIBCMTD:crt0fp.obj
 0002:00090df0       __get_sse2_info            400f4df0 f   LIBCMTD:cpu_disp.obj
 0002:00090f60       ___sse2_available_init     400f4f60 f   LIBCMTD:cpu_disp.obj
 0002:00090f80       __matherr                  400f4f80 f   LIBCMTD:_matherr_.obj
 0002:00090f90       __ld12tod                  400f4f90 f   LIBCMTD:_intrncvt_.obj
 0002:00090fc0       __ld12cvt                  400f4fc0 f i LIBCMTD:_intrncvt_.obj
 0002:000912a0       __RoundMan                 400f52a0 f i LIBCMTD:_intrncvt_.obj
 0002:000913b0       __ZeroTail                 400f53b0 f i LIBCMTD:_intrncvt_.obj
 0002:00091460       __IncMan                   400f5460 f i LIBCMTD:_intrncvt_.obj
 0002:00091540       __CopyMan                  400f5540 f i LIBCMTD:_intrncvt_.obj
 0002:000915b0       __FillZeroMan              400f55b0 f i LIBCMTD:_intrncvt_.obj
 0002:000915f0       __IsZeroMan                400f55f0 f i LIBCMTD:_intrncvt_.obj
 0002:00091640       __ShrMan                   400f5640 f i LIBCMTD:_intrncvt_.obj
 0002:00091770       __ld12tof                  400f5770 f   LIBCMTD:_intrncvt_.obj
 0002:000917a0       __ld12told                 400f57a0 f   LIBCMTD:_intrncvt_.obj
 0002:00091880       ___crtGetStringTypeA       400f5880 f   LIBCMTD:a_str.obj
 0002:00091bb0       __mtinitlocks              400f5bb0 f   LIBCMTD:mlock.obj
 0002:00091c60       __mtdeletelocks            400f5c60 f   LIBCMTD:mlock.obj
 0002:00091d50       __mtinitlocknum            400f5d50 f   LIBCMTD:mlock.obj
 0002:00091ef0       __lock                     400f5ef0 f   LIBCMTD:mlock.obj
 0002:00091f40       __unlock                   400f5f40 f   LIBCMTD:mlock.obj
 0002:00091f60       __lockerr_exit             400f5f60 f   LIBCMTD:mlock.obj
 0002:00091f90       __CrtDbgBreak              400f5f90 f   LIBCMTD:dbgrptt.obj
 0002:00091fa0       __CrtSetReportMode         400f5fa0 f   LIBCMTD:dbgrptt.obj
 0002:00092130       __CrtSetReportFile         400f6130 f   LIBCMTD:dbgrptt.obj
 0002:00092260       __CrtSetReportHook         400f6260 f   LIBCMTD:dbgrptt.obj
 0002:00092290       __CrtGetReportHook         400f6290 f   LIBCMTD:dbgrptt.obj
 0002:000922a0       __VCrtDbgReportA           400f62a0 f   LIBCMTD:dbgrptt.obj
 0002:00092cd0       __VCrtDbgReportW           400f6cd0 f   LIBCMTD:dbgrptt.obj
 0002:00093850       __swprintf                 400f7850 f   LIBCMTD:swprintf.obj
 0002:00093aa0       ___swprintf_l              400f7aa0 f   LIBCMTD:swprintf.obj
 0002:00093ae0       _swprintf_s                400f7ae0 f   LIBCMTD:swprintf.obj
 0002:00093b20       __snwprintf_s              400f7b20 f   LIBCMTD:swprintf.obj
 0002:00093b60       __swprintf_p               400f7b60 f   LIBCMTD:swprintf.obj
 0002:00093ba0       __swprintf_s_l             400f7ba0 f   LIBCMTD:swprintf.obj
 0002:00093be0       __snwprintf_s_l            400f7be0 f   LIBCMTD:swprintf.obj
 0002:00093c20       __swprintf_p_l             400f7c20 f   LIBCMTD:swprintf.obj
 0002:00093c60       __scwprintf                400f7c60 f   LIBCMTD:swprintf.obj
 0002:00093c90       __scwprintf_p              400f7c90 f   LIBCMTD:swprintf.obj
 0002:00093cc0       __scwprintf_l              400f7cc0 f   LIBCMTD:swprintf.obj
 0002:00093cf0       __scwprintf_p_l            400f7cf0 f   LIBCMTD:swprintf.obj
 0002:00093d20       _memcpy_s                  400f7d20 f   LIBCMTD:memcpy_s.obj
 0002:00093f10       ___pwctype_func            400f7f10 f   LIBCMTD:ctype.obj
 0002:00093f20       ___pctype_func             400f7f20 f   LIBCMTD:ctype.obj
 0002:00093f80       ___init_time               400f7f80 f   LIBCMTD:inittime.obj
 0002:00094860       ___free_lc_time            400f8860 f   LIBCMTD:inittime.obj
 0002:00094c30       ___init_numeric            400f8c30 f   LIBCMTD:initnum.obj
 0002:00095060       ___free_lconv_num          400f9060 f   LIBCMTD:initnum.obj
 0002:000950f0       ___init_monetary           400f90f0 f   LIBCMTD:initmon.obj
 0002:00095730       ___free_lconv_mon          400f9730 f   LIBCMTD:initmon.obj
 0002:00095860       ___init_ctype              400f9860 f   LIBCMTD:initctyp.obj
 0002:00095f80       ____mb_cur_max_func        400f9f80 f   LIBCMTD:initctyp.obj
 0002:00095fe0       ____mb_cur_max_l_func      400f9fe0 f   LIBCMTD:initctyp.obj
 0002:00096020       ____lc_codepage_func       400fa020 f   LIBCMTD:initctyp.obj
 0002:00096080       ____lc_collate_cp_func     400fa080 f   LIBCMTD:initctyp.obj
 0002:000960e0       ____lc_handle_func         400fa0e0 f   LIBCMTD:initctyp.obj
 0002:00096140       ___init_collate            400fa140 f   LIBCMTD:initcoll.obj
 0002:00096150       __Getdays_l                400fa150 f   LIBCMTD:strftime.obj
 0002:00096380       __Getdays                  400fa380 f   LIBCMTD:strftime.obj
 0002:000963a0       __Getmonths_l              400fa3a0 f   LIBCMTD:strftime.obj
 0002:000965d0       __Getmonths                400fa5d0 f   LIBCMTD:strftime.obj
 0002:000965f0       __Gettnames_l              400fa5f0 f   LIBCMTD:strftime.obj
 0002:00096cb0       __Gettnames                400facb0 f   LIBCMTD:strftime.obj
 0002:00096cd0       __strftime_l               400facd0 f   LIBCMTD:strftime.obj
 0002:00096d00       _strftime                  400fad00 f   LIBCMTD:strftime.obj
 0002:00096d30       __Strftime                 400fad30 f   LIBCMTD:strftime.obj
 0002:00096d60       __Strftime_l               400fad60 f   LIBCMTD:strftime.obj
 0002:000992e0       _localeconv                400fd2e0 f   LIBCMTD:lconv.obj
 0002:00099340       _strncpy_s                 400fd340 f   LIBCMTD:strncpy_s.obj
 0002:00099830       _strcspn                   400fd830 f   LIBCMTD:strcspn.obj
 0002:00099890       _strncmp                   400fd890 f   LIBCMTD:strncmp.obj
 0002:00099a60       _strpbrk                   400fda60 f   LIBCMTD:strpbrk.obj
 0002:00099ab0       _memcmp                    400fdab0 f   LIBCMTD:memcmp.obj
 0002:0009a7d0       _strcat_s                  400fe7d0 f   LIBCMTD:strcat_s.obj
 0002:0009aca0       ___get_qualified_locale    400feca0 f   LIBCMTD:getqloc.obj
 0002:0009bec0       ___mtold12                 400ffec0 f   LIBCMTD:_mantold_.obj
 0002:0009c070       ___add_12                  40100070 f i LIBCMTD:_mantold_.obj
 0002:0009c150       __onexit                   40100150 f   LIBCMTD:onexit.obj
 0002:0009c3a0       _atexit                    401003a0 f   LIBCMTD:onexit.obj
 0002:0009c3d0       ___onexitinit              401003d0 f   LIBCMTD:onexit.obj
 0002:0009c440       __ValidateImageBase        40100440 f   LIBCMTD:pesect.obj
 0002:0009c4c0       __FindPESection            401004c0 f   LIBCMTD:pesect.obj
 0002:0009c560       __IsNonwritableInCurrentImage 40100560 f   LIBCMTD:pesect.obj
 0002:0009c6c0       __FF_MSGBANNER             401006c0 f   LIBCMTD:crt0msg.obj
 0002:0009c720       __NMSG_WRITE               40100720 f   LIBCMTD:crt0msg.obj
 0002:0009ca60       __GET_RTERRMSG             40100a60 f   LIBCMTD:crt0msg.obj
 0002:0009cac0       __initp_eh_hooks           40100ac0 f   LIBCMTD:hooks.obj
 0002:0009cae0       ?terminate@@YAXXZ          40100ae0 f   LIBCMTD:hooks.obj
 0002:0009cb80       ?unexpected@@YAXXZ         40100b80 f   LIBCMTD:hooks.obj
 0002:0009cbb0       ?_inconsistency@@YAXXZ     40100bb0 f   LIBCMTD:hooks.obj
 0002:0009cc60       __initp_misc_rand_s        40100c60 f   LIBCMTD:rand_s.obj
 0002:0009cc80       _rand_s                    40100c80 f   LIBCMTD:rand_s.obj
 0002:0009cf30       ___getlocaleinfo           40100f30 f   LIBCMTD:inithelp.obj
 0002:0009d280       __initp_misc_purevirt      40101280 f   LIBCMTD:inithelp.obj
 0002:0009d2a0       __initp_misc_initcrit      401012a0 f   LIBCMTD:initcrit.obj
 0002:0009d2c0       ___crtInitCritSecAndSpinCount 401012c0 f   LIBCMTD:initcrit.obj
 0002:0009d390       __initp_heap_handler       40101390 f   LIBCMTD:handler.obj
 0002:0009d3b0       ?_set_new_handler@@YAP6AHI@ZP6AHI@Z@Z 401013b0 f   LIBCMTD:handler.obj
 0002:0009d410       ?_set_new_handler@@YAP6AHI@ZH@Z 40101410 f   LIBCMTD:handler.obj
 0002:0009d460       ?_query_new_handler@@YAP6AHI@ZXZ 40101460 f   LIBCMTD:handler.obj
 0002:0009d480       __callnewh                 40101480 f   LIBCMTD:handler.obj
 0002:0009d4d0       __commit                   401014d0 f   LIBCMTD:commit.obj
 0002:0009d770       __fileno                   40101770 f   LIBCMTD:fileno.obj
 0002:0009d800       __write                    40101800 f   LIBCMTD:write.obj
 0002:0009dab0       __write_nolock             40101ab0 f   LIBCMTD:write.obj
 0002:0009e8c0       __stbuf                    401028c0 f   LIBCMTD:_sftbuf.obj
 0002:0009ea70       __ftbuf                    40102a70 f   LIBCMTD:_sftbuf.obj
 0002:0009eb20       __woutput_l                40102b20 f   LIBCMTD:woutput.obj
 0002:000a0180       _vfwprintf_helper          40104180 f   LIBCMTD:vfwprint.obj
 0002:000a0360       __vfwprintf_l              40104360 f   LIBCMTD:vfwprint.obj
 0002:000a0390       __vfwprintf_s_l            40104390 f   LIBCMTD:vfwprint.obj
 0002:000a03c0       __vfwprintf_p_l            401043c0 f   LIBCMTD:vfwprint.obj
 0002:000a03f0       _vfwprintf                 401043f0 f   LIBCMTD:vfwprint.obj
 0002:000a0420       _vfwprintf_s               40104420 f   LIBCMTD:vfwprint.obj
 0002:000a0450       __vfwprintf_p              40104450 f   LIBCMTD:vfwprint.obj
 0002:000a0480       __freebuf                  40104480 f   LIBCMTD:_freebuf.obj
 0002:000a0530       __fcloseall                40104530 f   LIBCMTD:closeall.obj
 0002:000a06b0       __woutput_s_l              401046b0 f   LIBCMTD:woutputs.obj
 0002:000a1ec0       __validate_param_reuseW    40105ec0 f   LIBCMTD:woutputp.obj
 0002:000a21d0       __woutput_p_l              401061d0 f   LIBCMTD:woutputp.obj
 0002:000a6720       __mbtowc_l                 4010a720 f   LIBCMTD:mbtowc.obj
 0002:000a69c0       _mbtowc                    4010a9c0 f   LIBCMTD:mbtowc.obj
 0002:000a69f0       __filbuf                   4010a9f0 f   LIBCMTD:_filbuf.obj
 0002:000a6cd0       _ungetc                    4010acd0 f   LIBCMTD:ungetc.obj
 0002:000a6e00       __ungetc_nolock            4010ae00 f   LIBCMTD:ungetc.obj
 0002:000a70b0       __lseeki64                 4010b0b0 f   LIBCMTD:lseeki64.obj
 0002:000a7390       __lseeki64_nolock          4010b390 f   LIBCMTD:lseeki64.obj
 0002:000a74c0       __getbuf                   4010b4c0 f   LIBCMTD:_getbuf.obj
 0002:000a75b0       __isatty                   4010b5b0 f   LIBCMTD:isatty.obj
 0002:000a76d0       _printf                    4010b6d0 f   LIBCMTD:printf.obj
 0002:000a7860       __printf_l                 4010b860 f   LIBCMTD:printf.obj
 0002:000a7890       __printf_s_l               4010b890 f   LIBCMTD:printf.obj
 0002:000a78c0       _printf_s                  4010b8c0 f   LIBCMTD:printf.obj
 0002:000a78f0       __printf_p_l               4010b8f0 f   LIBCMTD:printf.obj
 0002:000a7920       __printf_p                 4010b920 f   LIBCMTD:printf.obj
 0002:000a7950       __set_printf_count_output  4010b950 f   LIBCMTD:printf.obj
 0002:000a79b0       __get_printf_count_output  4010b9b0 f   LIBCMTD:printf.obj
 0002:000a79e0       __wctomb_s_l               4010b9e0 f   LIBCMTD:wctomb.obj
 0002:000a7da0       _wctomb_s                  4010bda0 f   LIBCMTD:wctomb.obj
 0002:000a7dd0       __wctomb_l                 4010bdd0 f   LIBCMTD:wctomb.obj
 0002:000a7e70       _wctomb                    4010be70 f   LIBCMTD:wctomb.obj
 0002:000a7ed0       __output_s_l               4010bed0 f   LIBCMTD:outputs.obj
 0002:000a99c0       _malloc                    4010d9c0 f   LIBCMTD:dbgmalloc.obj
 0002:000a9a00       ___ansicp                  4010da00 f   LIBCMTD:convrtcp.obj
 0002:000a9a70       ___convertcp               4010da70 f   LIBCMTD:convrtcp.obj
 0002:000a9d50       _free                      4010dd50 f   LIBCMTD:dbgfree.obj
 0002:000a9d70       __iswctype_l               4010dd70 f   LIBCMTD:iswctype.obj
 0002:000a9e40       _iswctype                  4010de40 f   LIBCMTD:iswctype.obj
 0002:000a9ef0       _is_wctype                 4010def0 f   LIBCMTD:iswctype.obj
 0002:000a9f10       __frnd                     4010df10 f   LIBCMTD:_frnd_.obj
 0002:000a9f2c       __local_unwind4            4010df2c f   LIBCMTD:exsup4.obj
 0002:000aa002       __seh_longjmp_unwind4@4    4010e002 f   LIBCMTD:exsup4.obj
 0002:000aa01e       @_EH4_CallFilterFunc@8     4010e01e f   LIBCMTD:exsup4.obj
 0002:000aa035       @_EH4_TransferToHandler@8  4010e035 f   LIBCMTD:exsup4.obj
 0002:000aa04e       @_EH4_GlobalUnwind@4       4010e04e f   LIBCMTD:exsup4.obj
 0002:000aa068       @_EH4_LocalUnwind@16       4010e068 f   LIBCMTD:exsup4.obj
 0002:000aa0e0       _V6_HeapAlloc              4010e0e0 f   LIBCMTD:malloc.obj
 0002:000aa1a0       __malloc_base              4010e1a0 f   LIBCMTD:malloc.obj
 0002:000aa250       __heap_alloc_base          4010e250 f i LIBCMTD:malloc.obj
 0002:000aa340       __expand_base              4010e340 f   LIBCMTD:expand.obj
 0002:000aa6c0       __realloc_base             4010e6c0 f   LIBCMTD:realloc.obj
 0002:000aab40       __free_base                4010eb40 f   LIBCMTD:free.obj
 0002:000aacb0       __heapchk                  4010ecb0 f   LIBCMTD:heapchk.obj
 0002:000aadc0       __heapset                  4010edc0 f   LIBCMTD:heapchk.obj
 0002:000aadd0       __get_sbh_threshold        4010edd0 f   LIBCMTD:sbheap.obj
 0002:000aae30       __set_sbh_threshold        4010ee30 f   LIBCMTD:sbheap.obj
 0002:000ab030       __set_amblksiz             4010f030 f   LIBCMTD:sbheap.obj
 0002:000ab180       __get_amblksiz             4010f180 f   LIBCMTD:sbheap.obj
 0002:000ab2b0       ___sbh_heap_init           4010f2b0 f   LIBCMTD:sbheap.obj
 0002:000ab330       ___sbh_find_block          4010f330 f   LIBCMTD:sbheap.obj
 0002:000ab3a0       ___sbh_verify_block        4010f3a0 f   LIBCMTD:sbheap.obj
 0002:000ab410       ___sbh_free_block          4010f410 f   LIBCMTD:sbheap.obj
 0002:000abb40       ___sbh_alloc_block         4010fb40 f   LIBCMTD:sbheap.obj
 0002:000ac1b0       ___sbh_alloc_new_region    401101b0 f   LIBCMTD:sbheap.obj
 0002:000ac310       ___sbh_alloc_new_group     40110310 f   LIBCMTD:sbheap.obj
 0002:000ac580       ___sbh_resize_block        40110580 f   LIBCMTD:sbheap.obj
 0002:000accc0       ___sbh_heapmin             40110cc0 f   LIBCMTD:sbheap.obj
 0002:000ace40       ___sbh_heap_check          40110e40 f   LIBCMTD:sbheap.obj
 0002:000ad470       __ismbbkalnum_l            40111470 f   LIBCMTD:ismbbyte.obj
 0002:000ad4a0       __ismbbkalnum              401114a0 f   LIBCMTD:ismbbyte.obj
 0002:000ad4c0       __ismbbkprint_l            401114c0 f   LIBCMTD:ismbbyte.obj
 0002:000ad4f0       __ismbbkprint              401114f0 f   LIBCMTD:ismbbyte.obj
 0002:000ad510       __ismbbkpunct_l            40111510 f   LIBCMTD:ismbbyte.obj
 0002:000ad540       __ismbbkpunct              40111540 f   LIBCMTD:ismbbyte.obj
 0002:000ad560       __ismbbalnum_l             40111560 f   LIBCMTD:ismbbyte.obj
 0002:000ad590       __ismbbalnum               40111590 f   LIBCMTD:ismbbyte.obj
 0002:000ad5c0       __ismbbalpha_l             401115c0 f   LIBCMTD:ismbbyte.obj
 0002:000ad5f0       __ismbbalpha               401115f0 f   LIBCMTD:ismbbyte.obj
 0002:000ad620       __ismbbgraph_l             40111620 f   LIBCMTD:ismbbyte.obj
 0002:000ad650       __ismbbgraph               40111650 f   LIBCMTD:ismbbyte.obj
 0002:000ad680       __ismbbprint_l             40111680 f   LIBCMTD:ismbbyte.obj
 0002:000ad6b0       __ismbbprint               401116b0 f   LIBCMTD:ismbbyte.obj
 0002:000ad6e0       __ismbbpunct_l             401116e0 f   LIBCMTD:ismbbyte.obj
 0002:000ad710       __ismbbpunct               40111710 f   LIBCMTD:ismbbyte.obj
 0002:000ad730       __ismbblead_l              40111730 f   LIBCMTD:ismbbyte.obj
 0002:000ad760       __ismbblead                40111760 f   LIBCMTD:ismbbyte.obj
 0002:000ad780       __ismbbtrail_l             40111780 f   LIBCMTD:ismbbyte.obj
 0002:000ad7b0       __ismbbtrail               401117b0 f   LIBCMTD:ismbbyte.obj
 0002:000ad7d0       __ismbbkana_l              401117d0 f   LIBCMTD:ismbbyte.obj
 0002:000ad860       __ismbbkana                40111860 f   LIBCMTD:ismbbyte.obj
 0002:000ad980       ___crtMessageBoxA          40111980 f   LIBCMTD:crtmbox.obj
 0002:000adc30       ___InternalCxxFrameHandler 40111c30 f   LIBCMTD:frame.obj
 0002:000ae3a0       ??0bad_exception@std@@QAE@PBD@Z 401123a0 f i LIBCMTD:frame.obj
 0002:000ae3d0       ??1bad_exception@std@@UAE@XZ 401123d0 f i LIBCMTD:frame.obj
 0002:000ae400       ??_Ebad_exception@std@@UAEPAXI@Z 40112400 f i LIBCMTD:frame.obj
 0002:000ae400       ??_Gbad_exception@std@@UAEPAXI@Z 40112400 f i LIBCMTD:frame.obj
 0002:000ae440       ??0bad_exception@std@@QAE@ABV01@@Z 40112440 f i LIBCMTD:frame.obj
 0002:000ae650       ___TypeMatch               40112650 f   LIBCMTD:frame.obj
 0002:000ae730       ___FrameUnwindFilter       40112730 f   LIBCMTD:frame.obj
 0002:000ae7c0       ___FrameUnwindToState      401127c0 f   LIBCMTD:frame.obj
 0002:000aee50       ___BuildCatchObjectHelper  40112e50 f   LIBCMTD:frame.obj
 0002:000af160       ___BuildCatchObject        40113160 f   LIBCMTD:frame.obj
 0002:000af2b0       ___DestructExceptionObject 401132b0 f   LIBCMTD:frame.obj
 0002:000af390       ___AdjustPointer           40113390 f   LIBCMTD:frame.obj
 0002:000af3f0       ?__uncaught_exception@@YA_NXZ 401133f0 f   LIBCMTD:frame.obj
 0002:000af410       ___CxxExceptionFilter      40113410 f   LIBCMTD:frame.obj
 0002:000af670       ___CxxRegisterExceptionObject 40113670 f   LIBCMTD:frame.obj
 0002:000af7f0       ___CxxDetectRethrow        401137f0 f   LIBCMTD:frame.obj
 0002:000af8a0       ___CxxUnregisterExceptionObject 401138a0 f   LIBCMTD:frame.obj
 0002:000afa80       ___CxxQueryExceptionSize   40113a80 f   LIBCMTD:frame.obj
 0002:000afa90       ___CxxCallUnwindDtor       40113a90 f   LIBCMTD:frame.obj
 0002:000afb30       ___CxxCallUnwindDelDtor    40113b30 f   LIBCMTD:frame.obj
 0002:000afbd0       ___CxxCallUnwindStdDelDtor 40113bd0 f   LIBCMTD:frame.obj
 0002:000afc70       ___CxxCallUnwindVecDtor    40113c70 f   LIBCMTD:frame.obj
 0002:000aff40       ?_is_exception_typeof@@YAHABVtype_info@@PAU_EXCEPTION_POINTERS@@@Z 40113f40 f   LIBCMTD:frame.obj
 0002:000b0050       __CallSettingFrame@12      40114050 f   LIBCMTD:lowhelpr.obj
 0002:000b0077       __NLG_Return               40114077     LIBCMTD:lowhelpr.obj
 0002:000b00b0       __statusfp2                401140b0 f   LIBCMTD:_ieee87_.obj
 0002:000b0100       __statusfp                 40114100 f   LIBCMTD:_ieee87_.obj
 0002:000b0160       __clearfp                  40114160 f   LIBCMTD:_ieee87_.obj
 0002:000b01c0       ___control87_2             401141c0 f   LIBCMTD:_ieee87_.obj
 0002:000b0290       __controlfp                40114290 f   LIBCMTD:_ieee87_.obj
 0002:000b02c0       __control87                401142c0 f i LIBCMTD:_ieee87_.obj
 0002:000b03a0       __set_controlfp            401143a0 f   LIBCMTD:_ieee87_.obj
 0002:000b0450       __fpreset                  40114450 f   LIBCMTD:_ieee87_.obj
 0002:000b0df0       _$I10_OUTPUT               40114df0 f   LIBCMTD:_x10fout_.obj
 0002:000b1500       __mbstowcs_l_helper        40115500 f   LIBCMTD:mbstowcs.obj
 0002:000b1930       __mbstowcs_l               40115930 f   LIBCMTD:mbstowcs.obj
 0002:000b1960       _mbstowcs                  40115960 f   LIBCMTD:mbstowcs.obj
 0002:000b19c0       __mbstowcs_s_l             401159c0 f   LIBCMTD:mbstowcs.obj
 0002:000b1e20       _mbstowcs_s                40115e20 f   LIBCMTD:mbstowcs.obj
 0002:000b1e50       __itoa_s                   40115e50 f   LIBCMTD:xtoas.obj
 0002:000b2300       __ltoa_s                   40116300 f   LIBCMTD:xtoas.obj
 0002:000b2350       __ultoa_s                  40116350 f   LIBCMTD:xtoas.obj
 0002:000b2380       __i64toa_s                 40116380 f   LIBCMTD:xtoas.obj
 0002:000b2880       __ui64toa_s                40116880 f   LIBCMTD:xtoas.obj
 0002:000b28b0       __wcstombs_l_helper        401168b0 f   LIBCMTD:wcstombs.obj
 0002:000b2ee0       __wcstombs_l               40116ee0 f   LIBCMTD:wcstombs.obj
 0002:000b2f10       _wcstombs                  40116f10 f   LIBCMTD:wcstombs.obj
 0002:000b2f40       __wcstombs_s_l             40116f40 f   LIBCMTD:wcstombs.obj
 0002:000b3330       _wcstombs_s                40117330 f   LIBCMTD:wcstombs.obj
 0002:000b3360       __vswprintf_l              40117360 f   LIBCMTD:vswprint.obj
 0002:000b35a0       __vswprintf                401175a0 f   LIBCMTD:vswprint.obj
 0002:000b35d0       ___vswprintf_l             401175d0 f   LIBCMTD:vswprint.obj
 0002:000b3600       __vscwprintf_helper        40117600 f   LIBCMTD:vswprint.obj
 0002:000b36f0       __vscwprintf               401176f0 f   LIBCMTD:vswprint.obj
 0002:000b3720       __vscwprintf_l             40117720 f   LIBCMTD:vswprint.obj
 0002:000b3750       __vscwprintf_p             40117750 f   LIBCMTD:vswprint.obj
 0002:000b3780       __vscwprintf_p_l           40117780 f   LIBCMTD:vswprint.obj
 0002:000b37b0       __get_daylight             401177b0 f   LIBCMTD:timeset.obj
 0002:000b3850       __get_dstbias              40117850 f   LIBCMTD:timeset.obj
 0002:000b38f0       __get_timezone             401178f0 f   LIBCMTD:timeset.obj
 0002:000b3990       __get_tzname               40117990 f   LIBCMTD:timeset.obj
 0002:000b3be0       ___daylight                40117be0 f   LIBCMTD:timeset.obj
 0002:000b3bf0       ___dstbias                 40117bf0 f   LIBCMTD:timeset.obj
 0002:000b3c00       ___timezone                40117c00 f   LIBCMTD:timeset.obj
 0002:000b3c10       ___tzname                  40117c10 f   LIBCMTD:timeset.obj
 0002:000b3c20       ___tzset                   40117c20 f   LIBCMTD:tzset.obj
 0002:000b3ce0       __tzset                    40117ce0 f   LIBCMTD:tzset.obj
 0002:000b43f0       __set_daylight             401183f0 f i LIBCMTD:tzset.obj
 0002:000b4410       __set_dstbias              40118410 f i LIBCMTD:tzset.obj
 0002:000b4430       __set_timezone             40118430 f i LIBCMTD:tzset.obj
 0002:000b4450       __isindst                  40118450 f   LIBCMTD:tzset.obj
 0002:000b4ca0       __stricmp_l                40118ca0 f   LIBCMTD:stricmp.obj
 0002:000b4eb0       ___ascii_stricmp           40118eb0 f   LIBCMTD:stricmp.obj
 0002:000b4f40       __stricmp                  40118f40 f   LIBCMTD:stricmp.obj
 0002:000b4f40       _stricmp                   40118f40 f   LIBCMTD:stricmp.obj
 0002:000b5090       __strnicmp_l               40119090 f   LIBCMTD:strnicmp.obj
 0002:000b5360       __strnicmp                 40119360 f   LIBCMTD:strnicmp.obj
 0002:000b5360       _strnicmp                  40119360 f   LIBCMTD:strnicmp.obj
 0002:000b5550       ___crtGetLocaleInfoW       40119550 f   LIBCMTD:w_loc.obj
 0002:000b55e0       ___crtGetLocaleInfoA       401195e0 f   LIBCMTD:a_loc.obj
 0002:000b5830       __alloc_osfhnd             40119830 f   LIBCMTD:osfinfo.obj
 0002:000b5b90       __set_osfhnd               40119b90 f   LIBCMTD:osfinfo.obj
 0002:000b5c90       __free_osfhnd              40119c90 f   LIBCMTD:osfinfo.obj
 0002:000b5db0       __get_osfhandle            40119db0 f   LIBCMTD:osfinfo.obj
 0002:000b5f70       __open_osfhandle           40119f70 f   LIBCMTD:osfinfo.obj
 0002:000b6230       ___lock_fhandle            4011a230 f   LIBCMTD:osfinfo.obj
 0002:000b6370       __unlock_fhandle           4011a370 f   LIBCMTD:osfinfo.obj
 0002:000b63b0       __putwch                   4011a3b0 f   LIBCMTD:putwch.obj
 0002:000b6460       __putwch_nolock            4011a460 f   LIBCMTD:putwch.obj
 0002:000b65a0       __cputws                   4011a5a0 f   LIBCMTD:putwch.obj
 0002:000b6740       _fputwc                    4011a740 f   LIBCMTD:fputwc.obj
 0002:000b6880       __fputwc_nolock            4011a880 f   LIBCMTD:fputwc.obj
 0002:000b6c20       _putwc                     4011ac20 f   LIBCMTD:fputwc.obj
 0002:000b6c40       _fclose                    4011ac40 f   LIBCMTD:fclose.obj
 0002:000b6d90       __fclose_nolock            4011ad90 f   LIBCMTD:fclose.obj
 0002:000b6ed0       _wcstol                    4011aed0 f   LIBCMTD:wcstol.obj
 0002:000b7470       __wcstol_l                 4011b470 f   LIBCMTD:wcstol.obj
 0002:000b74a0       _wcstoul                   4011b4a0 f   LIBCMTD:wcstol.obj
 0002:000b7500       __wcstoul_l                4011b500 f   LIBCMTD:wcstol.obj
 0002:000b7530       __read                     4011b530 f   LIBCMTD:read.obj
 0002:000b7870       __read_nolock              4011b870 f   LIBCMTD:read.obj
 0002:000b8b90       _vprintf_helper            4011cb90 f   LIBCMTD:vprintf.obj
 0002:000b8cf0       __vprintf_l                4011ccf0 f   LIBCMTD:vprintf.obj
 0002:000b8d20       __vprintf_s_l              4011cd20 f   LIBCMTD:vprintf.obj
 0002:000b8d50       __vprintf_p_l              4011cd50 f   LIBCMTD:vprintf.obj
 0002:000b8d80       _vprintf                   4011cd80 f   LIBCMTD:vprintf.obj
 0002:000b8db0       _vprintf_s                 4011cdb0 f   LIBCMTD:vprintf.obj
 0002:000b8de0       __vprintf_p                4011cde0 f   LIBCMTD:vprintf.obj
 0002:000b8e10       ___crtGetStringTypeW       4011ce10 f   LIBCMTD:w_str.obj
 0002:000b8eb0       __global_unwind2           4011ceb0 f   LIBCMTD:exsup.obj
 0002:000b8f15       __local_unwind2            4011cf15 f   LIBCMTD:exsup.obj
 0002:000b8f99       __abnormal_termination     4011cf99 f   LIBCMTD:exsup.obj
 0002:000b8fbc       __NLG_Notify1              4011cfbc f   LIBCMTD:exsup.obj
 0002:000b8fc5       __NLG_Notify               4011cfc5 f   LIBCMTD:exsup.obj
 0002:000b8fdc       __NLG_Dispatch2            4011cfdc     LIBCMTD:exsup.obj
 0002:000b8fdc       __NLG_Dispatch             4011cfdc     LIBCMTD:exsup.obj
 0002:000b8fe4       __NLG_Call                 4011cfe4 f   LIBCMTD:exsup.obj
 0002:000b8fe6       __NLG_Return2              4011cfe6     LIBCMTD:exsup.obj
 0002:000b9040       ?_ValidateRead@@YAHPBXI@Z  4011d040 f   LIBCMTD:validate.obj
 0002:000b9070       ?_ValidateWrite@@YAHPAXI@Z 4011d070 f   LIBCMTD:validate.obj
 0002:000b90a0       ?_ValidateExecute@@YAHP6GHXZ@Z 4011d0a0 f   LIBCMTD:validate.obj
 0002:000b90d0       __CxxThrowException@8      4011d0d0 f   LIBCMTD:throw.obj
 0002:000b9140       ?name@type_info@@QBEPBDPAU__type_info_node@@@Z 4011d140 f   LIBCMTD:typinfo.obj
 0002:000b9170       ??1type_info@@UAE@XZ       4011d170 f   LIBCMTD:typinfo.obj
 0002:000b91a0       ??_Gtype_info@@UAEPAXI@Z   4011d1a0 f i LIBCMTD:typinfo.obj
 0002:000b91a0       ??_Etype_info@@UAEPAXI@Z   4011d1a0 f i LIBCMTD:typinfo.obj
 0002:000b91e0       ?_name_internal_method@type_info@@QBEPBDPAU__type_info_node@@@Z 4011d1e0 f   LIBCMTD:typinfo.obj
 0002:000b9210       ?_type_info_dtor_internal_method@type_info@@QAEXXZ 4011d210 f   LIBCMTD:typinfo.obj
 0002:000b9230       ??8type_info@@QBE_NABV0@@Z 4011d230 f   LIBCMTD:typinfo.obj
 0002:000b9270       ??9type_info@@QBE_NABV0@@Z 4011d270 f   LIBCMTD:typinfo.obj
 0002:000b92b0       ?before@type_info@@QBEHABV1@@Z 4011d2b0 f   LIBCMTD:typinfo.obj
 0002:000b92f0       ?raw_name@type_info@@QBEPBDXZ 4011d2f0 f   LIBCMTD:typinfo.obj
 0002:000b9310       ??0type_info@@AAE@ABV0@@Z  4011d310 f   LIBCMTD:typinfo.obj
 0002:000b9340       ??4type_info@@AAEAAV0@ABV0@@Z 4011d340 f   LIBCMTD:typinfo.obj
 0002:000b9360       ??0exception@std@@QAE@XZ   4011d360 f   LIBCMTD:stdexcpt.obj
 0002:000b93a0       ??_Eexception@std@@UAEPAXI@Z 4011d3a0 f i LIBCMTD:stdexcpt.obj
 0002:000b93a0       ??_Gexception@std@@UAEPAXI@Z 4011d3a0 f i LIBCMTD:stdexcpt.obj
 0002:000b93e0       ??0exception@std@@QAE@ABQBD@Z 4011d3e0 f   LIBCMTD:stdexcpt.obj
 0002:000b9490       ??0exception@std@@QAE@ABQBDH@Z 4011d490 f   LIBCMTD:stdexcpt.obj
 0002:000b94d0       ??0exception@std@@QAE@ABV01@@Z 4011d4d0 f   LIBCMTD:stdexcpt.obj
 0002:000b95a0       ??4exception@std@@QAEAAV01@ABV01@@Z 4011d5a0 f   LIBCMTD:stdexcpt.obj
 0002:000b9670       ??1exception@std@@UAE@XZ   4011d670 f   LIBCMTD:stdexcpt.obj
 0002:000b96b0       ?what@exception@std@@UBEPBDXZ 4011d6b0 f   LIBCMTD:stdexcpt.obj
 0002:000b96e0       ??0bad_cast@std@@QAE@PBD@Z 4011d6e0 f   LIBCMTD:stdexcpt.obj
 0002:000b9710       ??_Gbad_cast@std@@UAEPAXI@Z 4011d710 f i LIBCMTD:stdexcpt.obj
 0002:000b9710       ??_Ebad_cast@std@@UAEPAXI@Z 4011d710 f i LIBCMTD:stdexcpt.obj
 0002:000b9750       ??0bad_cast@std@@QAE@ABV01@@Z 4011d750 f   LIBCMTD:stdexcpt.obj
 0002:000b9780       ??1bad_cast@std@@UAE@XZ    4011d780 f   LIBCMTD:stdexcpt.obj
 0002:000b97b0       ??0bad_typeid@std@@QAE@PBD@Z 4011d7b0 f   LIBCMTD:stdexcpt.obj
 0002:000b97e0       ??_Ebad_typeid@std@@UAEPAXI@Z 4011d7e0 f i LIBCMTD:stdexcpt.obj
 0002:000b97e0       ??_Gbad_typeid@std@@UAEPAXI@Z 4011d7e0 f i LIBCMTD:stdexcpt.obj
 0002:000b9820       ??0bad_typeid@std@@QAE@ABV01@@Z 4011d820 f   LIBCMTD:stdexcpt.obj
 0002:000b9850       ??1bad_typeid@std@@UAE@XZ  4011d850 f   LIBCMTD:stdexcpt.obj
 0002:000b9880       ??0__non_rtti_object@std@@QAE@PBD@Z 4011d880 f   LIBCMTD:stdexcpt.obj
 0002:000b98b0       ??_E__non_rtti_object@std@@UAEPAXI@Z 4011d8b0 f i LIBCMTD:stdexcpt.obj
 0002:000b98b0       ??_G__non_rtti_object@std@@UAEPAXI@Z 4011d8b0 f i LIBCMTD:stdexcpt.obj
 0002:000b98f0       ??0__non_rtti_object@std@@QAE@ABV01@@Z 4011d8f0 f   LIBCMTD:stdexcpt.obj
 0002:000b9920       ??1__non_rtti_object@std@@UAE@XZ 4011d920 f   LIBCMTD:stdexcpt.obj
 0002:000b9950       ??3@YAXPAX@Z               4011d950 f   LIBCMTD:dbgdel.obj
 0002:000b9a70       _getenv                    4011da70 f   LIBCMTD:getenv.obj
 0002:000b9c20       __getenv_helper_nolock     4011dc20 f   LIBCMTD:getenv.obj
 0002:000b9d80       _getenv_s                  4011dd80 f   LIBCMTD:getenv.obj
 0002:000ba030       __dupenv_s                 4011e030 f   LIBCMTD:getenv.obj
 0002:000ba060       __dupenv_s_dbg             4011e060 f   LIBCMTD:getenv.obj
 0002:000ba340       ___ascii_strnicmp          4011e340 f   LIBCMTD:_strnicm.obj
 0002:000ba3c0       ___initconin               4011e3c0 f   LIBCMTD:initcon.obj
 0002:000ba3f0       ___initconout              4011e3f0 f   LIBCMTD:initcon.obj
 0002:000ba420       ___termcon                 4011e420 f   LIBCMTD:initcon.obj
 0002:000ba480       __flswbuf                  4011e480 f   LIBCMTD:_flswbuf.obj
 0002:000ba810       __close                    4011e810 f   LIBCMTD:close.obj
 0002:000baab0       __close_nolock             4011eab0 f   LIBCMTD:close.obj
 0002:000babb0       __wchartodigit             4011ebb0 f   LIBCMTD:wchtodig.obj
 0002:000bafa0       ?_Type_info_dtor@type_info@@CAXPAV1@@Z 4011efa0 f   LIBCMTD:typname.obj
 0002:000bb0f0       ?_Name_base@type_info@@CAPBDPBV1@PAU__type_info_node@@@Z 4011f0f0 f   LIBCMTD:typname.obj
 0002:000bb300       ?_Type_info_dtor_internal@type_info@@CAXPAV1@@Z 4011f300 f   LIBCMTD:typname.obj
 0002:000bb450       ___unDNameHelper           4011f450 f   LIBCMTD:typname.obj
 0002:000bb4a0       ?_Name_base_internal@type_info@@CAPBDPBV1@PAU__type_info_node@@@Z 4011f4a0 f   LIBCMTD:typname.obj
 0002:000bb6d0       ___clean_type_info_names_internal 4011f6d0 f   LIBCMTD:typname.obj
 0002:000bb7b0       _strnlen                   4011f7b0 f   LIBCMTD:strlen_s.obj
 0002:000bb800       __mbsnbicoll_l             4011f800 f   LIBCMTD:mbsnbico.obj
 0002:000bbad0       __mbsnbicoll               4011fad0 f   LIBCMTD:mbsnbico.obj
 0002:000bbb00       ___wtomb_environ           4011fb00 f   LIBCMTD:wtombenv.obj
 0002:000bbc30       ___unDName                 4011fc30 f   LIBCMTD:undname.obj
 0002:000bbd40       ?Constructor@HeapManager@@QAEXP6APAXI@ZP6AXPAX@Z@Z 4011fd40 f i LIBCMTD:undname.obj
 0002:000bbd90       ?Destructor@HeapManager@@QAEXXZ 4011fd90 f i LIBCMTD:undname.obj
 0002:000bbdf0       ___unDNameEx               4011fdf0 f   LIBCMTD:undname.obj
 0002:000bbf00       ??0UnDecorator@@QAE@PADPBDHP6APADJ@ZK@Z 4011ff00 f i LIBCMTD:undname.obj
 0002:000bbfc0       ??BUnDecorator@@QAEPADXZ   4011ffc0 f i LIBCMTD:undname.obj
 0002:000bc280       ?dbGetString@DName@@QBEPADXZ 40120280 f   LIBCMTD:undname.obj
 0002:000bc2b0       ?getDecoratedName@UnDecorator@@CA?AVDName@@XZ 401202b0 f   LIBCMTD:undname.obj
 0002:000bc690       ?getSymbolName@UnDecorator@@CA?AVDName@@XZ 40120690 f i LIBCMTD:undname.obj
 0002:000bc720       ?getZName@UnDecorator@@CA?AVDName@@_N0@Z 40120720 f   LIBCMTD:undname.obj
 0002:000bca70       ?getOperatorName@UnDecorator@@CA?AVDName@@_NPA_N@Z 40120a70 f i LIBCMTD:undname.obj
 0002:000bd630       ?getStringEncoding@UnDecorator@@CA?AVDName@@PADH@Z 40121630 f   LIBCMTD:undname.obj
 0002:000bd770       ?getScope@UnDecorator@@CA?AVDName@@XZ 40121770 f   LIBCMTD:undname.obj
 0002:000bdc40       ?getSignedDimension@UnDecorator@@CA?AVDName@@XZ 40121c40 f   LIBCMTD:undname.obj
 0002:000bdce0       ?getDimension@UnDecorator@@CA?AVDName@@_N@Z 40121ce0 f   LIBCMTD:undname.obj
 0002:000be040       ?getNumberOfDimensions@UnDecorator@@CAHXZ 40122040 f   LIBCMTD:undname.obj
 0002:000be180       ?getTemplateName@UnDecorator@@CA?AVDName@@_N@Z 40122180 f   LIBCMTD:undname.obj
 0002:000be3b0       ?getTemplateArgumentList@UnDecorator@@CA?AVDName@@XZ 401223b0 f   LIBCMTD:undname.obj
 0002:000be6d0       ?getTemplateConstant@UnDecorator@@CA?AVDName@@XZ 401226d0 f   LIBCMTD:undname.obj
 0002:000bec80       ?composeDeclaration@UnDecorator@@CA?AVDName@@ABV2@@Z 40122c80 f i LIBCMTD:undname.obj
 0002:000c07f0       ?getTypeEncoding@UnDecorator@@CAHXZ 401247f0 f i LIBCMTD:undname.obj
 0002:000c14c0       ?getBasedType@UnDecorator@@CA?AVDName@@XZ 401254c0 f   LIBCMTD:undname.obj
 0002:000c15b0       ?getScopedName@UnDecorator@@CA?AVDName@@XZ 401255b0 f   LIBCMTD:undname.obj
 0002:000c1710       ?getCallingConvention@UnDecorator@@CA?AVDName@@XZ 40125710 f   LIBCMTD:undname.obj
 0002:000c18c0       ?getReturnType@UnDecorator@@CA?AVDName@@PAV2@@Z 401258c0 f   LIBCMTD:undname.obj
 0002:000c1920       ?getDataType@UnDecorator@@CA?AVDName@@PAV2@@Z 40125920 f   LIBCMTD:undname.obj
 0002:000c1a80       ?getPrimaryDataType@UnDecorator@@CA?AVDName@@ABV2@@Z 40125a80 f   LIBCMTD:undname.obj
 0002:000c1dd0       ?getArgumentTypes@UnDecorator@@CA?AVDName@@XZ 40125dd0 f   LIBCMTD:undname.obj
 0002:000c1f80       ?getArgumentList@UnDecorator@@CA?AVDName@@XZ 40125f80 f   LIBCMTD:undname.obj
 0002:000c2120       ?getThrowTypes@UnDecorator@@CA?AVDName@@XZ 40126120 f   LIBCMTD:undname.obj
 0002:000c2200       ?getBasicDataType@UnDecorator@@CA?AVDName@@ABV2@@Z 40126200 f   LIBCMTD:undname.obj
 0002:000c2910       ?getECSUDataType@UnDecorator@@CA?AVDName@@XZ 40126910 f   LIBCMTD:undname.obj
 0002:000c2b60       ?getECSUName@UnDecorator@@CA?AVDName@@XZ 40126b60 f i LIBCMTD:undname.obj
 0002:000c2b80       ?getEnumType@UnDecorator@@CA?AVDName@@XZ 40126b80 f i LIBCMTD:undname.obj
 0002:000c2d20       ?getFunctionIndirectType@UnDecorator@@CA?AVDName@@ABV2@@Z 40126d20 f   LIBCMTD:undname.obj
 0002:000c3270       ?getPtrRefType@UnDecorator@@CA?AVDName@@ABV2@0D@Z 40127270 f   LIBCMTD:undname.obj
 0002:000c3430       ?getExtendedDataIndirectType@UnDecorator@@CA?AVDName@@AADAA_NH@Z 40127430 f   LIBCMTD:undname.obj
 0002:000c36c0       ?getDataIndirectType@UnDecorator@@CA?AVDName@@ABV2@D0H@Z 401276c0 f   LIBCMTD:undname.obj
 0002:000c3f80       ?getPtrRefDataType@UnDecorator@@CA?AVDName@@ABV2@H@Z 40127f80 f i LIBCMTD:undname.obj
 0002:000c4110       ?getArrayType@UnDecorator@@CA?AVDName@@ABV2@@Z 40128110 f i LIBCMTD:undname.obj
 0002:000c43d0       ?getLexicalFrame@UnDecorator@@CA?AVDName@@XZ 401283d0 f i LIBCMTD:undname.obj
 0002:000c4420       ?getThisType@UnDecorator@@CA?AVDName@@XZ 40128420 f i LIBCMTD:undname.obj
 0002:000c4460       ?getPointerType@UnDecorator@@CA?AVDName@@ABV2@0@Z 40128460 f i LIBCMTD:undname.obj
 0002:000c4490       ?getPointerTypeArray@UnDecorator@@CA?AVDName@@ABV2@0@Z 40128490 f i LIBCMTD:undname.obj
 0002:000c44c0       ?getReferenceType@UnDecorator@@CA?AVDName@@ABV2@0@Z 401284c0 f i LIBCMTD:undname.obj
 0002:000c44f0       ?getDisplacement@UnDecorator@@CA?AVDName@@XZ 401284f0 f i LIBCMTD:undname.obj
 0002:000c4510       ?getCallIndex@UnDecorator@@CA?AVDName@@XZ 40128510 f i LIBCMTD:undname.obj
 0002:000c4530       ?getGuardNumber@UnDecorator@@CA?AVDName@@XZ 40128530 f i LIBCMTD:undname.obj
 0002:000c4550       ?getVbTableType@UnDecorator@@CA?AVDName@@ABV2@@Z 40128550 f i LIBCMTD:undname.obj
 0002:000c4570       ?getVCallThunkType@UnDecorator@@CA?AVDName@@XZ 40128570 f i LIBCMTD:undname.obj
 0002:000c45f0       ?getVfTableType@UnDecorator@@CA?AVDName@@ABV2@@Z 401285f0 f i LIBCMTD:undname.obj
 0002:000c4820       ?getStorageConvention@UnDecorator@@CA?AVDName@@XZ 40128820 f i LIBCMTD:undname.obj
 0002:000c4840       ?getDataIndirectType@UnDecorator@@CA?AVDName@@XZ 40128840 f i LIBCMTD:undname.obj
 0002:000c4880       ?getVdispMapType@UnDecorator@@CA?AVDName@@ABV2@@Z 40128880 f i LIBCMTD:undname.obj
 0002:000c4910       ?getExternalDataType@UnDecorator@@CA?AVDName@@ABV2@@Z 40128910 f i LIBCMTD:undname.obj
 0002:000c49d0       ?doMSKeywords@UnDecorator@@SAHXZ 401289d0 f i LIBCMTD:undname.obj
 0002:000c49f0       ?doPtr64@UnDecorator@@SAHXZ 401289f0 f i LIBCMTD:undname.obj
 0002:000c4a10       ?doFunctionReturns@UnDecorator@@SAHXZ 40128a10 f i LIBCMTD:undname.obj
 0002:000c4a30       ?doAllocationModel@UnDecorator@@SAHXZ 40128a30 f i LIBCMTD:undname.obj
 0002:000c4a50       ?doAllocationLanguage@UnDecorator@@SAHXZ 40128a50 f i LIBCMTD:undname.obj
 0002:000c4a70       ?doThisTypes@UnDecorator@@SAHXZ 40128a70 f i LIBCMTD:undname.obj
 0002:000c4a90       ?doAccessSpecifiers@UnDecorator@@SAHXZ 40128a90 f i LIBCMTD:undname.obj
 0002:000c4ab0       ?doThrowTypes@UnDecorator@@SAHXZ 40128ab0 f i LIBCMTD:undname.obj
 0002:000c4ad0       ?doMemberTypes@UnDecorator@@SAHXZ 40128ad0 f i LIBCMTD:undname.obj
 0002:000c4af0       ?doNameOnly@UnDecorator@@SAHXZ 40128af0 f i LIBCMTD:undname.obj
 0002:000c4b10       ?doTypeOnly@UnDecorator@@SAHXZ 40128b10 f i LIBCMTD:undname.obj
 0002:000c4b30       ?haveTemplateParameters@UnDecorator@@SAHXZ 40128b30 f i LIBCMTD:undname.obj
 0002:000c4b50       ?doEcsu@UnDecorator@@SAHXZ 40128b50 f i LIBCMTD:undname.obj
 0002:000c4b70       ?doEllipsis@UnDecorator@@SAHXZ 40128b70 f i LIBCMTD:undname.obj
 0002:000c4b90       ?UScore@UnDecorator@@SAPBDW4Tokens@@@Z 40128b90 f   LIBCMTD:undname.obj
 0002:000c4bd0       ?doUnderScore@UnDecorator@@SAHXZ 40128bd0 f i LIBCMTD:undname.obj
 0002:000c4bf0       ??2@YAPAXIAAVHeapManager@@H@Z 40128bf0 f i LIBCMTD:undname.obj
 0002:000c4c10       ?getMemory@HeapManager@@QAEPAXIH@Z 40128c10 f   LIBCMTD:undname.obj
 0002:000c4d60       ??0Block@HeapManager@@QAE@XZ 40128d60 f i LIBCMTD:undname.obj
 0002:000c4d80       ??H@YA?AVDName@@DABV0@@Z   40128d80 f i LIBCMTD:undname.obj
 0002:000c4dc0       ??H@YA?AVDName@@W4DNameStatus@@ABV0@@Z 40128dc0 f i LIBCMTD:undname.obj
 0002:000c4e00       ??H@YA?AVDName@@PBDABV0@@Z 40128e00 f i LIBCMTD:undname.obj
 0002:000c4e40       ??0DName@@QAE@XZ           40128e40 f i LIBCMTD:undname.obj
 0002:000c4f30       ??0DName@@QAE@D@Z          40128f30 f   LIBCMTD:undname.obj
 0002:000c5040       ??0DName@@QAE@ABV0@@Z      40129040 f i LIBCMTD:undname.obj
 0002:000c5070       ??0DName@@QAE@PAV0@@Z      40129070 f   LIBCMTD:undname.obj
 0002:000c51f0       ??0DName@@QAE@PBD@Z        401291f0 f   LIBCMTD:undname.obj
 0002:000c5310       ??0DName@@QAE@AAPBDD@Z     40129310 f   LIBCMTD:undname.obj
 0002:000c5680       ?doNoIdentCharCheck@UnDecorator@@SAHXZ 40129680 f i LIBCMTD:undname.obj
 0002:000c56a0       ??0DName@@QAE@_K@Z         401296a0 f   LIBCMTD:undname.obj
 0002:000c5830       ??0DName@@QAE@_J@Z         40129830 f   LIBCMTD:undname.obj
 0002:000c5a10       ??0DName@@QAE@W4DNameStatus@@@Z 40129a10 f   LIBCMTD:undname.obj
 0002:000c5b70       ?isValid@DName@@QBEHXZ     40129b70 f i LIBCMTD:undname.obj
 0002:000c5ba0       ?isEmpty@DName@@QBEHXZ     40129ba0 f i LIBCMTD:undname.obj
 0002:000c5bc0       ?status@DName@@QBE?AW4DNameStatus@@XZ 40129bc0 f i LIBCMTD:undname.obj
 0002:000c5be0       ?setPtrRef@DName@@QAEAAV1@XZ 40129be0 f i LIBCMTD:undname.obj
 0002:000c5c10       ?isPtrRef@DName@@QBEHXZ    40129c10 f i LIBCMTD:undname.obj
 0002:000c5c30       ?isUDC@DName@@QBEHXZ       40129c30 f i LIBCMTD:undname.obj
 0002:000c5c80       ?setIsUDC@DName@@QAEXXZ    40129c80 f i LIBCMTD:undname.obj
 0002:000c5cc0       ?isUDTThunk@DName@@QBEHXZ  40129cc0 f i LIBCMTD:undname.obj
 0002:000c5d10       ?setIsArray@DName@@QAEXXZ  40129d10 f i LIBCMTD:undname.obj
 0002:000c5d40       ?isArray@DName@@QBEHXZ     40129d40 f i LIBCMTD:undname.obj
 0002:000c5d60       ?isNoTE@DName@@QBEHXZ      40129d60 f i LIBCMTD:undname.obj
 0002:000c5d80       ?setIsNoTE@DName@@QAEXXZ   40129d80 f i LIBCMTD:undname.obj
 0002:000c5db0       ?isPinPtr@DName@@QBEHXZ    40129db0 f i LIBCMTD:undname.obj
 0002:000c5dd0       ?setIsPinPtr@DName@@QAEXXZ 40129dd0 f i LIBCMTD:undname.obj
 0002:000c5e00       ?isComArray@DName@@QBEHXZ  40129e00 f i LIBCMTD:undname.obj
 0002:000c5e20       ?setIsComArray@DName@@QAEXXZ 40129e20 f i LIBCMTD:undname.obj
 0002:000c5e50       ?isVCallThunk@DName@@QBEHXZ 40129e50 f i LIBCMTD:undname.obj
 0002:000c5e70       ?setIsVCallThunk@DName@@QAEXXZ 40129e70 f i LIBCMTD:undname.obj
 0002:000c5ea0       ?length@DName@@QBEHXZ      40129ea0 f i LIBCMTD:undname.obj
 0002:000c5ee0       ?getLastChar@DName@@QBEDXZ 40129ee0 f i LIBCMTD:undname.obj
 0002:000c5f20       ?getString@DName@@QBEPADPADH@Z 40129f20 f i LIBCMTD:undname.obj
 0002:000c5fd0       ?getString@DName@@QBEPADPAD0@Z 40129fd0 f i LIBCMTD:undname.obj
 0002:000c6020       ??HDName@@QBE?AV0@D@Z      4012a020 f   LIBCMTD:undname.obj
 0002:000c6070       ??HDName@@QBE?AV0@PBD@Z    4012a070 f   LIBCMTD:undname.obj
 0002:000c60c0       ??HDName@@QBE?AV0@ABV0@@Z  4012a0c0 f   LIBCMTD:undname.obj
 0002:000c6110       ??HDName@@QBE?AV0@PAV0@@Z  4012a110 f   LIBCMTD:undname.obj
 0002:000c6160       ??HDName@@QBE?AV0@W4DNameStatus@@@Z 4012a160 f   LIBCMTD:undname.obj
 0002:000c61b0       ?append@DName@@AAEXPAVDNameNode@@@Z 4012a1b0 f   LIBCMTD:undname.obj
 0002:000c6260       ??YDName@@QAEAAV0@D@Z      4012a260 f   LIBCMTD:undname.obj
 0002:000c6310       ??YDName@@QAEAAV0@PBD@Z    4012a310 f   LIBCMTD:undname.obj
 0002:000c63d0       ??YDName@@QAEAAV0@ABV0@@Z  4012a3d0 f   LIBCMTD:undname.obj
 0002:000c6450       ??YDName@@QAEAAV0@PAV0@@Z  4012a450 f   LIBCMTD:undname.obj
 0002:000c6530       ??YDName@@QAEAAV0@W4DNameStatus@@@Z 4012a530 f   LIBCMTD:undname.obj
 0002:000c65b0       ??_5DName@@QAEAAV0@ABV0@@Z 4012a5b0 f   LIBCMTD:undname.obj
 0002:000c6620       ??4DName@@QAEAAV0@D@Z      4012a620 f i LIBCMTD:undname.obj
 0002:000c6730       ??4DName@@QAEAAV0@PBD@Z    4012a730 f   LIBCMTD:undname.obj
 0002:000c6840       ??4DName@@QAEAAV0@ABV0@@Z  4012a840 f   LIBCMTD:undname.obj
 0002:000c6870       ??4DName@@QAEAAV0@PAV0@@Z  4012a870 f   LIBCMTD:undname.obj
 0002:000c69f0       ??4DName@@QAEAAV0@W4DNameStatus@@@Z 4012a9f0 f   LIBCMTD:undname.obj
 0002:000c6b30       ?doPchar@DName@@AAEXPBDH@Z 4012ab30 f   LIBCMTD:undname.obj
 0002:000c6cc0       ?isFull@Replicator@@QBEHXZ 4012acc0 f i LIBCMTD:undname.obj
 0002:000c6ce0       ??0Replicator@@QAE@XZ      4012ace0 f i LIBCMTD:undname.obj
 0002:000c6d00       ??YReplicator@@QAEAAV0@ABVDName@@@Z 4012ad00 f   LIBCMTD:undname.obj
 0002:000c6db0       ??AReplicator@@QBE?AVDName@@H@Z 4012adb0 f   LIBCMTD:undname.obj
 0002:000c6e30       ??0DNameNode@@IAE@XZ       4012ae30 f   LIBCMTD:undname.obj
 0002:000c6e50       ??0charNode@@QAE@D@Z       4012ae50 f   LIBCMTD:undname.obj
 0002:000c6e90       ?length@charNode@@UBEHXZ   4012ae90 f i LIBCMTD:undname.obj
 0002:000c6eb0       ?getLastChar@charNode@@UBEDXZ 4012aeb0 f i LIBCMTD:undname.obj
 0002:000c6ed0       ?getString@charNode@@UBEPADPAD0@Z 4012aed0 f i LIBCMTD:undname.obj
 0002:000c6f10       ??0pcharNode@@QAE@PBDH@Z   4012af10 f   LIBCMTD:undname.obj
 0002:000c6fd0       ?length@pcharNode@@UBEHXZ  4012afd0 f i LIBCMTD:undname.obj
 0002:000c6ff0       ?getLastChar@pcharNode@@UBEDXZ 4012aff0 f i LIBCMTD:undname.obj
 0002:000c7040       ?getString@pcharNode@@UBEPADPAD0@Z 4012b040 f i LIBCMTD:undname.obj
 0002:000c7080       ?getStringHelper@@YAPADPAD00H@Z 4012b080 f i LIBCMTD:undname.obj
 0002:000c70d0       ??0pDNameNode@@QAE@PAVDName@@@Z 4012b0d0 f   LIBCMTD:undname.obj
 0002:000c7150       ?length@pDNameNode@@UBEHXZ 4012b150 f i LIBCMTD:undname.obj
 0002:000c7190       ?getLastChar@pDNameNode@@UBEDXZ 4012b190 f i LIBCMTD:undname.obj
 0002:000c71d0       ?getString@pDNameNode@@UBEPADPAD0@Z 4012b1d0 f i LIBCMTD:undname.obj
 0002:000c7220       ??0DNameStatusNode@@AAE@W4DNameStatus@@@Z 4012b220 f   LIBCMTD:undname.obj
 0002:000c7280       ?length@DNameStatusNode@@UBEHXZ 4012b280 f i LIBCMTD:undname.obj
 0002:000c72a0       ?getLastChar@DNameStatusNode@@UBEDXZ 4012b2a0 f i LIBCMTD:undname.obj
 0002:000c72d0       ?getString@DNameStatusNode@@UBEPADPAD0@Z 4012b2d0 f i LIBCMTD:undname.obj
 0002:000c7320       ?make@DNameStatusNode@@SAPAV1@W4DNameStatus@@@Z 4012b320 f i LIBCMTD:undname.obj
 0002:000c7400       ??0pairNode@@QAE@PAVDNameNode@@0@Z 4012b400 f   LIBCMTD:undname.obj
 0002:000c7450       ?length@pairNode@@UBEHXZ   4012b450 f i LIBCMTD:undname.obj
 0002:000c74b0       ?getLastChar@pairNode@@UBEDXZ 4012b4b0 f i LIBCMTD:undname.obj
 0002:000c7510       ?getString@pairNode@@UBEPADPAD0@Z 4012b510 f i LIBCMTD:undname.obj
 0002:000c7690       ___crtCompareStringA       4012b690 f   LIBCMTD:a_cmp.obj
 0002:000c7db0       __strnicoll_l              4012bdb0 f   LIBCMTD:strnicol.obj
 0002:000c8090       __strnicoll                4012c090 f   LIBCMTD:strnicol.obj
 0002:000c80e0       ___crtsetenv               4012c0e0 f   LIBCMTD:setenv.obj
 0002:000c8900       __purecall                 4012c900 f   LIBCMTD:purevirt.obj
 0002:000c8950       __set_purecall_handler     4012c950 f   LIBCMTD:purevirt.obj
 0002:000c89a0       __get_purecall_handler     4012c9a0 f   LIBCMTD:purevirt.obj
 0002:000c89c0       __mbschr_l                 4012c9c0 f   LIBCMTD:mbschr.obj
 0002:000c8bb0       __mbschr                   4012cbb0 f   LIBCMTD:mbschr.obj
 0002:000c8bd0       _GetModuleFileNameW@12     4012cbd0 f   kernel32:KERNEL32.dll
 0002:000c8bd6       _WriteConsoleW@20          4012cbd6 f   kernel32:KERNEL32.dll
 0002:000c8bdc       _GetFileType@4             4012cbdc f   kernel32:KERNEL32.dll
 0002:000c8be2       _GetStdHandle@4            4012cbe2 f   kernel32:KERNEL32.dll
 0002:000c8be8       _IsDebuggerPresent@0       4012cbe8 f   kernel32:KERNEL32.dll
 0002:000c8bee       _RaiseException@16         4012cbee f   kernel32:KERNEL32.dll
 0002:000c8bf4       _DebugBreak@0              4012cbf4 f   kernel32:KERNEL32.dll
 0002:000c8bfa       _WideCharToMultiByte@32    4012cbfa f   kernel32:KERNEL32.dll
 0002:000c8c00       _MultiByteToWideChar@24    4012cc00 f   kernel32:KERNEL32.dll
 0002:000c8c06       _lstrlenA@4                4012cc06 f   kernel32:KERNEL32.dll
 0002:000c8c0c       _GetProcAddress@8          4012cc0c f   kernel32:KERNEL32.dll
 0002:000c8c12       _LoadLibraryA@4            4012cc12 f   kernel32:KERNEL32.dll
 0002:000c8c18       _GetCurrentThreadId@0      4012cc18 f   kernel32:KERNEL32.dll
 0002:000c8c1e       _GetCommandLineA@0         4012cc1e f   kernel32:KERNEL32.dll
 0002:000c8c24       _TerminateProcess@8        4012cc24 f   kernel32:KERNEL32.dll
 0002:000c8c2a       _GetCurrentProcess@0       4012cc2a f   kernel32:KERNEL32.dll
 0002:000c8c30       _UnhandledExceptionFilter@4 4012cc30 f   kernel32:KERNEL32.dll
 0002:000c8c36       _SetUnhandledExceptionFilter@4 4012cc36 f   kernel32:KERNEL32.dll
 0002:000c8c3c       _GetModuleHandleA@4        4012cc3c f   kernel32:KERNEL32.dll
 0002:000c8c42       _InterlockedIncrement@4    4012cc42 f   kernel32:KERNEL32.dll
 0002:000c8c48       _InterlockedDecrement@4    4012cc48 f   kernel32:KERNEL32.dll
 0002:000c8c4e       _GetACP@0                  4012cc4e f   kernel32:KERNEL32.dll
 0002:000c8c54       _GetOEMCP@0                4012cc54 f   kernel32:KERNEL32.dll
 0002:000c8c5a       _GetCPInfo@8               4012cc5a f   kernel32:KERNEL32.dll
 0002:000c8c60       _IsValidCodePage@4         4012cc60 f   kernel32:KERNEL32.dll
 0002:000c8c66       _TlsGetValue@4             4012cc66 f   kernel32:KERNEL32.dll
 0002:000c8c6c       _GetModuleHandleW@4        4012cc6c f   kernel32:KERNEL32.dll
 0002:000c8c72       _TlsAlloc@0                4012cc72 f   kernel32:KERNEL32.dll
 0002:000c8c78       _TlsSetValue@8             4012cc78 f   kernel32:KERNEL32.dll
 0002:000c8c7e       _TlsFree@4                 4012cc7e f   kernel32:KERNEL32.dll
 0002:000c8c84       _SetLastError@4            4012cc84 f   kernel32:KERNEL32.dll
 0002:000c8c8a       _GetLastError@0            4012cc8a f   kernel32:KERNEL32.dll
 0002:000c8c90       _GetCurrentThread@0        4012cc90 f   kernel32:KERNEL32.dll
 0002:000c8c96       _Sleep@4                   4012cc96 f   kernel32:KERNEL32.dll
 0002:000c8c9c       _ExitProcess@4             4012cc9c f   kernel32:KERNEL32.dll
 0002:000c8ca2       _SetConsoleCtrlHandler@8   4012cca2 f   kernel32:KERNEL32.dll
 0002:000c8ca8       _LoadLibraryW@4            4012cca8 f   kernel32:KERNEL32.dll
 0002:000c8cae       _EnterCriticalSection@4    4012ccae f   kernel32:KERNEL32.dll
 0002:000c8cb4       _LeaveCriticalSection@4    4012ccb4 f   kernel32:KERNEL32.dll
 0002:000c8cba       _LCMapStringA@24           4012ccba f   kernel32:KERNEL32.dll
 0002:000c8cc0       _LCMapStringW@24           4012ccc0 f   kernel32:KERNEL32.dll
 0002:000c8cc6       _HeapFree@12               4012ccc6 f   kernel32:KERNEL32.dll
 0002:000c8ccc       _HeapAlloc@12              4012cccc f   kernel32:KERNEL32.dll
 0002:000c8cd2       _GetProcessHeap@0          4012ccd2 f   kernel32:KERNEL32.dll
 0002:000c8cd8       _VirtualQuery@12           4012ccd8 f   kernel32:KERNEL32.dll
 0002:000c8cde       _FreeLibrary@4             4012ccde f   kernel32:KERNEL32.dll
 0002:000c8ce4       _HeapValidate@12           4012cce4 f   kernel32:KERNEL32.dll
 0002:000c8cea       _IsBadReadPtr@8            4012ccea f   kernel32:KERNEL32.dll
 0002:000c8cf0       _SetHandleCount@4          4012ccf0 f   kernel32:KERNEL32.dll
 0002:000c8cf6       _GetStartupInfoA@4         4012ccf6 f   kernel32:KERNEL32.dll
 0002:000c8cfc       _DeleteCriticalSection@4   4012ccfc f   kernel32:KERNEL32.dll
 0002:000c8d02       _GetModuleFileNameA@12     4012cd02 f   kernel32:KERNEL32.dll
 0002:000c8d08       _FreeEnvironmentStringsA@4 4012cd08 f   kernel32:KERNEL32.dll
 0002:000c8d0e       _GetEnvironmentStrings@0   4012cd0e f   kernel32:KERNEL32.dll
 0002:000c8d14       _FreeEnvironmentStringsW@4 4012cd14 f   kernel32:KERNEL32.dll
 0002:000c8d1a       _GetEnvironmentStringsW@0  4012cd1a f   kernel32:KERNEL32.dll
 0002:000c8d20       _HeapDestroy@4             4012cd20 f   kernel32:KERNEL32.dll
 0002:000c8d26       _HeapCreate@12             4012cd26 f   kernel32:KERNEL32.dll
 0002:000c8d2c       _VirtualFree@12            4012cd2c f   kernel32:KERNEL32.dll
 0002:000c8d32       _QueryPerformanceCounter@4 4012cd32 f   kernel32:KERNEL32.dll
 0002:000c8d38       _GetTickCount@0            4012cd38 f   kernel32:KERNEL32.dll
 0002:000c8d3e       _GetCurrentProcessId@0     4012cd3e f   kernel32:KERNEL32.dll
 0002:000c8d44       _GetSystemTimeAsFileTime@4 4012cd44 f   kernel32:KERNEL32.dll
 0002:000c8d4a       _RtlUnwind@16              4012cd4a f   kernel32:KERNEL32.dll
 0002:000c8d50       _GetStringTypeA@20         4012cd50 f   kernel32:KERNEL32.dll
 0002:000c8d56       _GetStringTypeW@16         4012cd56 f   kernel32:KERNEL32.dll
 0002:000c8d5c       _FatalAppExitA@8           4012cd5c f   kernel32:KERNEL32.dll
 0002:000c8d62       _WriteFile@20              4012cd62 f   kernel32:KERNEL32.dll
 0002:000c8d68       _OutputDebugStringA@4      4012cd68 f   kernel32:KERNEL32.dll
 0002:000c8d6e       _OutputDebugStringW@4      4012cd6e f   kernel32:KERNEL32.dll
 0002:000c8d74       _GetTimeFormatA@24         4012cd74 f   kernel32:KERNEL32.dll
 0002:000c8d7a       _GetDateFormatA@24         4012cd7a f   kernel32:KERNEL32.dll
 0002:000c8d80       _GetLocaleInfoA@16         4012cd80 f   kernel32:KERNEL32.dll
 0002:000c8d86       _IsValidLocale@8           4012cd86 f   kernel32:KERNEL32.dll
 0002:000c8d8c       _EnumSystemLocalesA@8      4012cd8c f   kernel32:KERNEL32.dll
 0002:000c8d92       _GetUserDefaultLCID@0      4012cd92 f   kernel32:KERNEL32.dll
 0002:000c8d98       _InterlockedExchange@8     4012cd98 f   kernel32:KERNEL32.dll
 0002:000c8d9e       _InitializeCriticalSectionAndSpinCount@8 4012cd9e f   kernel32:KERNEL32.dll
 0002:000c8da4       _FlushFileBuffers@4        4012cda4 f   kernel32:KERNEL32.dll
 0002:000c8daa       _GetConsoleCP@0            4012cdaa f   kernel32:KERNEL32.dll
 0002:000c8db0       _GetConsoleMode@8          4012cdb0 f   kernel32:KERNEL32.dll
 0002:000c8db6       _SetFilePointer@16         4012cdb6 f   kernel32:KERNEL32.dll
 0002:000c8dbc       _HeapSize@12               4012cdbc f   kernel32:KERNEL32.dll
 0002:000c8dc2       _HeapReAlloc@16            4012cdc2 f   kernel32:KERNEL32.dll
 0002:000c8dc8       _VirtualAlloc@16           4012cdc8 f   kernel32:KERNEL32.dll
 0002:000c8dce       _GetTimeZoneInformation@4  4012cdce f   kernel32:KERNEL32.dll
 0002:000c8dd4       _GetLocaleInfoW@16         4012cdd4 f   kernel32:KERNEL32.dll
 0002:000c8dda       _SetStdHandle@8            4012cdda f   kernel32:KERNEL32.dll
 0002:000c8de0       _WriteConsoleA@20          4012cde0 f   kernel32:KERNEL32.dll
 0002:000c8de6       _GetConsoleOutputCP@0      4012cde6 f   kernel32:KERNEL32.dll
 0002:000c8dec       _ReadFile@20               4012cdec f   kernel32:KERNEL32.dll
 0002:000c8df2       _CreateFileA@28            4012cdf2 f   kernel32:KERNEL32.dll
 0002:000c8df8       _CloseHandle@4             4012cdf8 f   kernel32:KERNEL32.dll
 0002:000c8dfe       _CompareStringA@24         4012cdfe f   kernel32:KERNEL32.dll
 0002:000c8e04       _CompareStringW@24         4012ce04 f   kernel32:KERNEL32.dll
 0002:000c8e0a       _SetEnvironmentVariableA@8 4012ce0a f   kernel32:KERNEL32.dll
 0002:000c8e10       __strupr_l                 4012ce10 f   LIBCMTD:strupr.obj
 0002:000c8e40       _strupr                    4012ce40 f   LIBCMTD:strupr.obj
 0002:000c8e40       __strupr                   4012ce40 f   LIBCMTD:strupr.obj
 0002:000c8f50       __strupr_s_l               4012cf50 f   LIBCMTD:strupr.obj
 0002:000c94d0       __strupr_s                 4012d4d0 f   LIBCMTD:strupr.obj
 0003:00000000       ___xc_a                    4012f000     LIBCMTD:crt0init.obj
 0003:00000104       ___xc_z                    4012f104     LIBCMTD:crt0init.obj
 0003:00000208       ___xi_a                    4012f208     LIBCMTD:crt0init.obj
 0003:00000424       ___xi_z                    4012f424     LIBCMTD:crt0init.obj
 0003:00000528       ___xp_a                    4012f528     LIBCMTD:crt0init.obj
 0003:0000083c       ___xp_z                    4012f83c     LIBCMTD:crt0init.obj
 0003:00000940       ___xt_a                    4012f940     LIBCMTD:crt0init.obj
 0003:00000a44       ___xt_z                    4012fa44     LIBCMTD:crt0init.obj
 0003:00000b6c       ??_C@_08GBKLDCBE@EV_TAUNT?$AA@ 4012fb6c     bg_misc.obj
 0003:00000b78       ??_C@_0BF@EAHNFOOG@EV_STARTLOOPINGSOUND?$AA@ 4012fb78     bg_misc.obj
 0003:00000b94       ??_C@_0BE@OHJHDFJH@EV_STOPLOOPINGSOUND?$AA@ 4012fb94     bg_misc.obj
 0003:00000bac       ??_C@_0M@LDAKOPJP@EV_TESTLINE?$AA@ 4012fbac     bg_misc.obj
 0003:00000bbc       ??_C@_0O@PBPAKHP@EV_DEBUG_LINE?$AA@ 4012fbbc     bg_misc.obj
 0003:00000bcc       ??_C@_0O@CBLOOGHB@EV_SHIELD_HIT?$AA@ 4012fbcc     bg_misc.obj
 0003:00000bdc       ??_C@_0BF@LLJHJACN@EV_WEAPON_CHARGE_ALT?$AA@ 4012fbdc     bg_misc.obj
 0003:00000bf8       ??_C@_0BB@HAHOHAKJ@EV_WEAPON_CHARGE?$AA@ 4012fbf8     bg_misc.obj
 0003:00000c0c       ??_C@_0BF@KFICFFCM@EV_SET_FORCE_DISABLE?$AA@ 4012fc0c     bg_misc.obj
 0003:00000c28       ??_C@_0BC@DDJADHAK@EV_SET_FREE_SABER?$AA@ 4012fc28     bg_misc.obj
 0003:00000c40       ??_C@_0BB@JIHOLMBD@EV_GIVE_NEW_RANK?$AA@ 4012fc40     bg_misc.obj
 0003:00000c54       ??_C@_0BI@CEGPCIEH@EV_DESTROY_WEAPON_MODEL?$AA@ 4012fc54     bg_misc.obj
 0003:00000c70       ??_C@_0BL@DNICLAEN@EV_DESTROY_GHOUL2_INSTANCE?$AA@ 4012fc70     bg_misc.obj
 0003:00000c90       ??_C@_0BL@CGBBFEIE@EV_SIEGE_OBJECTIVECOMPLETE?$AA@ 4012fc90     bg_misc.obj
 0003:00000cb0       ??_C@_0BD@LACADBAO@EV_SIEGE_ROUNDOVER?$AA@ 4012fcb0     bg_misc.obj
 0003:00000cc8       ??_C@_0M@GBGEMMKK@EV_BODYFADE?$AA@ 4012fcc8     bg_misc.obj
 0003:00000cd8       ??_C@_0O@NEHCEMNJ@EV_CTFMESSAGE?$AA@ 4012fcd8     bg_misc.obj
 0003:00000ce8       ??_C@_0N@GAJBP@EV_SCOREPLUM?$AA@ 4012fce8     bg_misc.obj
 0003:00000cf8       ??_C@_0O@JLGFLKBE@EV_GIB_PLAYER?$AA@ 4012fcf8     bg_misc.obj
 0003:00000d08       ??_C@_0BB@KGMADNKO@EV_FORCE_DRAINED?$AA@ 4012fd08     bg_misc.obj
 0003:00000d1c       ??_C@_0BG@CHAMNADK@EV_POWERUP_BATTLESUIT?$AA@ 4012fd1c     bg_misc.obj
 0003:00000d38       ??_C@_0BA@HLHGHIIE@EV_POWERUP_QUAD?$AA@ 4012fd38     bg_misc.obj
 0003:00000d4c       ??_C@_0M@PPLCDPP@EV_OBITUARY?$AA@ 4012fd4c     bg_misc.obj
 0003:00000d5c       ??_C@_09KNGHBIAK@EV_DEATH3?$AA@ 4012fd5c     bg_misc.obj
 0003:00000d68       ??_C@_09LEHMCJEL@EV_DEATH2?$AA@ 4012fd68     bg_misc.obj
 0003:00000d74       ??_C@_09JPFBHKII@EV_DEATH1?$AA@ 4012fd74     bg_misc.obj
 0003:00000d80       ??_C@_07EMHHKOOH@EV_PAIN?$AA@ 4012fd80     bg_misc.obj
 0003:00000d8c       ??_C@_09ICDIPKFJ@EV_BULLET?$AA@ 4012fd8c     bg_misc.obj
 0003:00000d98       ??_C@_0BG@LPAHEABB@EV_MISSILE_MISS_METAL?$AA@ 4012fd98     bg_misc.obj
 0003:00000db4       ??_C@_0BA@CAHALNAE@EV_MISSILE_MISS?$AA@ 4012fdb4     bg_misc.obj
 0003:00000dc8       ??_C@_0P@JFMFNBMO@EV_MISSILE_HIT?$AA@ 4012fdc8     bg_misc.obj
 0003:00000ddc       ??_C@_0BD@PIOAMKHB@EV_CONC_ALT_IMPACT?$AA@ 4012fddc     bg_misc.obj
 0003:00000df4       ??_C@_0BC@MLGOBNCG@EV_MISC_MODEL_EXP?$AA@ 4012fdf4     bg_misc.obj
 0003:00000e0c       ??_C@_09KLJDDMJG@EV_DEBRIS?$AA@ 4012fe0c     bg_misc.obj
 0003:00000e18       ??_C@_0BB@HHFJBAND@EV_GLASS_SHATTER?$AA@ 4012fe18     bg_misc.obj
 0003:00000e2c       ??_C@_0N@BEKJCCJE@EV_PLAY_ROFF?$AA@ 4012fe2c     bg_misc.obj
 0003:00000e3c       ??_C@_0BA@LLJGBFCE@EV_ENTITY_SOUND?$AA@ 4012fe3c     bg_misc.obj
 0003:00000e50       ??_C@_0BF@DDOIKLHD@EV_GLOBAL_TEAM_SOUND?$AA@ 4012fe50     bg_misc.obj
 0003:00000e6c       ??_C@_0BA@JAMKLOPJ@EV_GLOBAL_SOUND?$AA@ 4012fe6c     bg_misc.obj
 0003:00000e80       ??_C@_0BB@LJGGMAII@EV_GENERAL_SOUND?$AA@ 4012fe80     bg_misc.obj
 0003:00000e94       ??_C@_0BC@GMNGJAOD@EV_VOICECMD_SOUND?$AA@ 4012fe94     bg_misc.obj
 0003:00000eac       ??_C@_0O@JHBKAOKG@EV_MUTE_SOUND?$AA@ 4012feac     bg_misc.obj
 0003:00000ebc       ??_C@_0BA@EGLCGAMO@EV_BMODEL_SOUND?$AA@ 4012febc     bg_misc.obj
 0003:00000ed0       ??_C@_0BF@BLAPJAMF@EV_PLAYDOORLOOPSOUND?$AA@ 4012fed0     bg_misc.obj
 0003:00000eec       ??_C@_0BB@OGNONJKP@EV_PLAYDOORSOUND?$AA@ 4012feec     bg_misc.obj
 0003:00000f00       ??_C@_0BJ@CGDHKBCK@EV_PLAY_PORTAL_EFFECT_ID?$AA@ 4012ff00     bg_misc.obj
 0003:00000f20       ??_C@_0BC@LCOMFDPL@EV_PLAY_EFFECT_ID?$AA@ 4012ff20     bg_misc.obj
 0003:00000f38       ??_C@_0P@PLIFONPM@EV_PLAY_EFFECT?$AA@ 4012ff38     bg_misc.obj
 0003:00000f4c       ??_C@_0BB@JGOOAGDJ@EV_MISSILE_STICK?$AA@ 4012ff4c     bg_misc.obj
 0003:00000f60       ??_C@_0BC@ECIIAFLJ@EV_GRENADE_BOUNCE?$AA@ 4012ff60     bg_misc.obj
 0003:00000f78       ??_C@_0BH@FNNILPIN@EV_PLAYER_TELEPORT_OUT?$AA@ 4012ff78     bg_misc.obj
 0003:00000f94       ??_C@_0BG@HBBJKNDP@EV_PLAYER_TELEPORT_IN?$AA@ 4012ff94     bg_misc.obj
 0003:00000fb0       ??_C@_0M@ECGFPIMP@EV_ITEM_POP?$AA@ 4012ffb0     bg_misc.obj
 0003:00000fc0       ??_C@_0BA@GJNCODNG@EV_ITEM_RESPAWN?$AA@ 4012ffc0     bg_misc.obj
 0003:00000fd4       ??_C@_0P@JFHCOBFC@EV_ITEMUSEFAIL?$AA@ 4012ffd4     bg_misc.obj
 0003:00000fe8       ??_C@_0O@HHGOLJPJ@EV_USE_ITEM15?$AA@ 4012ffe8     bg_misc.obj
 0003:00000ff8       ??_C@_0O@GOHFIILI@EV_USE_ITEM14?$AA@ 4012fff8     bg_misc.obj
 0003:00001008       ??_C@_0O@CBDEBOHP@EV_USE_ITEM13?$AA@ 40130008     bg_misc.obj
 0003:00001018       ??_C@_0O@DICPCPDO@EV_USE_ITEM12?$AA@ 40130018     bg_misc.obj
 0003:00001028       ??_C@_0O@BDACHMPN@EV_USE_ITEM11?$AA@ 40130028     bg_misc.obj
 0003:00001038       ??_C@_0O@KBJENLM@EV_USE_ITEM10?$AA@ 40130038     bg_misc.obj
 0003:00001048       ??_C@_0N@PHODCBCK@EV_USE_ITEM9?$AA@ 40130048     bg_misc.obj
 0003:00001058       ??_C@_0N@OOPIBAGL@EV_USE_ITEM8?$AA@ 40130058     bg_misc.obj
 0003:00001068       ??_C@_0N@GJGAAMKE@EV_USE_ITEM7?$AA@ 40130068     bg_misc.obj
 0003:00001078       ??_C@_0N@HAHLDNOF@EV_USE_ITEM6?$AA@ 40130078     bg_misc.obj
 0003:00001088       ??_C@_0N@FLFGGOCG@EV_USE_ITEM5?$AA@ 40130088     bg_misc.obj
 0003:00001098       ??_C@_0N@ECENFPGH@EV_USE_ITEM4?$AA@ 40130098     bg_misc.obj
 0003:000010a8       ??_C@_0N@NAMMJKA@EV_USE_ITEM3?$AA@ 401300a8     bg_misc.obj
 0003:000010b8       ??_C@_0N@BEBHPIOB@EV_USE_ITEM2?$AA@ 401300b8     bg_misc.obj
 0003:000010c8       ??_C@_0N@DPDKKLCC@EV_USE_ITEM1?$AA@ 401300c8     bg_misc.obj
 0003:000010d8       ??_C@_0N@CGCBJKGD@EV_USE_ITEM0?$AA@ 401300d8     bg_misc.obj
 0003:000010e8       ??_C@_06LBDBNJG@EV_USE?$AA@ 401300e8     bg_misc.obj
 0003:000010f0       ??_C@_0O@GLOAIHAI@EV_LOCALTIMER?$AA@ 401300f0     bg_misc.obj
 0003:00001100       ??_C@_0P@EIHBPBOL@EV_SCREENSHAKE?$AA@ 40130100     bg_misc.obj
 0003:00001114       ??_C@_0O@GMONIJJI@EV_TEAM_POWER?$AA@ 40130114     bg_misc.obj
 0003:00001124       ??_C@_0P@MDPKBHNH@EV_PREDEFSOUND?$AA@ 40130124     bg_misc.obj
 0003:00001138       ??_C@_0BH@GCPNKPAL@EV_DISRUPTOR_ZOOMSOUND?$AA@ 40130138     bg_misc.obj
 0003:00001154       ??_C@_0BB@JNGCFFFI@EV_DISRUPTOR_HIT?$AA@ 40130154     bg_misc.obj
 0003:00001168       ??_C@_0BJ@POMLOPMI@EV_DISRUPTOR_SNIPER_MISS?$AA@ 40130168     bg_misc.obj
 0003:00001188       ??_C@_0BJ@MDNKGNJN@EV_DISRUPTOR_SNIPER_SHOT?$AA@ 40130188     bg_misc.obj
 0003:000011a8       ??_C@_0BH@KDGLLAMO@EV_DISRUPTOR_MAIN_SHOT?$AA@ 401301a8     bg_misc.obj
 0003:000011c4       ??_C@_0BF@MBILLJJH@EV_BECOME_JEDIMASTER?$AA@ 401301c4     bg_misc.obj
 0003:000011e0       ??_C@_0BD@FFJMPGGA@EV_SABER_UNHOLSTER?$AA@ 401301e0     bg_misc.obj
 0003:000011f8       ??_C@_0BE@HNEOPGEL@EV_SABER_CLASHFLARE?$AA@ 401301f8     bg_misc.obj
 0003:00001210       ??_C@_0P@MNCBBKHB@EV_SABER_BLOCK?$AA@ 40130210     bg_misc.obj
 0003:00001224       ??_C@_0N@IKFBFHKB@EV_SABER_HIT?$AA@ 40130224     bg_misc.obj
 0003:00001234       ??_C@_0BA@FJAFFDLF@EV_SABER_ATTACK?$AA@ 40130234     bg_misc.obj
 0003:00001248       ??_C@_0M@LKPOHPHC@EV_ALT_FIRE?$AA@ 40130248     bg_misc.obj
 0003:00001258       ??_C@_0P@PFJPAFGH@EV_FIRE_WEAPON?$AA@ 40130258     bg_misc.obj
 0003:0000126c       ??_C@_0BB@ENKPHJLP@EV_CHANGE_WEAPON?$AA@ 4013026c     bg_misc.obj
 0003:00001280       ??_C@_09NMIICG@EV_NOAMMO?$AA@ 40130280     bg_misc.obj
 0003:0000128c       ??_C@_0M@MNGOLNFL@EV_VEH_FIRE?$AA@ 4013028c     bg_misc.obj
 0003:0000129c       ??_C@_0BG@KFILGAMN@EV_GLOBAL_ITEM_PICKUP?$AA@ 4013029c     bg_misc.obj
 0003:000012b8       ??_C@_0P@BGIOEPCB@EV_ITEM_PICKUP?$AA@ 401302b8     bg_misc.obj
 0003:000012cc       ??_C@_0P@NIPCJOBG@EV_WATER_CLEAR?$AA@ 401302cc     bg_misc.obj
 0003:000012e0       ??_C@_0P@MIAIODEJ@EV_WATER_UNDER?$AA@ 401302e0     bg_misc.obj
 0003:000012f4       ??_C@_0P@LHDMOIIG@EV_WATER_LEAVE?$AA@ 401302f4     bg_misc.obj
 0003:00001308       ??_C@_0P@GCDBKPMP@EV_WATER_TOUCH?$AA@ 40130308     bg_misc.obj
 0003:0000131c       ??_C@_07OCJFCKNN@EV_ROLL?$AA@ 4013031c     bg_misc.obj
 0003:00001328       ??_C@_07GKBEHGAP@EV_JUMP?$AA@ 40130328     bg_misc.obj
 0003:00001334       ??_C@_0BA@NCAJLGNF@EV_PRIVATE_DUEL?$AA@ 40130334     bg_misc.obj
 0003:00001348       ??_C@_0P@MHGGNABN@EV_GLOBAL_DUEL?$AA@ 40130348     bg_misc.obj
 0003:0000135c       ??_C@_0P@BMAPLDAL@EV_GHOUL2_MARK?$AA@ 4013035c     bg_misc.obj
 0003:00001370       ??_C@_0M@BPNFGBOJ@EV_JUMP_PAD?$AA@ 40130370     bg_misc.obj
 0003:00001380       ??_C@_07JHCKGMKM@EV_FALL?$AA@ 40130380     bg_misc.obj
 0003:0000138c       ??_C@_0L@HOOIOPKF@EV_STEP_16?$AA@ 4013038c     bg_misc.obj
 0003:0000139c       ??_C@_0L@BKIECKKB@EV_STEP_12?$AA@ 4013039c     bg_misc.obj
 0003:000013ac       ??_C@_09EHOLDGNN@EV_STEP_8?$AA@ 401303ac     bg_misc.obj
 0003:000013b8       ??_C@_09OLFOHJNB@EV_STEP_4?$AA@ 401303b8     bg_misc.obj
 0003:000013c4       ??_C@_07FFIIIPLH@EV_SWIM?$AA@ 401303c4     bg_misc.obj
 0003:000013d0       ??_C@_0M@NPJBGELA@EV_FOOTWADE?$AA@ 401303d0     bg_misc.obj
 0003:000013e0       ??_C@_0O@HLJHKIDH@EV_FOOTSPLASH?$AA@ 401303e0     bg_misc.obj
 0003:000013f0       ??_C@_0BC@DIJMAMMI@EV_FOOTSTEP_METAL?$AA@ 401303f0     bg_misc.obj
 0003:00001408       ??_C@_0M@HLKBOJPO@EV_FOOTSTEP?$AA@ 40130408     bg_misc.obj
 0003:00001418       ??_C@_0O@JHBAELOC@EV_CLIENTJOIN?$AA@ 40130418     bg_misc.obj
 0003:00001428       ??_C@_07JFMDDPHJ@EV_NONE?$AA@ 40130428     bg_misc.obj
 0003:00001434       ??_C@_0BB@JKNLMJAB@icons?1iconh_borb?$AA@ 40130434     bg_misc.obj
 0003:00001448       ??_C@_0BO@CMJEFEFK@models?1powerups?1orb?1b_orb?4md3?$AA@ 40130448     bg_misc.obj
 0003:0000146c       ??_C@_0O@NHDOFNIN@item_bluecube?$AA@ 4013046c     bg_misc.obj
 0003:0000147c       ??_C@_0BB@PKDLFOID@icons?1iconh_rorb?$AA@ 4013047c     bg_misc.obj
 0003:00001490       ??_C@_0BO@LDKNFLC@models?1powerups?1orb?1r_orb?4md3?$AA@ 40130490     bg_misc.obj
 0003:000014b4       ??_C@_0N@IDOEINCB@item_redcube?$AA@ 401304b4     bg_misc.obj
 0003:000014c4       ??_C@_0BF@OGGGKBMJ@icons?1iconf_neutral1?$AA@ 401304c4     bg_misc.obj
 0003:000014e0       ??_C@_0BI@FAJILPEC@models?1flags?1n_flag?4md3?$AA@ 401304e0     bg_misc.obj
 0003:000014fc       ??_C@_0BF@NFGOPKAE@team_CTF_neutralflag?$AA@ 401304fc     bg_misc.obj
 0003:00001518       ??_C@_0BC@JDBDOHJA@gfx?1hud?1mpi_bflag?$AA@ 40130518     bg_misc.obj
 0003:00001530       ??_C@_0BN@NABGHIBA@models?1flags?1b_flag_ysal?4md3?$AA@ 40130530     bg_misc.obj
 0003:00001554       ??_C@_0BI@FKICCNIF@models?1flags?1b_flag?4md3?$AA@ 40130554     bg_misc.obj
 0003:00001570       ??_C@_0BC@NLKCOFAB@team_CTF_blueflag?$AA@ 40130570     bg_misc.obj
 0003:00001588       ??_C@_0BC@JAMFOFAL@gfx?1hud?1mpi_rflag?$AA@ 40130588     bg_misc.obj
 0003:000015a0       ??_C@_0BN@DGDBEGIO@models?1flags?1r_flag_ysal?4md3?$AA@ 401305a0     bg_misc.obj
 0003:000015c4       ??_C@_0BI@PEHEOJEO@models?1flags?1r_flag?4md3?$AA@ 401305c4     bg_misc.obj
 0003:000015e0       ??_C@_0BB@JNMMCIHG@team_CTF_redflag?$AA@ 401305e0     bg_misc.obj
 0003:000015f4       ??_C@_0BJ@DIDDNCPE@models?1items?1battery?4md3?$AA@ 401305f4     bg_misc.obj
 0003:00001614       ??_C@_08LLJPIFOF@ammo_all?$AA@ 40130614     bg_misc.obj
 0003:00001620       ??_C@_0BE@IIEBFJHN@gfx?1mp?1ammo_rockets?$AA@ 40130620     bg_misc.obj
 0003:00001638       ??_C@_0BJ@BCBNBFGD@models?1items?1rockets?4md3?$AA@ 40130638     bg_misc.obj
 0003:00001658       ??_C@_0N@CLEPKBOE@ammo_rockets?$AA@ 40130658     bg_misc.obj
 0003:00001668       ??_C@_0BL@IPLJCMOM@gfx?1mp?1ammo_metallic_bolts?$AA@ 40130668     bg_misc.obj
 0003:00001688       ??_C@_0CA@POKDMLNN@models?1items?1metallic_bolts?4md3?$AA@ 40130688     bg_misc.obj
 0003:000016b0       ??_C@_0BE@OMMGIMPN@ammo_metallic_bolts?$AA@ 401306b0     bg_misc.obj
 0003:000016c8       ??_C@_0BH@KBMOAFPH@gfx?1mp?1ammo_power_cell?$AA@ 401306c8     bg_misc.obj
 0003:000016e4       ??_C@_0BM@GDMBBHDI@models?1items?1power_cell?4md3?$AA@ 401306e4     bg_misc.obj
 0003:00001708       ??_C@_0P@GBMHNHF@ammo_powercell?$AA@ 40130708     bg_misc.obj
 0003:0000171c       ??_C@_0BH@MFDMPLPM@gfx?1hud?1i_icon_battery?$AA@ 4013071c     bg_misc.obj
 0003:00001738       ??_C@_0N@JHBODPOG@ammo_blaster?$AA@ 40130738     bg_misc.obj
 0003:00001748       ??_C@_0BN@BKBHFNLE@models?1items?1energy_cell?4md3?$AA@ 40130748     bg_misc.obj
 0003:0000176c       ??_C@_0BO@EBHMDMMM@sound?1player?1pickupenergy?4wav?$AA@ 4013076c     bg_misc.obj
 0003:00001790       ??_C@_0L@GKDELMG@ammo_force?$AA@ 40130790     bg_misc.obj
 0003:000017a0       ??_C@_0BA@EENDCNMH@weapon_turretwp?$AA@ 401307a0     bg_misc.obj
 0003:000017b4       ??_C@_0BA@PHDHEKAE@weapon_emplaced?$AA@ 401307b4     bg_misc.obj
 0003:000017c8       ??_C@_0BA@DBJEACCG@weapon_det_pack?$AA@ 401307c8     bg_misc.obj
 0003:000017dc       ??_C@_0BB@KBIODFKP@weapon_trip_mine?$AA@ 401307dc     bg_misc.obj
 0003:000017f0       ??_C@_0P@OJLAIIJD@weapon_thermal?$AA@ 401307f0     bg_misc.obj
 0003:00001804       ??_C@_0BM@MOLHJNKH@?$EAMENUS_A_DETONATION_PACK_IS?$AA@ 40130804     bg_misc.obj
 0003:00001828       ??_C@_0BH@EBPPNJFB@gfx?1hud?1w_icon_detpack?$AA@ 40130828     bg_misc.obj
 0003:00001844       ??_C@_0CF@NONMEFGL@models?1weapons2?1detpack?1det_pack@ 40130844     bg_misc.obj
 0003:00001870       ??_C@_0CH@KPFPNMHO@models?1weapons2?1detpack?1det_pack@ 40130870     bg_misc.obj
 0003:000018a0       ??_C@_0CK@CDFEGPDE@models?1weapons2?1detpack?1det_pack@ 401308a0     bg_misc.obj
 0003:000018d4       ??_C@_0CI@CBJMGLP@models?1weapons2?1detpack?1det_pack@ 401308d4     bg_misc.obj
 0003:00001904       ??_C@_0N@CIBIOIEN@ammo_detpack?$AA@ 40130904     bg_misc.obj
 0003:00001914       ??_C@_0BN@CMMDBNGF@?$EAMENUS_TRIP_MINES_CONSIST_OF?$AA@ 40130914     bg_misc.obj
 0003:00001938       ??_C@_0BI@HEJGEJJK@gfx?1hud?1w_icon_tripmine?$AA@ 40130938     bg_misc.obj
 0003:00001954       ??_C@_0CK@BPCANEAG@models?1weapons2?1laser_trap?1laser@ 40130954     bg_misc.obj
 0003:00001988       ??_C@_0CM@PIAEKLLK@models?1weapons2?1laser_trap?1laser@ 40130988     bg_misc.obj
 0003:000019bc       ??_C@_0CN@JOEHJLGB@models?1weapons2?1laser_trap?1laser@ 401309bc     bg_misc.obj
 0003:000019f4       ??_C@_0O@GAPOPCOE@ammo_tripmine?$AA@ 401309f4     bg_misc.obj
 0003:00001a04       ??_C@_0BN@FMFLLCGL@?$EAMENUS_THE_THERMAL_DETONATOR?$AA@ 40130a04     bg_misc.obj
 0003:00001a28       ??_C@_0BH@OIMKPGPF@gfx?1hud?1w_icon_thermal?$AA@ 40130a28     bg_misc.obj
 0003:00001a44       ??_C@_0CE@PJGNCPEG@models?1weapons2?1thermal?1thermal?4@ 40130a44     bg_misc.obj
 0003:00001a70       ??_C@_0CG@CCBCCJGG@models?1weapons2?1thermal?1thermal_@ 40130a70     bg_misc.obj
 0003:00001aa0       ??_C@_0CH@BBPIBDBM@models?1weapons2?1thermal?1thermal_@ 40130aa0     bg_misc.obj
 0003:00001ad0       ??_C@_0N@IBCNMHOJ@ammo_thermal?$AA@ 40130ad0     bg_misc.obj
 0003:00001ae0       ??_C@_0CC@EJOKBHDJ@?$EAMENUS_THE_PLX_2M_IS_AN_EXTREMEL@ 40130ae0     bg_misc.obj
 0003:00001b08       ??_C@_0BI@DDNFEDEJ@gfx?1hud?1w_icon_merrsonn?$AA@ 40130b08     bg_misc.obj
 0003:00001b24       ??_C@_0CI@CPIMDKHH@models?1weapons2?1merr_sonn?1merr_s@ 40130b24     bg_misc.obj
 0003:00001b54       ??_C@_0CK@IJJCBMNO@models?1weapons2?1merr_sonn?1merr_s@ 40130b54     bg_misc.obj
 0003:00001b88       ??_C@_0BH@CFPMIEJH@weapon_rocket_launcher?$AA@ 40130b88     bg_misc.obj
 0003:00001ba4       ??_C@_0CE@HHDMNMLP@?$EAMENUS_WIDELY_USED_BY_THE_CORPOR@ 40130ba4     bg_misc.obj
 0003:00001bd0       ??_C@_0BJ@PJJJCKNF@gfx?1hud?1w_icon_flechette?$AA@ 40130bd0     bg_misc.obj
 0003:00001bf0       ??_C@_0CK@CNAHGKMH@models?1weapons2?1golan_arms?1golan@ 40130bf0     bg_misc.obj
 0003:00001c24       ??_C@_0CM@GDMOBBJ@models?1weapons2?1golan_arms?1golan@ 40130c24     bg_misc.obj
 0003:00001c58       ??_C@_0BB@HNIDLLLF@weapon_flechette?$AA@ 40130c58     bg_misc.obj
 0003:00001c6c       ??_C@_0BM@BCDPDFEB@?$EAMENUS_COMMONLY_REFERRED_TO?$AA@ 40130c6c     bg_misc.obj
 0003:00001c90       ??_C@_0BF@BPEBOIFE@gfx?1hud?1w_icon_demp2?$AA@ 40130c90     bg_misc.obj
 0003:00001cac       ??_C@_0CA@PKACJAPI@models?1weapons2?1demp2?1demp2?4md3?$AA@ 40130cac     bg_misc.obj
 0003:00001cd4       ??_C@_0CC@DIKAHCC@models?1weapons2?1demp2?1demp2_w?4gl@ 40130cd4     bg_misc.obj
 0003:00001cfc       ??_C@_0N@MBLCNHPF@weapon_demp2?$AA@ 40130cfc     bg_misc.obj
 0003:00001d0c       ??_C@_0CD@FCKGGFFG@?$EAMENUS_THIS_DESTRUCTIVE_PROJECTI@ 40130d0c     bg_misc.obj
 0003:00001d38       ??_C@_0BI@LOPKELCD@gfx?1hud?1w_icon_repeater?$AA@ 40130d38     bg_misc.obj
 0003:00001d54       ??_C@_0DC@FAHGABEB@models?1weapons2?1heavy_repeater?1h@ 40130d54     bg_misc.obj
 0003:00001d90       ??_C@_0DE@LBIFBLHF@models?1weapons2?1heavy_repeater?1h@ 40130d90     bg_misc.obj
 0003:00001dd0       ??_C@_0BA@BKCKPFDA@weapon_repeater?$AA@ 40130dd0     bg_misc.obj
 0003:00001de4       ??_C@_0BM@MHHBLDA@?$EAMENUS_THIS_ARCHAIC_LOOKING?$AA@ 40130de4     bg_misc.obj
 0003:00001e08       ??_C@_0BJ@CHKJPOAH@gfx?1hud?1w_icon_bowcaster?$AA@ 40130e08     bg_misc.obj
 0003:00001e28       ??_C@_0CI@MANABGJH@models?1weapons2?1bowcaster?1bowcas@ 40130e28     bg_misc.obj
 0003:00001e58       ??_C@_0CK@OFDEGMIN@models?1weapons2?1bowcaster?1bowcas@ 40130e58     bg_misc.obj
 0003:00001e8c       ??_C@_0BB@KDLDGPGH@weapon_bowcaster?$AA@ 40130e8c     bg_misc.obj
 0003:00001ea0       ??_C@_0BN@PDALGMFE@?$EAMENUS_THIS_NEFARIOUS_WEAPON?$AA@ 40130ea0     bg_misc.obj
 0003:00001ec4       ??_C@_0BJ@MODONBMB@gfx?1hud?1w_icon_disruptor?$AA@ 40130ec4     bg_misc.obj
 0003:00001ee4       ??_C@_0CI@KNAINLEF@models?1weapons2?1disruptor?1disrup@ 40130ee4     bg_misc.obj
 0003:00001f14       ??_C@_0CK@LDOPBIMF@models?1weapons2?1disruptor?1disrup@ 40130f14     bg_misc.obj
 0003:00001f48       ??_C@_0BB@EKCEEAKB@weapon_disruptor?$AA@ 40130f48     bg_misc.obj
 0003:00001f5c       ??_C@_0BN@KLDCJACF@?$EAMENUS_THE_PRIMARY_WEAPON_OF?$AA@ 40130f5c     bg_misc.obj
 0003:00001f80       ??_C@_0BH@POPJAOPK@gfx?1hud?1w_icon_blaster?$AA@ 40130f80     bg_misc.obj
 0003:00001f9c       ??_C@_0CG@IJILPHPH@models?1weapons2?1blaster_r?1blaste@ 40130f9c     bg_misc.obj
 0003:00001fcc       ??_C@_0CI@FHMEJMJP@models?1weapons2?1blaster_r?1blaste@ 40130fcc     bg_misc.obj
 0003:00001ffc       ??_C@_0P@PPIDHAJM@weapon_blaster?$AA@ 40130ffc     bg_misc.obj
 0003:00002010       ??_C@_0BK@JHPMONHL@?$EASP_INGAME_BLASTER_PISTOL?$AA@ 40131010     bg_misc.obj
 0003:00002030       ??_C@_0BF@HJCHFBMO@gfx?1hud?1w_icon_briar?$AA@ 40131030     bg_misc.obj
 0003:0000204c       ??_C@_0CO@LMBDAEMJ@models?1weapons2?1briar_pistol?1bri@ 4013104c     bg_misc.obj
 0003:00002084       ??_C@_0DA@DCLFBBNM@models?1weapons2?1briar_pistol?1bri@ 40131084     bg_misc.obj
 0003:000020c0       ??_C@_0BE@NCEGAEHJ@weapon_bryar_pistol?$AA@ 401310c0     bg_misc.obj
 0003:000020d8       ??_C@_0BH@OEFKMKID@?$EAMENUS_CONC_RIFLE_DESC?$AA@ 401310d8     bg_misc.obj
 0003:000020f4       ??_C@_0BH@PEIIGOLA@gfx?1hud?1w_icon_c_rifle?$AA@ 401310f4     bg_misc.obj
 0003:00002110       ??_C@_0CH@PIBGBJPN@models?1weapons2?1concussion?1c_rif@ 40131110     bg_misc.obj
 0003:00002140       ??_C@_0CJ@OKJJMKPH@models?1weapons2?1concussion?1c_rif@ 40131140     bg_misc.obj
 0003:00002174       ??_C@_0BI@JFLEEDJH@weapon_concussion_rifle?$AA@ 40131174     bg_misc.obj
 0003:00002190       ??_C@_0BL@EJPJHBLO@?$EAMENUS_BLASTER_PISTOL_DESC?$AA@ 40131190     bg_misc.obj
 0003:000021b0       ??_C@_0BO@EGOADNOO@gfx?1hud?1w_icon_blaster_pistol?$AA@ 401311b0     bg_misc.obj
 0003:000021d4       ??_C@_0DC@EGNBDNKO@models?1weapons2?1blaster_pistol?1b@ 401311d4     bg_misc.obj
 0003:00002210       ??_C@_0DE@EHAMJOHG@models?1weapons2?1blaster_pistol?1b@ 40131210     bg_misc.obj
 0003:00002250       ??_C@_0BG@JEHALHIL@weapon_blaster_pistol?$AA@ 40131250     bg_misc.obj
 0003:0000226c       ??_C@_0BN@GPMHMMHO@?$EAMENUS_AN_ELEGANT_WEAPON_FOR?$AA@ 4013126c     bg_misc.obj
 0003:00002290       ??_C@_0BK@DENAAEJI@gfx?1hud?1w_icon_lightsaber?$AA@ 40131290     bg_misc.obj
 0003:000022b0       ??_C@_0CC@LELHOPDH@models?1weapons2?1saber?1saber_w?4md@ 401312b0     bg_misc.obj
 0003:000022d8       ??_C@_0CC@PBCBCODB@models?1weapons2?1saber?1saber_w?4gl@ 401312d8     bg_misc.obj
 0003:00002300       ??_C@_0N@JIBGHNNO@weapon_saber?$AA@ 40131300     bg_misc.obj
 0003:00002310       ??_C@_0BC@CEFBGLCB@?$EAMENUS_MELEE_DESC?$AA@ 40131310     bg_misc.obj
 0003:00002328       ??_C@_0BF@GPOFHEPB@gfx?1hud?1w_icon_melee?$AA@ 40131328     bg_misc.obj
 0003:00002344       ??_C@_0N@LBBGELFA@weapon_melee?$AA@ 40131344     bg_misc.obj
 0003:00002354       ??_C@_0BJ@JFPGMAAH@gfx?1hud?1w_icon_stunbaton?$AA@ 40131354     bg_misc.obj
 0003:00002374       ??_C@_0CF@INEBKGM@models?1weapons2?1stun_baton?1baton@ 40131374     bg_misc.obj
 0003:000023a0       ??_C@_0CH@BLMKNANE@models?1weapons2?1stun_baton?1baton@ 401313a0     bg_misc.obj
 0003:000023d0       ??_C@_0BC@EJEDEKOE@weapon_stun_baton?$AA@ 401313d0     bg_misc.obj
 0003:000023e8       ??_C@_0BE@OEFHDNBF@gfx?1hud?1mpi_ysamari?$AA@ 401313e8     bg_misc.obj
 0003:00002400       ??_C@_0CE@KCIGBHIN@models?1map_objects?1mp?1ysalimari?4@ 40131400     bg_misc.obj
 0003:0000242c       ??_C@_0BL@LEFKKCEP@sound?1player?1ysalimari?4wav?$AA@ 4013142c     bg_misc.obj
 0003:0000244c       ??_C@_0P@BMGIHJKN@item_ysalimari?$AA@ 4013144c     bg_misc.obj
 0003:00002460       ??_C@_0BC@DEOLDKOL@gfx?1hud?1mpi_fboon?$AA@ 40131460     bg_misc.obj
 0003:00002478       ??_C@_0CF@JPDLAKMB@models?1map_objects?1mp?1force_boon@ 40131478     bg_misc.obj
 0003:000024a4       ??_C@_0BG@GFIPDGIH@sound?1player?1boon?4wav?$AA@ 401314a4     bg_misc.obj
 0003:000024c0       ??_C@_0BA@HALIIJIE@item_force_boon?$AA@ 401314c0     bg_misc.obj
 0003:000024d4       ??_C@_0BE@NFHAGLDO@gfx?1hud?1mpi_dklight?$AA@ 401314d4     bg_misc.obj
 0003:000024ec       ??_C@_0CL@IJLGBCPL@models?1map_objects?1mp?1dk_enlight@ 401314ec     bg_misc.obj
 0003:00002520       ??_C@_0BK@JFKBFAGB@item_force_enlighten_dark?$AA@ 40131520     bg_misc.obj
 0003:00002540       ??_C@_0BD@MPGMMGMB@gfx?1hud?1mpi_jlight?$AA@ 40131540     bg_misc.obj
 0003:00002558       ??_C@_0CN@DIMKCGKC@models?1map_objects?1mp?1jedi_enlig@ 40131558     bg_misc.obj
 0003:00002590       ??_C@_0BP@GFNNPIJO@sound?1player?1enlightenment?4wav?$AA@ 40131590     bg_misc.obj
 0003:000025b8       ??_C@_0BL@MINBJMDE@item_force_enlighten_light?$AA@ 401315b8     bg_misc.obj
 0003:000025d8       ??_C@_0BC@GHMKCCIP@?$EAMENUS_CLOAK_DESC?$AA@ 401315d8     bg_misc.obj
 0003:000025f0       ??_C@_0BF@JNCBPHCG@gfx?1hud?1i_icon_cloak?$AA@ 401315f0     bg_misc.obj
 0003:0000260c       ??_C@_0L@LGDPDIAF@item_cloak?$AA@ 4013160c     bg_misc.obj
 0003:0000261c       ??_C@_0BB@BOLMLFOH@?$EAMENUS_EWEB_DESC?$AA@ 4013161c     bg_misc.obj
 0003:00002630       ??_C@_0BE@HACMCHO@gfx?1hud?1i_icon_eweb?$AA@ 40131630     bg_misc.obj
 0003:00002648       ??_C@_0CH@FJBCGPDI@models?1map_objects?1hoth?1eweb_mod@ 40131648     bg_misc.obj
 0003:00002678       ??_C@_0CA@PCDIFNM@sound?1interface?1shieldcon_empty?$AA@ 40131678     bg_misc.obj
 0003:000026a0       ??_C@_0BD@FNDPGFNF@item_eweb_holdable?$AA@ 401316a0     bg_misc.obj
 0003:000026b8       ??_C@_0BI@NJGLIFAN@gfx?1hud?1i_icon_ammodisp?$AA@ 401316b8     bg_misc.obj
 0003:000026d4       ??_C@_0O@FFANILHN@item_ammodisp?$AA@ 401316d4     bg_misc.obj
 0003:000026e4       ??_C@_0BK@CIGOJBM@gfx?1hud?1i_icon_healthdisp?$AA@ 401316e4     bg_misc.obj
 0003:00002704       ??_C@_0BA@MKABDBIL@item_healthdisp?$AA@ 40131704     bg_misc.obj
 0003:00002718       ??_C@_0BE@JOMGFMAF@?$EAMENUS_JETPACK_DESC?$AA@ 40131718     bg_misc.obj
 0003:00002730       ??_C@_0FD@EDGCAKBF@sound?1chars?1boba?1JETON?4wav?5sound@ 40131730     bg_misc.obj
 0003:00002794       ??_C@_0BF@CHFBNMLA@effects?1boba?1jet?4efx?$AA@ 40131794     bg_misc.obj
 0003:000027b0       ??_C@_0BH@PNGEEMFJ@gfx?1hud?1i_icon_jetpack?$AA@ 401317b0     bg_misc.obj
 0003:000027cc       ??_C@_0N@EIBGMPAH@item_jetpack?$AA@ 401317cc     bg_misc.obj
 0003:000027dc       ??_C@_0BN@MFHKBDDJ@?$EAMENUS_THIS_DEADLY_WEAPON_IS?$AA@ 401317dc     bg_misc.obj
 0003:00002800       ??_C@_0BJ@JKBMBJCM@gfx?1hud?1i_icon_sentrygun?$AA@ 40131800     bg_misc.obj
 0003:00002820       ??_C@_0BH@PFALJFOC@models?1items?1psgun?4glm?$AA@ 40131820     bg_misc.obj
 0003:0000283c       ??_C@_0BA@HKIJMOIG@item_sentry_gun?$AA@ 4013183c     bg_misc.obj
 0003:00002850       ??_C@_0BL@PADDACKM@?$EASP_INGAME_LA_GOGGLES_DESC?$AA@ 40131850     bg_misc.obj
 0003:00002870       ??_C@_0BE@PKBACEEE@gfx?1hud?1i_icon_zoom?$AA@ 40131870     bg_misc.obj
 0003:00002888       ??_C@_0BM@HNHCIOH@models?1items?1binoculars?4md3?$AA@ 40131888     bg_misc.obj
 0003:000028ac       ??_C@_0BA@KBLOKIGM@item_binoculars?$AA@ 401318ac     bg_misc.obj
 0003:000028c0       ??_C@_0BJ@DMMPEJNE@gfx?1hud?1i_icon_big_bacta?$AA@ 401318c0     bg_misc.obj
 0003:000028e0       ??_C@_0BL@HEJMELJJ@models?1items?1big_bacta?4md3?$AA@ 401318e0     bg_misc.obj
 0003:00002900       ??_C@_0BA@JADGBDOO@item_medpac_big?$AA@ 40131900     bg_misc.obj
 0003:00002914       ??_C@_0BG@BFJBNBGL@?$EASP_INGAME_BACTA_DESC?$AA@ 40131914     bg_misc.obj
 0003:00002930       ??_C@_0BF@EDJNGJL@gfx?1hud?1i_icon_bacta?$AA@ 40131930     bg_misc.obj
 0003:0000294c       ??_C@_0CA@COCFAODK@models?1map_objects?1mp?1bacta?4md3?$AA@ 4013194c     bg_misc.obj
 0003:00002974       ??_C@_0M@NLNOFNHL@item_medpac?$AA@ 40131974     bg_misc.obj
 0003:00002984       ??_C@_0BO@HHEDFEHB@?$EAMENUS_THIS_STATIONARY_ENERGY?$AA@ 40131984     bg_misc.obj
 0003:000029a8       ??_C@_0KM@PHBHELNF@sound?1weapons?1detpack?1stick?4wav?5@ 401319a8     bg_misc.obj
 0003:00002a78       ??_C@_0BK@OODCPGGP@gfx?1hud?1i_icon_shieldwall?$AA@ 40131a78     bg_misc.obj
 0003:00002a98       ??_C@_0CB@EAKHAPIK@models?1map_objects?1mp?1shield?4md3@ 40131a98     bg_misc.obj
 0003:00002ac0       ??_C@_0M@IIGPMPLO@item_shield?$AA@ 40131ac0     bg_misc.obj
 0003:00002ad0       ??_C@_0BP@JJMOPAPI@?$EAMENUS_AN_ATTACK_DRONE_SIMILAR?$AA@ 40131ad0     bg_misc.obj
 0003:00002af8       ??_C@_0BG@KANLKHLH@gfx?1hud?1i_icon_seeker?$AA@ 40131af8     bg_misc.obj
 0003:00002b14       ??_C@_0BI@PEKMFNBP@models?1items?1remote?4md3?$AA@ 40131b14     bg_misc.obj
 0003:00002b30       ??_C@_0BJ@IBMECGJM@sound?1weapons?1w_pkup?4wav?$AA@ 40131b30     bg_misc.obj
 0003:00002b50       ??_C@_0M@CJHMIAK@item_seeker?$AA@ 40131b50     bg_misc.obj
 0003:00002b60       ??_C@_0BG@PFBKDHHG@gfx?1hud?1i_icon_medkit?$AA@ 40131b60     bg_misc.obj
 0003:00002b7c       ??_C@_0CB@PABPOCJH@models?1map_objects?1mp?1medpac?4md3@ 40131b7c     bg_misc.obj
 0003:00002ba4       ??_C@_0BO@NIGJKPEE@sound?1player?1pickuphealth?4wav?$AA@ 40131ba4     bg_misc.obj
 0003:00002bc8       ??_C@_0BE@MEFMIHAD@item_medpak_instant?$AA@ 40131bc8     bg_misc.obj
 0003:00002be0       ??_C@_0BE@JKBNBKPH@gfx?1mp?1large_shield?$AA@ 40131be0     bg_misc.obj
 0003:00002bf8       ??_C@_0BO@JPJCNECL@models?1map_objects?1mp?1psd?4md3?$AA@ 40131bf8     bg_misc.obj
 0003:00002c1c       ??_C@_0BI@HGJKGJEB@item_shield_lrg_instant?$AA@ 40131c1c     bg_misc.obj
 0003:00002c38       ??_C@_0BE@GPDHMLPP@gfx?1mp?1small_shield?$AA@ 40131c38     bg_misc.obj
 0003:00002c50       ??_C@_0CB@FFNAAGJJ@models?1map_objects?1mp?1psd_sm?4md3@ 40131c50     bg_misc.obj
 0003:00002c78       ??_C@_0BO@CHCEMMJK@sound?1player?1pickupshield?4wav?$AA@ 40131c78     bg_misc.obj
 0003:00002c9c       ??_C@_0BH@DINJFPKN@item_shield_sm_instant?$AA@ 40131c9c     bg_misc.obj
 0003:00002cb7       ??_C@_00CNPNBAHC@?$AA@     40131cb7     bg_misc.obj
 0003:00002cb8       ??_C@_08FEEDNBKC@MASTERY7?$AA@ 40131cb8     bg_misc.obj
 0003:00002cc4       ??_C@_08ENFIOAOD@MASTERY6?$AA@ 40131cc4     bg_misc.obj
 0003:00002cd0       ??_C@_08GGHFLDCA@MASTERY5?$AA@ 40131cd0     bg_misc.obj
 0003:00002cdc       ??_C@_08HPGOICGB@MASTERY4?$AA@ 40131cdc     bg_misc.obj
 0003:00002ce8       ??_C@_08DACPBEKG@MASTERY3?$AA@ 40131ce8     bg_misc.obj
 0003:00002cf4       ??_C@_08CJDECFOH@MASTERY2?$AA@ 40131cf4     bg_misc.obj
 0003:00002d00       ??_C@_08CBJHGCE@MASTERY1?$AA@ 40131d00     bg_misc.obj
 0003:00002d0c       ??_C@_08BLACEHGF@MASTERY0?$AA@ 40131d0c     bg_misc.obj
 0003:00002d18       ??_C@_0O@GKPNHIOC@?$CKtac_together?$AA@ 40131d18     bg_misc.obj
 0003:00002d28       ??_C@_0L@MGMJIMAF@?$CKtac_split?$AA@ 40131d28     bg_misc.obj
 0003:00002d38       ??_C@_09DINJJNAI@?$CKtac_hold?$AA@ 40131d38     bg_misc.obj
 0003:00002d44       ??_C@_0M@PABJGNLG@?$CKtac_follow?$AA@ 40131d44     bg_misc.obj
 0003:00002d54       ??_C@_0O@NFGMPNBH@?$CKtac_fallback?$AA@ 40131d54     bg_misc.obj
 0003:00002d64       ??_C@_0L@EHELGHNE@?$CKtac_cover?$AA@ 40131d64     bg_misc.obj
 0003:00002d74       ??_C@_0N@KDPAKEEJ@?$CKspot_troops?$AA@ 40131d74     bg_misc.obj
 0003:00002d84       ??_C@_0N@JGIPLKJE@?$CKspot_sniper?$AA@ 40131d84     bg_misc.obj
 0003:00002d94       ??_C@_0P@LLDGJFLE@?$CKspot_emplaced?$AA@ 40131d94     bg_misc.obj
 0003:00002da8       ??_C@_0P@ILGDCGKG@?$CKspot_defenses?$AA@ 40131da8     bg_misc.obj
 0003:00002dbc       ??_C@_09KPOPDKGM@?$CKspot_air?$AA@ 40131dbc     bg_misc.obj
 0003:00002dc8       ??_C@_09FCIMPFEJ@?$CKreq_tech?$AA@ 40131dc8     bg_misc.obj
 0003:00002dd4       ??_C@_08EHGAEMIC@?$CKreq_sup?$AA@ 40131dd4     bg_misc.obj
 0003:00002de0       ??_C@_0L@PJEOEMHI@?$CKreq_medic?$AA@ 40131de0     bg_misc.obj
 0003:00002df0       ??_C@_08BDPMJJAM@?$CKreq_hvy?$AA@ 40131df0     bg_misc.obj
 0003:00002dfc       ??_C@_09HHLDNJAG@?$CKreq_demo?$AA@ 40131dfc     bg_misc.obj
 0003:00002e08       ??_C@_0M@MJLNGIKA@?$CKreq_assist?$AA@ 40131e08     bg_misc.obj
 0003:00002e18       ??_C@_0L@DOBCHHPE@?$CKreply_yes?$AA@ 40131e18     bg_misc.obj
 0003:00002e28       ??_C@_0M@PJKELJII@?$CKreply_stay?$AA@ 40131e28     bg_misc.obj
 0003:00002e38       ??_C@_09FGIKFCBO@?$CKreply_no?$AA@ 40131e38     bg_misc.obj
 0003:00002e44       ??_C@_09FJFLGJJB@?$CKreply_go?$AA@ 40131e44     bg_misc.obj
 0003:00002e50       ??_C@_0O@LCDECPIN@?$CKreply_coming?$AA@ 40131e50     bg_misc.obj
 0003:00002e60       ??_C@_0M@HJCGMPNN@?$CKdef_second?$AA@ 40131e60     bg_misc.obj
 0003:00002e70       ??_C@_0N@LBIDFACI@?$CKdef_primary?$AA@ 40131e70     bg_misc.obj
 0003:00002e80       ??_C@_0O@EGEINPEB@?$CKdef_position?$AA@ 40131e80     bg_misc.obj
 0003:00002e90       ??_C@_09PJJIIOPG@?$CKdef_guns?$AA@ 40131e90     bg_misc.obj
 0003:00002e9c       ??_C@_0M@ECCLODLO@?$CKatt_second?$AA@ 40131e9c     bg_misc.obj
 0003:00002eac       ??_C@_0N@GFADGNOG@?$CKatt_primary?$AA@ 40131eac     bg_misc.obj
 0003:00002ebc       ??_C@_0M@MHLPAMFK@?$CKatt_attack?$AA@ 40131ebc     bg_misc.obj
 0003:00002ecc       ??_C@_0BI@KPCBHBOL@head_light_blaster_cann?$AA@ 40131ecc     bg_misc.obj
 0003:00002ee8       ??_C@_0BI@FPANAMDK@head_concussion_charger?$AA@ 40131ee8     bg_misc.obj
 0003:00002f04       ??_C@_04NEODDMOL@head?$AA@ 40131f04     bg_misc.obj
 0003:00002f0c       ??_C@_06BCDCLMEB@helmet?$AA@ 40131f0c     bg_misc.obj
 0003:00002f14       ??_C@_06INLMLPMC@r_hand?$AA@ 40131f14     bg_misc.obj
 0003:00002f1c       ??_C@_06LKFNFIFB@l_hand?$AA@ 40131f1c     bg_misc.obj
 0003:00002f24       ??_C@_05DAKMKCAJ@blah5?$AA@ 40131f24     bg_misc.obj
 0003:00002f2c       ??_C@_05CJLHJDEI@blah4?$AA@ 40131f2c     bg_misc.obj
 0003:00002f34       ??_C@_04DCKHGPHA@nose?$AA@ 40131f34     bg_misc.obj
 0003:00002f3c       ??_C@_06KAKLKKDN@l_gear?$AA@ 40131f3c     bg_misc.obj
 0003:00002f44       ??_C@_06JHEKENKO@r_gear?$AA@ 40131f44     bg_misc.obj
 0003:00002f4c       ??_C@_07DBBACNJN@l_wing2?$AA@ 40131f4c     bg_misc.obj
 0003:00002f58       ??_C@_07BKDNHOFO@l_wing1?$AA@ 40131f58     bg_misc.obj
 0003:00002f64       ??_C@_07FICBAOIE@r_wing2?$AA@ 40131f64     bg_misc.obj
 0003:00002f70       ??_C@_07HDAMFNEH@r_wing1?$AA@ 40131f70     bg_misc.obj
 0003:00002f7c       ??_C@_0N@FODOKFMD@torso_collar?$AA@ 40131f7c     bg_misc.obj
 0003:00002f8c       ??_C@_0BB@FPOHHKLE@torso_galaktorso?$AA@ 40131f8c     bg_misc.obj
 0003:00002fa0       ??_C@_0N@IFENOPML@torso_shield?$AA@ 40131fa0     bg_misc.obj
 0003:00002fb0       ??_C@_05IPPEPANF@l_arm?$AA@ 40131fb0     bg_misc.obj
 0003:00002fb8       ??_C@_05LGCIJDDO@r_arm?$AA@ 40131fb8     bg_misc.obj
 0003:00002fc0       ??_C@_0M@HACAOHEH@torso_tube6?$AA@ 40131fc0     bg_misc.obj
 0003:00002fd0       ??_C@_0M@FLANLEIE@torso_tube5?$AA@ 40131fd0     bg_misc.obj
 0003:00002fe0       ??_C@_0M@ECBGIFMF@torso_tube4?$AA@ 40131fe0     bg_misc.obj
 0003:00002ff0       ??_C@_0M@NFHBDAC@torso_tube3?$AA@ 40131ff0     bg_misc.obj
 0003:00003000       ??_C@_0M@BEEMCCED@torso_tube2?$AA@ 40132000     bg_misc.obj
 0003:00003010       ??_C@_0M@DPGBHBIA@torso_tube1?$AA@ 40132010     bg_misc.obj
 0003:00003020       ??_C@_0BA@DHJPAGAH@torso_canister3?$AA@ 40132020     bg_misc.obj
 0003:00003034       ??_C@_0BA@COIEDHEG@torso_canister2?$AA@ 40132034     bg_misc.obj
 0003:00003048       ??_C@_0BA@FKJGEIF@torso_canister1?$AA@ 40132048     bg_misc.obj
 0003:0000305c       ??_C@_09EPBMGDBP@l_arm_key?$AA@ 4013205c     bg_misc.obj
 0003:00003068       _bgToggleableSurfaceDebris 40132068     bg_misc.obj
 0003:000030fc       ??_C@_02IKAHHCAI@?$CFi?$AA@ 401320fc     bg_misc.obj
 0003:00003100       ??_C@_03COHLNFKP@?$CFi?9?$AA@ 40132100     bg_misc.obj
 0003:00003104       ??_C@_0BH@HKHNICAI@7?91?9032330000000001333?$AA@ 40132104     bg_misc.obj
 0003:00003120       __real@4076800000000000    40132120     bg_misc.obj
 0003:0000312c       __real@43870000            4013212c     bg_misc.obj
 0003:00003130       __real@42b40000            40132130     bg_misc.obj
 0003:00003138       __real@400921fb60000000    40132138     bg_misc.obj
 0003:00003148       __real@4066800000000000    40132148     bg_misc.obj
 0003:00003154       __real@00000000            40132154     bg_misc.obj
 0003:00003158       __real@0000000000000000    40132158     bg_misc.obj
 0003:00003164       ??_C@_0BH@MFGKJDLM@HoldableItem?5not?5found?$AA@ 40132164     bg_misc.obj
 0003:00003180       ??_C@_0CB@DEACFJO@Couldn?8t?5find?5item?5for?5weapon?5?$CFi@ 40132180     bg_misc.obj
 0003:000031a8       ??_C@_0BP@LHPKGFBO@Couldn?8t?5find?5item?5for?5ammo?5?$CFi?$AA@ 401321a8     bg_misc.obj
 0003:000031d0       __real@c042000000000000    401321d0     bg_misc.obj
 0003:000031e0       __real@4042000000000000    401321e0     bg_misc.obj
 0003:000031f0       __real@c049000000000000    401321f0     bg_misc.obj
 0003:00003200       __real@4046000000000000    40132200     bg_misc.obj
 0003:0000320c       ??_C@_0CG@HNLFCMEK@BG_CanItemBeGrabbed?3?5unknown?5enu@ 4013220c     bg_misc.obj
 0003:0000323c       ??_C@_0BM@NECGLAIF@BG_CanItemBeGrabbed?3?5IT_BAD?$AA@ 4013223c     bg_misc.obj
 0003:00003260       ??_C@_0CI@MFONMA@BG_CanItemBeGrabbed?3?5index?5out?5o@ 40132260     bg_misc.obj
 0003:00003290       ??_C@_0DM@PPIGHFEL@BG_EvaluateTrajectory?3?5?$FLCLIENTGA@ 40132290     bg_misc.obj
 0003:000032d8       __real@4079000000000000    401322d8     bg_misc.obj
 0003:000032e8       __real@4056800000000000    401322e8     bg_misc.obj
 0003:000032f8       __real@3f50624de0000000    401322f8     bg_misc.obj
 0003:00003308       __real@3f50624dd2f1a9fc    40132308     bg_misc.obj
 0003:00003314       ??_C@_0CP@MCFPOIMF@BG_EvaluateTrajectoryDelta?3?5unkn@ 40132314     bg_misc.obj
 0003:00003350       __real@4089000000000000    40132350     bg_misc.obj
 0003:00003360       __real@3fe0000000000000    40132360     bg_misc.obj
 0003:0000336c       ??_C@_0DA@KOPJLGJF@Cgame?5event?5svt?5?$CF5d?5?9?$DO?5?$CF5d?3?5num?5@ 4013236c     bg_misc.obj
 0003:000033a8       ??_C@_0L@MNPDPHLD@showevents?$AA@ 401323a8     bg_misc.obj
 0003:000033b8       ??_C@_01GBGANLPD@0?$AA@    401323b8     bg_misc.obj
 0003:000033c0       __real@4046800000000000    401323c0     bg_misc.obj
 0003:000033d0       __real@bff0000000000000    401323d0     bg_misc.obj
 0003:000033e0       __real@3ff0000000000000    401323e0     bg_misc.obj
 0003:000033ec       ??_C@_05LKGOKJFG@fpls3?$AA@ 401323ec     bg_misc.obj
 0003:000033f4       ??_C@_05KDHFJIBH@fpls2?$AA@ 401323f4     bg_misc.obj
 0003:000033fc       ??_C@_04BEPDCOC@fpls?$AA@  401323fc     bg_misc.obj
 0003:00003404       ??_C@_04JIEPAMAO@kyle?$AA@ 40132404     bg_misc.obj
 0003:0000340c       ??_C@_04EEIGNHLG@menu?$AA@ 4013240c     bg_misc.obj
 0003:00003414       ??_C@_05GLFHLNLB@_blue?$AA@ 40132414     bg_misc.obj
 0003:0000341c       ??_C@_0CA@ODGGEHPP@models?1players?1?$CFs?1model_?$CFs?4skin?$AA@ 4013241c     bg_misc.obj
 0003:00003444       ??_C@_04NCFJPIH@_red?$AA@  40132444     bg_misc.obj
 0003:0000344c       ??_C@_07DLHCIBDH@default?$AA@ 4013244c     bg_misc.obj
 0003:00003458       ??_C@_04OBGPFBCN@blue?$AA@ 40132458     bg_misc.obj
 0003:00003460       ??_C@_03FAAAOPJM@red?$AA@  40132460     bg_misc.obj
 0003:00003464       __real@3f800000            40132464     bg_misc.obj
 0003:00003468       ??_C@_05HIOBFLDN@jedi_?$AA@ 40132468     bg_misc.obj
 0003:00003470       ??_C@_0CJ@BDGLLNGN@BG_Alloc?3?5buffer?5exceeded?5tail?5?$CI@ 40132470     bg_misc.obj
 0003:000034a4       ??_C@_0DC@MINDOIGG@BG_AllocUnaligned?3?5buffer?5exceed@ 401324a4     bg_misc.obj
 0003:000034e0       ??_C@_0CN@JLGNNLBK@BG_TempAlloc?3?5buffer?5exceeded?5he@ 401324e0     bg_misc.obj
 0003:00003518       ??_C@_0CO@IIHBNEDD@BG_TempFree?3?5tail?5greater?5than?5s@ 40132518     bg_misc.obj
 0003:00003550       ??_C@_0O@OALEAKPJ@heavy_weapons?$AA@ 40132550     bg_saga.obj
 0003:00003560       ??_C@_0O@FEHNADND@demolitionist?$AA@ 40132560     bg_saga.obj
 0003:00003570       ??_C@_0N@DFCFOLOG@jedi_general?$AA@ 40132570     bg_saga.obj
 0003:00003580       ??_C@_07ILMBEDPO@support?$AA@ 40132580     bg_saga.obj
 0003:0000358c       ??_C@_08KMDKBEDF@vanguard?$AA@ 4013258c     bg_saga.obj
 0003:00003598       ??_C@_08GMEOELGB@infantry?$AA@ 40132598     bg_saga.obj
 0003:000035a4       ??_C@_0N@POBOEFDG@PW_YSALAMIRI?$AA@ 401325a4     bg_saga.obj
 0003:000035b4       ??_C@_0O@IGDAJBEG@PW_FORCE_BOON?$AA@ 401325b4     bg_saga.obj
 0003:000035c4       ??_C@_0BK@MOILIMDA@PW_FORCE_ENLIGHTENED_DARK?$AA@ 401325c4     bg_saga.obj
 0003:000035e4       ??_C@_0BL@EBGCPDCI@PW_FORCE_ENLIGHTENED_LIGHT?$AA@ 401325e4     bg_saga.obj
 0003:00003604       ??_C@_0L@LJAIJPE@PW_CLOAKED?$AA@ 40132604     bg_saga.obj
 0003:00003614       ??_C@_08BNFNBBBB@PW_SPEED?$AA@ 40132614     bg_saga.obj
 0003:00003620       ??_C@_0M@FBGLLBBK@PW_DISINT_4?$AA@ 40132620     bg_saga.obj
 0003:00003630       ??_C@_0O@ENGHHLHL@PW_SPEEDBURST?$AA@ 40132630     bg_saga.obj
 0003:00003640       ??_C@_0N@GHPJGBHC@PW_SHIELDHIT?$AA@ 40132640     bg_saga.obj
 0003:00003650       ??_C@_0P@IBLDCDDO@PW_NEUTRALFLAG?$AA@ 40132650     bg_saga.obj
 0003:00003664       ??_C@_0M@MJPEKDEL@PW_BLUEFLAG?$AA@ 40132664     bg_saga.obj
 0003:00003674       ??_C@_0L@EHANBCOH@PW_REDFLAG?$AA@ 40132674     bg_saga.obj
 0003:00003684       ??_C@_07DFNNPKLN@PW_PULL?$AA@ 40132684     bg_saga.obj
 0003:00003690       ??_C@_0O@MMBFHIEB@PW_BATTLESUIT?$AA@ 40132690     bg_saga.obj
 0003:000036a0       ??_C@_07MILMMKFG@PW_QUAD?$AA@ 401326a0     bg_saga.obj
 0003:000036ac       ??_C@_07HOPALIC@PW_NONE?$AA@ 401326ac     bg_saga.obj
 0003:000036b8       ??_C@_08CKJOPOAO@HI_CLOAK?$AA@ 401326b8     bg_saga.obj
 0003:000036c4       ??_C@_07DODJPBMI@HI_EWEB?$AA@ 401326c4     bg_saga.obj
 0003:000036d0       ??_C@_0M@GINCEKMK@HI_AMMODISP?$AA@ 401326d0     bg_saga.obj
 0003:000036e0       ??_C@_0O@CACPKEEP@HI_HEALTHDISP?$AA@ 401326e0     bg_saga.obj
 0003:000036f0       ??_C@_0L@HECMIPKK@HI_JETPACK?$AA@ 401326f0     bg_saga.obj
 0003:00003700       ??_C@_0O@FBGGHEEG@HI_SENTRY_GUN?$AA@ 40132700     bg_saga.obj
 0003:00003710       ??_C@_0O@ELJADNKI@HI_BINOCULARS?$AA@ 40132710     bg_saga.obj
 0003:00003720       ??_C@_0O@LLNJKJCO@HI_MEDPAC_BIG?$AA@ 40132720     bg_saga.obj
 0003:00003730       ??_C@_09NJBEABJH@HI_MEDPAC?$AA@ 40132730     bg_saga.obj
 0003:0000373c       ??_C@_09IKKFJDFC@HI_SHIELD?$AA@ 4013273c     bg_saga.obj
 0003:00003748       ??_C@_09FNJEOG@HI_SEEKER?$AA@ 40132748     bg_saga.obj
 0003:00003754       ??_C@_07JPFAMGIP@HI_NONE?$AA@ 40132754     bg_saga.obj
 0003:00003760       ??_C@_0O@HFIJJPHA@FP_SABERTHROW?$AA@ 40132760     bg_saga.obj
 0003:00003770       ??_C@_0BB@OENPHNCL@FP_SABER_DEFENSE?$AA@ 40132770     bg_saga.obj
 0003:00003784       ??_C@_0BB@IIFNHLOA@FP_SABER_OFFENSE?$AA@ 40132784     bg_saga.obj
 0003:00003798       ??_C@_06NBGCGEAI@FP_SEE?$AA@ 40132798     bg_saga.obj
 0003:000037a0       ??_C@_08NAMGMEAJ@FP_DRAIN?$AA@ 401327a0     bg_saga.obj
 0003:000037ac       ??_C@_0O@FDDGJKAO@FP_TEAM_FORCE?$AA@ 401327ac     bg_saga.obj
 0003:000037bc       ??_C@_0N@MKMKNEAO@FP_TEAM_HEAL?$AA@ 401327bc     bg_saga.obj
 0003:000037cc       ??_C@_09MANKLPPB@FP_ABSORB?$AA@ 401327cc     bg_saga.obj
 0003:000037d8       ??_C@_0L@GMEKEMHM@FP_PROTECT?$AA@ 401327d8     bg_saga.obj
 0003:000037e8       ??_C@_07DCICDLJP@FP_RAGE?$AA@ 401327e8     bg_saga.obj
 0003:000037f4       ??_C@_0N@MLCJOEAL@FP_LIGHTNING?$AA@ 401327f4     bg_saga.obj
 0003:00003804       ??_C@_07OFAFBAAC@FP_GRIP?$AA@ 40132804     bg_saga.obj
 0003:00003810       ??_C@_0N@EOKHLCHN@FP_TELEPATHY?$AA@ 40132810     bg_saga.obj
 0003:00003820       ??_C@_07EKKOPMJP@FP_PULL?$AA@ 40132820     bg_saga.obj
 0003:0000382c       ??_C@_07DJLINNNG@FP_PUSH?$AA@ 4013282c     bg_saga.obj
 0003:00003838       ??_C@_08MIECCDPD@FP_SPEED?$AA@ 40132838     bg_saga.obj
 0003:00003844       ??_C@_0O@GOCMKMCC@FP_LEVITATION?$AA@ 40132844     bg_saga.obj
 0003:00003854       ??_C@_07ECPPOEBA@FP_HEAL?$AA@ 40132854     bg_saga.obj
 0003:00003860       ??_C@_09LJGBHCLN@WP_TURRET?$AA@ 40132860     bg_saga.obj
 0003:0000386c       ??_C@_0BA@HPLIMHOO@WP_EMPLACED_GUN?$AA@ 4013286c     bg_saga.obj
 0003:00003880       ??_C@_0N@OIFGJENP@WP_BRYAR_OLD?$AA@ 40132880     bg_saga.obj
 0003:00003890       ??_C@_0O@MNNKJNKC@WP_CONCUSSION?$AA@ 40132890     bg_saga.obj
 0003:000038a0       ??_C@_0M@EOMDDGDC@WP_DET_PACK?$AA@ 401328a0     bg_saga.obj
 0003:000038b0       ??_C@_0N@OGLOKOOO@WP_TRIP_MINE?$AA@ 401328b0     bg_saga.obj
 0003:000038c0       ??_C@_0L@COCGCIBD@WP_THERMAL?$AA@ 401328c0     bg_saga.obj
 0003:000038d0       ??_C@_0BD@JBJHCOEB@WP_ROCKET_LAUNCHER?$AA@ 401328d0     bg_saga.obj
 0003:000038e8       ??_C@_0N@DNBPCFMC@WP_FLECHETTE?$AA@ 401328e8     bg_saga.obj
 0003:000038f8       ??_C@_08GDBGMIBE@WP_DEMP2?$AA@ 401328f8     bg_saga.obj
 0003:00003904       ??_C@_0M@GCNBMEBC@WP_REPEATER?$AA@ 40132904     bg_saga.obj
 0003:00003914       ??_C@_0N@ODCPPBBA@WP_BOWCASTER?$AA@ 40132914     bg_saga.obj
 0003:00003924       ??_C@_0N@KLINONG@WP_DISRUPTOR?$AA@ 40132924     bg_saga.obj
 0003:00003934       ??_C@_0L@DIBFNABM@WP_BLASTER?$AA@ 40132934     bg_saga.obj
 0003:00003944       ??_C@_0BC@LEINJGEK@WP_BLASTER_PISTOL?$AA@ 40132944     bg_saga.obj
 0003:0000395c       ??_C@_0BA@GBAOKNDN@WP_BRYAR_PISTOL?$AA@ 4013295c     bg_saga.obj
 0003:00003970       ??_C@_08KPDGEGJN@WP_SABER?$AA@ 40132970     bg_saga.obj
 0003:0000397c       ??_C@_08IGDGHABD@WP_MELEE?$AA@ 4013297c     bg_saga.obj
 0003:00003988       ??_C@_0O@NNFLCPNL@WP_STUN_BATON?$AA@ 40132988     bg_saga.obj
 0003:00003998       ??_C@_07MIINDMBF@WP_NONE?$AA@ 40132998     bg_saga.obj
 0003:000039a4       ??_C@_04HIBGFPH@NULL?$AA@  401329a4     bg_saga.obj
 0003:000039ac       ??_C@_08OKAIMOGC@SS_STAFF?$AA@ 401329ac     bg_saga.obj
 0003:000039b8       ??_C@_07NCKFHLFM@SS_DUAL?$AA@ 401329b8     bg_saga.obj
 0003:000039c4       ??_C@_09NOGCKHNM@SS_TAVION?$AA@ 401329c4     bg_saga.obj
 0003:000039d0       ??_C@_09COLLLEKM@SS_DESANN?$AA@ 401329d0     bg_saga.obj
 0003:000039dc       ??_C@_09EIDFCCBI@SS_STRONG?$AA@ 401329dc     bg_saga.obj
 0003:000039e8       ??_C@_09JHAJINFA@SS_MEDIUM?$AA@ 401329e8     bg_saga.obj
 0003:000039f4       ??_C@_07OKKHAHLD@SS_FAST?$AA@ 401329f4     bg_saga.obj
 0003:00003a00       ??_C@_07HNCPCIHC@SS_NONE?$AA@ 40132a00     bg_saga.obj
 0003:00003a0c       ??_C@_0P@KICFDAJ@CFL_EXTRA_AMMO?$AA@ 40132a0c     bg_saga.obj
 0003:00003a20       ??_C@_0P@LBJDDHDM@CFL_CUSTOMSKEL?$AA@ 40132a20     bg_saga.obj
 0003:00003a34       ??_C@_0BC@LICHKKD@CFL_SINGLE_ROCKET?$AA@ 40132a34     bg_saga.obj
 0003:00003a4c       ??_C@_0P@NCLEBEDM@CFL_HEAVYMELEE?$AA@ 40132a4c     bg_saga.obj
 0003:00003a60       ??_C@_0P@DKGINMOP@CFL_STATVIEWER?$AA@ 40132a60     bg_saga.obj
 0003:00003a74       ??_C@_0BD@DNMLPLIL@CFL_FASTFORCEREGEN?$AA@ 40132a74     bg_saga.obj
 0003:00003a8c       ??_C@_0BK@JLDBMALB@CFL_STRONGAGAINSTPHYSICAL?$AA@ 40132a8c     bg_saga.obj
 0003:00003aac       ??_C@_0BB@OIJDKHFE@CFL_MORESABERDMG?$AA@ 40132aac     bg_saga.obj
 0003:00003ac0       ??_C@_0FJ@KOGMAIHK@Found?5an?5opening?5bracket?5without@ 40132ac0     bg_saga.obj
 0003:00003b30       ??_C@_0GA@DIGHOEOC@Error?5parsing?5group?5in?5file?0?5une@ 40132b30     bg_saga.obj
 0003:00003ba4       ??_C@_0CI@BBIKCBO@Group?5?8?$CFs?8?5is?5missing?5a?5closing?5@ 40132ba4     bg_saga.obj
 0003:00003bd8       ??_C@_0FA@EHNNLFND@Found?5a?5closing?5bracket?5without?5@ 40132bd8     bg_saga.obj
 0003:00003c38       ??_C@_0CM@DMIPCGDB@Unexpected?5EOF?5while?5looking?5for@ 40132c38     bg_saga.obj
 0003:00003c6c       ??_C@_0DL@MANGCKOJ@Error?5parsing?5file?0?5found?5commen@ 40132c6c     bg_saga.obj
 0003:00003cb8       ??_C@_0EA@CICFFHLL@Error?5parsing?5file?0?5unexpected?5E@ 40132cb8     bg_saga.obj
 0003:00003d08       ??_C@_0FH@PHDPJEBI@Unexpected?5EOF?5while?5looking?5for@ 40132d08     bg_saga.obj
 0003:00003d70       ??_C@_0EP@OCHOIPPN@Unexpected?5EOF?5while?5looking?5for@ 40132d70     bg_saga.obj
 0003:00003dd0       ??_C@_0EJ@GJJGBCAC@Unexpected?5closing?5bracket?5?$CItoo?5@ 40132dd0     bg_saga.obj
 0003:00003e28       ??_C@_07IHELEENG@FP_JUMP?$AA@ 40132e28     bg_saga.obj
 0003:00003e34       ??_C@_06PFGBHLNK@FP_ALL?$AA@ 40132e34     bg_saga.obj
 0003:00003e3c       ??_C@_08BOHIELLL@powerups?$AA@ 40132e3c     bg_saga.obj
 0003:00003e48       ??_C@_09LOIGNDON@holdables?$AA@ 40132e48     bg_saga.obj
 0003:00003e54       ??_C@_0CN@HKDFKNIC@ERROR?3?5no?5class_shader?5defined?5f@ 40132e54     bg_saga.obj
 0003:00003e8c       ??_C@_0DE@BHILLBOP@ERROR?3?5could?5not?5find?5class_shad@ 40132e8c     bg_saga.obj
 0003:00003ed0       ??_C@_1FM@IIMKICLF@?$AAb?$AAg?$AAS?$AAi?$AAe?$AAg?$AAe?$AAC?$AAl?$AAa?$AAs?$AAs?$AAe?$AAs?$AA?$FL?$AAb?$AAg?$AAN?$AAu?$AAm?$AAS?$AAi?$AAe?$AAg?$AAe?$AAC?$AAl?$AAa?$AAs?$AAs?$AAe?$AAs@ 40132ed0     bg_saga.obj
 0003:00003f40       ??_C@_0N@NNMCCMOK@class_shader?$AA@ 40132f40     bg_saga.obj
 0003:00003f50       ??_C@_0CD@GDIFDMKP@Siege?5class?5without?5uishader?5ent@ 40132f50     bg_saga.obj
 0003:00003f7c       ??_C@_08BGECLNMM@uishader?$AA@ 40132f7c     bg_saga.obj
 0003:00003f88       ??_C@_05HJCMGBKF@speed?$AA@ 40132f88     bg_saga.obj
 0003:00003f90       ??_C@_0L@GGCEHPNG@startarmor?$AA@ 40132f90     bg_saga.obj
 0003:00003fa0       ??_C@_08KAGIGECM@maxarmor?$AA@ 40132fa0     bg_saga.obj
 0003:00003fac       ??_C@_0M@JKHBPLJM@starthealth?$AA@ 40132fac     bg_saga.obj
 0003:00003fbc       ??_C@_09MHNPKMIF@maxhealth?$AA@ 40132fbc     bg_saga.obj
 0003:00003fc8       ??_C@_0L@GKKNICAL@classflags?$AA@ 40132fc8     bg_saga.obj
 0003:00003fd8       ??_C@_0M@IOJHBENM@forcepowers?$AA@ 40132fd8     bg_saga.obj
 0003:00003fe8       ??_C@_0CC@FAKKFGGN@Siege?5class?5without?5weapons?5entr@ 40132fe8     bg_saga.obj
 0003:00004010       ??_C@_07PKKCMMCH@weapons?$AA@ 40133010     bg_saga.obj
 0003:0000401c       ??_C@_0M@OOLLFDOG@saber2color?$AA@ 4013301c     bg_saga.obj
 0003:0000402c       ??_C@_0L@OGIEJBOK@sabercolor?$AA@ 4013302c     bg_saga.obj
 0003:0000403c       ??_C@_0L@JCGAKIIA@saberstyle?$AA@ 4013303c     bg_saga.obj
 0003:0000404c       ??_C@_06CJLEPNJL@saber2?$AA@ 4013304c     bg_saga.obj
 0003:00004054       ??_C@_06CJJKOFI@saber1?$AA@ 40133054     bg_saga.obj
 0003:0000405c       ??_C@_04NHPAFEHJ@skin?$AA@ 4013305c     bg_saga.obj
 0003:00004064       ??_C@_05NCCFOPHA@model?$AA@ 40133064     bg_saga.obj
 0003:0000406c       ??_C@_0BP@JPFHBDB@Siege?5class?5without?5name?5entry?$AA@ 4013306c     bg_saga.obj
 0003:00004094       ??_C@_04MEMAJGDJ@name?$AA@ 40133094     bg_saga.obj
 0003:0000409c       ??_C@_09LPPNDGJE@ClassInfo?$AA@ 4013309c     bg_saga.obj
 0003:000040a8       ??_C@_1GA@KPDGBOOO@?$AAs?$AAt?$AAr?$AAl?$AAe?$AAn?$AA?$CI?$AAd?$AAe?$AAs?$AAc?$AAB?$AAu?$AAf?$AAf?$AAe?$AAr?$AA?9?$AA?$DO?$AAd?$AAe?$AAs?$AAc?$AA?$CJ?$AA?5?$AA?$DM?$AA?5?$AAS?$AAI?$AAE?$AAG?$AAE@ 401330a8     bg_saga.obj
 0003:00004120       ??_C@_1OI@LEFHMBCH@?$AAc?$AA?3?$AA?2?$AAd?$AAo?$AAc?$AAu?$AAm?$AAe?$AAn?$AAt?$AAs?$AA?5?$AAa?$AAn?$AAd?$AA?5?$AAs?$AAe?$AAt?$AAt?$AAi?$AAn?$AAg?$AAs?$AA?2?$AAd?$AAa?$AAn?$AA?2?$AAd?$AAe@ 40133120     bg_saga.obj
 0003:00004238       ??_C@_0BI@JBHHAHFA@DESCRIPTION?5UNAVAILABLE?$AA@ 40133238     bg_saga.obj
 0003:00004254       ??_C@_0M@PPJNHBMP@description?$AA@ 40133254     bg_saga.obj
 0003:00004264       ??_C@_0BI@HBENBDF@ext_data?1Siege?1Classes?1?$AA@ 40133264     bg_saga.obj
 0003:00004280       ??_C@_0BH@NCMEBBFN@ext_data?1Siege?1Classes?$AA@ 40133280     bg_saga.obj
 0003:0000429c       ??_C@_04LNHPMHCH@?4scl?$AA@ 4013329c     bg_saga.obj
 0003:000042a4       ??_C@_0CI@JBGGEKDP@Team?5defined?5with?5no?5allowable?5c@ 401332a4     bg_saga.obj
 0003:000042d4       ??_C@_0BO@LFIIBAMC@Invalid?5class?5specified?3?5?8?$CFs?8?$AA@ 401332d4     bg_saga.obj
 0003:000042f8       ??_C@_07GEGLMCI@class?$CFi?$AA@ 401332f8     bg_saga.obj
 0003:00004304       ??_C@_07DPIHKJGF@Classes?$AA@ 40133304     bg_saga.obj
 0003:00004310       ??_C@_0CD@FDGFFIBB@Siege?5team?5with?5no?5name?5definiti@ 40133310     bg_saga.obj
 0003:0000433c       ??_C@_0BG@DPLOPEAL@ext_data?1Siege?1Teams?1?$AA@ 4013333c     bg_saga.obj
 0003:00004358       ??_C@_0BF@KACDOLPP@ext_data?1Siege?1Teams?$AA@ 40133358     bg_saga.obj
 0003:00004374       ??_C@_05OKHHMPNJ@?4team?$AA@ 40133374     bg_saga.obj
 0003:0000437c       ??_C@_08GLJJKINI@VH_FLIER?$AA@ 4013337c     bg_vehicleLoad.obj
 0003:00004388       ??_C@_09IHBEGJAE@VH_ANIMAL?$AA@ 40133388     bg_vehicleLoad.obj
 0003:00004394       ??_C@_0L@PJKFHOGE@VH_SPEEDER?$AA@ 40133394     bg_vehicleLoad.obj
 0003:000043a4       ??_C@_0L@NKPJKKBD@VH_FIGHTER?$AA@ 401333a4     bg_vehicleLoad.obj
 0003:000043b4       ??_C@_09EMIPDFIK@VH_WALKER?$AA@ 401333b4     bg_vehicleLoad.obj
 0003:000043c0       ??_C@_07FABGOOCC@VH_NONE?$AA@ 401333c0     bg_vehicleLoad.obj
 0003:000043cc       ??_C@_0BF@FIODOCFH@turret2GunnerViewTag?$AA@ 401333cc     bg_vehicleLoad.obj
 0003:000043e8       ??_C@_0BE@LBDLJCMI@turret2PassengerNum?$AA@ 401333e8     bg_vehicleLoad.obj
 0003:00004400       ??_C@_0P@FJKEHIDI@turret2AIRange?$AA@ 40133400     bg_vehicleLoad.obj
 0003:00004414       ??_C@_0O@FKFOBAOB@turret2AILead?$AA@ 40133414     bg_vehicleLoad.obj
 0003:00004424       ??_C@_09JCMLJIGJ@turret2AI?$AA@ 40133424     bg_vehicleLoad.obj
 0003:00004430       ??_C@_0BB@GKFEIPAN@turret2TurnSpeed?$AA@ 40133430     bg_vehicleLoad.obj
 0003:00004444       ??_C@_0P@MBHAFEOP@turret2Muzzle2?$AA@ 40133444     bg_vehicleLoad.obj
 0003:00004458       ??_C@_0P@OKFNAHCM@turret2Muzzle1?$AA@ 40133458     bg_vehicleLoad.obj
 0003:0000446c       ??_C@_0BD@ENIGHIPL@turret2ClampPitchD?$AA@ 4013346c     bg_vehicleLoad.obj
 0003:00004484       ??_C@_0BD@BOFPFLOL@turret2ClampPitchU?$AA@ 40133484     bg_vehicleLoad.obj
 0003:0000449c       ??_C@_0BB@DIKMIGDC@turret2ClampYawR?$AA@ 4013349c     bg_vehicleLoad.obj
 0003:000044b0       ??_C@_0BB@OMONLJON@turret2ClampYawL?$AA@ 401334b0     bg_vehicleLoad.obj
 0003:000044c4       ??_C@_0BB@NCOFGCLN@turret2PitchAxis?$AA@ 401334c4     bg_vehicleLoad.obj
 0003:000044d8       ??_C@_0P@PPHMAOEC@turret2YawAxis?$AA@ 401334d8     bg_vehicleLoad.obj
 0003:000044ec       ??_C@_0BB@EBFMNEBJ@turret2PitchBone?$AA@ 401334ec     bg_vehicleLoad.obj
 0003:00004500       ??_C@_0P@GMMFLIOG@turret2YawBone?$AA@ 40133500     bg_vehicleLoad.obj
 0003:00004514       ??_C@_0BG@KBCLJNLB@turret2AmmoRechargeMS?$AA@ 40133514     bg_vehicleLoad.obj
 0003:00004530       ??_C@_0P@GBCMHONA@turret2AmmoMax?$AA@ 40133530     bg_vehicleLoad.obj
 0003:00004544       ??_C@_0N@GAMMJDLC@turret2Delay?$AA@ 40133544     bg_vehicleLoad.obj
 0003:00004554       ??_C@_0M@CJIFPDBG@turret2Weap?$AA@ 40133554     bg_vehicleLoad.obj
 0003:00004564       ??_C@_0BF@EJJOIICO@turret1GunnerViewTag?$AA@ 40133564     bg_vehicleLoad.obj
 0003:00004580       ??_C@_0BE@MNFKLHBD@turret1PassengerNum?$AA@ 40133580     bg_vehicleLoad.obj
 0003:00004598       ??_C@_0P@GACJEEPN@turret1AIRange?$AA@ 40133598     bg_vehicleLoad.obj
 0003:000045ac       ??_C@_0O@NENBBHAC@turret1AILead?$AA@ 401335ac     bg_vehicleLoad.obj
 0003:000045bc       ??_C@_09IAHODHIH@turret1AI?$AA@ 401335bc     bg_vehicleLoad.obj
 0003:000045c8       ??_C@_0BB@PDLGOJAM@turret1TurnSpeed?$AA@ 401335c8     bg_vehicleLoad.obj
 0003:000045dc       ??_C@_0P@PIPNGICK@turret1Muzzle2?$AA@ 401335dc     bg_vehicleLoad.obj
 0003:000045f0       ??_C@_0P@NDNADLOJ@turret1Muzzle1?$AA@ 401335f0     bg_vehicleLoad.obj
 0003:00004604       ??_C@_0BD@PAEMBEDF@turret1ClampPitchD?$AA@ 40133604     bg_vehicleLoad.obj
 0003:0000461c       ??_C@_0BD@KDJFDHCF@turret1ClampPitchU?$AA@ 4013361c     bg_vehicleLoad.obj
 0003:00004634       ??_C@_0BB@KBEOOADD@turret1ClampYawR?$AA@ 40133634     bg_vehicleLoad.obj
 0003:00004648       ??_C@_0BB@HFAPNPOM@turret1ClampYawL?$AA@ 40133648     bg_vehicleLoad.obj
 0003:0000465c       ??_C@_0BB@ELAHAELM@turret1PitchAxis?$AA@ 4013365c     bg_vehicleLoad.obj
 0003:00004670       ??_C@_0P@MGPBDCIH@turret1YawAxis?$AA@ 40133670     bg_vehicleLoad.obj
 0003:00004684       ??_C@_0BB@NILOLCBI@turret1PitchBone?$AA@ 40133684     bg_vehicleLoad.obj
 0003:00004698       ??_C@_0P@FFEIIECD@turret1YawBone?$AA@ 40133698     bg_vehicleLoad.obj
 0003:000046ac       ??_C@_0BG@IIODCJED@turret1AmmoRechargeMS?$AA@ 401336ac     bg_vehicleLoad.obj
 0003:000046c8       ??_C@_0P@FIKBECBF@turret1AmmoMax?$AA@ 401336c8     bg_vehicleLoad.obj
 0003:000046dc       ??_C@_0N@FBCEIJCP@turret1Delay?$AA@ 401336dc     bg_vehicleLoad.obj
 0003:000046ec       ??_C@_0M@KPBBIBLI@turret1Weap?$AA@ 401336ec     bg_vehicleLoad.obj
 0003:000046fc       ??_C@_0BP@GIMDHKNG@cameraPitchDependantVertOffset?$AA@ 401336fc     bg_vehicleLoad.obj
 0003:00004724       ??_C@_0M@HCDOHHGA@cameraAlpha?$AA@ 40133724     bg_vehicleLoad.obj
 0003:00004734       ??_C@_09DEDNKOMM@cameraFOV?$AA@ 40133734     bg_vehicleLoad.obj
 0003:00004740       ??_C@_0BC@HAMFPJAF@cameraPitchOffset?$AA@ 40133740     bg_vehicleLoad.obj
 0003:00004758       ??_C@_0BB@PHKMDBPA@cameraHorzOffset?$AA@ 40133758     bg_vehicleLoad.obj
 0003:0000476c       ??_C@_0BB@JIEFMMG@cameraVertOffset?$AA@ 4013376c     bg_vehicleLoad.obj
 0003:00004780       ??_C@_0M@NABKGBHB@cameraRange?$AA@ 40133780     bg_vehicleLoad.obj
 0003:00004790       ??_C@_0P@GNOAPEOI@cameraOverride?$AA@ 40133790     bg_vehicleLoad.obj
 0003:000047a4       ??_C@_0P@OINMICGP@explosionDelay?$AA@ 401337a4     bg_vehicleLoad.obj
 0003:000047b8       ??_C@_09FEKLMMFJ@flammable?$AA@ 401337b8     bg_vehicleLoad.obj
 0003:000047c4       ??_C@_0BB@PDHEMPIJ@killRiderOnDeath?$AA@ 401337c4     bg_vehicleLoad.obj
 0003:000047d8       ??_C@_09JBJPOHNK@hideRider?$AA@ 401337d8     bg_vehicleLoad.obj
 0003:000047e4       ??_C@_0O@NGNHGBJN@maxPassengers?$AA@ 401337e4     bg_vehicleLoad.obj
 0003:000047f4       ??_C@_0BA@HFCGNKHF@explosionDamage?$AA@ 401337f4     bg_vehicleLoad.obj
 0003:00004808       ??_C@_0BA@LKLGPLNG@explosionRadius?$AA@ 40133808     bg_vehicleLoad.obj
 0003:0000481c       ??_C@_08PPAAKLBH@loudness?$AA@ 4013381c     bg_vehicleLoad.obj
 0003:00004828       ??_C@_0L@CNKMJODB@visibility?$AA@ 40133828     bg_vehicleLoad.obj
 0003:00004838       ??_C@_0O@DAFJHCFD@turboRecharge?$AA@ 40133838     bg_vehicleLoad.obj
 0003:00004848       ??_C@_0O@LHGBPOCO@turboDuration?$AA@ 40133848     bg_vehicleLoad.obj
 0003:00004858       ??_C@_08POLMHDEL@fuelRate?$AA@ 40133858     bg_vehicleLoad.obj
 0003:00004864       ??_C@_07PBHPKAIK@fuelMax?$AA@ 40133864     bg_vehicleLoad.obj
 0003:00004870       ??_C@_08DLBCDKOK@bouyancy?$AA@ 40133870     bg_vehicleLoad.obj
 0003:0000487c       ??_C@_0L@KPACIHBI@waterProof?$AA@ 4013387c     bg_vehicleLoad.obj
 0003:0000488c       ??_C@_0O@JOCPMJAA@hoverStrength?$AA@ 4013388c     bg_vehicleLoad.obj
 0003:0000489c       ??_C@_0M@HKBHLPFK@hoverHeight?$AA@ 4013389c     bg_vehicleLoad.obj
 0003:000048ac       ??_C@_07GFBFDLBM@gravity?$AA@ 401338ac     bg_vehicleLoad.obj
 0003:000048b8       ??_C@_0O@JIDEEHO@landingHeight?$AA@ 401338b8     bg_vehicleLoad.obj
 0003:000048c8       ??_C@_0N@GDPHOKJG@weapMuzzle10?$AA@ 401338c8     bg_vehicleLoad.obj
 0003:000048d8       ??_C@_0M@BPIGPFLJ@weapMuzzle9?$AA@ 401338d8     bg_vehicleLoad.obj
 0003:000048e8       ??_C@_0M@GJNMEPI@weapMuzzle8?$AA@ 401338e8     bg_vehicleLoad.obj
 0003:000048f8       ??_C@_0M@IBAFNIDH@weapMuzzle7?$AA@ 401338f8     bg_vehicleLoad.obj
 0003:00004908       ??_C@_0M@JIBOOJHG@weapMuzzle6?$AA@ 40133908     bg_vehicleLoad.obj
 0003:00004918       ??_C@_0M@LDDDLKLF@weapMuzzle5?$AA@ 40133918     bg_vehicleLoad.obj
 0003:00004928       ??_C@_0M@KKCIILPE@weapMuzzle4?$AA@ 40133928     bg_vehicleLoad.obj
 0003:00004938       ??_C@_0M@OFGJBNDD@weapMuzzle3?$AA@ 40133938     bg_vehicleLoad.obj
 0003:00004948       ??_C@_0M@PMHCCMHC@weapMuzzle2?$AA@ 40133948     bg_vehicleLoad.obj
 0003:00004958       ??_C@_0M@NHFPHPLB@weapMuzzle1?$AA@ 40133958     bg_vehicleLoad.obj
 0003:00004968       ??_C@_0BB@PMCLALPP@weap2SoundNoAmmo?$AA@ 40133968     bg_vehicleLoad.obj
 0003:0000497c       ??_C@_0BB@EBOBGHDB@weap1SoundNoAmmo?$AA@ 4013397c     bg_vehicleLoad.obj
 0003:00004990       ??_C@_0BE@BOOILCOO@weap2AmmoRechargeMS?$AA@ 40133990     bg_vehicleLoad.obj
 0003:000049a8       ??_C@_0BE@DHCAAGBM@weap1AmmoRechargeMS?$AA@ 401339a8     bg_vehicleLoad.obj
 0003:000049c0       ??_C@_0N@IHPKDNMK@weap2AmmoMax?$AA@ 401339c0     bg_vehicleLoad.obj
 0003:000049d0       ??_C@_0N@LOHHABAP@weap1AmmoMax?$AA@ 401339d0     bg_vehicleLoad.obj
 0003:000049e0       ??_C@_08FMMAJAPJ@weap2Aim?$AA@ 401339e0     bg_vehicleLoad.obj
 0003:000049ec       ??_C@_08BLGAOKCJ@weap1Aim?$AA@ 401339ec     bg_vehicleLoad.obj
 0003:000049f8       ??_C@_09LIOCECKM@weap2Link?$AA@ 401339f8     bg_vehicleLoad.obj
 0003:00004a04       ??_C@_09DOHGDAAC@weap1Link?$AA@ 40133a04     bg_vehicleLoad.obj
 0003:00004a10       ??_C@_0L@KPBIONAP@weap2Delay?$AA@ 40133a10     bg_vehicleLoad.obj
 0003:00004a20       ??_C@_0L@JOPAPHJC@weap1Delay?$AA@ 40133a20     bg_vehicleLoad.obj
 0003:00004a30       ??_C@_05DDNDDHFP@weap2?$AA@ 40133a30     bg_vehicleLoad.obj
 0003:00004a38       ??_C@_05BIPOGEJM@weap1?$AA@ 40133a38     bg_vehicleLoad.obj
 0003:00004a40       ??_C@_07PEBKCGPE@rwingFX?$AA@ 40133a40     bg_vehicleLoad.obj
 0003:00004a4c       ??_C@_07JNCLAFON@lwingFX?$AA@ 40133a4c     bg_vehicleLoad.obj
 0003:00004a58       ??_C@_06PEEHBBLG@noseFX?$AA@ 40133a58     bg_vehicleLoad.obj
 0003:00004a60       ??_C@_08NBOBHDEO@injureFX?$AA@ 40133a60     bg_vehicleLoad.obj
 0003:00004a6c       ??_C@_05BMHOEJHI@dmgFX?$AA@ 40133a6c     bg_vehicleLoad.obj
 0003:00004a74       ??_C@_06GMJLHFJI@wakeFX?$AA@ 40133a74     bg_vehicleLoad.obj
 0003:00004a7c       ??_C@_09BPBLMDGM@explodeFX?$AA@ 40133a7c     bg_vehicleLoad.obj
 0003:00004a88       ??_C@_07OJDPNJKI@trailFX?$AA@ 40133a88     bg_vehicleLoad.obj
 0003:00004a94       ??_C@_0N@KHLFFGCJ@turboStartFX?$AA@ 40133a94     bg_vehicleLoad.obj
 0003:00004aa4       ??_C@_07MMLPAJOM@turboFX?$AA@ 40133aa4     bg_vehicleLoad.obj
 0003:00004ab0       ??_C@_09EJLKNCKH@exhaustFX?$AA@ 40133ab0     bg_vehicleLoad.obj
 0003:00004abc       ??_C@_0M@FAJFECEE@soundShift4?$AA@ 40133abc     bg_vehicleLoad.obj
 0003:00004acc       ??_C@_0M@BPNENEID@soundShift3?$AA@ 40133acc     bg_vehicleLoad.obj
 0003:00004adc       ??_C@_0M@GMPOFMC@soundShift2?$AA@ 40133adc     bg_vehicleLoad.obj
 0003:00004aec       ??_C@_0M@CNOCLGAB@soundShift1?$AA@ 40133aec     bg_vehicleLoad.obj
 0003:00004afc       ??_C@_0M@OPNACIAF@soundFlyBy2?$AA@ 40133afc     bg_vehicleLoad.obj
 0003:00004b0c       ??_C@_0L@MNOPHOMD@soundFlyBy?$AA@ 40133b0c     bg_vehicleLoad.obj
 0003:00004b1c       ??_C@_09HDMMGPMA@soundLand?$AA@ 40133b1c     bg_vehicleLoad.obj
 0003:00004b28       ??_C@_0L@PMBLMBGF@soundHyper?$AA@ 40133b28     bg_vehicleLoad.obj
 0003:00004b38       ??_C@_0L@BNNFFMJG@soundTurbo?$AA@ 40133b38     bg_vehicleLoad.obj
 0003:00004b48       ??_C@_09IGHJKBGG@soundSpin?$AA@ 40133b48     bg_vehicleLoad.obj
 0003:00004b54       ??_C@_0BB@GGMAFHFB@soundEngineStart?$AA@ 40133b54     bg_vehicleLoad.obj
 0003:00004b68       ??_C@_0N@JPGBMOIF@soundTakeOff?$AA@ 40133b68     bg_vehicleLoad.obj
 0003:00004b78       ??_C@_09LMHPKFJB@soundLoop?$AA@ 40133b78     bg_vehicleLoad.obj
 0003:00004b84       ??_C@_08IFIFNFKF@soundOff?$AA@ 40133b84     bg_vehicleLoad.obj
 0003:00004b90       ??_C@_07IMONDDDH@soundOn?$AA@ 40133b90     bg_vehicleLoad.obj
 0003:00004b9c       ??_C@_0M@DFCNLFDF@health_left?$AA@ 40133b9c     bg_vehicleLoad.obj
 0003:00004bac       ??_C@_0N@EMHJOGPP@health_right?$AA@ 40133bac     bg_vehicleLoad.obj
 0003:00004bbc       ??_C@_0M@MOOOFAHG@health_back?$AA@ 40133bbc     bg_vehicleLoad.obj
 0003:00004bcc       ??_C@_0N@CDHFELM@health_front?$AA@ 40133bcc     bg_vehicleLoad.obj
 0003:00004bdc       ??_C@_0N@JONDFKLC@shieldShader?$AA@ 40133bdc     bg_vehicleLoad.obj
 0003:00004bec       ??_C@_0BA@FMKKHFFJ@crosshairShader?$AA@ 40133bec     bg_vehicleLoad.obj
 0003:00004c00       ??_C@_09CMMAKMMC@icon_left?$AA@ 40133c00     bg_vehicleLoad.obj
 0003:00004c0c       ??_C@_0L@GPLJGMFJ@icon_right?$AA@ 40133c0c     bg_vehicleLoad.obj
 0003:00004c1c       ??_C@_09NHADEJIB@icon_back?$AA@ 40133c1c     bg_vehicleLoad.obj
 0003:00004c28       ??_C@_0L@CBPHNOBK@icon_front?$AA@ 40133c28     bg_vehicleLoad.obj
 0003:00004c38       ??_C@_0BD@KLFJKOII@dmgIndicBackground?$AA@ 40133c38     bg_vehicleLoad.obj
 0003:00004c50       ??_C@_0P@FPBFALOJ@dmgIndicShield?$AA@ 40133c50     bg_vehicleLoad.obj
 0003:00004c64       ??_C@_0O@DJHCJKGN@dmgIndicFrame?$AA@ 40133c64     bg_vehicleLoad.obj
 0003:00004c74       ??_C@_09FONOLKPA@radarIcon?$AA@ 40133c74     bg_vehicleLoad.obj
 0003:00004c80       ??_C@_08EJIADHP@droidNPC?$AA@ 40133c80     bg_vehicleLoad.obj
 0003:00004c8c       ??_C@_09PMPDIAJG@riderAnim?$AA@ 40133c8c     bg_vehicleLoad.obj
 0003:00004c98       ??_C@_08CCPHKHEL@g2radius?$AA@ 40133c98     bg_vehicleLoad.obj
 0003:00004ca4       ??_C@_0BA@PLDNJPJN@surfDestruction?$AA@ 40133ca4     bg_vehicleLoad.obj
 0003:00004cb8       ??_C@_0BG@ICOPODEK@malfunctionArmorLevel?$AA@ 40133cb8     bg_vehicleLoad.obj
 0003:00004cd4       ??_C@_09FGFEKOJH@toughness?$AA@ 40133cd4     bg_vehicleLoad.obj
 0003:00004ce0       ??_C@_0BB@BMKKPECK@shieldRechargeMS?$AA@ 40133ce0     bg_vehicleLoad.obj
 0003:00004cf4       ??_C@_07EEEOBDLK@shields?$AA@ 40133cf4     bg_vehicleLoad.obj
 0003:00004d00       ??_C@_05JJEJIJLL@armor?$AA@ 40133d00     bg_vehicleLoad.obj
 0003:00004d08       ??_C@_04IJEANHEE@mass?$AA@ 40133d08     bg_vehicleLoad.obj
 0003:00004d10       ??_C@_0BG@HOKPMJKB@speedDependantTurning?$AA@ 40133d10     bg_vehicleLoad.obj
 0003:00004d2c       ??_C@_08IOPKEDDJ@maxSlope?$AA@ 40133d2c     bg_vehicleLoad.obj
 0003:00004d38       ??_C@_08LKDNMFOC@friction?$AA@ 40133d38     bg_vehicleLoad.obj
 0003:00004d44       ??_C@_08LOEOBHC@traction?$AA@ 40133d44     bg_vehicleLoad.obj
 0003:00004d50       ??_C@_0BA@DEALIFEA@turnWhenStopped?$AA@ 40133d50     bg_vehicleLoad.obj
 0003:00004d64       ??_C@_0N@BEECELKI@turningSpeed?$AA@ 40133d64     bg_vehicleLoad.obj
 0003:00004d74       ??_C@_0L@PFPFAHKM@mousePitch?$AA@ 40133d74     bg_vehicleLoad.obj
 0003:00004d84       ??_C@_08EAELEJGF@mouseYaw?$AA@ 40133d84     bg_vehicleLoad.obj
 0003:00004d90       ??_C@_07HAHFHPDC@braking?$AA@ 40133d90     bg_vehicleLoad.obj
 0003:00004d9c       ??_C@_09IPOAKDJE@rollLimit?$AA@ 40133d9c     bg_vehicleLoad.obj
 0003:00004da8       ??_C@_0L@CFHLLIPB@pitchLimit?$AA@ 40133da8     bg_vehicleLoad.obj
 0003:00004db8       ??_C@_0N@ENHLHJGE@bankingSpeed?$AA@ 40133db8     bg_vehicleLoad.obj
 0003:00004dc8       ??_C@_0L@FDBPLPOD@strafePerc?$AA@ 40133dc8     bg_vehicleLoad.obj
 0003:00004dd8       ??_C@_0P@HHEMMPFK@throttleSticks?$AA@ 40133dd8     bg_vehicleLoad.obj
 0003:00004dec       ??_C@_09JCLBALJJ@decelIdle?$AA@ 40133dec     bg_vehicleLoad.obj
 0003:00004df8       ??_C@_0N@OKFAMOHD@acceleration?$AA@ 40133df8     bg_vehicleLoad.obj
 0003:00004e08       ??_C@_09HICLJFH@accelIdle?$AA@ 40133e08     bg_vehicleLoad.obj
 0003:00004e14       ??_C@_09JLKIBNNM@speedIdle?$AA@ 40133e14     bg_vehicleLoad.obj
 0003:00004e20       ??_C@_08EEILJPJB@speedMin?$AA@ 40133e20     bg_vehicleLoad.obj
 0003:00004e2c       ??_C@_0L@MLDLGLOI@turboSpeed?$AA@ 40133e2c     bg_vehicleLoad.obj
 0003:00004e3c       ??_C@_08FGAAHLPO@speedMax?$AA@ 40133e3c     bg_vehicleLoad.obj
 0003:00004e48       ??_C@_0BA@BPLGJHPJ@centerOfGravity?$AA@ 40133e48     bg_vehicleLoad.obj
 0003:00004e5c       ??_C@_06IJDLPEM@length?$AA@ 40133e5c     bg_vehicleLoad.obj
 0003:00004e64       ??_C@_07OIEJFMLD@lookYaw?$AA@ 40133e64     bg_vehicleLoad.obj
 0003:00004e70       ??_C@_09EPEKCJNM@lookPitch?$AA@ 40133e70     bg_vehicleLoad.obj
 0003:00004e7c       ??_C@_08FEOKBMLD@numHands?$AA@ 40133e7c     bg_vehicleLoad.obj
 0003:00004e88       ??_C@_04GPMDFGEJ@type?$AA@ 40133e88     bg_vehicleLoad.obj
 0003:00004e90       ??_C@_0BA@KPKBCLLA@explodeOnExpire?$AA@ 40133e90     bg_vehicleLoad.obj
 0003:00004ea4       ??_C@_08MOKDPMFA@lifetime?$AA@ 40133ea4     bg_vehicleLoad.obj
 0003:00004eb0       ??_C@_06LNLHEAAG@height?$AA@ 40133eb0     bg_vehicleLoad.obj
 0003:00004eb8       ??_C@_05IGKADHGO@width?$AA@ 40133eb8     bg_vehicleLoad.obj
 0003:00004ec0       ??_C@_06KJINILIP@health?$AA@ 40133ec0     bg_vehicleLoad.obj
 0003:00004ec8       ??_C@_0M@EIOFGFCL@ammoPerShot?$AA@ 40133ec8     bg_vehicleLoad.obj
 0003:00004ed8       ??_C@_0N@HGGCMKIH@splashRadius?$AA@ 40133ed8     bg_vehicleLoad.obj
 0003:00004ee8       ??_C@_0N@LJPCOLCE@splashDamage?$AA@ 40133ee8     bg_vehicleLoad.obj
 0003:00004ef8       ??_C@_06GJOIPFFF@damage?$AA@ 40133ef8     bg_vehicleLoad.obj
 0003:00004f00       ??_C@_0L@FFLAGJDE@lockOnTime?$AA@ 40133f00     bg_vehicleLoad.obj
 0003:00004f10       ??_C@_09DIOLNDJN@homingFOV?$AA@ 40133f10     bg_vehicleLoad.obj
 0003:00004f1c       ??_C@_06GMBBIPLD@homing?$AA@ 40133f1c     bg_vehicleLoad.obj
 0003:00004f24       ??_C@_09DPJGNNNM@loopSound?$AA@ 40133f24     bg_vehicleLoad.obj
 0003:00004f30       ??_C@_0L@NDLIJKLF@g2MarkSize?$AA@ 40133f30     bg_vehicleLoad.obj
 0003:00004f40       ??_C@_0N@LOKNPDPD@g2MarkShader?$AA@ 40133f40     bg_vehicleLoad.obj
 0003:00004f50       ??_C@_08LBKCHJGI@impactFX?$AA@ 40133f50     bg_vehicleLoad.obj
 0003:00004f5c       ??_C@_06KCPOJGHJ@shotFX?$AA@ 40133f5c     bg_vehicleLoad.obj
 0003:00004f64       ??_C@_08OEIEAIMH@muzzleFX?$AA@ 40133f64     bg_vehicleLoad.obj
 0003:00004f70       ??_C@_0P@MLELMPKF@saberBlockable?$AA@ 40133f70     bg_vehicleLoad.obj
 0003:00004f84       ??_C@_09LOOPDJEK@ionWeapon?$AA@ 40133f84     bg_vehicleLoad.obj
 0003:00004f90       ??_C@_0L@IPNKNAOM@hasGravity?$AA@ 40133f90     bg_vehicleLoad.obj
 0003:00004fa0       ??_C@_0L@BOMCPGNF@projectile?$AA@ 40133fa0     bg_vehicleLoad.obj
 0003:00004fb0       ??_C@_0CF@CCHFIIPJ@sound?1vehicles?1common?1lockalarm3@ 40133fb0     bg_vehicleLoad.obj
 0003:00004fdc       ??_C@_0CF@OJCJFLFM@sound?1vehicles?1common?1lockalarm2@ 40133fdc     bg_vehicleLoad.obj
 0003:00005008       ??_C@_0CF@GPLNCJPC@sound?1vehicles?1common?1lockalarm1@ 40134008     bg_vehicleLoad.obj
 0003:00005034       ??_C@_0CH@GDPFBACF@sound?1vehicles?1weapons?1common?1lo@ 40134034     bg_vehicleLoad.obj
 0003:00005064       ??_C@_0CH@LCICPJML@sound?1vehicles?1weapons?1common?1ti@ 40134064     bg_vehicleLoad.obj
 0003:00005094       ??_C@_0DL@NMOBCAIH@?$FO1ERROR?3?5Unknown?5Vehicle?5Weapon?5@ 40134094     bg_vehicleLoad.obj
 0003:000050dc       ??_C@_0DC@DEIKKAAA@?$FO1ERROR?3?5Vehicle?5Weapon?5token?5?8?$CF@ 401340dc     bg_vehicleLoad.obj
 0003:00005118       ??_C@_01CELHOKLL@?$HN?$AA@ 40134118     bg_vehicleLoad.obj
 0003:0000511c       ??_C@_0DL@FMGLONEB@?$FO1ERROR?3?5unexpected?5EOF?5while?5pa@ 4013411c     bg_vehicleLoad.obj
 0003:00005164       ??_C@_01HCONENDN@?$HL?$AA@ 40134164     bg_vehicleLoad.obj
 0003:00005168       ??_C@_0L@MLJDLEMM@vehWeapons?$AA@ 40134168     bg_vehicleLoad.obj
 0003:00005178       ??_C@_0FD@MDELBJLL@?$FO3BG_ParseVehWeaponParm?3?5VEC3?5ss@ 40134178     bg_vehicleLoad.obj
 0003:000051dc       ??_C@_1CA@EGMBLEO@?$AA_?$AAi?$AAF?$AAi?$AAe?$AAl?$AAd?$AAs?$AAR?$AAe?$AAa?$AAd?$AA?$DN?$AA?$DN?$AA3?$AA?$AA@ 401341dc     bg_vehicleLoad.obj
 0003:00005208       ??_C@_1PG@MFIPBEG@?$AAc?$AA?3?$AA?2?$AAd?$AAo?$AAc?$AAu?$AAm?$AAe?$AAn?$AAt?$AAs?$AA?5?$AAa?$AAn?$AAd?$AA?5?$AAs?$AAe?$AAt?$AAt?$AAi?$AAn?$AAg?$AAs?$AA?2?$AAd?$AAa?$AAn?$AA?2?$AAd?$AAe@ 40134208     bg_vehicleLoad.obj
 0003:00005330       ??_C@_08OEKJENGB@?$CFf?5?$CFf?5?$CFf?$AA@ 40134330     bg_vehicleLoad.obj
 0003:0000533c       ??_C@_0CM@BOPHHAJF@?$FO1ERROR?3?5Could?5not?5find?5Vehicle?5@ 4013433c     bg_vehicleLoad.obj
 0003:00005370       ??_C@_0EC@OJBJIBOI@?$FO1ERROR?3?5Too?5many?5Vehicle?5Weapon@ 40134370     bg_vehicleLoad.obj
 0003:000053c0       ??_C@_0DG@NFPGFPBD@?$FO1ERROR?3?5Trying?5to?5read?5Vehicle?5@ 401343c0     bg_vehicleLoad.obj
 0003:00005400       __real@bf800000            40134400     bg_vehicleLoad.obj
 0003:00005404       ??_C@_0CC@DCOMBCFJ@sound?1vehicles?1common?1fire_lp?4wa@ 40134404     bg_vehicleLoad.obj
 0003:0000542c       ??_C@_0BM@KNIODCMI@models?1players?1?$CFs?1model?4glm?$AA@ 4013442c     bg_vehicleLoad.obj
 0003:00005450       ??_C@_0DP@KOBBMOMH@?$FO1ERROR?3?5Unknown?5Vehicle?5key?1val@ 40134450     bg_vehicleLoad.obj
 0003:0000549c       ??_C@_0DO@IDJECIHA@?$FO1ERROR?3?5Unknown?5Vehicle?5key?1val@ 4013449c     bg_vehicleLoad.obj
 0003:000054e8       ??_C@_0DO@ECBKPHLA@?$FO1ERROR?3?5Unknown?5Vehicle?5key?1val@ 401344e8     bg_vehicleLoad.obj
 0003:00005534       ??_C@_0DO@NBOCADHG@?$FO1ERROR?3?5Unknown?5Vehicle?5key?1val@ 40134534     bg_vehicleLoad.obj
 0003:00005580       ??_C@_0DO@BAGMNMLG@?$FO1ERROR?3?5Unknown?5Vehicle?5key?1val@ 40134580     bg_vehicleLoad.obj
 0003:000055cc       ??_C@_0DO@IJIOLKLH@?$FO1ERROR?3?5Unknown?5Vehicle?5key?1val@ 401345cc     bg_vehicleLoad.obj
 0003:00005618       ??_C@_0DO@EIAAGFHH@?$FO1ERROR?3?5Unknown?5Vehicle?5key?1val@ 40134618     bg_vehicleLoad.obj
 0003:00005664       ??_C@_0DO@GBDLHAPE@?$FO1ERROR?3?5Unknown?5Vehicle?5key?1val@ 40134664     bg_vehicleLoad.obj
 0003:000056b0       ??_C@_0DO@KALFKPDE@?$FO1ERROR?3?5Unknown?5Vehicle?5key?1val@ 401346b0     bg_vehicleLoad.obj
 0003:000056fc       ??_C@_0DO@DJFHMJDF@?$FO1ERROR?3?5Unknown?5Vehicle?5key?1val@ 401346fc     bg_vehicleLoad.obj
 0003:00005748       ??_C@_0DI@HCHEBFLI@?$FO1ERROR?3?5Unknown?5Vehicle?5key?1val@ 40134748     bg_vehicleLoad.obj
 0003:0000578c       ??_C@_0DI@OLJGHDLJ@?$FO1ERROR?3?5Unknown?5Vehicle?5key?1val@ 4013478c     bg_vehicleLoad.obj
 0003:000057d0       ??_C@_0DF@FBDCMFNK@?$FO1ERROR?3?5Unknown?5Vehicle?5key?1val@ 401347d0     bg_vehicleLoad.obj
 0003:00005810       ??_C@_0CL@OGPLJEAB@?$FO1ERROR?3?5Vehicle?5token?5?8?$CFs?8?5has?5@ 40134810     bg_vehicleLoad.obj
 0003:00005844       ??_C@_0DE@EKJMGPEC@?$FO1ERROR?3?5unexpected?5EOF?5while?5pa@ 40134844     bg_vehicleLoad.obj
 0003:00005884       ??_C@_08HAIKMFBJ@vehicles?$AA@ 40134884     bg_vehicleLoad.obj
 0003:00005890       ??_C@_0FB@JIOAPADB@?$FO3BG_ParseVehicleParm?3?5VEC3?5ssca@ 40134890     bg_vehicleLoad.obj
 0003:000058f4       ??_C@_0CF@JDPFBFFF@?$FO1ERROR?3?5Could?5not?5find?5Vehicle?5@ 401348f4     bg_vehicleLoad.obj
 0003:00005920       ??_C@_0DL@LHHFHKNO@?$FO1ERROR?3?5Too?5many?5Vehicles?5?$CImax?5@ 40134920     bg_vehicleLoad.obj
 0003:00005968       ??_C@_0CP@GGAMJIMN@?$FO1ERROR?3?5Trying?5to?5read?5Vehicle?5@ 40134968     bg_vehicleLoad.obj
 0003:000059a0       ??_C@_0DA@KBNENJDB@Vehicle?5Weapon?5extensions?5?$CI?$CK?4vwp@ 401349a0     bg_vehicleLoad.obj
 0003:000059dc       ??_C@_01CLKCMJKC@?5?$AA@   401349dc     bg_vehicleLoad.obj
 0003:000059e0       ??_C@_0BE@DJGNLOAI@error?5reading?5file?6?$AA@ 401349e0     bg_vehicleLoad.obj
 0003:000059f8       ??_C@_0BN@HEKLMLDI@ext_data?1vehicles?1weapons?1?$CFs?$AA@ 401349f8     bg_vehicleLoad.obj
 0003:00005a1c       ??_C@_0BK@NBKBPLIB@ext_data?1vehicles?1weapons?$AA@ 40134a1c     bg_vehicleLoad.obj
 0003:00005a3c       ??_C@_04HHPJGBOE@?4vwp?$AA@ 40134a3c     bg_vehicleLoad.obj
 0003:00005a44       ??_C@_0CJ@FOAJMHKE@Vehicle?5extensions?5?$CI?$CK?4veh?$CJ?5are?5t@ 40134a44     bg_vehicleLoad.obj
 0003:00005a78       ??_C@_0BF@IBNPKGMN@ext_data?1vehicles?1?$CFs?$AA@ 40134a78     bg_vehicleLoad.obj
 0003:00005a94       ??_C@_0BC@OPBPEGFG@ext_data?1vehicles?$AA@ 40134a94     bg_vehicleLoad.obj
 0003:00005aac       ??_C@_04OKEAIOKD@?4veh?$AA@ 40134aac     bg_vehicleLoad.obj
 0003:00005ab4       ??_C@_0DC@CNDALACO@BG_GetVehicleModelName?3?5?5couldn?8@ 40134ab4     bg_vehicleLoad.obj
 0003:00005af0       ??_C@_1CI@FJGDGLGC@?$AAm?$AAo?$AAd?$AAe?$AAl?$AAn?$AAa?$AAm?$AAe?$AA?$FL?$AA0?$AA?$FN?$AA?5?$AA?$DN?$AA?$DN?$AA?5?$AA?8?$AA$?$AA?8?$AA?$AA@ 40134af0     bg_vehicleLoad.obj
 0003:00005b20       ??_C@_0DB@BEOAHFLB@BG_GetVehicleSkinName?3?5?5couldn?8t@ 40134b20     bg_vehicleLoad.obj
 0003:00005b5c       ??_C@_1CG@FKNNDPAL@?$AAs?$AAk?$AAi?$AAn?$AAn?$AAa?$AAm?$AAe?$AA?$FL?$AA0?$AA?$FN?$AA?5?$AA?$DN?$AA?$DN?$AA?5?$AA?8?$AA$?$AA?8?$AA?$AA@ 40134b5c     bg_vehicleLoad.obj
 0003:00005b90       __real@40f0000000000000    40134b90     q_math.obj
 0003:00005ba0       __real@4000000000000000    40134ba0     q_math.obj
 0003:00005bb0       __real@406fe00000000000    40134bb0     q_math.obj
 0003:00005bbc       ??_C@_1DE@EJPCDGJI@?$AAQ?$AA_?$AAf?$AAa?$AAb?$AAs?$AA?$CI?$AAi?$AAn?$AAv?$AA_?$AAd?$AAe?$AAn?$AAo?$AAm?$AA?$CJ?$AA?5?$AA?$CB?$AA?$DN?$AA?5?$AA0?$AA?4?$AA0?$AAf?$AA?$AA@ 40134bbc     q_math.obj
 0003:00005c00       ??_C@_1OG@OBMIAICK@?$AAc?$AA?3?$AA?2?$AAd?$AAo?$AAc?$AAu?$AAm?$AAe?$AAn?$AAt?$AAs?$AA?5?$AAa?$AAn?$AAd?$AA?5?$AAs?$AAe?$AAt?$AAt?$AAi?$AAn?$AAg?$AAs?$AA?2?$AAd?$AAa?$AAn?$AA?2?$AAd?$AAe@ 40134c00     q_math.obj
 0003:00005d14       __real@3fc00000            40134d14     q_math.obj
 0003:00005d18       __real@c066800000000000    40134d18     q_math.obj
 0003:00005d28       __real@3f76800000000000    40134d28     q_math.obj
 0003:00005d38       __real@4066c16c16c16c17    40134d38     q_math.obj
 0003:00005d44       __real@c7c34f80            40134d44     q_math.obj
 0003:00005d48       __real@47c34f80            40134d48     q_math.obj
 0003:00005d50       __real@3f91df46a0000000    40134d50     q_math.obj
 0003:00005d60       __real@3fe6aaaaa0000000    40134d60     q_math.obj
 0003:00005d70       __real@40e0000000000000    40134d70     q_math.obj
 0003:00005d7c       ??_C@_1CI@GDMNBGE@?$AA?$CI?$AAm?$AAa?$AAx?$AA?5?$AA?9?$AA?5?$AAm?$AAi?$AAn?$AA?$CJ?$AA?5?$AA?$DM?$AA?5?$AA3?$AA2?$AA7?$AA6?$AA8?$AA?$AA@ 40134d7c     q_math.obj
 0003:00005dac       ??_C@_04HDOCAJNK@?$CFs?$CFs?$AA@ 40134dac     q_shared.obj
 0003:00005db4       ??_C@_02DKCKIIND@?$CFs?$AA@ 40134db4     q_shared.obj
 0003:00005db8       ??_C@_0BI@KPLEBEJF@ERROR?3?5?$CFs?0?5line?5?$CFd?3?5?$CFs?6?$AA@ 40134db8     q_shared.obj
 0003:00005dd4       ??_C@_0BK@DJMKDJBL@WARNING?3?5?$CFs?0?5line?5?$CFd?3?5?$CFs?6?$AA@ 40134dd4     q_shared.obj
 0003:00005df4       ??_C@_0BA@FOCLBKAP@unexpected?5EOF?6?$AA@ 40134df4     q_shared.obj
 0003:00005e08       ??_C@_0BF@BFEJCABG@MatchToken?3?5?$CFs?5?$CB?$DN?5?$CFs?$AA@ 40134e08     q_shared.obj
 0003:00005e24       ??_C@_01PKGAHCOL@?$CJ?$AA@ 40134e24     q_shared.obj
 0003:00005e28       ??_C@_01ODHLEDKK@?$CI?$AA@ 40134e28     q_shared.obj
 0003:00005e2c       ??_C@_0BJ@OLBOPICM@Q_strncpyz?3?5destsize?5?$DM?51?$AA@ 40134e2c     q_shared.obj
 0003:00005e4c       ??_C@_0BF@BJHHBLMD@Q_strncpyz?3?5NULL?5src?$AA@ 40134e4c     q_shared.obj
 0003:00005e68       ??_C@_0BG@EKAPNPCH@Q_strncpyz?3?5NULL?5dest?$AA@ 40134e68     q_shared.obj
 0003:00005e84       ??_C@_0BN@EFOOAHFL@Q_strcat?3?5already?5overflowed?$AA@ 40134e84     q_shared.obj
 0003:00005ea8       ??_C@_0CD@GIPJKOOD@Com_sprintf?3?5overflow?5of?5?$CFi?5in?5?$CF@ 40134ea8     q_shared.obj
 0003:00005ed4       ??_C@_0CC@GMEFDOKA@Com_sprintf?3?5overflowed?5bigbuffe@ 40134ed4     q_shared.obj
 0003:00005efc       ??_C@_0CG@FLHABLN@Info_ValueForKey?3?5oversize?5infos@ 40134efc     q_shared.obj
 0003:00005f2c       ??_C@_0CE@HMPLGKDK@Info_RemoveKey?3?5oversize?5infostr@ 40134f2c     q_shared.obj
 0003:00005f58       ??_C@_0CI@CPIEPBLO@Info_RemoveKey_Big?3?5oversize?5inf@ 40134f58     q_shared.obj
 0003:00005f88       ??_C@_0BN@CAOBGKLE@Info?5string?5length?5exceeded?6?$AA@ 40134f88     q_shared.obj
 0003:00005fac       ??_C@_06NELKLDPM@?2?$CFs?2?$CFs?$AA@ 40134fac     q_shared.obj
 0003:00005fb4       ??_C@_0CD@MGFMEBLE@Can?8t?5use?5keys?5or?5values?5with?5a?5@ 40134fb4     q_shared.obj
 0003:00005fe0       ??_C@_0CL@JCFAGLFD@Can?8t?5use?5keys?5or?5values?5with?5a?5@ 40134fe0     q_shared.obj
 0003:00006014       ??_C@_0CD@JIDDAEOO@Can?8t?5use?5keys?5or?5values?5with?5a?5@ 40135014     q_shared.obj
 0003:00006040       ??_C@_0CJ@CEEBDGNA@Info_SetValueForKey?3?5oversize?5in@ 40135040     q_shared.obj
 0003:00006074       ??_C@_0CB@EMDOOGBI@BIG?5Info?5string?5length?5exceeded?6@ 40135074     q_shared.obj
 0003:0000609c       ??_C@_03LFLJCHJK@d1?6?$AA@ 4013509c     ui_atoms.obj
 0003:000060a0       ??_C@_0BC@CDFKGPLF@ui_scoreCaptures2?$AA@ 401350a0     ui_atoms.obj
 0003:000060b8       ??_C@_0O@HCNFDDJ@ui_scoreTime2?$AA@ 401350b8     ui_atoms.obj
 0003:000060c8       ??_C@_0BG@GJEMFEOF@ui_scoreShutoutBonus2?$AA@ 401350c8     ui_atoms.obj
 0003:000060e4       ??_C@_0BE@CJNDOHKG@ui_scoreSkillBonus2?$AA@ 401350e4     ui_atoms.obj
 0003:000060fc       ??_C@_0BD@NOLDEPJB@ui_scoreTimeBonus2?$AA@ 401350fc     ui_atoms.obj
 0003:00006114       ??_C@_0O@FCBENJNC@ui_scoreBase2?$AA@ 40135114     ui_atoms.obj
 0003:00006124       ??_C@_0O@IGBIFADI@ui_scoreTeam2?$AA@ 40135124     ui_atoms.obj
 0003:00006134       ??_C@_0BB@PPJKIJPL@ui_scorePerfect2?$AA@ 40135134     ui_atoms.obj
 0003:00006148       ??_C@_0P@ILDOILB@ui_scoreScore2?$AA@ 40135148     ui_atoms.obj
 0003:0000615c       ??_C@_0BD@DCEJOFCC@ui_scoreGauntlets2?$AA@ 4013515c     ui_atoms.obj
 0003:00006174       ??_C@_0BB@IOPFEFIF@ui_scoreAssists2?$AA@ 40135174     ui_atoms.obj
 0003:00006188       ??_C@_0BB@PEPLEPNI@ui_scoreDefends2?$AA@ 40135188     ui_atoms.obj
 0003:0000619c       ??_C@_0BE@MAMGCNCA@ui_scoreExcellents2?$AA@ 4013519c     ui_atoms.obj
 0003:000061b4       ??_C@_0BF@EEGABJJM@ui_scoreImpressives2?$AA@ 401351b4     ui_atoms.obj
 0003:000061d0       ??_C@_0BC@EPKDKNJC@ui_scoreAccuracy2?$AA@ 401351d0     ui_atoms.obj
 0003:000061e8       ??_C@_0BB@ELNPFLHH@ui_scoreCaptures?$AA@ 401351e8     ui_atoms.obj
 0003:000061fc       ??_C@_0N@IIEAHBIE@ui_scoreTime?$AA@ 401351fc     ui_atoms.obj
 0003:0000620c       ??_C@_09INMNFPPH@?$CF02i?3?$CF02i?$AA@ 4013520c     ui_atoms.obj
 0003:00006218       ??_C@_0BF@ICEBEKBD@ui_scoreShutoutBonus?$AA@ 40135218     ui_atoms.obj
 0003:00006234       ??_C@_0BD@MCPJGPPJ@ui_scoreSkillBonus?$AA@ 40135234     ui_atoms.obj
 0003:0000624c       ??_C@_0BC@MAAGAFGN@ui_scoreTimeBonus?$AA@ 4013524c     ui_atoms.obj
 0003:00006264       ??_C@_0N@LEOMLFDD@ui_scoreBase?$AA@ 40135264     ui_atoms.obj
 0003:00006274       ??_C@_0N@DFFLNFA@ui_scoreTeam?$AA@ 40135274     ui_atoms.obj
 0003:00006284       ??_C@_08HANDPKCB@?$CFi?5to?5?$CFi?$AA@ 40135284     ui_atoms.obj
 0003:00006290       ??_C@_0BA@FNDENKFJ@ui_scorePerfect?$AA@ 40135290     ui_atoms.obj
 0003:000062a4       ??_C@_0O@BGACMNMN@ui_scoreScore?$AA@ 401352a4     ui_atoms.obj
 0003:000062b4       ??_C@_0BC@FJFOJAKM@ui_scoreGauntlets?$AA@ 401352b4     ui_atoms.obj
 0003:000062cc       ??_C@_0BA@IDHNCNBN@ui_scoreAssists?$AA@ 401352cc     ui_atoms.obj
 0003:000062e0       ??_C@_0BA@OHCNNIJG@ui_scoreDefends?$AA@ 401352e0     ui_atoms.obj
 0003:000062f4       ??_C@_0BD@LEJGNMPP@ui_scoreExcellents?$AA@ 401352f4     ui_atoms.obj
 0003:0000630c       ??_C@_0BE@KMODLOOM@ui_scoreImpressives?$AA@ 4013530c     ui_atoms.obj
 0003:00006324       ??_C@_0BB@LEIIJBCD@ui_scoreAccuracy?$AA@ 40135324     ui_atoms.obj
 0003:00006338       ??_C@_04KAKHEEPD@?$CFi?$CF?$CF?$AA@ 40135338     ui_atoms.obj
 0003:00006340       ??_C@_0BC@CFMHHAMH@demos?1?$CFs_?$CFd?4dm_?$CFd?$AA@ 40135340     ui_atoms.obj
 0003:00006358       ??_C@_08FCFPNNHF@protocol?$AA@ 40135358     ui_atoms.obj
 0003:00006364       ??_C@_0BB@MNGNFDI@games?1?$CFs_?$CFi?4game?$AA@ 40135364     ui_atoms.obj
 0003:00006378       ??_C@_08PDFKJPJM@games?1?$CFs?$AA@ 40135378     ui_atoms.obj
 0003:00006384       ??_C@_05HMNMDDGD@games?$AA@ 40135384     ui_atoms.obj
 0003:0000638c       ??_C@_04MJNAPEEI@game?$AA@ 4013538c     ui_atoms.obj
 0003:00006394       ??_C@_08HOPFIAK@ui_cdkey?$AA@ 40135394     ui_atoms.obj
 0003:000063a0       ??_C@_0O@DJEGGJPO@ui_teamOrders?$AA@ 401353a0     ui_atoms.obj
 0003:000063b0       ??_C@_08OEBEDBJL@ui_cache?$AA@ 401353b0     ui_atoms.obj
 0003:000063bc       ??_C@_08FNKAODFI@postgame?$AA@ 401353bc     ui_atoms.obj
 0003:000063c8       ??_C@_0M@OCOELHNF@ui_openmenu?$AA@ 401353c8     ui_atoms.obj
 0003:000063d8       __real@401c000000000000    401353d8     ui_atoms.obj
 0003:000063e4       ??_C@_0L@GFINLBEC@g_gametype?$AA@ 401353e4     ui_atoms.obj
 0003:000063f4       ??_C@_0BB@FEAJPNFL@ui_opensiegemenu?$AA@ 401353f4     ui_atoms.obj
 0003:00006408       ??_C@_07OKJIHONL@ui_load?$AA@ 40135408     ui_atoms.obj
 0003:00006414       ??_C@_09NFKMFHHN@ui_report?$AA@ 40135414     ui_atoms.obj
 0003:00006420       ??_C@_07IANFCHLD@ui_test?$AA@ 40135420     ui_atoms.obj
 0003:0000642c       ??_C@_09LDNKBKJF@model?5?$CFs?6?$AA@ 4013542c     ui_atoms.obj
 0003:00006438       ??_C@_0P@IEOFAMLI@g_friendlyFire?$AA@ 40135438     ui_atoms.obj
 0003:0000644c       ??_C@_0BA@PHMBDCHA@ui_friendlyFire?$AA@ 4013544c     ui_atoms.obj
 0003:00006460       ??_C@_07CAKOHKGL@sv_pure?$AA@ 40135460     ui_atoms.obj
 0003:0000646c       ??_C@_07HHFHJPML@ui_pure?$AA@ 4013546c     ui_atoms.obj
 0003:00006478       ??_C@_08LPHDKCKM@g_Warmup?$AA@ 40135478     ui_atoms.obj
 0003:00006484       ??_C@_09GCFCELDK@ui_Warmup?$AA@ 40135484     ui_atoms.obj
 0003:00006490       ??_C@_0L@LPENDGCI@g_doWarmup?$AA@ 40135490     ui_atoms.obj
 0003:000064a0       ??_C@_0M@EBIAJMEJ@ui_doWarmup?$AA@ 401354a0     ui_atoms.obj
 0003:000064b0       ??_C@_0N@FOINMAON@cg_drawTimer?$AA@ 401354b0     ui_atoms.obj
 0003:000064c0       ??_C@_0N@KDFOGKPE@ui_drawTimer?$AA@ 401354c0     ui_atoms.obj
 0003:000064d0       ??_C@_0P@CFJBJECC@duel_fraglimit?$AA@ 401354d0     ui_atoms.obj
 0003:000064e4       ??_C@_0BB@OHGHBGMG@ui_saveDuelLimit?$AA@ 401354e4     ui_atoms.obj
 0003:000064f8       ??_C@_09GCIEGDDN@fraglimit?$AA@ 401354f8     ui_atoms.obj
 0003:00006504       ??_C@_0BB@BLOPBDC@ui_saveFragLimit?$AA@ 40135504     ui_atoms.obj
 0003:00006518       ??_C@_0N@FCAHJCDA@capturelimit?$AA@ 40135518     ui_atoms.obj
 0003:00006528       ??_C@_0BE@FJHNGDNB@ui_saveCaptureLimit?$AA@ 40135528     ui_atoms.obj
 0003:00006540       ??_C@_09OGEBNCBM@g_spSkill?$AA@ 40135540     ui_atoms.obj
 0003:00006550       __real@408f400000000000    40135550     ui_atoms.obj
 0003:0000655c       ??_C@_0BC@FKLDKIMG@ui_matchStartTime?$AA@ 4013555c     ui_atoms.obj
 0003:00006574       ??_C@_07KMNEBLH@mapname?$AA@ 40135574     ui_atoms.obj
 0003:00006580       ??_C@_0BG@LGBCBLLK@menu?1art?1saber_purple?$AA@ 40135580     ui_force.obj
 0003:0000659c       ??_C@_0BE@MGJKKEPD@menu?1art?1saber_blue?$AA@ 4013559c     ui_force.obj
 0003:000065b4       ??_C@_0BF@IJAOE@menu?1art?1saber_green?$AA@ 401355b4     ui_force.obj
 0003:000065d0       ??_C@_0BG@JPPBFDLM@menu?1art?1saber_yellow?$AA@ 401355d0     ui_force.obj
 0003:000065ec       ??_C@_0BG@KBFCOFDK@menu?1art?1saber_orange?$AA@ 401355ec     ui_force.obj
 0003:00006608       ??_C@_0BD@KHLEJLON@menu?1art?1saber_red?$AA@ 40135608     ui_force.obj
 0003:00006620       ??_C@_0L@BHNOMLBP@forcestar8?$AA@ 40135620     ui_force.obj
 0003:00006630       ??_C@_0N@HOHACNJP@forcecircle8?$AA@ 40135630     ui_force.obj
 0003:00006640       ??_C@_0L@JAEGNHNA@forcestar7?$AA@ 40135640     ui_force.obj
 0003:00006650       ??_C@_0N@PJOIDBFA@forcecircle7?$AA@ 40135650     ui_force.obj
 0003:00006660       ??_C@_0L@IJFNOGJB@forcestar6?$AA@ 40135660     ui_force.obj
 0003:00006670       ??_C@_0N@OAPDAABB@forcecircle6?$AA@ 40135670     ui_force.obj
 0003:00006680       ??_C@_0L@KCHALFFC@forcestar5?$AA@ 40135680     ui_force.obj
 0003:00006690       ??_C@_0N@MLNOFDNC@forcecircle5?$AA@ 40135690     ui_force.obj
 0003:000066a0       ??_C@_0L@LLGLIEBD@forcestar4?$AA@ 401356a0     ui_force.obj
 0003:000066b0       ??_C@_0N@NCMFGCJD@forcecircle4?$AA@ 401356b0     ui_force.obj
 0003:000066c0       ??_C@_0L@PECKBCNE@forcestar3?$AA@ 401356c0     ui_force.obj
 0003:000066d0       ??_C@_0N@JNIEPEFE@forcecircle3?$AA@ 401356d0     ui_force.obj
 0003:000066e0       ??_C@_0L@ONDBCDJF@forcestar2?$AA@ 401356e0     ui_force.obj
 0003:000066f0       ??_C@_0N@IEJPMFBF@forcecircle2?$AA@ 401356f0     ui_force.obj
 0003:00006700       ??_C@_0L@MGBMHAFG@forcestar1?$AA@ 40135700     ui_force.obj
 0003:00006710       ??_C@_0N@KPLCJGNG@forcecircle1?$AA@ 40135710     ui_force.obj
 0003:00006720       ??_C@_0L@NPAHEBBH@forcestar0?$AA@ 40135720     ui_force.obj
 0003:00006730       __real@4018000000000000    40135730     ui_force.obj
 0003:0000673c       __real@3e4ccccd            4013573c     ui_force.obj
 0003:00006740       ??_C@_0O@KOFFGFKE@forcechanged?6?$AA@ 40135740     ui_force.obj
 0003:00006750       ??_C@_0BD@EDIIFELG@forcechanged?5?$CC?$CFs?$CC?6?$AA@ 40135750     ui_force.obj
 0003:00006768       ??_C@_0CL@NBJPICGM@?$CFi?9?$CFi?9?$CFi?$CFi?$CFi?$CFi?$CFi?$CFi?$CFi?$CFi?$CFi?$CFi?$CFi?$CFi?$CFi@ 40135768     ui_force.obj
 0003:0000679c       ??_C@_0BJ@DHONGHAN@Template?5saved?5as?5?$CC?$CFs?$CC?4?6?$AA@ 4013579c     ui_force.obj
 0003:000067bc       ??_C@_06BJHMHGNB@?$CFi?9?$CFi?9?$AA@ 401357bc     ui_force.obj
 0003:000067c4       ??_C@_0DM@BFNMJPFC@There?5was?5an?5error?5writing?5the?5t@ 401357c4     ui_force.obj
 0003:0000680c       ??_C@_0BF@EMDAAAIC@forcecfg?1dark?1?$CFs?4fcf?$AA@ 4013580c     ui_force.obj
 0003:00006828       ??_C@_0BG@JAIAENKC@forcecfg?1light?1?$CFs?4fcf?$AA@ 40135828     ui_force.obj
 0003:00006844       ??_C@_0CO@EONCPKBJ@You?5did?5not?5provide?5a?5name?5for?5t@ 40135844     ui_force.obj
 0003:0000687c       ??_C@_0L@ILFFGINB@ui_SaveFCF?$AA@ 4013587c     ui_force.obj
 0003:0000688c       ??_C@_0BC@CMIFKGJ@setfp_saberdefend?$AA@ 4013588c     ui_force.obj
 0003:000068a4       ??_C@_07MJJMKCLG@nosaber?$AA@ 401358a4     ui_force.obj
 0003:000068b0       ??_C@_0M@GNPPPOC@effectfield?$AA@ 401358b0     ui_force.obj
 0003:000068c0       ??_C@_0M@DDBKIDMA@effectentry?$AA@ 401358c0     ui_force.obj
 0003:000068d0       ??_C@_0BB@FNLMOMKO@setfp_saberthrow?$AA@ 401358d0     ui_force.obj
 0003:000068e4       ??_C@_0BE@NFEIFFCB@setFP_SABER_DEFENSE?$AA@ 401358e4     ui_force.obj
 0003:000068fc       ??_C@_0BD@JLILJGFF@ingame_playerforce?$AA@ 401358fc     ui_force.obj
 0003:00006914       ??_C@_09CPHDILCP@ui_myteam?$AA@ 40135914     ui_force.obj
 0003:00006920       ??_C@_0BC@PJKMCDAC@g_forceBasedTeams?$AA@ 40135920     ui_force.obj
 0003:00006938       __real@41400000            40135938     ui_force.obj
 0003:0000693c       ??_C@_0P@CHCANPBO@g_maxForceRank?$AA@ 4013593c     ui_force.obj
 0003:00006950       ??_C@_0M@BMHCFBAN@personality?$AA@ 40135950     ui_gameinfo.obj
 0003:00006960       ??_C@_0BA@MOHNLIKA@com_buildScript?$AA@ 40135960     ui_gameinfo.obj
 0003:00006974       ??_C@_02DPKJAMEF@?$CFd?$AA@ 40135974     ui_gameinfo.obj
 0003:00006978       ??_C@_05BJJDEFHJ@?2num?2?$AA@ 40135978     ui_gameinfo.obj
 0003:00006980       ??_C@_06CBHGEMFM@?$DMNULL?$DO?$AA@ 40135980     ui_gameinfo.obj
 0003:00006988       ??_C@_0BN@HAJDHEGK@Unexpected?5end?5of?5info?5file?6?$AA@ 40135988     ui_gameinfo.obj
 0003:000069ac       ??_C@_0BE@IKMJLADL@Max?5infos?5exceeded?6?$AA@ 401359ac     ui_gameinfo.obj
 0003:000069c4       ??_C@_0BI@BMEIBPEH@Missing?5?$HL?5in?5info?5file?6?$AA@ 401359c4     ui_gameinfo.obj
 0003:000069e0       ??_C@_03FKCNHKDN@cty?$AA@  401359e0     ui_gameinfo.obj
 0003:000069e4       ??_C@_03JHHHHEKD@ctf?$AA@  401359e4     ui_gameinfo.obj
 0003:000069e8       ??_C@_05OEDHBHJ@siege?$AA@ 401359e8     ui_gameinfo.obj
 0003:000069f0       ??_C@_09OHBAKHCG@powerduel?$AA@ 401359f0     ui_gameinfo.obj
 0003:000069fc       ??_C@_04IONKKEKB@duel?$AA@ 401359fc     ui_gameinfo.obj
 0003:00006a04       ??_C@_0L@PPBFGKBC@jedimaster?$AA@ 40135a04     ui_gameinfo.obj
 0003:00006a14       ??_C@_08OFGDEOFK@holocron?$AA@ 40135a14     ui_gameinfo.obj
 0003:00006a20       ??_C@_03PAEKGFEI@ffa?$AA@  40135a20     ui_gameinfo.obj
 0003:00006a24       ??_C@_0O@OBEFLHGN@levelshots?1?$CFs?$AA@ 40135a24     ui_gameinfo.obj
 0003:00006a34       ??_C@_08JJAPLNHH@longname?$AA@ 40135a34     ui_gameinfo.obj
 0003:00006a40       ??_C@_03HBNNNHNM@map?$AA@  40135a40     ui_gameinfo.obj
 0003:00006a44       ??_C@_0DJ@KGDBIAGM@?$FO3WARNING?3?5not?5anough?5memory?5in?5@ 40135a44     ui_gameinfo.obj
 0003:00006a88       ??_C@_08IDJEBFOJ@scripts?1?$AA@ 40135a88     ui_gameinfo.obj
 0003:00006a94       ??_C@_07OMEBBDEO@scripts?$AA@ 40135a94     ui_gameinfo.obj
 0003:00006aa0       ??_C@_06IPPMLGON@?4arena?$AA@ 40135aa0     ui_gameinfo.obj
 0003:00006aa8       ??_C@_0CO@OKDDPLPD@?$FO1file?5too?5large?3?5?$CFs?5is?5?$CFi?0?5max?5@ 40135aa8     ui_gameinfo.obj
 0003:00006ae0       ??_C@_0BG@BJEIGKLP@?$FO1file?5not?5found?3?5?$CFs?6?$AA@ 40135ae0     ui_gameinfo.obj
 0003:00006afc       ??_C@_04NONLJGOA@?4bot?$AA@ 40135afc     ui_gameinfo.obj
 0003:00006b04       ??_C@_0BC@BOHIEOJI@botfiles?1bots?4txt?$AA@ 40135b04     ui_gameinfo.obj
 0003:00006b1c       ??_C@_0L@IDJNDIMJ@g_botsFile?$AA@ 40135b1c     ui_gameinfo.obj
 0003:00006b2c       ??_C@_09IAMOOHNI@?$EASTOPHERE?$AA@ 40135b2c     ui_gameinfo.obj
 0003:00006b38       ??_C@_0BK@DFMGEDHJ@?$FO1Invalid?5bot?5number?3?5?$CFi?6?$AA@ 40135b38     ui_gameinfo.obj
 0003:00006b58       ??_C@_04FJIOCDAK@Kyle?$AA@ 40135b58     ui_gameinfo.obj
 0003:00006b60       ??_C@_0BG@PHKLMOCP@ui_bypassMainMenuLoad?$AA@ 40135b60     ui_main.obj
 0003:00006b7c       ??_C@_07CNNBJDHA@english?$AA@ 40135b7c     ui_main.obj
 0003:00006b88       ??_C@_0M@DBLGOKHK@se_language?$AA@ 40135b88     ui_main.obj
 0003:00006b98       ??_C@_04CBNKEHLG@7000?$AA@ 40135b98     ui_main.obj
 0003:00006ba0       ??_C@_0BH@CNJFJKJI@ui_serverStatusTimeOut?$AA@ 40135ba0     ui_main.obj
 0003:00006bbc       ??_C@_08HAMOJLDA@g_warmup?$AA@ 40135bbc     ui_main.obj
 0003:00006bc8       ??_C@_0BA@OHINOCDN@ui_recordSPDemo?$AA@ 40135bc8     ui_main.obj
 0003:00006bdc       ??_C@_0O@GPABEMKP@ui_findPlayer?$AA@ 40135bdc     ui_main.obj
 0003:00006bec       ??_C@_0BA@FGIINJDJ@ui_captureLimit?$AA@ 40135bec     ui_main.obj
 0003:00006c00       ??_C@_0N@HALAPIBD@ui_fragLimit?$AA@ 40135c00     ui_main.obj
 0003:00006c10       ??_C@_05IPNNCKNB@00?300?$AA@ 40135c10     ui_main.obj
 0003:00006c18       ??_C@_06EFEAFBKM@0?5to?50?$AA@ 40135c18     ui_main.obj
 0003:00006c20       ??_C@_0BG@JDIGCOKJ@ui_singlePlayerActive?$AA@ 40135c20     ui_main.obj
 0003:00006c3c       ??_C@_0BH@KBDKNJIJ@ui_lastServerRefresh_3?$AA@ 40135c3c     ui_main.obj
 0003:00006c58       ??_C@_0BH@LICBOIMI@ui_lastServerRefresh_2?$AA@ 40135c58     ui_main.obj
 0003:00006c74       ??_C@_0BH@JDAMLLAL@ui_lastServerRefresh_1?$AA@ 40135c74     ui_main.obj
 0003:00006c90       ??_C@_0BH@IKBHIKEK@ui_lastServerRefresh_0?$AA@ 40135c90     ui_main.obj
 0003:00006cac       ??_C@_0BG@ICIOFDPB@cg_selectedPlayerName?$AA@ 40135cac     ui_main.obj
 0003:00006cc8       ??_C@_0BC@HCNILCAE@cg_selectedPlayer?$AA@ 40135cc8     ui_main.obj
 0003:00006ce0       ??_C@_0BD@NCLFMBGL@ui_currentOpponent?$AA@ 40135ce0     ui_main.obj
 0003:00006cf8       ??_C@_0M@BFKLKEBI@ui_mapIndex?$AA@ 40135cf8     ui_main.obj
 0003:00006d08       ??_C@_0BB@GFAHJNNM@ui_currentNetMap?$AA@ 40135d08     ui_main.obj
 0003:00006d1c       ??_C@_0O@IGABJOOG@ui_currentMap?$AA@ 40135d1c     ui_main.obj
 0003:00006d2c       ??_C@_0BB@BEFKGBGO@ui?1jampmenus?4txt?$AA@ 40135d2c     ui_main.obj
 0003:00006d40       ??_C@_0P@JHKJFGCC@ui_menuFilesMP?$AA@ 40135d40     ui_main.obj
 0003:00006d54       ??_C@_0N@LBKNMFEF@ui_netSource?$AA@ 40135d54     ui_main.obj
 0003:00006d64       ??_C@_0N@EOPNJANO@ui_blueteam8?$AA@ 40135d64     ui_main.obj
 0003:00006d74       ??_C@_0N@MJGFIMBB@ui_blueteam7?$AA@ 40135d74     ui_main.obj
 0003:00006d84       ??_C@_0N@NAHOLNFA@ui_blueteam6?$AA@ 40135d84     ui_main.obj
 0003:00006d94       ??_C@_0N@PLFDOOJD@ui_blueteam5?$AA@ 40135d94     ui_main.obj
 0003:00006da4       ??_C@_0N@OCEINPNC@ui_blueteam4?$AA@ 40135da4     ui_main.obj
 0003:00006db4       ??_C@_0N@KNAJEJBF@ui_blueteam3?$AA@ 40135db4     ui_main.obj
 0003:00006dc4       ??_C@_0N@LEBCHIFE@ui_blueteam2?$AA@ 40135dc4     ui_main.obj
 0003:00006dd4       ??_C@_0N@JPDPCLJH@ui_blueteam1?$AA@ 40135dd4     ui_main.obj
 0003:00006de4       ??_C@_0M@HHIJFEHC@ui_redteam8?$AA@ 40135de4     ui_main.obj
 0003:00006df4       ??_C@_0M@PABBEILN@ui_redteam7?$AA@ 40135df4     ui_main.obj
 0003:00006e04       ??_C@_0M@OJAKHJPM@ui_redteam6?$AA@ 40135e04     ui_main.obj
 0003:00006e14       ??_C@_0M@MCCHCKDP@ui_redteam5?$AA@ 40135e14     ui_main.obj
 0003:00006e24       ??_C@_0M@NLDMBLHO@ui_redteam4?$AA@ 40135e24     ui_main.obj
 0003:00006e34       ??_C@_0M@JEHNINLJ@ui_redteam3?$AA@ 40135e34     ui_main.obj
 0003:00006e44       ??_C@_0M@INGGLMPI@ui_redteam2?$AA@ 40135e44     ui_main.obj
 0003:00006e54       ??_C@_0M@KGELOPDL@ui_redteam1?$AA@ 40135e54     ui_main.obj
 0003:00006e64       ??_C@_01EKENIIDA@3?$AA@    40135e64     ui_main.obj
 0003:00006e68       ??_C@_0BF@HAOCHBD@ui_actualNetGametype?$AA@ 40135e68     ui_main.obj
 0003:00006e84       ??_C@_0P@EMDAIJBA@ui_netGametype?$AA@ 40135e84     ui_main.obj
 0003:00006e98       ??_C@_0BA@DLIBAHLB@ui_joinGametype?$AA@ 40135e98     ui_main.obj
 0003:00006eac       ??_C@_0M@JLEABLCD@ui_gametype?$AA@ 40135eac     ui_main.obj
 0003:00006ebc       ??_C@_0N@MHIHNKN@ui_dedicated?$AA@ 40135ebc     ui_main.obj
 0003:00006ecc       ??_C@_0M@NBBBDCHM@ui_blueteam?$AA@ 40135ecc     ui_main.obj
 0003:00006edc       ??_C@_06DAMJBNEB@Empire?$AA@ 40135edc     ui_main.obj
 0003:00006ee4       ??_C@_0L@KGGGFMJP@ui_redteam?$AA@ 40135ee4     ui_main.obj
 0003:00006ef4       ??_C@_0BF@LBOIACLJ@ui_forcePowerDisable?$AA@ 40135ef4     ui_main.obj
 0003:00006f10       ??_C@_0N@KGLGFCPL@ui_freeSaber?$AA@ 40135f10     ui_main.obj
 0003:00006f20       ??_C@_0O@LNLHFCCF@ui_rankChange?$AA@ 40135f20     ui_main.obj
 0003:00006f30       ??_C@_09CBAPOGED@Rebellion?$AA@ 40135f30     ui_main.obj
 0003:00006f3c       ??_C@_0BA@FLODEJIK@ui_opponentName?$AA@ 40135f3c     ui_main.obj
 0003:00006f50       ??_C@_0P@GEBMJNJK@ui_initialized?$AA@ 40135f50     ui_main.obj
 0003:00006f64       ??_C@_08JCOFJCCH@ui_debug?$AA@ 40135f64     ui_main.obj
 0003:00006f70       ??_C@_08OCDFECFG@cg_marks?$AA@ 40135f70     ui_main.obj
 0003:00006f7c       ??_C@_0BG@PFLNOEEN@cg_drawCrosshairNames?$AA@ 40135f7c     ui_main.obj
 0003:00006f98       ??_C@_0BB@KBADOJHA@cg_drawCrosshair?$AA@ 40135f98     ui_main.obj
 0003:00006fac       ??_C@_0BE@NJOHIGEF@ui_browserShowEmpty?$AA@ 40135fac     ui_main.obj
 0003:00006fc4       ??_C@_0BD@FNCPJHJM@ui_browserShowFull?$AA@ 40135fc4     ui_main.obj
 0003:00006fdc       ??_C@_01FAMBOPH@4?$AA@     40135fdc     ui_main.obj
 0003:00006fe0       ??_C@_0BC@OHDOHLCL@ui_browserSortKey?$AA@ 40135fe0     ui_main.obj
 0003:00006ff8       ??_C@_0BD@POMFLHHE@ui_browserGameType?$AA@ 40135ff8     ui_main.obj
 0003:00007010       ??_C@_0BB@KIFEKFLJ@ui_browserMaster?$AA@ 40136010     ui_main.obj
 0003:00007024       ??_C@_01FDFGLJHB@2?$AA@    40136024     ui_main.obj
 0003:00007028       ??_C@_0BA@DNMONKHI@ui_ctf_friendly?$AA@ 40136028     ui_main.obj
 0003:0000703c       ??_C@_0BB@INPGKJAK@ui_ctf_timelimit?$AA@ 4013603c     ui_main.obj
 0003:00007050       ??_C@_01KJLJFBPL@8?$AA@    40136050     ui_main.obj
 0003:00007054       ??_C@_0BE@FLADFGIH@ui_ctf_capturelimit?$AA@ 40136054     ui_main.obj
 0003:0000706c       ??_C@_01HIHLOKLC@1?$AA@    4013606c     ui_main.obj
 0003:00007070       ??_C@_0BB@LCPLFLFK@ui_team_friendly?$AA@ 40136070     ui_main.obj
 0003:00007084       ??_C@_0BC@FIBJNNGP@ui_team_timelimit?$AA@ 40136084     ui_main.obj
 0003:0000709c       ??_C@_0BC@JFOHFEHA@ui_team_fraglimit?$AA@ 4013609c     ui_main.obj
 0003:000070b4       ??_C@_0BC@FMPOBOM@ui_PrecacheModels?$AA@ 401360b4     ui_main.obj
 0003:000070cc       ??_C@_0BD@OMJOJKIN@ui_char_color_blue?$AA@ 401360cc     ui_main.obj
 0003:000070e4       ??_C@_0BE@LHJPMIOB@ui_char_color_green?$AA@ 401360e4     ui_main.obj
 0003:000070fc       ??_C@_03EAIPFAE@255?$AA@   401360fc     ui_main.obj
 0003:00007100       ??_C@_0BC@MMKBHBBG@ui_char_color_red?$AA@ 40136100     ui_main.obj
 0003:00007118       ??_C@_0BA@OEHEDBF@ui_saber2_color?$AA@ 40136118     ui_main.obj
 0003:0000712c       ??_C@_06ENJNJKEL@yellow?$AA@ 4013612c     ui_main.obj
 0003:00007134       ??_C@_0P@JBHGENEB@ui_saber_color?$AA@ 40136134     ui_main.obj
 0003:00007148       ??_C@_04CGFJFPFD@none?$AA@ 40136148     ui_main.obj
 0003:00007150       ??_C@_09DLPENCNK@ui_saber2?$AA@ 40136150     ui_main.obj
 0003:0000715c       ??_C@_08CAIDFEMJ@single_1?$AA@ 4013615c     ui_main.obj
 0003:00007168       ??_C@_08FCCFEDKA@ui_saber?$AA@ 40136168     ui_main.obj
 0003:00007174       ??_C@_06EJFMBPJF@single?$AA@ 40136174     ui_main.obj
 0003:0000717c       ??_C@_0O@OEELDHBB@ui_saber_type?$AA@ 4013617c     ui_main.obj
 0003:0000718c       ??_C@_0N@KGBGHFND@ui_char_anim?$AA@ 4013618c     ui_main.obj
 0003:0000719c       ??_C@_08EEKIFBEE@lower_a1?$AA@ 4013619c     ui_main.obj
 0003:000071a8       ??_C@_0BC@MOAOEPEC@ui_char_skin_legs?$AA@ 401361a8     ui_main.obj
 0003:000071c0       ??_C@_08EMHHCMDP@torso_a1?$AA@ 401361c0     ui_main.obj
 0003:000071cc       ??_C@_0BD@LIILGGGB@ui_char_skin_torso?$AA@ 401361cc     ui_main.obj
 0003:000071e4       ??_C@_07PDGBEMPJ@head_a1?$AA@ 401361e4     ui_main.obj
 0003:000071f0       ??_C@_0BC@DKIABBKG@ui_char_skin_head?$AA@ 401361f0     ui_main.obj
 0003:00007208       ??_C@_07PGAOLEIO@jedi_tf?$AA@ 40136208     ui_main.obj
 0003:00007214       ??_C@_0O@GAOPNBBO@ui_char_model?$AA@ 40136214     ui_main.obj
 0003:00007224       ??_C@_02KMALDIDP@16?$AA@   40136224     ui_main.obj
 0003:00007228       ??_C@_0BG@JJNEEMEL@ui_selectedModelIndex?$AA@ 40136228     ui_main.obj
 0003:00007244       ??_C@_0BB@KJJGDNHJ@ui_ffa_timelimit?$AA@ 40136244     ui_main.obj
 0003:00007258       ??_C@_0BB@GEGILEGG@ui_ffa_fraglimit?$AA@ 40136258     ui_main.obj
 0003:0000726c       ??_C@_09KPHKOKCC@timelimit?$AA@ 4013626c     ui_main.obj
 0003:00007278       ??_C@_07CPCPJPKL@version?$AA@ 40136278     ui_main.obj
 0003:00007284       ??_C@_03NBOPHIOC@Map?$AA@  40136284     ui_main.obj
 0003:00007288       ??_C@_09OINJJDAC@Game?5type?$AA@ 40136288     ui_main.obj
 0003:00007294       ??_C@_09EDNKFDHC@Game?5name?$AA@ 40136294     ui_main.obj
 0003:000072a0       ??_C@_08HCPAIKAO@gamename?$AA@ 401362a0     ui_main.obj
 0003:000072ac       ??_C@_07EODJIPPN@Address?$AA@ 401362ac     ui_main.obj
 0003:000072b8       ??_C@_04FABLJDN@Name?$AA@  401362b8     ui_main.obj
 0003:000072c0       ??_C@_0M@NHCIKFPA@sv_hostname?$AA@ 401362c0     ui_main.obj
 0003:000072d0       ??_C@_01BMBHCPLG@5?$AA@    401362d0     ui_main.obj
 0003:000072d4       ??_C@_02PKFBJPLJ@10?$AA@   401362d4     ui_main.obj
 0003:000072d8       ??_C@_02IHCGGLPM@15?$AA@   401362d8     ui_main.obj
 0003:000072dc       ??_C@_02PIBHCBOA@20?$AA@   401362dc     ui_main.obj
 0003:000072e0       ??_C@_02IFGANFKF@25?$AA@   401362e0     ui_main.obj
 0003:000072e4       ??_C@_02PJNFELNH@30?$AA@   401362e4     ui_main.obj
 0003:000072e8       ??_C@_02IEKCLPJC@35?$AA@   401362e8     ui_main.obj
 0003:000072ec       ??_C@_02PMJKFNFC@40?$AA@   401362ec     ui_main.obj
 0003:000072f0       ??_C@_02IBONKJBH@45?$AA@   401362f0     ui_main.obj
 0003:000072f4       ??_C@_02PNFIDHGF@50?$AA@   401362f4     ui_main.obj
 0003:000072f8       ??_C@_02IACPMDCA@55?$AA@   401362f8     ui_main.obj
 0003:000072fc       ??_C@_02PPBOIJDM@60?$AA@   401362fc     ui_main.obj
 0003:00007300       ??_C@_02ICGJHNHJ@65?$AA@   40136300     ui_main.obj
 0003:00007304       ??_C@_02PONMODAL@70?$AA@   40136304     ui_main.obj
 0003:00007308       ??_C@_02IDKLBHEO@75?$AA@   40136308     ui_main.obj
 0003:0000730c       ??_C@_02PFIAKEDG@80?$AA@   4013630c     ui_main.obj
 0003:00007310       ??_C@_02IIPHFAHD@85?$AA@   40136310     ui_main.obj
 0003:00007314       ??_C@_02PEECMOAB@90?$AA@   40136314     ui_main.obj
 0003:00007318       ??_C@_02IJDFDKEE@95?$AA@   40136318     ui_main.obj
 0003:0000731c       ??_C@_04OHJIHAFH@None?$AA@ 4013631c     ui_main.obj
 0003:00007324       ??_C@_03CGHJMOLI@IPX?$AA@  40136324     ui_main.obj
 0003:00007328       ??_C@_03OPEAKHDL@UDP?$AA@  40136328     ui_main.obj
 0003:0000732c       ??_C@_03BBKEAIF@?$DP?$DP?$DP?$AA@ 4013632c     ui_main.obj
 0003:00007330       ??_C@_0P@IBIEBGEO@TeamTournament?$AA@ 40136330     ui_main.obj
 0003:00007344       ??_C@_03FHNGLHEB@CTY?$AA@  40136344     ui_main.obj
 0003:00007348       ??_C@_03JKIMLJNP@CTF?$AA@  40136348     ui_main.obj
 0003:0000734c       ??_C@_05JOPHEEP@Siege?$AA@ 4013634c     ui_main.obj
 0003:00007354       ??_C@_08NFCDKJPC@Team?5FFA?$AA@ 40136354     ui_main.obj
 0003:00007360       ??_C@_02NEPPOLFA@SP?$AA@   40136360     ui_main.obj
 0003:00007364       ??_C@_09GJIMILPC@PowerDuel?$AA@ 40136364     ui_main.obj
 0003:00007370       ??_C@_04EPBLILKF@Duel?$AA@ 40136370     ui_main.obj
 0003:00007378       ??_C@_0L@LGDENMFJ@JediMaster?$AA@ 40136378     ui_main.obj
 0003:00007388       ??_C@_08GHJCMMPJ@Holocron?$AA@ 40136388     ui_main.obj
 0003:00007394       ??_C@_03PNLBKIDE@FFA?$AA@  40136394     ui_main.obj
 0003:00007398       ??_C@_06EKKBECKL@SKILL5?$AA@ 40136398     ui_main.obj
 0003:000073a0       ??_C@_06FDLKHDOK@SKILL4?$AA@ 401363a0     ui_main.obj
 0003:000073a8       ??_C@_06BMPLOFCN@SKILL3?$AA@ 401363a8     ui_main.obj
 0003:000073b0       ??_C@_06FOANEGM@SKILL2?$AA@ 401363b0     ui_main.obj
 0003:000073b8       ??_C@_06COMNIHKP@SKILL1?$AA@ 401363b8     ui_main.obj
 0003:000073c0       ??_C@_0BD@IBCPAHKL@MENUS_JEDI_ACADEMY?$AA@ 401363c0     ui_main.obj
 0003:000073d8       ??_C@_09JIHDCCKI@MENUS_ALL?$AA@ 401363d8     ui_main.obj
 0003:000073e4       ??_C@_0BN@PFEDOOIN@?$EAMENUS_BUTTERFLY_ATTACK_DESC?$AA@ 401363e4     ui_main.obj
 0003:00007408       ??_C@_0BI@EAPBGPJK@?$EAMENUS_BUTTERFLY_ATTACK?$AA@ 40136408     ui_main.obj
 0003:00007424       ??_C@_0BG@LGDPINKM@?$EAMENUS_JUMP_KICK_DESC?$AA@ 40136424     ui_main.obj
 0003:00007440       ??_C@_0BB@POJMFBKP@?$EAMENUS_JUMP_KICK?$AA@ 40136440     ui_main.obj
 0003:00007454       ??_C@_0BC@EMMGIDH@?$EAMENUS_KICK1_DESC?$AA@ 40136454     ui_main.obj
 0003:0000746c       ??_C@_0N@PBBICHOD@?$EAMENUS_KICK1?$AA@ 4013646c     ui_main.obj
 0003:0000747c       ??_C@_0BK@JAPGPAID@?$EAMENUS_SPINNING_KATA_DESC?$AA@ 4013647c     ui_main.obj
 0003:0000749c       ??_C@_0BF@NLMBPCKL@?$EAMENUS_SPINNING_KATA?$AA@ 4013649c     ui_main.obj
 0003:000074b8       ??_C@_0BO@DLAMKMKE@?$EAMENUS_SABER_STAFF_TWIRL_DESC?$AA@ 401364b8     ui_main.obj
 0003:000074dc       ??_C@_0BJ@MKDOPHHG@?$EAMENUS_SABER_STAFF_TWIRL?$AA@ 401364dc     ui_main.obj
 0003:000074fc       ??_C@_0BN@MMBMIEGK@?$EAMENUS_BACK_FLIP_ATTACK_DESC?$AA@ 401364fc     ui_main.obj
 0003:00007520       ??_C@_0BI@LEMBDGKI@?$EAMENUS_BACK_FLIP_ATTACK?$AA@ 40136520     ui_main.obj
 0003:0000753c       ??_C@_0BL@NFPELNNO@?$EAMENUS_BOTH_ROLL_STAB_DESC?$AA@ 4013653c     ui_main.obj
 0003:0000755c       ??_C@_0CB@OHOKBOIB@?$EAMENUS_DUAL_STAB_LEFT_RIGHT_DESC@ 4013655c     ui_main.obj
 0003:00007584       ??_C@_0BM@EJIDIEIO@?$EAMENUS_DUAL_STAB_LEFT_RIGHT?$AA@ 40136584     ui_main.obj
 0003:000075a8       ??_C@_0CB@BBDEJAEB@?$EAMENUS_DUAL_STAB_FRONT_BACK_DESC@ 401365a8     ui_main.obj
 0003:000075d0       ??_C@_0BM@CKLBFLF@?$EAMENUS_DUAL_STAB_FRONT_BACK?$AA@ 401365d0     ui_main.obj
 0003:000075f4       ??_C@_0BP@HNDJBJIM@?$EAMENUS_DUAL_SABER_BARRIER_DESC?$AA@ 401365f4     ui_main.obj
 0003:0000761c       ??_C@_0BK@KBKBOOBJ@?$EAMENUS_DUAL_SABER_BARRIER?$AA@ 4013661c     ui_main.obj
 0003:0000763c       ??_C@_0BO@DLHAHADI@?$EAMENUS_DUAL_SABERS_TWIRL_DESC?$AA@ 4013663c     ui_main.obj
 0003:00007660       ??_C@_0BJ@HJOMIECG@?$EAMENUS_DUAL_SABERS_TWIRL?$AA@ 40136660     ui_main.obj
 0003:00007680       ??_C@_0CA@PKLJCAFA@?$EAMENUS_FLIP_FORWARD_ATTACK_DESC?$AA@ 40136680     ui_main.obj
 0003:000076a8       ??_C@_0BL@FPJCKKOC@?$EAMENUS_FLIP_FORWARD_ATTACK?$AA@ 401366a8     ui_main.obj
 0003:000076c8       ??_C@_0BP@OFNKLMEA@?$EAMENUS_STRONG_ATTACK_KATA_DESC?$AA@ 401366c8     ui_main.obj
 0003:000076f0       ??_C@_0BK@MHBLPKJA@?$EAMENUS_STRONG_ATTACK_KATA?$AA@ 401366f0     ui_main.obj
 0003:00007710       ??_C@_0BI@HDKGCGPE@?$EAMENUS_JUMP_ATTACK_DESC?$AA@ 40136710     ui_main.obj
 0003:0000772c       ??_C@_0BD@PCOHHPHC@?$EAMENUS_JUMP_ATTACK?$AA@ 4013672c     ui_main.obj
 0003:00007744       ??_C@_0BP@OABKPPCF@?$EAMENUS_MEDIUM_ATTACK_KATA_DESC?$AA@ 40136744     ui_main.obj
 0003:0000776c       ??_C@_0BK@CKIAJJEO@?$EAMENUS_MEDIUM_ATTACK_KATA?$AA@ 4013676c     ui_main.obj
 0003:0000778c       ??_C@_0BI@FHJOBLIG@?$EAMENUS_FLIP_ATTACK_DESC?$AA@ 4013678c     ui_main.obj
 0003:000077a8       ??_C@_0BD@CLLNGIMH@?$EAMENUS_FLIP_ATTACK?$AA@ 401367a8     ui_main.obj
 0003:000077c0       ??_C@_0BH@FHBJDKPD@?$EAMENUS_SLASH_BACK_DESC?$AA@ 401367c0     ui_main.obj
 0003:000077dc       ??_C@_0BC@NKFFFKJC@?$EAMENUS_SLASH_BACK?$AA@ 401367dc     ui_main.obj
 0003:000077f4       ??_C@_0BM@GNKOEKFG@?$EAMENUS_BOTH_ROLL_STAB2_DESC?$AA@ 401367f4     ui_main.obj
 0003:00007818       ??_C@_0BG@HMEPFCFB@?$EAMENUS_BOTH_ROLL_STAB?$AA@ 40136818     ui_main.obj
 0003:00007834       ??_C@_0BG@JLCKPPHP@?$EAMENUS_CARTWHEEL_DESC?$AA@ 40136834     ui_main.obj
 0003:00007850       ??_C@_0BB@IJIMDPM@?$EAMENUS_CARTWHEEL?$AA@ 40136850     ui_main.obj
 0003:00007864       ??_C@_0CB@OINHPDPA@?$EAMENUS_ATTACK_ENEMYONGROUND_DESC@ 40136864     ui_main.obj
 0003:0000788c       ??_C@_0BM@BPOHHCI@?$EAMENUS_ATTACK_ENEMYONGROUND?$AA@ 4013688c     ui_main.obj
 0003:000078b0       ??_C@_0BN@DFNBDBFF@?$EAMENUS_FAST_ATTACK_KATA_DESC?$AA@ 401368b0     ui_main.obj
 0003:000078d4       ??_C@_0BI@FOFOEABM@?$EAMENUS_FAST_ATTACK_KATA?$AA@ 401368d4     ui_main.obj
 0003:000078f0       ??_C@_0BJ@GFNPHDCP@?$EAMENUS_LUNGE_ATTACK_DESC?$AA@ 401368f0     ui_main.obj
 0003:00007910       ??_C@_0BE@DICCJLLC@?$EAMENUS_LUNGE_ATTACK?$AA@ 40136910     ui_main.obj
 0003:00007928       ??_C@_0BG@CEHEKHLA@?$EAMENUS_STAB_BACK_DESC?$AA@ 40136928     ui_main.obj
 0003:00007944       ??_C@_0BB@FNBGDNPI@?$EAMENUS_STAB_BACK?$AA@ 40136944     ui_main.obj
 0003:00007958       ??_C@_0CA@MDOPGMD@?$EAMENUS_ROLL_FROM_KNOCKDOWN_DESC?$AA@ 40136958     ui_main.obj
 0003:00007980       ??_C@_0BL@LNMGDDJH@?$EAMENUS_ROLL_FROM_KNOCKDOWN?$AA@ 40136980     ui_main.obj
 0003:000079a0       ??_C@_0CE@JEPAFPII@?$EAMENUS_JUMPKICK_FROM_KNOCKDOWN_D@ 401369a0     ui_main.obj
 0003:000079cc       ??_C@_0BP@GKDGAGAD@?$EAMENUS_JUMPKICK_FROM_KNOCKDOWN?$AA@ 401369cc     ui_main.obj
 0003:000079f4       ??_C@_0CC@CBCFOOCC@?$EAMENUS_JUMPUP_FROM_KNOCKDOWN_DES@ 401369f4     ui_main.obj
 0003:00007a1c       ??_C@_0BN@OOMLGNCB@?$EAMENUS_JUMPUP_FROM_KNOCKDOWN?$AA@ 40136a1c     ui_main.obj
 0003:00007a40       ??_C@_0CB@BMLDDGAM@?$EAMENUS_RUN_UP_WALL_BACKFLIP_DESC@ 40136a40     ui_main.obj
 0003:00007a68       ??_C@_0BM@DKPAIDF@?$EAMENUS_RUN_UP_WALL_BACKFLIP?$AA@ 40136a68     ui_main.obj
 0003:00007a8c       ??_C@_0BL@KDKBPNPD@?$EAMENUS_WALL_GRAB_JUMP_DESC?$AA@ 40136a8c     ui_main.obj
 0003:00007aac       ??_C@_0BG@NOKDPCPK@?$EAMENUS_WALL_GRAB_JUMP?$AA@ 40136aac     ui_main.obj
 0003:00007ac8       ??_C@_0BF@DMIOGGL@?$EAMENUS_WALL_RUN_DESC?$AA@ 40136ac8     ui_main.obj
 0003:00007ae4       ??_C@_0BA@FDNKCOGP@?$EAMENUS_WALL_RUN?$AA@ 40136ae4     ui_main.obj
 0003:00007af8       ??_C@_0BO@NMAPJLAB@?$EAMENUS_SIDEFLIP_OFF_WALL_DESC?$AA@ 40136af8     ui_main.obj
 0003:00007b1c       ??_C@_0BJ@IBNDFGDL@?$EAMENUS_SIDEFLIP_OFF_WALL?$AA@ 40136b1c     ui_main.obj
 0003:00007b3c       ??_C@_0BO@IPFCBMKG@?$EAMENUS_BACKFLIP_OFF_WALL_DESC?$AA@ 40136b3c     ui_main.obj
 0003:00007b60       ??_C@_0BJ@LGLIBDFM@?$EAMENUS_BACKFLIP_OFF_WALL?$AA@ 40136b60     ui_main.obj
 0003:00007b80       ??_C@_0BB@IDKGKPGJ@?$EAMENUS_ROLL_DESC?$AA@ 40136b80     ui_main.obj
 0003:00007b94       ??_C@_0M@JBJNNKDO@?$EAMENUS_ROLL?$AA@ 40136b94     ui_main.obj
 0003:00007ba4       ??_C@_0BH@OGNMJOFA@?$EAMENUS_FORCE_FLIP_DESC?$AA@ 40136ba4     ui_main.obj
 0003:00007bc0       ??_C@_0BC@MFKJJHBG@?$EAMENUS_FORCE_FLIP?$AA@ 40136bc0     ui_main.obj
 0003:00007bd8       ??_C@_0BI@NKDILPCG@?$EAMENUS_FORCE_JUMP1_DESC?$AA@ 40136bd8     ui_main.obj
 0003:00007bf4       ??_C@_0BD@KHBMLJKL@?$EAMENUS_FORCE_JUMP1?$AA@ 40136bf4     ui_main.obj
 0003:00007c0c       ??_C@_0BD@GIKBDNLJ@?$EAMENUS_SABER_STAFF?$AA@ 40136c0c     ui_main.obj
 0003:00007c24       ??_C@_0BD@BHHJEHCD@?$EAMENUS_DUAL_SABERS?$AA@ 40136c24     ui_main.obj
 0003:00007c3c       ??_C@_0BF@IGMENAPB@?$EAMENUS_SINGLE_STRONG?$AA@ 40136c3c     ui_main.obj
 0003:00007c58       ??_C@_0BF@FJPIHPLJ@?$EAMENUS_SINGLE_MEDIUM?$AA@ 40136c58     ui_main.obj
 0003:00007c74       ??_C@_0BD@EDMMOBLM@?$EAMENUS_SINGLE_FAST?$AA@ 40136c74     ui_main.obj
 0003:00007c8c       ??_C@_0BC@FGDOMIPE@?$EAMENUS_ACROBATICS?$AA@ 40136c8c     ui_main.obj
 0003:00007ca4       ??_C@_0CC@CPCLFBLH@?$EASP_INGAME_FORCE_SABER_THROW_DES@ 40136ca4     ui_main.obj
 0003:00007ccc       ??_C@_0CE@IFLOKFMP@?$EASP_INGAME_FORCE_SABER_DEFENSE_D@ 40136ccc     ui_main.obj
 0003:00007cf8       ??_C@_0CE@BFOJMIJM@?$EASP_INGAME_FORCE_SABER_OFFENSE_D@ 40136cf8     ui_main.obj
 0003:00007d24       ??_C@_0BO@LIFCFJLD@?$EAMENUS_EFFECT_NAREA_OF_EFFECT?$AA@ 40136d24     ui_main.obj
 0003:00007d48       ??_C@_0CA@NLHLJDDE@?$EAMENUS_VARIABLE_NAREA_OF_EFFECT?$AA@ 40136d48     ui_main.obj
 0003:00007d70       ??_C@_0CC@JPECEAOP@?$EAMENUS_EFFECT_JEDI_ALLIES_NEFFEC@ 40136d70     ui_main.obj
 0003:00007d98       ??_C@_0CF@EDKMOJBH@?$EAMENUS_OF_EFFECT_JEDI_ALLIES_NEF@ 40136d98     ui_main.obj
 0003:00007dc4       ??_C@_0CB@OJAAOCHI@?$EAMENUS_DURATION_CONTINUOUS_NAREA@ 40136dc4     ui_main.obj
 0003:00007dec       ??_C@_0BP@MOHOGCJM@?$EAMENUS_DURATION_VARIABLE_NAREA?$AA@ 40136dec     ui_main.obj
 0003:00007e14       ??_C@_0BM@NPJPMBPM@?$EAMENUS_DURATION_VARIABLE_10?$AA@ 40136e14     ui_main.obj
 0003:00007e38       ??_C@_0CA@CILKADCI@?$EAMENUS_OF_EFFECT_LIVING_PERSONS?$AA@ 40136e38     ui_main.obj
 0003:00007e60       ??_C@_0CE@IGOECCFO@?$EAMENUS_DURATION_INSTANTANEOUS_NA@ 40136e60     ui_main.obj
 0003:00007e8c       ??_C@_0BM@NNNJHPKF@?$EAMENUS_DURATION_VARIABLE_20?$AA@ 40136e8c     ui_main.obj
 0003:00007eb0       ??_C@_0CC@EMMJLAJE@?$EAMENUS_INSTANTANEOUS_EFFECT_NARE@ 40136eb0     ui_main.obj
 0003:00007ed8       ??_C@_0BO@MLLCDKK@?$EAMENUS_DURATION_INSTANTANEOUS?$AA@ 40136ed8     ui_main.obj
 0003:00007efc       ??_C@_0CA@BAMODECF@?$EAMENUS_DURATION_5_SECONDS_NAREA?$AA@ 40136efc     ui_main.obj
 0003:00007f24       ??_C@_0CA@FCHFBBFK@?$EAMENUS_DURATION_IMMEDIATE_NAREA?$AA@ 40136f24     ui_main.obj
 0003:00007f4c       ??_C@_0CD@JFEKEMDM@?$EAMENUS_OF_EFFECT_JEDI_ONLY_NEFFE@ 40136f4c     ui_main.obj
 0003:00007f78       ??_C@_0BK@FEFIMOAO@gfx?1mp?1f_icon_saber_throw?$AA@ 40136f78     ui_main.obj
 0003:00007f98       ??_C@_0BL@NEBHBNKD@gfx?1mp?1f_icon_saber_defend?$AA@ 40136f98     ui_main.obj
 0003:00007fb8       ??_C@_0BL@FEKHDPBD@gfx?1mp?1f_icon_saber_attack?$AA@ 40136fb8     ui_main.obj
 0003:00007fd8       ??_C@_0BE@IDOBHAPF@gfx?1mp?1f_icon_sight?$AA@ 40136fd8     ui_main.obj
 0003:00007ff0       ??_C@_0BH@JNFFMKGL@gfx?1mp?1f_icon_dk_drain?$AA@ 40136ff0     ui_main.obj
 0003:0000800c       ??_C@_0BM@INELODPO@gfx?1mp?1f_icon_dk_forceother?$AA@ 4013700c     ui_main.obj
 0003:00008030       ??_C@_0BL@PHMODMPE@gfx?1mp?1f_icon_lt_healother?$AA@ 40137030     ui_main.obj
 0003:00008050       ??_C@_0BI@JGABMFHN@gfx?1mp?1f_icon_lt_absorb?$AA@ 40137050     ui_main.obj
 0003:0000806c       ??_C@_0BJ@BNJGHMKP@gfx?1mp?1f_icon_lt_protect?$AA@ 4013706c     ui_main.obj
 0003:0000808c       ??_C@_0BG@CIIDCBDH@gfx?1mp?1f_icon_dk_rage?$AA@ 4013708c     ui_main.obj
 0003:000080a8       ??_C@_0BE@FIGKNCGE@gfx?1mp?1f_icon_dk_l1?$AA@ 401370a8     ui_main.obj
 0003:000080c0       ??_C@_0BG@PPAEAKKK@gfx?1mp?1f_icon_dk_grip?$AA@ 401370c0     ui_main.obj
 0003:000080dc       ??_C@_0BL@GPKCAHJD@gfx?1mp?1f_icon_lt_telepathy?$AA@ 401370dc     ui_main.obj
 0003:000080fc       ??_C@_0BD@FAMLDPCA@gfx?1mp?1f_icon_pull?$AA@ 401370fc     ui_main.obj
 0003:00008114       ??_C@_0BD@CDNNBOGJ@gfx?1mp?1f_icon_push?$AA@ 40137114     ui_main.obj
 0003:0000812c       ??_C@_0BE@GACMMIP@gfx?1mp?1f_icon_speed?$AA@ 4013712c     ui_main.obj
 0003:00008144       ??_C@_0BJ@DCGHGAMM@gfx?1mp?1f_icon_levitation?$AA@ 40137144     ui_main.obj
 0003:00008164       ??_C@_0BG@BKINAJCK@gfx?1mp?1f_icon_lt_heal?$AA@ 40137164     ui_main.obj
 0003:00008180       ??_C@_0M@JAIOEHIF@BOTH_CIN_50?$AA@ 40137180     ui_main.obj
 0003:00008190       ??_C@_0M@EAIOJGPL@BOTH_CIN_49?$AA@ 40137190     ui_main.obj
 0003:000081a0       ??_C@_0M@FJJFKHLK@BOTH_CIN_48?$AA@ 401371a0     ui_main.obj
 0003:000081b0       ??_C@_0M@NOANLLHF@BOTH_CIN_47?$AA@ 401371b0     ui_main.obj
 0003:000081c0       ??_C@_0M@MHBGIKDE@BOTH_CIN_46?$AA@ 401371c0     ui_main.obj
 0003:000081d0       ??_C@_0M@OMDLNJPH@BOTH_CIN_45?$AA@ 401371d0     ui_main.obj
 0003:000081e0       ??_C@_0M@PFCAOILG@BOTH_CIN_44?$AA@ 401371e0     ui_main.obj
 0003:000081f0       ??_C@_0M@LKGBHOHB@BOTH_CIN_43?$AA@ 401371f0     ui_main.obj
 0003:00008200       ??_C@_0M@KDHKEPDA@BOTH_CIN_42?$AA@ 40137200     ui_main.obj
 0003:00008210       ??_C@_0M@IIFHBMPD@BOTH_CIN_41?$AA@ 40137210     ui_main.obj
 0003:00008220       ??_C@_0M@JBEMCNLC@BOTH_CIN_40?$AA@ 40137220     ui_main.obj
 0003:00008230       ??_C@_0M@EFMBIAHO@BOTH_CIN_39?$AA@ 40137230     ui_main.obj
 0003:00008240       ??_C@_0M@FMNKLBDP@BOTH_CIN_38?$AA@ 40137240     ui_main.obj
 0003:00008250       ??_C@_0M@NLECKNPA@BOTH_CIN_37?$AA@ 40137250     ui_main.obj
 0003:00008260       ??_C@_0M@MCFJJMLB@BOTH_CIN_36?$AA@ 40137260     ui_main.obj
 0003:00008270       ??_C@_0M@OJHEMPHC@BOTH_CIN_35?$AA@ 40137270     ui_main.obj
 0003:00008280       ??_C@_0M@PAGPPODD@BOTH_CIN_34?$AA@ 40137280     ui_main.obj
 0003:00008290       ??_C@_0M@LPCOGIPE@BOTH_CIN_33?$AA@ 40137290     ui_main.obj
 0003:000082a0       ??_C@_0M@KGDFFJLF@BOTH_CIN_32?$AA@ 401372a0     ui_main.obj
 0003:000082b0       ??_C@_0M@INBIAKHG@BOTH_CIN_31?$AA@ 401372b0     ui_main.obj
 0003:000082c0       ??_C@_0M@JEADDLDH@BOTH_CIN_30?$AA@ 401372c0     ui_main.obj
 0003:000082d0       ??_C@_0M@EEADOKEJ@BOTH_CIN_29?$AA@ 401372d0     ui_main.obj
 0003:000082e0       ??_C@_0M@FNBINLAI@BOTH_CIN_28?$AA@ 401372e0     ui_main.obj
 0003:000082f0       ??_C@_0M@NKIAMHMH@BOTH_CIN_27?$AA@ 401372f0     ui_main.obj
 0003:00008300       ??_C@_0M@MDJLPGIG@BOTH_CIN_26?$AA@ 40137300     ui_main.obj
 0003:00008310       ??_C@_0M@OILGKFEF@BOTH_CIN_25?$AA@ 40137310     ui_main.obj
 0003:00008320       ??_C@_0M@PBKNJEAE@BOTH_CIN_24?$AA@ 40137320     ui_main.obj
 0003:00008330       ??_C@_0M@LOOMACMD@BOTH_CIN_23?$AA@ 40137330     ui_main.obj
 0003:00008340       ??_C@_0M@KHPHDDIC@BOTH_CIN_22?$AA@ 40137340     ui_main.obj
 0003:00008350       ??_C@_0M@IMNKGAEB@BOTH_CIN_21?$AA@ 40137350     ui_main.obj
 0003:00008360       ??_C@_0M@JFMBFBAA@BOTH_CIN_20?$AA@ 40137360     ui_main.obj
 0003:00008370       ??_C@_0M@EGEFFEBA@BOTH_CIN_19?$AA@ 40137370     ui_main.obj
 0003:00008380       ??_C@_0M@FPFOGFFB@BOTH_CIN_18?$AA@ 40137380     ui_main.obj
 0003:00008390       ??_C@_0M@NIMGHJJO@BOTH_CIN_17?$AA@ 40137390     ui_main.obj
 0003:000083a0       ??_C@_0M@MBNNEINP@BOTH_CIN_16?$AA@ 401373a0     ui_main.obj
 0003:000083b0       ??_C@_0M@OKPABLBM@BOTH_CIN_15?$AA@ 401373b0     ui_main.obj
 0003:000083c0       ??_C@_0M@PDOLCKFN@BOTH_CIN_14?$AA@ 401373c0     ui_main.obj
 0003:000083d0       ??_C@_0M@LMKKLMJK@BOTH_CIN_13?$AA@ 401373d0     ui_main.obj
 0003:000083e0       ??_C@_0M@KFLBINNL@BOTH_CIN_12?$AA@ 401373e0     ui_main.obj
 0003:000083f0       ??_C@_0M@IOJMNOBI@BOTH_CIN_11?$AA@ 401373f0     ui_main.obj
 0003:00008400       ??_C@_0M@JHIHOPFJ@BOTH_CIN_10?$AA@ 40137400     ui_main.obj
 0003:00008410       ??_C@_0L@LLDGGLKP@BOTH_CIN_9?$AA@ 40137410     ui_main.obj
 0003:00008420       ??_C@_0L@KCCNFKOO@BOTH_CIN_8?$AA@ 40137420     ui_main.obj
 0003:00008430       ??_C@_0L@CFLFEGCB@BOTH_CIN_7?$AA@ 40137430     ui_main.obj
 0003:00008440       ??_C@_0L@DMKOHHGA@BOTH_CIN_6?$AA@ 40137440     ui_main.obj
 0003:00008450       ??_C@_0L@BHIDCEKD@BOTH_CIN_5?$AA@ 40137450     ui_main.obj
 0003:00008460       ??_C@_0L@OJIBFOC@BOTH_CIN_4?$AA@ 40137460     ui_main.obj
 0003:00008470       ??_C@_0L@EBNJIDCF@BOTH_CIN_3?$AA@ 40137470     ui_main.obj
 0003:00008480       ??_C@_0L@FIMCLCGE@BOTH_CIN_2?$AA@ 40137480     ui_main.obj
 0003:00008490       ??_C@_0L@HDOPOBKH@BOTH_CIN_1?$AA@ 40137490     ui_main.obj
 0003:000084a0       ??_C@_0N@MEGKIHKK@LEGS_TURN180?$AA@ 401374a0     ui_main.obj
 0003:000084b0       ??_C@_0N@EEPPLEKL@LEGS_S7_RUP5?$AA@ 401374b0     ui_main.obj
 0003:000084c0       ??_C@_0N@FNOEIFOK@LEGS_S7_RUP4?$AA@ 401374c0     ui_main.obj
 0003:000084d0       ??_C@_0N@BCKFBDCN@LEGS_S7_RUP3?$AA@ 401374d0     ui_main.obj
 0003:000084e0       ??_C@_0N@LLOCCGM@LEGS_S7_RUP2?$AA@ 401374e0     ui_main.obj
 0003:000084f0       ??_C@_0N@CAJDHBKP@LEGS_S7_RUP1?$AA@ 401374f0     ui_main.obj
 0003:00008500       ??_C@_0N@JLCPJNEI@LEGS_S7_LUP5?$AA@ 40137500     ui_main.obj
 0003:00008510       ??_C@_0N@ICDEKMAJ@LEGS_S7_LUP4?$AA@ 40137510     ui_main.obj
 0003:00008520       ??_C@_0N@MNHFDKMO@LEGS_S7_LUP3?$AA@ 40137520     ui_main.obj
 0003:00008530       ??_C@_0N@NEGOALIP@LEGS_S7_LUP2?$AA@ 40137530     ui_main.obj
 0003:00008540       ??_C@_0N@PPEDFIEM@LEGS_S7_LUP1?$AA@ 40137540     ui_main.obj
 0003:00008550       ??_C@_0N@OCIILPBP@LEGS_S6_RUP5?$AA@ 40137550     ui_main.obj
 0003:00008560       ??_C@_0N@PLJDIOFO@LEGS_S6_RUP4?$AA@ 40137560     ui_main.obj
 0003:00008570       ??_C@_0N@LENCBIJJ@LEGS_S6_RUP3?$AA@ 40137570     ui_main.obj
 0003:00008580       ??_C@_0N@KNMJCJNI@LEGS_S6_RUP2?$AA@ 40137580     ui_main.obj
 0003:00008590       ??_C@_0N@IGOEHKBL@LEGS_S6_RUP1?$AA@ 40137590     ui_main.obj
 0003:000085a0       ??_C@_0N@DNFIJGPM@LEGS_S6_LUP5?$AA@ 401375a0     ui_main.obj
 0003:000085b0       ??_C@_0N@CEEDKHLN@LEGS_S6_LUP4?$AA@ 401375b0     ui_main.obj
 0003:000085c0       ??_C@_0N@GLACDBHK@LEGS_S6_LUP3?$AA@ 401375c0     ui_main.obj
 0003:000085d0       ??_C@_0N@HCBJAADL@LEGS_S6_LUP2?$AA@ 401375d0     ui_main.obj
 0003:000085e0       ??_C@_0N@FJDEFDPI@LEGS_S6_LUP1?$AA@ 401375e0     ui_main.obj
 0003:000085f0       ??_C@_0N@NDGAKFIC@LEGS_S5_RUP5?$AA@ 401375f0     ui_main.obj
 0003:00008600       ??_C@_0N@MKHLJEMD@LEGS_S5_RUP4?$AA@ 40137600     ui_main.obj
 0003:00008610       ??_C@_0N@IFDKACAE@LEGS_S5_RUP3?$AA@ 40137610     ui_main.obj
 0003:00008620       ??_C@_0N@JMCBDDEF@LEGS_S5_RUP2?$AA@ 40137620     ui_main.obj
 0003:00008630       ??_C@_0N@LHAMGAIG@LEGS_S5_RUP1?$AA@ 40137630     ui_main.obj
 0003:00008640       ??_C@_0N@MLAIMGB@LEGS_S5_LUP5?$AA@ 40137640     ui_main.obj
 0003:00008650       ??_C@_0N@BFKLLNCA@LEGS_S5_LUP4?$AA@ 40137650     ui_main.obj
 0003:00008660       ??_C@_0N@FKOKCLOH@LEGS_S5_LUP3?$AA@ 40137660     ui_main.obj
 0003:00008670       ??_C@_0N@EDPBBKKG@LEGS_S5_LUP2?$AA@ 40137670     ui_main.obj
 0003:00008680       ??_C@_0N@GINMEJGF@LEGS_S5_LUP1?$AA@ 40137680     ui_main.obj
 0003:00008690       ??_C@_0N@HFBHKODG@LEGS_S4_RUP5?$AA@ 40137690     ui_main.obj
 0003:000086a0       ??_C@_0N@GMAMJPHH@LEGS_S4_RUP4?$AA@ 401376a0     ui_main.obj
 0003:000086b0       ??_C@_0N@CDENAJLA@LEGS_S4_RUP3?$AA@ 401376b0     ui_main.obj
 0003:000086c0       ??_C@_0N@DKFGDIPB@LEGS_S4_RUP2?$AA@ 401376c0     ui_main.obj
 0003:000086d0       ??_C@_0N@BBHLGLDC@LEGS_S4_RUP1?$AA@ 401376d0     ui_main.obj
 0003:000086e0       ??_C@_0N@KKMHIHNF@LEGS_S4_LUP5?$AA@ 401376e0     ui_main.obj
 0003:000086f0       ??_C@_0N@LDNMLGJE@LEGS_S4_LUP4?$AA@ 401376f0     ui_main.obj
 0003:00008700       ??_C@_0N@PMJNCAFD@LEGS_S4_LUP3?$AA@ 40137700     ui_main.obj
 0003:00008710       ??_C@_0N@OFIGBBBC@LEGS_S4_LUP2?$AA@ 40137710     ui_main.obj
 0003:00008720       ??_C@_0N@MOKLECNB@LEGS_S4_LUP1?$AA@ 40137720     ui_main.obj
 0003:00008730       ??_C@_0N@LALAJALI@LEGS_S3_RUP5?$AA@ 40137730     ui_main.obj
 0003:00008740       ??_C@_0N@KJKLKBPJ@LEGS_S3_RUP4?$AA@ 40137740     ui_main.obj
 0003:00008750       ??_C@_0N@OGOKDHDO@LEGS_S3_RUP3?$AA@ 40137750     ui_main.obj
 0003:00008760       ??_C@_0N@PPPBAGHP@LEGS_S3_RUP2?$AA@ 40137760     ui_main.obj
 0003:00008770       ??_C@_0N@NENMFFLM@LEGS_S3_RUP1?$AA@ 40137770     ui_main.obj
 0003:00008780       ??_C@_0N@GPGALJFL@LEGS_S3_LUP5?$AA@ 40137780     ui_main.obj
 0003:00008790       ??_C@_0N@HGHLIIBK@LEGS_S3_LUP4?$AA@ 40137790     ui_main.obj
 0003:000087a0       ??_C@_0N@DJDKBONN@LEGS_S3_LUP3?$AA@ 401377a0     ui_main.obj
 0003:000087b0       ??_C@_0N@CACBCPJM@LEGS_S3_LUP2?$AA@ 401377b0     ui_main.obj
 0003:000087c0       ??_C@_0N@LAMHMFP@LEGS_S3_LUP1?$AA@ 401377c0     ui_main.obj
 0003:000087d0       ??_C@_0N@CHCPIBJB@LEGS_S1_RUP5?$AA@ 401377d0     ui_main.obj
 0003:000087e0       ??_C@_0N@DODELANA@LEGS_S1_RUP4?$AA@ 401377e0     ui_main.obj
 0003:000087f0       ??_C@_0N@HBHFCGBH@LEGS_S1_RUP3?$AA@ 401377f0     ui_main.obj
 0003:00008800       ??_C@_0N@GIGOBHFG@LEGS_S1_RUP2?$AA@ 40137800     ui_main.obj
 0003:00008810       ??_C@_0N@EDEDEEJF@LEGS_S1_RUP1?$AA@ 40137810     ui_main.obj
 0003:00008820       ??_C@_0N@PIPPKIHC@LEGS_S1_LUP5?$AA@ 40137820     ui_main.obj
 0003:00008830       ??_C@_0N@OBOEJJDD@LEGS_S1_LUP4?$AA@ 40137830     ui_main.obj
 0003:00008840       ??_C@_0N@KOKFAPPE@LEGS_S1_LUP3?$AA@ 40137840     ui_main.obj
 0003:00008850       ??_C@_0N@LHLODOLF@LEGS_S1_LUP2?$AA@ 40137850     ui_main.obj
 0003:00008860       ??_C@_0N@JMJDGNHG@LEGS_S1_LUP1?$AA@ 40137860     ui_main.obj
 0003:00008870       ??_C@_0O@PPAOPDJO@LEGS_RIGHTUP5?$AA@ 40137870     ui_main.obj
 0003:00008880       ??_C@_0O@OGBFMCNP@LEGS_RIGHTUP4?$AA@ 40137880     ui_main.obj
 0003:00008890       ??_C@_0O@KJFEFEBI@LEGS_RIGHTUP3?$AA@ 40137890     ui_main.obj
 0003:000088a0       ??_C@_0O@LAEPGFFJ@LEGS_RIGHTUP2?$AA@ 401378a0     ui_main.obj
 0003:000088b0       ??_C@_0O@JLGCDGJK@LEGS_RIGHTUP1?$AA@ 401378b0     ui_main.obj
 0003:000088c0       ??_C@_0N@DBAKPANN@LEGS_LEFTUP5?$AA@ 401378c0     ui_main.obj
 0003:000088d0       ??_C@_0N@CIBBMBJM@LEGS_LEFTUP4?$AA@ 401378d0     ui_main.obj
 0003:000088e0       ??_C@_0N@GHFAFHFL@LEGS_LEFTUP3?$AA@ 401378e0     ui_main.obj
 0003:000088f0       ??_C@_0N@HOELGGBK@LEGS_LEFTUP2?$AA@ 401378f0     ui_main.obj
 0003:00008900       ??_C@_0N@FFGGDFNJ@LEGS_LEFTUP1?$AA@ 40137900     ui_main.obj
 0003:00008910       ??_C@_0O@FPAJGKKH@LEGS_CHOKING1?$AA@ 40137910     ui_main.obj
 0003:00008920       ??_C@_0BB@HCNNJMLM@LEGS_LEAN_RIGHT1?$AA@ 40137920     ui_main.obj
 0003:00008934       ??_C@_0BA@MCADBFIF@LEGS_LEAN_LEFT1?$AA@ 40137934     ui_main.obj
 0003:00008948       ??_C@_0L@BFOCDDKC@LEGS_TURN2?$AA@ 40137948     ui_main.obj
 0003:00008958       ??_C@_0L@DOMPGAGB@LEGS_TURN1?$AA@ 40137958     ui_main.obj
 0003:00008968       ??_C@_0BC@FAHFKMOC@TORSO_HANDSIGNAL5?$AA@ 40137968     ui_main.obj
 0003:00008980       ??_C@_0BC@EJGOJNKD@TORSO_HANDSIGNAL4?$AA@ 40137980     ui_main.obj
 0003:00008998       ??_C@_0BC@GCPALGE@TORSO_HANDSIGNAL3?$AA@ 40137998     ui_main.obj
 0003:000089b0       ??_C@_0BC@BPDEDKCF@TORSO_HANDSIGNAL2?$AA@ 401379b0     ui_main.obj
 0003:000089c8       ??_C@_0BC@DEBJGJOG@TORSO_HANDSIGNAL1?$AA@ 401379c8     ui_main.obj
 0003:000089e0       ??_C@_0P@EDGDJEAA@TORSO_CHOKING1?$AA@ 401379e0     ui_main.obj
 0003:000089f4       ??_C@_0BF@CAMHOBIG@TORSO_SURRENDER_STOP?$AA@ 401379f4     ui_main.obj
 0003:00008a10       ??_C@_0BG@DJHHNKPJ@TORSO_SURRENDER_START?$AA@ 40137a10     ui_main.obj
 0003:00008a2c       ??_C@_0BD@IPNKJOGP@TORSO_WEAPONIDLE10?$AA@ 40137a2c     ui_main.obj
 0003:00008a44       ??_C@_0BC@OEKOFEDF@TORSO_WEAPONIDLE4?$AA@ 40137a44     ui_main.obj
 0003:00008a5c       ??_C@_0BC@KLOPMCPC@TORSO_WEAPONIDLE3?$AA@ 40137a5c     ui_main.obj
 0003:00008a74       ??_C@_0BC@LCPEPDLD@TORSO_WEAPONIDLE2?$AA@ 40137a74     ui_main.obj
 0003:00008a8c       ??_C@_0BE@PLMMDJNI@TORSO_WEAPONREADY10?$AA@ 40137a8c     ui_main.obj
 0003:00008aa4       ??_C@_0BD@EDNLHJLG@TORSO_WEAPONREADY4?$AA@ 40137aa4     ui_main.obj
 0003:00008abc       ??_C@_0BD@MJKOPHB@TORSO_WEAPONREADY3?$AA@ 40137abc     ui_main.obj
 0003:00008ad4       ??_C@_0BD@BFIBNODA@TORSO_WEAPONREADY2?$AA@ 40137ad4     ui_main.obj
 0003:00008aec       ??_C@_0BD@DOKMINPD@TORSO_WEAPONREADY1?$AA@ 40137aec     ui_main.obj
 0003:00008b04       ??_C@_0BB@JNFLGAHH@TORSO_RAISEWEAP4?$AA@ 40137b04     ui_main.obj
 0003:00008b18       ??_C@_0BB@OACMJEDC@TORSO_RAISEWEAP1?$AA@ 40137b18     ui_main.obj
 0003:00008b2c       ??_C@_0BA@CHPACHPA@TORSO_DROPWEAP4?$AA@ 40137b2c     ui_main.obj
 0003:00008b40       ??_C@_0BA@FKIHNDLF@TORSO_DROPWEAP1?$AA@ 40137b40     ui_main.obj
 0003:00008b54       ??_C@_09LOFMHEDG@BOTH_SIT7?$AA@ 40137b54     ui_main.obj
 0003:00008b60       ??_C@_09KHEHEFHH@BOTH_SIT6?$AA@ 40137b60     ui_main.obj
 0003:00008b6c       ??_C@_0BA@KMDIIEBA@BOTH_SIT5_TALK3?$AA@ 40137b6c     ui_main.obj
 0003:00008b80       ??_C@_0BA@LFCDLFFB@BOTH_SIT5_TALK2?$AA@ 40137b80     ui_main.obj
 0003:00008b94       ??_C@_0BA@JOAOOGJC@BOTH_SIT5_TALK1?$AA@ 40137b94     ui_main.obj
 0003:00008ba8       ??_C@_09IMGKBGLE@BOTH_SIT5?$AA@ 40137ba8     ui_main.obj
 0003:00008bb4       ??_C@_09JFHBCHPF@BOTH_SIT4?$AA@ 40137bb4     ui_main.obj
 0003:00008bc0       ??_C@_0BC@HMBKLJMI@BOTH_STAND1_TALK3?$AA@ 40137bc0     ui_main.obj
 0003:00008bd8       ??_C@_0BC@GFABIIIJ@BOTH_STAND1_TALK2?$AA@ 40137bd8     ui_main.obj
 0003:00008bf0       ??_C@_0BC@EOCMNLEK@BOTH_STAND1_TALK1?$AA@ 40137bf0     ui_main.obj
 0003:00008c08       ??_C@_0BF@EILOIEKG@BOTH_STAND10TOSTAND1?$AA@ 40137c08     ui_main.obj
 0003:00008c24       ??_C@_0BD@BPMBLEGP@BOTH_STAND10_TALK2?$AA@ 40137c24     ui_main.obj
 0003:00008c3c       ??_C@_0BD@DEOMOHKM@BOTH_STAND10_TALK1?$AA@ 40137c3c     ui_main.obj
 0003:00008c54       ??_C@_0N@EGCBKCBH@BOTH_STAND10?$AA@ 40137c54     ui_main.obj
 0003:00008c64       ??_C@_0BD@KFKLMKIP@BOTH_SONICPAIN_END?$AA@ 40137c64     ui_main.obj
 0003:00008c7c       ??_C@_0BE@KHIIENBG@BOTH_SONICPAIN_HOLD?$AA@ 40137c7c     ui_main.obj
 0003:00008c94       ??_C@_0BF@LOEEPGJI@BOTH_SONICPAIN_START?$AA@ 40137c94     ui_main.obj
 0003:00008cb0       ??_C@_0BB@JEOPOJAL@BOTH_COWER1_STOP?$AA@ 40137cb0     ui_main.obj
 0003:00008cc4       ??_C@_0M@EAAAAKHE@BOTH_COWER1?$AA@ 40137cc4     ui_main.obj
 0003:00008cd4       ??_C@_0BC@KKMKANGM@BOTH_COWER1_START?$AA@ 40137cd4     ui_main.obj
 0003:00008cec       ??_C@_0BC@KDENGKBK@BOTH_TUSKENTAUNT1?$AA@ 40137cec     ui_main.obj
 0003:00008d04       ??_C@_0BC@BIOHNIGA@BOTH_TUSKENLUNGE1?$AA@ 40137d04     ui_main.obj
 0003:00008d1c       ??_C@_0BD@NFLDJLNC@BOTH_TUSKENATTACK3?$AA@ 40137d1c     ui_main.obj
 0003:00008d34       ??_C@_0BD@MMKIKKJD@BOTH_TUSKENATTACK2?$AA@ 40137d34     ui_main.obj
 0003:00008d4c       ??_C@_0BD@OHIFPJFA@BOTH_TUSKENATTACK1?$AA@ 40137d4c     ui_main.obj
 0003:00008d64       ??_C@_0BE@OBEECCKH@BOTH_KNEEL_TO_STAND?$AA@ 40137d64     ui_main.obj
 0003:00008d7c       ??_C@_0BE@FLPJEFCO@BOTH_STAND_TO_KNEEL?$AA@ 40137d7c     ui_main.obj
 0003:00008d94       ??_C@_09FOHPNOGF@BOTH_WIND?$AA@ 40137d94     ui_main.obj
 0003:00008da0       ??_C@_0BI@GLAHPFBH@BOTH_FORCE_PROTECT_FAST?$AA@ 40137da0     ui_main.obj
 0003:00008dbc       ??_C@_0BD@FFPOEFNG@BOTH_FORCE_PROTECT?$AA@ 40137dbc     ui_main.obj
 0003:00008dd4       ??_C@_0BG@CBNCOJEH@BOTH_FORCE_ABSORB_END?$AA@ 40137dd4     ui_main.obj
 0003:00008df0       ??_C@_0BI@BPAAFONF@BOTH_FORCE_ABSORB_START?$AA@ 40137df0     ui_main.obj
 0003:00008e0c       ??_C@_0BC@HHGANHBC@BOTH_FORCE_ABSORB?$AA@ 40137e0c     ui_main.obj
 0003:00008e24       ??_C@_0BJ@GKPDEPNJ@BOTH_FORCE_DRAIN_GRABBED?$AA@ 40137e24     ui_main.obj
 0003:00008e44       ??_C@_0BK@POJHMFNL@BOTH_FORCE_DRAIN_GRAB_END?$AA@ 40137e44     ui_main.obj
 0003:00008e64       ??_C@_0BL@MLNFOEPE@BOTH_FORCE_DRAIN_GRAB_HOLD?$AA@ 40137e64     ui_main.obj
 0003:00008e84       ??_C@_0BM@PACMCIGF@BOTH_FORCE_DRAIN_GRAB_START?$AA@ 40137e84     ui_main.obj
 0003:00008ea8       ??_C@_0BJ@OBGKFMHF@BOTH_FORCE_DRAIN_RELEASE?$AA@ 40137ea8     ui_main.obj
 0003:00008ec8       ??_C@_0BG@JCLNDPPK@BOTH_FORCE_DRAIN_HOLD?$AA@ 40137ec8     ui_main.obj
 0003:00008ee4       ??_C@_0BH@BHMNGNLJ@BOTH_FORCE_DRAIN_START?$AA@ 40137ee4     ui_main.obj
 0003:00008f00       ??_C@_0BB@NHPCBMHH@BOTH_FORCE_DRAIN?$AA@ 40137f00     ui_main.obj
 0003:00008f14       ??_C@_0CE@NFLNPDNI@BOTH_FORCE_2HANDEDLIGHTNING_RELE@ 40137f14     ui_main.obj
 0003:00008f40       ??_C@_0CB@MNKHBDGA@BOTH_FORCE_2HANDEDLIGHTNING_HOLD@ 40137f40     ui_main.obj
 0003:00008f68       ??_C@_0CC@HEIANMP@BOTH_FORCE_2HANDEDLIGHTNING_STAR@ 40137f68     ui_main.obj
 0003:00008f90       ??_C@_0BM@OPHDEJED@BOTH_FORCE_2HANDEDLIGHTNING?$AA@ 40137f90     ui_main.obj
 0003:00008fb4       ??_C@_0BA@GLJOFMJL@BOTH_FORCE_RAGE?$AA@ 40137fb4     ui_main.obj
 0003:00008fc8       ??_C@_0L@GCDIADMB@BOTH_TOSS2?$AA@ 40137fc8     ui_main.obj
 0003:00008fd8       ??_C@_0L@EJBFFAAC@BOTH_TOSS1?$AA@ 40137fd8     ui_main.obj
 0003:00008fe8       ??_C@_0BH@JFCMGCAP@BOTH_FORCEGRIP_RELEASE?$AA@ 40137fe8     ui_main.obj
 0003:00009004       ??_C@_0BE@JLIMFCGH@BOTH_FORCEGRIP_HOLD?$AA@ 40138004     ui_main.obj
 0003:0000901c       ??_C@_0BF@BAAGEEBG@BOTH_FORCEGRIP3THROW?$AA@ 4013801c     ui_main.obj
 0003:00009038       ??_C@_0BA@CBKDJPAH@BOTH_FORCEGRIP3?$AA@ 40138038     ui_main.obj
 0003:0000904c       ??_C@_0BA@BDJFPNIF@BOTH_FORCEGRIP1?$AA@ 4013804c     ui_main.obj
 0003:00009060       ??_C@_0P@PONJILD@BOTH_SABERPULL?$AA@ 40138060     ui_main.obj
 0003:00009074       ??_C@_0BF@DKJODMIL@BOTH_FORCEHEAL_QUICK?$AA@ 40138074     ui_main.obj
 0003:00009090       ??_C@_0BE@GNHNNEFM@BOTH_FORCEHEAL_STOP?$AA@ 40138090     ui_main.obj
 0003:000090a8       ??_C@_0BF@FPDMFLAG@BOTH_FORCEHEAL_START?$AA@ 401380a8     ui_main.obj
 0003:000090c4       ??_C@_0BM@GCBAKCPL@BOTH_FORCELIGHTNING_RELEASE?$AA@ 401380c4     ui_main.obj
 0003:000090e8       ??_C@_0BJ@KCFBGHIB@BOTH_FORCELIGHTNING_HOLD?$AA@ 401380e8     ui_main.obj
 0003:00009108       ??_C@_0BK@NACKCJFF@BOTH_FORCELIGHTNING_START?$AA@ 40138108     ui_main.obj
 0003:00009128       ??_C@_0BE@OEAHGILF@BOTH_FORCELIGHTNING?$AA@ 40138128     ui_main.obj
 0003:00009140       ??_C@_0BA@KMPKOPAN@BOTH_MINDTRICK2?$AA@ 40138140     ui_main.obj
 0003:00009154       ??_C@_0BA@IHNHLMMO@BOTH_MINDTRICK1?$AA@ 40138154     ui_main.obj
 0003:00009168       ??_C@_0P@HBADPLP@BOTH_FORCEPULL?$AA@ 40138168     ui_main.obj
 0003:0000917c       ??_C@_0P@HEAGBOPG@BOTH_FORCEPUSH?$AA@ 4013817c     ui_main.obj
 0003:00009190       ??_C@_0BA@IBNLMMOO@BOTH_RESISTPUSH?$AA@ 40138190     ui_main.obj
 0003:000091a4       ??_C@_0BE@BFLOBGOL@BOTH_BUTTON_RELEASE?$AA@ 401381a4     ui_main.obj
 0003:000091bc       ??_C@_0BB@FCMBEPCD@BOTH_BUTTON_HOLD?$AA@ 401381bc     ui_main.obj
 0003:000091d0       ??_C@_0N@JDJGEOPD@BOTH_BUTTON2?$AA@ 401381d0     ui_main.obj
 0003:000091e0       ??_C@_0N@LILLBNDA@BOTH_BUTTON1?$AA@ 401381e0     ui_main.obj
 0003:000091f0       ??_C@_0N@JAALPHCL@BOTH_TURNOFF?$AA@ 401381f0     ui_main.obj
 0003:00009200       ??_C@_0M@ODIMNEKC@BOTH_TURNON?$AA@ 40138200     ui_main.obj
 0003:00009210       ??_C@_0O@CAGOCCAO@BOTH_POWERUP1?$AA@ 40138210     ui_main.obj
 0003:00009220       ??_C@_0M@MGBFEGML@BOTH_CHOKE3?$AA@ 40138220     ui_main.obj
 0003:00009230       ??_C@_0M@NPAOHHIK@BOTH_CHOKE2?$AA@ 40138230     ui_main.obj
 0003:00009240       ??_C@_0M@PECDCEEJ@BOTH_CHOKE1?$AA@ 40138240     ui_main.obj
 0003:00009250       ??_C@_0BF@ICMFFJIF@BOTH_CHOKE1STARTHOLD?$AA@ 40138250     ui_main.obj
 0003:0000926c       ??_C@_0BB@OFKGJANF@BOTH_CHOKE1START?$AA@ 4013826c     ui_main.obj
 0003:00009280       ??_C@_0BC@NPNJMHGC@BOTH_SLEEP1GETUP2?$AA@ 40138280     ui_main.obj
 0003:00009298       ??_C@_0BB@HBPPPACM@BOTH_SLEEP1GETUP?$AA@ 40138298     ui_main.obj
 0003:000092ac       ??_C@_0BA@CINKHNGE@BOTH_SLEEP6STOP?$AA@ 401382ac     ui_main.obj
 0003:000092c0       ??_C@_0BB@HHHLEEDB@BOTH_SLEEP6START?$AA@ 401382c0     ui_main.obj
 0003:000092d4       ??_C@_0M@LIOOPEJI@BOTH_SLEEP1?$AA@ 401382d4     ui_main.obj
 0003:000092e4       ??_C@_0BC@LJIHFCKB@BOTH_SWIMBACKWARD?$AA@ 401382e4     ui_main.obj
 0003:000092fc       ??_C@_0BB@FOFCFDFI@BOTH_SWIMFORWARD?$AA@ 401382fc     ui_main.obj
 0003:00009310       ??_C@_0BA@PIGFMLPF@BOTH_SWIM_IDLE1?$AA@ 40138310     ui_main.obj
 0003:00009324       ??_C@_0BC@ODIBALPH@BOTH_FLY_SHIELDED?$AA@ 40138324     ui_main.obj
 0003:0000933c       ??_C@_0BB@OMHFJNGP@BOTH_LADDER_IDLE?$AA@ 4013833c     ui_main.obj
 0003:00009350       ??_C@_0BB@BOJOMJDD@BOTH_LADDER_DWN1?$AA@ 40138350     ui_main.obj
 0003:00009364       ??_C@_0BA@ILKIBIOO@BOTH_LADDER_UP1?$AA@ 40138364     ui_main.obj
 0003:00009378       ??_C@_09PPDGHFCD@BOTH_HIT1?$AA@ 40138378     ui_main.obj
 0003:00009384       ??_C@_0P@EHILJFLF@BOTH_HANG_PAIN?$AA@ 40138384     ui_main.obj
 0003:00009398       ??_C@_0BB@CKCHJINN@BOTH_HANG_ATTACK?$AA@ 40138398     ui_main.obj
 0003:000093ac       ??_C@_0P@PIJKILFE@BOTH_HANG_IDLE?$AA@ 401383ac     ui_main.obj
 0003:000093c0       ??_C@_0O@LAAPIANC@BOTH_RELEASED?$AA@ 401383c0     ui_main.obj
 0003:000093d0       ??_C@_0N@CFDAGGFP@BOTH_GRABBED?$AA@ 401383d0     ui_main.obj
 0003:000093e0       ??_C@_0P@PLIENJJJ@BOTH_HOLD_DROP?$AA@ 401383e0     ui_main.obj
 0003:000093f4       ??_C@_0BA@KJAIIPAE@BOTH_HOLD_SNIFF?$AA@ 401383f4     ui_main.obj
 0003:00009408       ??_C@_0BB@EFCJFPCD@BOTH_HOLD_ATTACK?$AA@ 40138408     ui_main.obj
 0003:0000941c       ??_C@_0O@HFIKEJBB@BOTH_HOLD_END?$AA@ 4013841c     ui_main.obj
 0003:0000942c       ??_C@_0P@EDJFENCG@BOTH_HOLD_IDLE?$AA@ 4013842c     ui_main.obj
 0003:00009440       ??_C@_0P@EPJNGCKB@BOTH_HOLD_MISS?$AA@ 40138440     ui_main.obj
 0003:00009454       ??_C@_0BA@CFDHFDLH@BOTH_HOLD_START?$AA@ 40138454     ui_main.obj
 0003:00009468       ??_C@_0BA@NKEMKFLI@BOTH_BUCK_RIDER?$AA@ 40138468     ui_main.obj
 0003:0000947c       ??_C@_0BF@HCPCIHAG@BOTH_PLAYER_PA_3_FLY?$AA@ 4013847c     ui_main.obj
 0003:00009498       ??_C@_0BB@KIHONIOP@BOTH_PLAYER_PA_3?$AA@ 40138498     ui_main.obj
 0003:000094ac       ??_C@_0P@OMCEAAPC@BOTH_KYLE_PA_3?$AA@ 401384ac     ui_main.obj
 0003:000094c0       ??_C@_0BD@BPPGNPKM@BOTH_PLAYER_PA_FLY?$AA@ 401384c0     ui_main.obj
 0003:000094d8       ??_C@_0BB@LBGFOJKO@BOTH_PLAYER_PA_2?$AA@ 401384d8     ui_main.obj
 0003:000094ec       ??_C@_0P@PFDPDBLD@BOTH_KYLE_PA_2?$AA@ 401384ec     ui_main.obj
 0003:00009500       ??_C@_0BB@JKEILKGN@BOTH_PLAYER_PA_1?$AA@ 40138500     ui_main.obj
 0003:00009514       ??_C@_0P@NOBCGCHA@BOTH_KYLE_PA_1?$AA@ 40138514     ui_main.obj
 0003:00009528       ??_C@_0P@NNAHOJON@BOTH_KYLE_MISS?$AA@ 40138528     ui_main.obj
 0003:0000953c       ??_C@_0P@FMNEHFNM@BOTH_KYLE_GRAB?$AA@ 4013853c     ui_main.obj
 0003:00009550       ??_C@_0BC@MELKBIFA@BOTH_SCEPTER_STOP?$AA@ 40138550     ui_main.obj
 0003:00009568       ??_C@_0BC@HIHKAHFB@BOTH_SCEPTER_HOLD?$AA@ 40138568     ui_main.obj
 0003:00009580       ??_C@_0BD@FGCDNAOB@BOTH_SCEPTER_START?$AA@ 40138580     ui_main.obj
 0003:00009598       ??_C@_0BH@HFIAAKKL@BOTH_TAVION_SWORDPOWER?$AA@ 40138598     ui_main.obj
 0003:000095b4       ??_C@_0BK@NBGHMOBL@BOTH_TAVION_SCEPTERGROUND?$AA@ 401385b4     ui_main.obj
 0003:000095d4       ??_C@_0P@ENOEHDDL@BOTH_ROSH_HEAL?$AA@ 401385d4     ui_main.obj
 0003:000095e8       ??_C@_0P@KODDALBF@BOTH_ROSH_PAIN?$AA@ 401385e8     ui_main.obj
 0003:000095fc       ??_C@_0BB@JJKGACDG@BOTH_ALORA_TAUNT?$AA@ 401385fc     ui_main.obj
 0003:00009610       ??_C@_0BG@DCFBCKEL@BOTH_ALORA_SPIN_SLASH?$AA@ 40138610     ui_main.obj
 0003:0000962c       ??_C@_0BG@EABOBAMI@BOTH_ALORA_SPIN_THROW?$AA@ 4013862c     ui_main.obj
 0003:00009648       ??_C@_0BC@FIDADFOL@BOTH_ALORA_FLIP_B?$AA@ 40138648     ui_main.obj
 0003:00009660       ??_C@_0BC@GOBEHNFM@BOTH_ALORA_FLIP_3?$AA@ 40138660     ui_main.obj
 0003:00009678       ??_C@_0BC@HHAPEMBN@BOTH_ALORA_FLIP_2?$AA@ 40138678     ui_main.obj
 0003:00009690       ??_C@_0BC@FMCCBPNO@BOTH_ALORA_FLIP_1?$AA@ 40138690     ui_main.obj
 0003:000096a8       ??_C@_0BA@IMOMKPBA@BOTH_ALORA_SPIN?$AA@ 401386a8     ui_main.obj
 0003:000096bc       ??_C@_0N@NLKPNJAP@BOTH_A7_HILT?$AA@ 401386bc     ui_main.obj
 0003:000096cc       ??_C@_0L@PNLACCAF@BOTH_A6_LR?$AA@ 401386cc     ui_main.obj
 0003:000096dc       ??_C@_0L@LKOFLFIC@BOTH_A6_FB?$AA@ 401386dc     ui_main.obj
 0003:000096ec       ??_C@_0BA@ECEJJOCF@BOTH_DUAL_TAUNT?$AA@ 401386ec     ui_main.obj
 0003:00009700       ??_C@_0BB@IIJAHOAM@BOTH_STAFF_TAUNT?$AA@ 40138700     ui_main.obj
 0003:00009714       ??_C@_0BA@NPLLAIGE@BOTH_LOSE_SABER?$AA@ 40138714     ui_main.obj
 0003:00009728       ??_C@_0BC@BJEPANJA@BOTH_BACK_FLIP_UP?$AA@ 40138728     ui_main.obj
 0003:00009740       ??_C@_0BD@HFLMOBFH@BOTH_BUTTERFLY_FL1?$AA@ 40138740     ui_main.obj
 0003:00009758       ??_C@_0BD@GDAEGPCN@BOTH_BUTTERFLY_FR1?$AA@ 40138758     ui_main.obj
 0003:00009770       ??_C@_0O@HINNODAG@BOTH_ARIAL_F1?$AA@ 40138770     ui_main.obj
 0003:00009780       ??_C@_0N@PBBFIKGE@BOTH_BASHED1?$AA@ 40138780     ui_main.obj
 0003:00009790       ??_C@_0BM@ELFFAKLF@BOTH_DEFLECTSLASH__R__L_FIN?$AA@ 40138790     ui_main.obj
 0003:000097b4       ??_C@_0BJ@PHBNOEEM@BOTH_RIGHTHANDCHOPPEDOFF?$AA@ 401387b4     ui_main.obj
 0003:000097d4       ??_C@_0BA@CDEAMOMG@BOTH_FJSS_TL_BR?$AA@ 401387d4     ui_main.obj
 0003:000097e8       ??_C@_0BA@CINBNIPK@BOTH_FJSS_TR_BL?$AA@ 401387e8     ui_main.obj
 0003:000097fc       ??_C@_0BC@GKKAPGJM@BOTH_CEILING_DROP?$AA@ 401387fc     ui_main.obj
 0003:00009814       ??_C@_0BD@LHONGOKG@BOTH_CEILING_CLING?$AA@ 40138814     ui_main.obj
 0003:0000982c       ??_C@_0L@JNPKOHDB@BOTH_SPIN1?$AA@ 4013882c     ui_main.obj
 0003:0000983c       ??_C@_0BF@ECAKIGBB@BOTH_WALL_FLIP_BACK2?$AA@ 4013883c     ui_main.obj
 0003:00009858       ??_C@_0BF@GJCHNFNC@BOTH_WALL_FLIP_BACK1?$AA@ 40138858     ui_main.obj
 0003:00009874       ??_C@_0BD@EOHNHFLF@BOTH_GETUP_FROLL_R?$AA@ 40138874     ui_main.obj
 0003:0000988c       ??_C@_0BD@JKDMEKGK@BOTH_GETUP_FROLL_L?$AA@ 4013888c     ui_main.obj
 0003:000098a4       ??_C@_0BD@GANDKCOA@BOTH_GETUP_FROLL_F?$AA@ 401388a4     ui_main.obj
 0003:000098bc       ??_C@_0BD@ELPGHOE@BOTH_GETUP_FROLL_B?$AA@ 401388bc     ui_main.obj
 0003:000098d4       ??_C@_0BD@MKDHHLEP@BOTH_GETUP_BROLL_R?$AA@ 401388d4     ui_main.obj
 0003:000098ec       ??_C@_0BD@BOHGEEJA@BOTH_GETUP_BROLL_L?$AA@ 401388ec     ui_main.obj
 0003:00009904       ??_C@_0BD@OEJJKMBK@BOTH_GETUP_BROLL_F?$AA@ 40138904     ui_main.obj
 0003:0000991c       ??_C@_0BD@IAPFGJBO@BOTH_GETUP_BROLL_B?$AA@ 4013891c     ui_main.obj
 0003:00009934       ??_C@_0BE@FMMHDLNN@BOTH_FORCE_GETUP_B6?$AA@ 40138934     ui_main.obj
 0003:0000994c       ??_C@_0BE@HHOKGIBO@BOTH_FORCE_GETUP_B5?$AA@ 4013894c     ui_main.obj
 0003:00009964       ??_C@_0BE@GOPBFJFP@BOTH_FORCE_GETUP_B4?$AA@ 40138964     ui_main.obj
 0003:0000997c       ??_C@_0BE@CBLAMPJI@BOTH_FORCE_GETUP_B3?$AA@ 4013897c     ui_main.obj
 0003:00009994       ??_C@_0BE@DIKLPONJ@BOTH_FORCE_GETUP_B2?$AA@ 40138994     ui_main.obj
 0003:000099ac       ??_C@_0BE@BDIGKNBK@BOTH_FORCE_GETUP_B1?$AA@ 401389ac     ui_main.obj
 0003:000099c4       ??_C@_0BE@DPKCFGAF@BOTH_FORCE_GETUP_F2?$AA@ 401389c4     ui_main.obj
 0003:000099dc       ??_C@_0BE@BEIPAFMG@BOTH_FORCE_GETUP_F1?$AA@ 401389dc     ui_main.obj
 0003:000099f4       ??_C@_0BF@MJANPMOM@BOTH_GETUP_CROUCH_B1?$AA@ 401389f4     ui_main.obj
 0003:00009a10       ??_C@_0BF@MOAEFEDA@BOTH_GETUP_CROUCH_F1?$AA@ 40138a10     ui_main.obj
 0003:00009a2c       ??_C@_0M@GFIFDBCE@BOTH_GETUP5?$AA@ 40138a2c     ui_main.obj
 0003:00009a3c       ??_C@_0M@HMJOAAGF@BOTH_GETUP4?$AA@ 40138a3c     ui_main.obj
 0003:00009a4c       ??_C@_0M@DDNPJGKC@BOTH_GETUP3?$AA@ 40138a4c     ui_main.obj
 0003:00009a5c       ??_C@_0M@CKMEKHOD@BOTH_GETUP2?$AA@ 40138a5c     ui_main.obj
 0003:00009a6c       ??_C@_0M@BOJPECA@BOTH_GETUP1?$AA@ 40138a6c     ui_main.obj
 0003:00009a7c       ??_C@_0BA@OGIFEPII@BOTH_KNOCKDOWN5?$AA@ 40138a7c     ui_main.obj
 0003:00009a90       ??_C@_0BA@PPJOHOMJ@BOTH_KNOCKDOWN4?$AA@ 40138a90     ui_main.obj
 0003:00009aa4       ??_C@_0BA@LANPOIAO@BOTH_KNOCKDOWN3?$AA@ 40138aa4     ui_main.obj
 0003:00009ab8       ??_C@_0BA@KJMENJEP@BOTH_KNOCKDOWN2?$AA@ 40138ab8     ui_main.obj
 0003:00009acc       ??_C@_0BA@ICOJIKIM@BOTH_KNOCKDOWN1?$AA@ 40138acc     ui_main.obj
 0003:00009ae0       ??_C@_0BE@ILAKMJOK@BOTH_WALL_FLIP_LEFT?$AA@ 40138ae0     ui_main.obj
 0003:00009af8       ??_C@_0BF@MPCPCKGE@BOTH_WALL_FLIP_RIGHT?$AA@ 40138af8     ui_main.obj
 0003:00009b14       ??_C@_0BI@ICEHPAIN@BOTH_WALL_RUN_LEFT_STOP?$AA@ 40138b14     ui_main.obj
 0003:00009b30       ??_C@_0BI@LLGHOLLN@BOTH_WALL_RUN_LEFT_FLIP?$AA@ 40138b30     ui_main.obj
 0003:00009b4c       ??_C@_0BD@FOKEEMMD@BOTH_WALL_RUN_LEFT?$AA@ 40138b4c     ui_main.obj
 0003:00009b64       ??_C@_0BJ@KEGEKGBP@BOTH_WALL_RUN_RIGHT_STOP?$AA@ 40138b64     ui_main.obj
 0003:00009b84       ??_C@_0BJ@JNEELNCP@BOTH_WALL_RUN_RIGHT_FLIP?$AA@ 40138b84     ui_main.obj
 0003:00009ba4       ??_C@_0BE@INEIBMIN@BOTH_WALL_RUN_RIGHT?$AA@ 40138ba4     ui_main.obj
 0003:00009bbc       ??_C@_0BF@JMFKBIFE@BOTH_BUTTERFLY_RIGHT?$AA@ 40138bbc     ui_main.obj
 0003:00009bd8       ??_C@_0BE@ENKLMJBI@BOTH_BUTTERFLY_LEFT?$AA@ 40138bd8     ui_main.obj
 0003:00009bf0       ??_C@_0BA@NNNINNPE@BOTH_FLIP_BACK3?$AA@ 40138bf0     ui_main.obj
 0003:00009c04       ??_C@_0BA@MEMDOMLF@BOTH_FLIP_BACK2?$AA@ 40138c04     ui_main.obj
 0003:00009c18       ??_C@_0BA@OPOOLPHG@BOTH_FLIP_BACK1?$AA@ 40138c18     ui_main.obj
 0003:00009c2c       ??_C@_0P@JBLCLJDK@BOTH_FLIP_LEFT?$AA@ 40138c2c     ui_main.obj
 0003:00009c40       ??_C@_0BF@NLFLOFGE@BOTH_CARTWHEEL_RIGHT?$AA@ 40138c40     ui_main.obj
 0003:00009c5c       ??_C@_0BE@POJJIGPG@BOTH_CARTWHEEL_LEFT?$AA@ 40138c5c     ui_main.obj
 0003:00009c74       ??_C@_0BB@HOMELNKD@BOTH_ARIAL_RIGHT?$AA@ 40138c74     ui_main.obj
 0003:00009c88       ??_C@_0BA@GLHECKNB@BOTH_ARIAL_LEFT?$AA@ 40138c88     ui_main.obj
 0003:00009c9c       ??_C@_0BD@JOGFDMEG@BOTH_VICTORY_STAFF?$AA@ 40138c9c     ui_main.obj
 0003:00009cb4       ??_C@_0BC@OIFMFNP@BOTH_VICTORY_DUAL?$AA@ 40138cb4     ui_main.obj
 0003:00009ccc       ??_C@_0BE@HEECKLDL@BOTH_VICTORY_STRONG?$AA@ 40138ccc     ui_main.obj
 0003:00009ce4       ??_C@_0BE@KLHOAEHD@BOTH_VICTORY_MEDIUM?$AA@ 40138ce4     ui_main.obj
 0003:00009cfc       ??_C@_0BC@DGIHLJDA@BOTH_VICTORY_FAST?$AA@ 40138cfc     ui_main.obj
 0003:00009d14       ??_C@_0BD@PAPJANE@BOTH_SHOWOFF_STAFF?$AA@ 40138d14     ui_main.obj
 0003:00009d2c       ??_C@_0BC@EFMAJB@BOTH_SHOWOFF_DUAL?$AA@ 40138d2c     ui_main.obj
 0003:00009d44       ??_C@_0BE@GKNCDDPP@BOTH_SHOWOFF_STRONG?$AA@ 40138d44     ui_main.obj
 0003:00009d5c       ??_C@_0BE@LFOOJMLH@BOTH_SHOWOFF_MEDIUM?$AA@ 40138d5c     ui_main.obj
 0003:00009d74       ??_C@_0BC@DIEHLMHO@BOTH_SHOWOFF_FAST?$AA@ 40138d74     ui_main.obj
 0003:00009d8c       ??_C@_0BC@DILNBIJM@BOTH_MEDITATE_END?$AA@ 40138d8c     ui_main.obj
 0003:00009da4       ??_C@_0O@NBLEPMIO@BOTH_MEDITATE?$AA@ 40138da4     ui_main.obj
 0003:00009db4       ??_C@_08CINMJMPG@BOTH_BOW?$AA@ 40138db4     ui_main.obj
 0003:00009dc0       ??_C@_0BB@EBJHHEMP@BOTH_ENGAGETAUNT?$AA@ 40138dc0     ui_main.obj
 0003:00009dd4       ??_C@_0BC@GDJJMPG@BOTH_DODGE_HOLD_R?$AA@ 40138dd4     ui_main.obj
 0003:00009dec       ??_C@_0BC@NCHIKDCJ@BOTH_DODGE_HOLD_L?$AA@ 40138dec     ui_main.obj
 0003:00009e04       ??_C@_0BD@MAHDPCBD@BOTH_DODGE_HOLD_BR?$AA@ 40138e04     ui_main.obj
 0003:00009e1c       ??_C@_0BD@BEDCMNMM@BOTH_DODGE_HOLD_BL?$AA@ 40138e1c     ui_main.obj
 0003:00009e34       ??_C@_0BD@MHHKFKMP@BOTH_DODGE_HOLD_FR?$AA@ 40138e34     ui_main.obj
 0003:00009e4c       ??_C@_0BD@BDDLGFBA@BOTH_DODGE_HOLD_FL?$AA@ 40138e4c     ui_main.obj
 0003:00009e64       ??_C@_0N@KFGFCJLJ@BOTH_DODGE_R?$AA@ 40138e64     ui_main.obj
 0003:00009e74       ??_C@_0N@HBCEBGGG@BOTH_DODGE_L?$AA@ 40138e74     ui_main.obj
 0003:00009e84       ??_C@_0O@CGLDPCKH@BOTH_DODGE_BR?$AA@ 40138e84     ui_main.obj
 0003:00009e94       ??_C@_0O@PCPCMNHI@BOTH_DODGE_BL?$AA@ 40138e94     ui_main.obj
 0003:00009ea4       ??_C@_0O@CBLKFKHL@BOTH_DODGE_FR?$AA@ 40138ea4     ui_main.obj
 0003:00009eb4       ??_C@_0O@PFPLGFKE@BOTH_DODGE_FL?$AA@ 40138eb4     ui_main.obj
 0003:00009ec4       ??_C@_0L@GIHOPMAM@BOTH_HOP_R?$AA@ 40138ec4     ui_main.obj
 0003:00009ed4       ??_C@_0L@LMDPMDND@BOTH_HOP_L?$AA@ 40138ed4     ui_main.obj
 0003:00009ee4       ??_C@_0L@CCLMOOFN@BOTH_HOP_B?$AA@ 40138ee4     ui_main.obj
 0003:00009ef4       ??_C@_0L@EGNACLFJ@BOTH_HOP_F?$AA@ 40138ef4     ui_main.obj
 0003:00009f04       ??_C@_0M@KNJJNPCA@BOTH_ROLL_R?$AA@ 40138f04     ui_main.obj
 0003:00009f14       ??_C@_0M@HJNIOAPP@BOTH_ROLL_L?$AA@ 40138f14     ui_main.obj
 0003:00009f24       ??_C@_0M@OHFLMNHB@BOTH_ROLL_B?$AA@ 40138f24     ui_main.obj
 0003:00009f34       ??_C@_0M@IDDHAIHF@BOTH_ROLL_F?$AA@ 40138f34     ui_main.obj
 0003:00009f44       ??_C@_0M@GKLDHCAE@BOTH_FLIP_R?$AA@ 40138f44     ui_main.obj
 0003:00009f54       ??_C@_0M@LOPCENNL@BOTH_FLIP_L?$AA@ 40138f54     ui_main.obj
 0003:00009f64       ??_C@_0M@CAHBGAFF@BOTH_FLIP_B?$AA@ 40138f64     ui_main.obj
 0003:00009f74       ??_C@_0M@EEBNKFFB@BOTH_FLIP_F?$AA@ 40138f74     ui_main.obj
 0003:00009f84       ??_C@_0BF@GPIHFNCP@BOTH_FORCELANDRIGHT1?$AA@ 40138f84     ui_main.obj
 0003:00009fa0       ??_C@_0BG@OPKMFNMD@BOTH_FORCEINAIRRIGHT1?$AA@ 40138fa0     ui_main.obj
 0003:00009fbc       ??_C@_0BF@GIALLFOK@BOTH_FORCEJUMPRIGHT1?$AA@ 40138fbc     ui_main.obj
 0003:00009fd8       ??_C@_0BE@CPNCOCJF@BOTH_FORCELANDLEFT1?$AA@ 40138fd8     ui_main.obj
 0003:00009ff0       ??_C@_0BF@GBLFMFAA@BOTH_FORCEINAIRLEFT1?$AA@ 40138ff0     ui_main.obj
 0003:0000a00c       ??_C@_0BE@MOPODOJB@BOTH_FORCEJUMPLEFT1?$AA@ 4013900c     ui_main.obj
 0003:0000a024       ??_C@_0BE@MAPMDBFK@BOTH_FORCELANDBACK1?$AA@ 40139024     ui_main.obj
 0003:0000a03c       ??_C@_0BF@IOJLBGMP@BOTH_FORCEINAIRBACK1?$AA@ 4013903c     ui_main.obj
 0003:0000a058       ??_C@_0BE@CBNAONFO@BOTH_FORCEJUMPBACK1?$AA@ 40139058     ui_main.obj
 0003:0000a070       ??_C@_0BA@NIOKNDAB@BOTH_FORCELAND1?$AA@ 40139070     ui_main.obj
 0003:0000a084       ??_C@_0BB@CIEHHKPA@BOTH_FORCEINAIR1?$AA@ 40139084     ui_main.obj
 0003:0000a098       ??_C@_0BA@JCEJKFBM@BOTH_FORCEJUMP1?$AA@ 40139098     ui_main.obj
 0003:0000a0ac       ??_C@_0BA@CAAEDJLF@BOTH_LANDRIGHT1?$AA@ 401390ac     ui_main.obj
 0003:0000a0c0       ??_C@_0BB@PPDJKEPN@BOTH_INAIRRIGHT1?$AA@ 401390c0     ui_main.obj
 0003:0000a0d4       ??_C@_0BA@CHIINBHA@BOTH_JUMPRIGHT1?$AA@ 401390d4     ui_main.obj
 0003:0000a0e8       ??_C@_0P@HDEECKDG@BOTH_LANDLEFT1?$AA@ 401390e8     ui_main.obj
 0003:0000a0fc       ??_C@_0BA@CODGKBJK@BOTH_INAIRLEFT1?$AA@ 401390fc     ui_main.obj
 0003:0000a110       ??_C@_0P@JCGIPGDC@BOTH_JUMPLEFT1?$AA@ 40139110     ui_main.obj
 0003:0000a124       ??_C@_0P@JMGKPJPJ@BOTH_LANDBACK1?$AA@ 40139124     ui_main.obj
 0003:0000a138       ??_C@_0BA@MBBIHCFF@BOTH_INAIRBACK1?$AA@ 40139138     ui_main.obj
 0003:0000a14c       ??_C@_0P@HNEGCFPN@BOTH_JUMPBACK1?$AA@ 4013914c     ui_main.obj
 0003:0000a160       ??_C@_0L@IJJHAHOB@BOTH_LAND2?$AA@ 40139160     ui_main.obj
 0003:0000a170       ??_C@_0L@KCLKFECC@BOTH_LAND1?$AA@ 40139170     ui_main.obj
 0003:0000a180       ??_C@_0M@IKFKFLAF@BOTH_INAIR1?$AA@ 40139180     ui_main.obj
 0003:0000a190       ??_C@_0L@OIBJCCDP@BOTH_JUMP1?$AA@ 40139190     ui_main.obj
 0003:0000a1a0       ??_C@_0O@GFMMDEIN@BOTH_RUNBACK2?$AA@ 401391a0     ui_main.obj
 0003:0000a1b0       ??_C@_0O@EOOBGHEO@BOTH_RUNBACK1?$AA@ 401391b0     ui_main.obj
 0003:0000a1c0       ??_C@_0P@NMGEKHLB@BOTH_WALKBACK2?$AA@ 401391c0     ui_main.obj
 0003:0000a1d4       ??_C@_0P@PHEJPEHC@BOTH_WALKBACK1?$AA@ 401391d4     ui_main.obj
 0003:0000a1e8       ??_C@_0BB@PGPEJHBN@BOTH_TURNCROUCH1?$AA@ 401391e8     ui_main.obj
 0003:0000a1fc       ??_C@_0BA@KBOEGPN@BOTH_TURNSTAND5?$AA@ 401391fc     ui_main.obj
 0003:0000a210       ??_C@_0BA@BDAFHHLM@BOTH_TURNSTAND4?$AA@ 40139210     ui_main.obj
 0003:0000a224       ??_C@_0BA@FMEEOBHL@BOTH_TURNSTAND3?$AA@ 40139224     ui_main.obj
 0003:0000a238       ??_C@_0BA@EFFPNADK@BOTH_TURNSTAND2?$AA@ 40139238     ui_main.obj
 0003:0000a24c       ??_C@_0BA@GOHCIDPJ@BOTH_TURNSTAND1?$AA@ 4013924c     ui_main.obj
 0003:0000a260       ??_C@_0BB@NDKEEJJD@BOTH_TURN_RIGHT1?$AA@ 40139260     ui_main.obj
 0003:0000a274       ??_C@_0BA@GKEFEECE@BOTH_TURN_LEFT1?$AA@ 40139274     ui_main.obj
 0003:0000a288       ??_C@_0BG@OGEKFCND@BOTH_RUNSTRAFE_RIGHT1?$AA@ 40139288     ui_main.obj
 0003:0000a2a4       ??_C@_0BF@DBPGPOAM@BOTH_RUNSTRAFE_LEFT1?$AA@ 401392a4     ui_main.obj
 0003:0000a2c0       ??_C@_0BD@LFCECKKK@BOTH_STRAFE_RIGHT1?$AA@ 401392c0     ui_main.obj
 0003:0000a2d8       ??_C@_0BC@OMBNLHPO@BOTH_STRAFE_LEFT1?$AA@ 401392d8     ui_main.obj
 0003:0000a2f0       ??_C@_0BC@KOJINEFM@BOTH_RUNBACK_DUAL?$AA@ 401392f0     ui_main.obj
 0003:0000a308       ??_C@_0O@NLDNHDFF@BOTH_RUN_DUAL?$AA@ 40139308     ui_main.obj
 0003:0000a318       ??_C@_0BD@OKHEPDMN@BOTH_RUNBACK_STAFF?$AA@ 40139318     ui_main.obj
 0003:0000a330       ??_C@_0P@JDNNOOMO@BOTH_RUN_STAFF?$AA@ 40139330     ui_main.obj
 0003:0000a344       ??_C@_09KDGPMAME@BOTH_RUN4?$AA@ 40139344     ui_main.obj
 0003:0000a350       ??_C@_0BA@DGLFAIMM@BOTH_RUN2TORUN1?$AA@ 40139350     ui_main.obj
 0003:0000a364       ??_C@_0BA@JDBHFMOM@BOTH_RUN1TORUN2?$AA@ 40139364     ui_main.obj
 0003:0000a378       ??_C@_09PFDFGHEC@BOTH_RUN2?$AA@ 40139378     ui_main.obj
 0003:0000a384       ??_C@_0O@GPFGEBNP@BOTH_RUN1STOP?$AA@ 40139384     ui_main.obj
 0003:0000a394       ??_C@_0P@CLIPKCAJ@BOTH_RUN1START?$AA@ 40139394     ui_main.obj
 0003:0000a3a8       ??_C@_09NOBIDEIB@BOTH_RUN1?$AA@ 401393a8     ui_main.obj
 0003:0000a3b4       ??_C@_0L@DMKEIOEK@BOTH_WALK7?$AA@ 401393b4     ui_main.obj
 0003:0000a3c4       ??_C@_0L@CFLPLPAL@BOTH_WALK6?$AA@ 401393c4     ui_main.obj
 0003:0000a3d4       ??_C@_0L@OJCOMMI@BOTH_WALK5?$AA@ 401393d4     ui_main.obj
 0003:0000a3e4       ??_C@_0BD@DPFDKICF@BOTH_WALKBACK_DUAL?$AA@ 401393e4     ui_main.obj
 0003:0000a3fc       ??_C@_0P@GCJFOAGJ@BOTH_WALK_DUAL?$AA@ 401393fc     ui_main.obj
 0003:0000a410       ??_C@_0BE@MDDMPBCJ@BOTH_WALKBACK_STAFF?$AA@ 40139410     ui_main.obj
 0003:0000a428       ??_C@_0BA@LMALDKNK@BOTH_WALK_STAFF?$AA@ 40139428     ui_main.obj
 0003:0000a43c       ??_C@_0L@EBNDHKAP@BOTH_WALK2?$AA@ 4013943c     ui_main.obj
 0003:0000a44c       ??_C@_0L@GKPOCJMM@BOTH_WALK1?$AA@ 4013944c     ui_main.obj
 0003:0000a45c       ??_C@_0P@OGCNLGGI@BOTH_KNEES2TO1?$AA@ 4013945c     ui_main.obj
 0003:0000a470       ??_C@_0M@IIHMGKKA@BOTH_KNEES2?$AA@ 40139470     ui_main.obj
 0003:0000a480       ??_C@_0M@KDFBDJGD@BOTH_KNEES1?$AA@ 40139480     ui_main.obj
 0003:0000a490       ??_C@_0BD@FOKLKMPB@BOTH_DEATH14_SITUP?$AA@ 40139490     ui_main.obj
 0003:0000a4a8       ??_C@_0BE@KHOKHMOE@BOTH_DEATH14_UNGRIP?$AA@ 401394a8     ui_main.obj
 0003:0000a4c0       ??_C@_0BB@KCBPOOGE@BOTH_WINGS_CLOSE?$AA@ 401394c0     ui_main.obj
 0003:0000a4d4       ??_C@_0BA@FDONEPNA@BOTH_WINGS_OPEN?$AA@ 401394d4     ui_main.obj
 0003:0000a4e8       ??_C@_0BB@LDEBMNOM@BOTH_GEARS_CLOSE?$AA@ 401394e8     ui_main.obj
 0003:0000a4fc       ??_C@_0BA@MMFJLAL@BOTH_GEARS_OPEN?$AA@ 401394fc     ui_main.obj
 0003:0000a510       ??_C@_0O@GFAOOOBE@BOTH_VT_ATF_G?$AA@ 40139510     ui_main.obj
 0003:0000a520       ??_C@_0O@KLDAOHA@BOTH_VT_ATL_G?$AA@ 40139520     ui_main.obj
 0003:0000a530       ??_C@_0O@LKHFCONM@BOTH_VT_ATR_G?$AA@ 40139530     ui_main.obj
 0003:0000a540       ??_C@_0BD@KBPDPJPM@BOTH_VT_ATL_TO_R_S?$AA@ 40139540     ui_main.obj
 0003:0000a558       ??_C@_0BD@HFDHEALD@BOTH_VT_ATR_TO_L_S?$AA@ 40139558     ui_main.obj
 0003:0000a570       ??_C@_0O@JENLPJIJ@BOTH_VT_ATR_S?$AA@ 40139570     ui_main.obj
 0003:0000a580       ??_C@_0O@CEBNNJCF@BOTH_VT_ATL_S?$AA@ 40139580     ui_main.obj
 0003:0000a590       ??_C@_0P@JDHAFDKN@BOTH_VT_IDLE_T?$AA@ 40139590     ui_main.obj
 0003:0000a5a4       ??_C@_0P@PCJPBCDP@BOTH_VT_IDLE_G?$AA@ 401395a4     ui_main.obj
 0003:0000a5b8       ??_C@_0P@NMDBMFGK@BOTH_VT_IDLE_S?$AA@ 401395b8     ui_main.obj
 0003:0000a5cc       ??_C@_0O@OONEODEJ@BOTH_VT_IDLE1?$AA@ 401395cc     ui_main.obj
 0003:0000a5dc       ??_C@_0N@ILFMGFDI@BOTH_VT_IDLE?$AA@ 401395dc     ui_main.obj
 0003:0000a5ec       ??_C@_0BA@CFDGIGFF@BOTH_VT_IDLE_SR?$AA@ 401395ec     ui_main.obj
 0003:0000a600       ??_C@_0BA@PBHHLJIK@BOTH_VT_IDLE_SL?$AA@ 40139600     ui_main.obj
 0003:0000a614       ??_C@_0O@ICJCOGP@BOTH_VT_TURBO?$AA@ 40139614     ui_main.obj
 0003:0000a624       ??_C@_0N@GOPNPPFF@BOTH_VT_LAND?$AA@ 40139624     ui_main.obj
 0003:0000a634       ??_C@_0N@IBPGAOGA@BOTH_VT_BUCK?$AA@ 40139634     ui_main.obj
 0003:0000a644       ??_C@_0O@IAAOOPLJ@BOTH_VT_STAND?$AA@ 40139644     ui_main.obj
 0003:0000a654       ??_C@_0P@CICNDPJE@BOTH_VT_DEATH1?$AA@ 40139654     ui_main.obj
 0003:0000a668       ??_C@_0O@DJGGCALJ@BOTH_VT_PAIN1?$AA@ 40139668     ui_main.obj
 0003:0000a678       ??_C@_0M@KDHKMBFE@BOTH_VT_ATB?$AA@ 40139678     ui_main.obj
 0003:0000a688       ??_C@_0M@PNEGODCG@BOTH_VT_AIR?$AA@ 40139688     ui_main.obj
 0003:0000a698       ??_C@_0P@KFJEKMCA@BOTH_VT_SLIDEF?$AA@ 40139698     ui_main.obj
 0003:0000a6ac       ??_C@_0BC@GNCPOJGJ@BOTH_VT_RUN_FWD_R?$AA@ 401396ac     ui_main.obj
 0003:0000a6c4       ??_C@_0BC@LJGONGLG@BOTH_VT_RUN_FWD_L?$AA@ 401396c4     ui_main.obj
 0003:0000a6dc       ??_C@_0BA@CMHLNAGB@BOTH_VT_RUN_REV?$AA@ 401396dc     ui_main.obj
 0003:0000a6f0       ??_C@_0BA@JEFGBHGE@BOTH_VT_RUN_FWD?$AA@ 401396f0     ui_main.obj
 0003:0000a704       ??_C@_0BD@KHNHPFPI@BOTH_VT_WALK_FWD_R?$AA@ 40139704     ui_main.obj
 0003:0000a71c       ??_C@_0BD@HDJGMKCH@BOTH_VT_WALK_FWD_L?$AA@ 4013971c     ui_main.obj
 0003:0000a734       ??_C@_0BB@EAPIENEI@BOTH_VT_WALK_REV?$AA@ 40139734     ui_main.obj
 0003:0000a748       ??_C@_0BB@PINFIKEN@BOTH_VT_WALK_FWD?$AA@ 40139748     ui_main.obj
 0003:0000a75c       ??_C@_0BD@OJHHNNHG@BOTH_VT_DISMOUNT_R?$AA@ 4013975c     ui_main.obj
 0003:0000a774       ??_C@_0BD@DNDGOCKJ@BOTH_VT_DISMOUNT_L?$AA@ 40139774     ui_main.obj
 0003:0000a78c       ??_C@_0BB@ICMLAFCL@BOTH_VT_DISMOUNT?$AA@ 4013978c     ui_main.obj
 0003:0000a7a0       ??_C@_0BA@GEKLNCCD@BOTH_VT_MOUNT_B?$AA@ 401397a0     ui_main.obj
 0003:0000a7b4       ??_C@_0BA@COGJMAHC@BOTH_VT_MOUNT_R?$AA@ 401397b4     ui_main.obj
 0003:0000a7c8       ??_C@_0BA@PKCIPPKN@BOTH_VT_MOUNT_L?$AA@ 401397c8     ui_main.obj
 0003:0000a7dc       ??_C@_0O@DDKDCJKA@BOTH_VS_PAIN1?$AA@ 401397dc     ui_main.obj
 0003:0000a7ec       ??_C@_0O@GPMLOHAN@BOTH_VS_ATF_G?$AA@ 401397ec     ui_main.obj
 0003:0000a7fc       ??_C@_0O@HGAHGJ@BOTH_VS_ATL_G?$AA@ 401397fc     ui_main.obj
 0003:0000a80c       ??_C@_0O@LALACHMF@BOTH_VS_ATR_G?$AA@ 4013980c     ui_main.obj
 0003:0000a81c       ??_C@_0BD@NMIAPPKE@BOTH_VS_ATL_TO_R_S?$AA@ 4013981c     ui_main.obj
 0003:0000a834       ??_C@_0BD@IEEEGOL@BOTH_VS_ATR_TO_L_S?$AA@ 40139834     ui_main.obj
 0003:0000a84c       ??_C@_0O@JOBOPAJA@BOTH_VS_ATR_S?$AA@ 4013984c     ui_main.obj
 0003:0000a85c       ??_C@_0O@CONINADM@BOTH_VS_ATL_S?$AA@ 4013985c     ui_main.obj
 0003:0000a86c       ??_C@_0BB@IEDLHMEE@BOTH_VS_LEANR_SR?$AA@ 4013986c     ui_main.obj
 0003:0000a880       ??_C@_0BB@FAHKEDJL@BOTH_VS_LEANR_SL?$AA@ 40139880     ui_main.obj
 0003:0000a894       ??_C@_0BA@COPGHNJO@BOTH_VS_LEANR_G?$AA@ 40139894     ui_main.obj
 0003:0000a8a8       ??_C@_0O@DJFDFNAL@BOTH_VS_LEANR?$AA@ 401398a8     ui_main.obj
 0003:0000a8b8       ??_C@_0BB@FLOLFFKH@BOTH_VS_LEANL_SR?$AA@ 401398b8     ui_main.obj
 0003:0000a8cc       ??_C@_0BB@IPKKGKHI@BOTH_VS_LEANL_SL?$AA@ 401398cc     ui_main.obj
 0003:0000a8e0       ??_C@_0BA@JODAFNDC@BOTH_VS_LEANL_G?$AA@ 401398e0     ui_main.obj
 0003:0000a8f4       ??_C@_0O@ONBCGCNE@BOTH_VS_LEANL?$AA@ 401398f4     ui_main.obj
 0003:0000a904       ??_C@_0BA@MHOKJNCM@BOTH_VS_IDLE_SR?$AA@ 40139904     ui_main.obj
 0003:0000a918       ??_C@_0BA@BDKLKCPD@BOTH_VS_IDLE_SL?$AA@ 40139918     ui_main.obj
 0003:0000a92c       ??_C@_0P@JGPOHPPG@BOTH_VS_IDLE_G?$AA@ 4013992c     ui_main.obj
 0003:0000a940       ??_C@_0N@EOPLFLLG@BOTH_VS_IDLE?$AA@ 40139940     ui_main.obj
 0003:0000a950       ??_C@_0BA@KNJKDEFE@BOTH_VS_LAND_SR?$AA@ 40139950     ui_main.obj
 0003:0000a964       ??_C@_0BA@HJNLALIL@BOTH_VS_LAND_SL?$AA@ 40139964     ui_main.obj
 0003:0000a978       ??_C@_0P@FGHHPFOH@BOTH_VS_LAND_G?$AA@ 40139978     ui_main.obj
 0003:0000a98c       ??_C@_0N@KLFKMBNL@BOTH_VS_LAND?$AA@ 4013998c     ui_main.obj
 0003:0000a99c       ??_C@_0P@MHFEKDCH@BOTH_VS_AIR_SR?$AA@ 4013999c     ui_main.obj
 0003:0000a9b0       ??_C@_0P@BDBFJMPI@BOTH_VS_AIR_SL?$AA@ 401399b0     ui_main.obj
 0003:0000a9c4       ??_C@_0O@CIMAHEPG@BOTH_VS_AIR_G?$AA@ 401399c4     ui_main.obj
 0003:0000a9d4       ??_C@_0M@OAEDNDJO@BOTH_VS_AIR?$AA@ 401399d4     ui_main.obj
 0003:0000a9e4       ??_C@_0M@MPJJBHIP@BOTH_VS_REV?$AA@ 401399e4     ui_main.obj
 0003:0000a9f4       ??_C@_0O@COMCHHG@BOTH_VS_TURBO?$AA@ 401399f4     ui_main.obj
 0003:0000aa04       ??_C@_0BC@FMBEBFOC@BOTH_VS_LOOKRIGHT?$AA@ 40139a04     ui_main.obj
 0003:0000aa1c       ??_C@_0BB@LJMKNCGH@BOTH_VS_LOOKLEFT?$AA@ 40139a1c     ui_main.obj
 0003:0000aa30       ??_C@_0BF@IKPLNBPC@BOTH_VS_MOUNTTHROWEE?$AA@ 40139a30     ui_main.obj
 0003:0000aa4c       ??_C@_0BF@JOMJHDMC@BOTH_VS_MOUNTTHROW_R?$AA@ 40139a4c     ui_main.obj
 0003:0000aa68       ??_C@_0BF@EKIIEMBN@BOTH_VS_MOUNTTHROW_L?$AA@ 40139a68     ui_main.obj
 0003:0000aa84       ??_C@_0BD@HKDNANFN@BOTH_VS_MOUNTTHROW?$AA@ 40139a84     ui_main.obj
 0003:0000aa9c       ??_C@_0BE@CFBMPALJ@BOTH_VS_MOUNTJUMP_L?$AA@ 40139a9c     ui_main.obj
 0003:0000aab4       ??_C@_0BD@JEAENLCO@BOTH_VS_DISMOUNT_R?$AA@ 40139ab4     ui_main.obj
 0003:0000aacc       ??_C@_0BA@MMLFNLAL@BOTH_VS_MOUNT_R?$AA@ 40139acc     ui_main.obj
 0003:0000aae0       ??_C@_0BD@EAEFOEPB@BOTH_VS_DISMOUNT_L?$AA@ 40139ae0     ui_main.obj
 0003:0000aaf8       ??_C@_0BA@BIPEOENE@BOTH_VS_MOUNT_L?$AA@ 40139af8     ui_main.obj
 0003:0000ab0c       ??_C@_0N@NEOMJHMD@BOTH_GUNSIT1?$AA@ 40139b0c     ui_main.obj
 0003:0000ab1c       ??_C@_0P@FBKMEIKP@BOTH_UNCROUCH4?$AA@ 40139b1c     ui_main.obj
 0003:0000ab30       ??_C@_0N@NGOLMPIH@BOTH_CROUCH4?$AA@ 40139b30     ui_main.obj
 0003:0000ab40       ??_C@_0P@BOONNOGI@BOTH_UNCROUCH3?$AA@ 40139b40     ui_main.obj
 0003:0000ab54       ??_C@_0N@JJKKFJEA@BOTH_CROUCH3?$AA@ 40139b54     ui_main.obj
 0003:0000ab64       ??_C@_0BF@OBDEHHPH@BOTH_CROUCH2TOSTAND1?$AA@ 40139b64     ui_main.obj
 0003:0000ab80       ??_C@_0P@CMNLLMOK@BOTH_UNCROUCH1?$AA@ 40139b80     ui_main.obj
 0003:0000ab94       ??_C@_0BF@IKEOFDBF@BOTH_CROUCH1WALKBACK?$AA@ 40139b94     ui_main.obj
 0003:0000abb0       ??_C@_0BB@KLBMFNGD@BOTH_CROUCH1WALK?$AA@ 40139bb0     ui_main.obj
 0003:0000abc4       ??_C@_0BB@NNJBKJDM@BOTH_CROUCH1IDLE?$AA@ 40139bc4     ui_main.obj
 0003:0000abd8       ??_C@_0N@KLJMDLMC@BOTH_CROUCH1?$AA@ 40139bd8     ui_main.obj
 0003:0000abe8       ??_C@_0BC@BHAOLAOM@BOTH_SIT3TOSTAND5?$AA@ 40139be8     ui_main.obj
 0003:0000ac00       ??_C@_0BA@LICOGNPB@BOTH_SIT2TOSIT4?$AA@ 40139c00     ui_main.obj
 0003:0000ac14       ??_C@_0BC@LANJPAEM@BOTH_STAND5TOSIT2?$AA@ 40139c14     ui_main.obj
 0003:0000ac2c       ??_C@_0BC@PIMMNLNC@BOTH_SIT2TOSTAND5?$AA@ 40139c2c     ui_main.obj
 0003:0000ac44       ??_C@_09NKDALBDC@BOTH_SIT3?$AA@ 40139c44     ui_main.obj
 0003:0000ac50       ??_C@_09MDCLIAHD@BOTH_SIT2?$AA@ 40139c50     ui_main.obj
 0003:0000ac5c       ??_C@_09OIAGNDLA@BOTH_SIT1?$AA@ 40139c5c     ui_main.obj
 0003:0000ac68       ??_C@_0BF@IPAEPPNA@BOTH_SABERTHROW2STOP?$AA@ 40139c68     ui_main.obj
 0003:0000ac84       ??_C@_0BG@LLNAONCG@BOTH_SABERTHROW2START?$AA@ 40139c84     ui_main.obj
 0003:0000aca0       ??_C@_0BF@JJAINHO@BOTH_SABERTHROW1STOP?$AA@ 40139ca0     ui_main.obj
 0003:0000acbc       ??_C@_0BG@IKDIPHLL@BOTH_SABERTHROW1START?$AA@ 40139cbc     ui_main.obj
 0003:0000acd8       ??_C@_0BB@OHEDMGHA@BOTH_HUGGEESTOP1?$AA@ 40139cd8     ui_main.obj
 0003:0000acec       ??_C@_0N@OIJBJDBK@BOTH_HUGGEE1?$AA@ 40139cec     ui_main.obj
 0003:0000acfc       ??_C@_0BB@EFDKGEDA@BOTH_HUGGERSTOP1?$AA@ 40139cfc     ui_main.obj
 0003:0000ad10       ??_C@_0N@PBPICGOP@BOTH_HUGGER1?$AA@ 40139d10     ui_main.obj
 0003:0000ad20       ??_C@_0BC@DNFCOFMA@BOTH_SABERKILLEE1?$AA@ 40139d20     ui_main.obj
 0003:0000ad38       ??_C@_0BC@CEDLFADF@BOTH_SABERKILLER1?$AA@ 40139d38     ui_main.obj
 0003:0000ad50       ??_C@_0BE@LPKJJENM@BOTH_REACHFORSABER1?$AA@ 40139d50     ui_main.obj
 0003:0000ad68       ??_C@_0BF@HGBIDKLM@BOTH_SILENCEGESTURE1?$AA@ 40139d68     ui_main.obj
 0003:0000ad84       ??_C@_0BE@EEMNDGPF@BOTH_STEADYSELF1END?$AA@ 40139d84     ui_main.obj
 0003:0000ad9c       ??_C@_0BB@BHOCMBMP@BOTH_STEADYSELF1?$AA@ 40139d9c     ui_main.obj
 0003:0000adb0       ??_C@_0O@KHABGCAK@BOTH_COME_ON1?$AA@ 40139db0     ui_main.obj
 0003:0000adc0       ??_C@_0BA@MHPGDDPE@BOTH_REACH1STOP?$AA@ 40139dc0     ui_main.obj
 0003:0000add4       ??_C@_0BB@IHJLPLDL@BOTH_REACH1START?$AA@ 40139dd4     ui_main.obj
 0003:0000ade8       ??_C@_0BH@KHIEGBCO@BOTH_SIT2HEADTILTLSTOP?$AA@ 40139de8     ui_main.obj
 0003:0000ae04       ??_C@_0BI@OBPNLCKD@BOTH_SIT2HEADTILTLSTART?$AA@ 40139e04     ui_main.obj
 0003:0000ae20       ??_C@_0P@DFINNNBF@BOTH_HEADSHAKE?$AA@ 40139e20     ui_main.obj
 0003:0000ae34       ??_C@_0N@JGGIBJHN@BOTH_HEADNOD?$AA@ 40139e34     ui_main.obj
 0003:0000ae44       ??_C@_0BD@CBEOFNED@BOTH_HEADTILTRSTOP?$AA@ 40139e44     ui_main.obj
 0003:0000ae5c       ??_C@_0BE@NCHIGFHK@BOTH_HEADTILTRSTART?$AA@ 40139e5c     ui_main.obj
 0003:0000ae74       ??_C@_0BD@BIJCDOKI@BOTH_HEADTILTLSTOP?$AA@ 40139e74     ui_main.obj
 0003:0000ae8c       ??_C@_0BE@OFJJICOJ@BOTH_HEADTILTLSTART?$AA@ 40139e8c     ui_main.obj
 0003:0000aea4       ??_C@_0BC@HDFGDEIC@BOTH_TALKGESTURE1?$AA@ 40139ea4     ui_main.obj
 0003:0000aebc       ??_C@_0BD@KGADCINA@BOTH_TALKCOMM1STOP?$AA@ 40139ebc     ui_main.obj
 0003:0000aed4       ??_C@_0P@IMEACJDE@BOTH_TALKCOMM1?$AA@ 40139ed4     ui_main.obj
 0003:0000aee8       ??_C@_0BE@LLPJOKPB@BOTH_TALKCOMM1START?$AA@ 40139ee8     ui_main.obj
 0003:0000af00       ??_C@_0L@MHEHAIKB@BOTH_TALK2?$AA@ 40139f00     ui_main.obj
 0003:0000af10       ??_C@_0L@OMGKFLGC@BOTH_TALK1?$AA@ 40139f10     ui_main.obj
 0003:0000af20       ??_C@_0BE@OAMCANFF@BOTH_WALK1TALKCOMM1?$AA@ 40139f20     ui_main.obj
 0003:0000af38       ??_C@_0O@FLPNDCKC@BOTH_GESTURE2?$AA@ 40139f38     ui_main.obj
 0003:0000af48       ??_C@_0O@HANAGBGB@BOTH_GESTURE1?$AA@ 40139f48     ui_main.obj
 0003:0000af58       ??_C@_0BB@LLGPJFGM@BOTH_GUARD_IDLE1?$AA@ 40139f58     ui_main.obj
 0003:0000af6c       ??_C@_0BH@IIALJNIM@BOTH_GUARD_LOOKAROUND1?$AA@ 40139f6c     ui_main.obj
 0003:0000af88       ??_C@_0BJ@PHBEHMKF@BOTH_CONSOLE2HOLDCOMSTOP?$AA@ 40139f88     ui_main.obj
 0003:0000afa8       ??_C@_0BK@JLMHHIBG@BOTH_CONSOLE2HOLDCOMSTART?$AA@ 40139fa8     ui_main.obj
 0003:0000afc8       ??_C@_0BC@JKGILGAP@BOTH_CONSOLE2STOP?$AA@ 40139fc8     ui_main.obj
 0003:0000afe0       ??_C@_0O@BGELBNFP@BOTH_CONSOLE2?$AA@ 40139fe0     ui_main.obj
 0003:0000aff0       ??_C@_0BD@KNKJEOCK@BOTH_CONSOLE2START?$AA@ 40139ff0     ui_main.obj
 0003:0000b008       ??_C@_0BC@BMPMMEKB@BOTH_CONSOLE1STOP?$AA@ 4013a008     ui_main.obj
 0003:0000b020       ??_C@_0O@DNGGEOJM@BOTH_CONSOLE1?$AA@ 4013a020     ui_main.obj
 0003:0000b030       ??_C@_0BD@JMEBFELH@BOTH_CONSOLE1START?$AA@ 4013a030     ui_main.obj
 0003:0000b048       ??_C@_0BL@HDGAEFLK@BOTH_STAND5LOOK180LEFTSTOP?$AA@ 4013a048     ui_main.obj
 0003:0000b068       ??_C@_0BM@BGELABNK@BOTH_STAND5LOOK180LEFTSTART?$AA@ 4013a068     ui_main.obj
 0003:0000b08c       ??_C@_0BJ@HFICOBLF@BOTH_STAND5TURNRIGHTSTOP?$AA@ 4013a08c     ui_main.obj
 0003:0000b0ac       ??_C@_0BK@IGPCPOOP@BOTH_STAND5TURNRIGHTSTART?$AA@ 4013a0ac     ui_main.obj
 0003:0000b0cc       ??_C@_0BI@JADJJLGI@BOTH_STAND5TURNLEFTSTOP?$AA@ 4013a0cc     ui_main.obj
 0003:0000b0e8       ??_C@_0BJ@HOHFOLPM@BOTH_STAND5TURNLEFTSTART?$AA@ 4013a0e8     ui_main.obj
 0003:0000b108       ??_C@_0BL@EHCDGJJ@BOTH_STAND5SHIFTWEIGHTSTOP?$AA@ 4013a108     ui_main.obj
 0003:0000b128       ??_C@_0BM@LEFLGCNL@BOTH_STAND5SHIFTWEIGHTSTART?$AA@ 4013a128     ui_main.obj
 0003:0000b14c       ??_C@_0BH@LKALMHBN@BOTH_STAND5SHIFTWEIGHT?$AA@ 4013a14c     ui_main.obj
 0003:0000b168       ??_C@_0BB@NHGNFEJF@BOTH_STAND9IDLE1?$AA@ 4013a168     ui_main.obj
 0003:0000b17c       ??_C@_0M@KGBMNEAL@BOTH_STAND9?$AA@ 4013a17c     ui_main.obj
 0003:0000b18c       ??_C@_0BE@PHIMDIEF@BOTH_STAND8TOSTAND5?$AA@ 4013a18c     ui_main.obj
 0003:0000b1a4       ??_C@_0BE@LDCJBNIF@BOTH_STAND7TOSTAND8?$AA@ 4013a1a4     ui_main.obj
 0003:0000b1bc       ??_C@_0BE@LHNMMNLI@BOTH_STAND5TOSTAND8?$AA@ 4013a1bc     ui_main.obj
 0003:0000b1d4       ??_C@_0BO@JCPBABCF@BOTH_STARTLEDLOOKLEFTTOSTAND5?$AA@ 4013a1d4     ui_main.obj
 0003:0000b1f8       ??_C@_0BM@LKMKNIB@BOTH_STAND5STARTLEDLOOKLEFT?$AA@ 4013a1f8     ui_main.obj
 0003:0000b21c       ??_C@_0BB@KAKPAJPG@BOTH_STAND5TOAIM?$AA@ 4013a21c     ui_main.obj
 0003:0000b230       ??_C@_0BE@GGBOHGPB@BOTH_STAND5TOSTAND1?$AA@ 4013a230     ui_main.obj
 0003:0000b248       ??_C@_0BE@LJJBDIP@BOTH_STAND1TOSTAND5?$AA@ 4013a248     ui_main.obj
 0003:0000b260       ??_C@_0BC@KJMCMBAN@BOTH_STAND5TOSIT3?$AA@ 4013a260     ui_main.obj
 0003:0000b278       ??_C@_0O@JCHGFLGA@BOTH_STANDUP2?$AA@ 4013a278     ui_main.obj
 0003:0000b288       ??_C@_0BF@MNEGLANN@BOTH_STAND4TOATTACK2?$AA@ 4013a288     ui_main.obj
 0003:0000b2a4       ??_C@_0P@NHEJHBNL@BOTH_STAND4TO2?$AA@ 4013a2a4     ui_main.obj
 0003:0000b2b8       ??_C@_0P@OFDCDPN@BOTH_STAND2TO4?$AA@ 4013a2b8     ui_main.obj
 0003:0000b2cc       ??_C@_0P@HDCENHLI@BOTH_STAND2TO1?$AA@ 4013a2cc     ui_main.obj
 0003:0000b2e0       ??_C@_0P@BPKJPOKL@BOTH_STAND1TO2?$AA@ 4013a2e0     ui_main.obj
 0003:0000b2f4       ??_C@_0M@LPAHOFEK@BOTH_STAND8?$AA@ 4013a2f4     ui_main.obj
 0003:0000b304       ??_C@_0M@CBIEMIME@BOTH_STAND6?$AA@ 4013a304     ui_main.obj
 0003:0000b314       ??_C@_0BB@BAMNDOOB@BOTH_STAND5IDLE1?$AA@ 4013a314     ui_main.obj
 0003:0000b328       ??_C@_0M@KKJJLAH@BOTH_STAND5?$AA@ 4013a328     ui_main.obj
 0003:0000b338       ??_C@_0M@BDLCKKEG@BOTH_STAND4?$AA@ 4013a338     ui_main.obj
 0003:0000b348       ??_C@_0BB@HDBNALNL@BOTH_STAND3IDLE1?$AA@ 4013a348     ui_main.obj
 0003:0000b35c       ??_C@_0M@FMPDDMIB@BOTH_STAND3?$AA@ 4013a35c     ui_main.obj
 0003:0000b36c       ??_C@_0BB@POEHFDKM@BOTH_STAND2IDLE2?$AA@ 4013a36c     ui_main.obj
 0003:0000b380       ??_C@_0BB@NFGKAAGP@BOTH_STAND2IDLE1?$AA@ 4013a380     ui_main.obj
 0003:0000b394       ??_C@_0M@EFOIANMA@BOTH_STAND2?$AA@ 4013a394     ui_main.obj
 0003:0000b3a4       ??_C@_0BB@OEICBKPC@BOTH_STAND1IDLE1?$AA@ 4013a3a4     ui_main.obj
 0003:0000b3b8       ??_C@_0M@GOMFFOAD@BOTH_STAND1?$AA@ 4013a3b8     ui_main.obj
 0003:0000b3c8       ??_C@_0P@HNCGMPEI@BOTH_ROLL_STAB?$AA@ 4013a3c8     ui_main.obj
 0003:0000b3dc       ??_C@_0BA@PJPEDJMA@BOTH_A3_SPECIAL?$AA@ 4013a3dc     ui_main.obj
 0003:0000b3f0       ??_C@_0BA@BGDGFCPO@BOTH_A2_SPECIAL?$AA@ 4013a3f0     ui_main.obj
 0003:0000b404       ??_C@_0BA@PNABOJPN@BOTH_A1_SPECIAL?$AA@ 4013a404     ui_main.obj
 0003:0000b418       ??_C@_0BA@IPLCAALD@BOTH_A7_SOULCAL?$AA@ 4013a418     ui_main.obj
 0003:0000b42c       ??_C@_0BF@JKDHMCK@BOTH_A6_SABERPROTECT?$AA@ 4013a42c     ui_main.obj
 0003:0000b448       ??_C@_0BD@FCALGDP@BOTH_STABDOWN_DUAL?$AA@ 4013a448     ui_main.obj
 0003:0000b460       ??_C@_0BE@DOGEHLEN@BOTH_STABDOWN_STAFF?$AA@ 4013a460     ui_main.obj
 0003:0000b478       ??_C@_0O@FMNFAMJP@BOTH_STABDOWN?$AA@ 4013a478     ui_main.obj
 0003:0000b488       ??_C@_0BE@NCOEMLED@BOTH_PULLED_INAIR_F?$AA@ 4013a488     ui_main.obj
 0003:0000b4a0       ??_C@_0BE@LGIIAOEH@BOTH_PULLED_INAIR_B?$AA@ 4013a4a0     ui_main.obj
 0003:0000b4b8       ??_C@_0BH@ENKMMKI@BOTH_PULL_IMPALE_SWING?$AA@ 4013a4b8     ui_main.obj
 0003:0000b4d4       ??_C@_0BG@FJEBNIOP@BOTH_PULL_IMPALE_STAB?$AA@ 4013a4d4     ui_main.obj
 0003:0000b4f0       ??_C@_0P@FKABGNIE@BOTH_FLIP_LAND?$AA@ 4013a4f0     ui_main.obj
 0003:0000b504       ??_C@_0BA@PECANCJM@BOTH_FLIP_HOLD7?$AA@ 4013a504     ui_main.obj
 0003:0000b518       ??_C@_0BC@OAEPKLIJ@BOTH_FLIP_ATTACK7?$AA@ 4013a518     ui_main.obj
 0003:0000b530       ??_C@_0BD@MBINELLK@BOTH_A7_KICK_L_AIR?$AA@ 4013a530     ui_main.obj
 0003:0000b548       ??_C@_0BD@PIFBCIFB@BOTH_A7_KICK_R_AIR?$AA@ 4013a548     ui_main.obj
 0003:0000b560       ??_C@_0BD@PLIHCKMK@BOTH_A7_KICK_B_AIR?$AA@ 4013a560     ui_main.obj
 0003:0000b578       ??_C@_0BD@GABGGINM@BOTH_A7_KICK_F_AIR?$AA@ 4013a578     ui_main.obj
 0003:0000b590       ??_C@_0BA@CADMNHIP@BOTH_A7_KICK_RL?$AA@ 4013a590     ui_main.obj
 0003:0000b5a4       ??_C@_0BF@OPHCPADF@BOTH_A7_KICK_BF_STOP?$AA@ 4013a5a4     ui_main.obj
 0003:0000b5c0       ??_C@_0BA@MGPFJMHF@BOTH_A7_KICK_BF?$AA@ 4013a5c0     ui_main.obj
 0003:0000b5d4       ??_C@_0P@DFCDAAIP@BOTH_A7_KICK_S?$AA@ 4013a5d4     ui_main.obj
 0003:0000b5e8       ??_C@_0P@PIHJAOBB@BOTH_A7_KICK_L?$AA@ 4013a5e8     ui_main.obj
 0003:0000b5fc       ??_C@_0P@CMDIDBMO@BOTH_A7_KICK_R?$AA@ 4013a5fc     ui_main.obj
 0003:0000b610       ??_C@_0P@GGPKCDJP@BOTH_A7_KICK_B?$AA@ 4013a610     ui_main.obj
 0003:0000b624       ??_C@_0P@CJGOGJL@BOTH_A7_KICK_F?$AA@ 4013a624     ui_main.obj
 0003:0000b638       ??_C@_0BM@OHENEONK@BOTH_FORCEWALLRELEASE_RIGHT?$AA@ 4013a638     ui_main.obj
 0003:0000b65c       ??_C@_0BL@BABFAMJB@BOTH_FORCEWALLRELEASE_BACK?$AA@ 4013a65c     ui_main.obj
 0003:0000b67c       ??_C@_0BL@OLNGOJNC@BOTH_FORCEWALLRELEASE_LEFT?$AA@ 4013a67c     ui_main.obj
 0003:0000b69c       ??_C@_0BO@FMNDOIKN@BOTH_FORCEWALLRELEASE_FORWARD?$AA@ 4013a69c     ui_main.obj
 0003:0000b6c0       ??_C@_0BJ@CCJINKMK@BOTH_FORCEWALLHOLD_RIGHT?$AA@ 4013a6c0     ui_main.obj
 0003:0000b6e0       ??_C@_0BI@HPLKKCCJ@BOTH_FORCEWALLHOLD_BACK?$AA@ 4013a6e0     ui_main.obj
 0003:0000b6fc       ??_C@_0BI@IEHJEHGK@BOTH_FORCEWALLHOLD_LEFT?$AA@ 4013a6fc     ui_main.obj
 0003:0000b718       ??_C@_0BL@OBHDGIHE@BOTH_FORCEWALLHOLD_FORWARD?$AA@ 4013a718     ui_main.obj
 0003:0000b738       ??_C@_0BM@FDLDEBGK@BOTH_FORCEWALLREBOUND_RIGHT?$AA@ 4013a738     ui_main.obj
 0003:0000b75c       ??_C@_0BL@OFKEILGN@BOTH_FORCEWALLREBOUND_BACK?$AA@ 4013a75c     ui_main.obj
 0003:0000b77c       ??_C@_0BL@BOGHGOCO@BOTH_FORCEWALLREBOUND_LEFT?$AA@ 4013a77c     ui_main.obj
 0003:0000b79c       ??_C@_0BO@CIKJOPHK@BOTH_FORCEWALLREBOUND_FORWARD?$AA@ 4013a79c     ui_main.obj
 0003:0000b7c0       ??_C@_0BK@KJKIIGOD@BOTH_FORCEWALLRUNFLIP_ALT?$AA@ 4013a7c0     ui_main.obj
 0003:0000b7e0       ??_C@_0BK@GPIMNHIL@BOTH_FORCEWALLRUNFLIP_END?$AA@ 4013a7e0     ui_main.obj
 0003:0000b800       ??_C@_0BM@LJCOJFGC@BOTH_FORCEWALLRUNFLIP_START?$AA@ 4013a800     ui_main.obj
 0003:0000b824       ??_C@_0BI@MHONAGNG@BOTH_FORCELONGLEAP_LAND?$AA@ 4013a824     ui_main.obj
 0003:0000b840       ??_C@_0BK@HABCCIOP@BOTH_FORCELONGLEAP_ATTACK?$AA@ 4013a840     ui_main.obj
 0003:0000b860       ??_C@_0BJ@KLOIGFJP@BOTH_FORCELONGLEAP_START?$AA@ 4013a860     ui_main.obj
 0003:0000b880       ??_C@_0L@NHGEHEAM@BOTH_S7_S1?$AA@ 4013a880     ui_main.obj
 0003:0000b890       ??_C@_0L@OHOCGCK@BOTH_S1_S7?$AA@ 4013a890     ui_main.obj
 0003:0000b8a0       ??_C@_0L@OKAEFNLM@BOTH_S6_S1?$AA@ 4013a8a0     ui_main.obj
 0003:0000b8b0       ??_C@_0L@BHGFBHGL@BOTH_S1_S6?$AA@ 4013a8b0     ui_main.obj
 0003:0000b8c0       ??_C@_0BB@KFONEAEN@BOTH_SPINATTACK7?$AA@ 4013a8c0     ui_main.obj
 0003:0000b8d4       ??_C@_0BB@LMPGHBAM@BOTH_SPINATTACK6?$AA@ 4013a8d4     ui_main.obj
 0003:0000b8e8       ??_C@_0BB@CIOCACPL@BOTH_JUMPATTACK7?$AA@ 4013a8e8     ui_main.obj
 0003:0000b8fc       ??_C@_0BB@DBPJDDLK@BOTH_JUMPATTACK6?$AA@ 4013a8fc     ui_main.obj
 0003:0000b910       ??_C@_0BH@INLIBEMO@BOTH_CROUCHATTACKBACK1?$AA@ 4013a910     ui_main.obj
 0003:0000b92c       ??_C@_0BC@BEBALKBG@BOTH_LUNGE2_B__T_?$AA@ 4013a92c     ui_main.obj
 0003:0000b944       ??_C@_0BG@CELCKDAN@BOTH_FORCELEAP2_T__B_?$AA@ 4013a944     ui_main.obj
 0003:0000b960       ??_C@_0BG@BFMBDODP@BOTH_JUMPFLIPSTABDOWN?$AA@ 4013a960     ui_main.obj
 0003:0000b97c       ??_C@_0BI@HBGICLGG@BOTH_JUMPFLIPSLASHDOWN1?$AA@ 4013a97c     ui_main.obj
 0003:0000b998       ??_C@_0BB@CBLKELKF@BOTH_ATTACK_BACK?$AA@ 4013a998     ui_main.obj
 0003:0000b9ac       ??_C@_0BC@PILNDLJJ@BOTH_A2_STABBACK1?$AA@ 4013a9ac     ui_main.obj
 0003:0000b9c4       ??_C@_0BH@BDCLHPPP@BOTH_SABERSTAFF_STANCE?$AA@ 4013a9c4     ui_main.obj
 0003:0000b9e0       ??_C@_0BG@HKMBABJH@BOTH_SABERDUAL_STANCE?$AA@ 4013a9e0     ui_main.obj
 0003:0000b9fc       ??_C@_0BG@OHKGBDLF@BOTH_SABERSLOW_STANCE?$AA@ 4013a9fc     ui_main.obj
 0003:0000ba18       ??_C@_0BG@LMJGJJPN@BOTH_SABERFAST_STANCE?$AA@ 4013aa18     ui_main.obj
 0003:0000ba34       ??_C@_0BD@KOAOCCAN@BOTH_CCWCIRCLELOCK?$AA@ 4013aa34     ui_main.obj
 0003:0000ba4c       ??_C@_0BC@KJPAFMDI@BOTH_CWCIRCLELOCK?$AA@ 4013aa4c     ui_main.obj
 0003:0000ba64       ??_C@_0BE@OHBEAMBI@BOTH_CCWCIRCLEBREAK?$AA@ 4013aa64     ui_main.obj
 0003:0000ba7c       ??_C@_0BD@LBKADGEF@BOTH_CWCIRCLEBREAK?$AA@ 4013aa7c     ui_main.obj
 0003:0000ba94       ??_C@_0BI@CIMIIHDK@BOTH_CCWCIRCLE_A2__R__L?$AA@ 4013aa94     ui_main.obj
 0003:0000bab0       ??_C@_0BH@DBGDLJEC@BOTH_CWCIRCLE_A2__L__R?$AA@ 4013aab0     ui_main.obj
 0003:0000bacc       ??_C@_0BI@PBNOCOLC@BOTH_CCWCIRCLE_R2__L_S1?$AA@ 4013aacc     ui_main.obj
 0003:0000bae8       ??_C@_0BH@DMDECPBF@BOTH_CWCIRCLE_R2__R_S1?$AA@ 4013aae8     ui_main.obj
 0003:0000bb04       ??_C@_0N@DLCMNLOG@BOTH_BF1LOCK?$AA@ 4013ab04     ui_main.obj
 0003:0000bb14       ??_C@_0O@NAFJBFBB@BOTH_BF1BREAK?$AA@ 4013ab14     ui_main.obj
 0003:0000bb24       ??_C@_0P@OMJLFDIE@BOTH_BF1RETURN?$AA@ 4013ab24     ui_main.obj
 0003:0000bb38       ??_C@_0N@LNLIKJEI@BOTH_BF2LOCK?$AA@ 4013ab38     ui_main.obj
 0003:0000bb48       ??_C@_0O@OBLBAPIM@BOTH_BF2BREAK?$AA@ 4013ab48     ui_main.obj
 0003:0000bb58       ??_C@_0P@GCBEFEGH@BOTH_BF2RETURN?$AA@ 4013ab58     ui_main.obj
 0003:0000bb6c       ??_C@_0BE@DOCAGAEJ@BOTH_LK_ST_ST_T_L_2?$AA@ 4013ab6c     ui_main.obj
 0003:0000bb84       ??_C@_0BE@CDCFFAPB@BOTH_LK_ST_ST_S_L_2?$AA@ 4013ab84     ui_main.obj
 0003:0000bb9c       ??_C@_0BE@DFGKEEJC@BOTH_LK_DL_DL_T_L_2?$AA@ 4013ab9c     ui_main.obj
 0003:0000bbb4       ??_C@_0BE@CIGPHECK@BOTH_LK_DL_DL_S_L_2?$AA@ 4013abb4     ui_main.obj
 0003:0000bbcc       ??_C@_0BC@NOIODFFL@BOTH_LK_S_S_T_L_2?$AA@ 4013abcc     ui_main.obj
 0003:0000bbe4       ??_C@_0BC@MDILAFOD@BOTH_LK_S_S_S_L_2?$AA@ 4013abe4     ui_main.obj
 0003:0000bbfc       ??_C@_0BG@DGNDNELM@BOTH_LK_ST_S_T_SB_1_W?$AA@ 4013abfc     ui_main.obj
 0003:0000bc18       ??_C@_0BG@JPOFBPCG@BOTH_LK_ST_S_T_SB_1_L?$AA@ 4013ac18     ui_main.obj
 0003:0000bc34       ??_C@_0BD@DOGCPFDO@BOTH_LK_ST_S_T_L_1?$AA@ 4013ac34     ui_main.obj
 0003:0000bc4c       ??_C@_0BF@CEACOAOC@BOTH_LK_ST_S_T_B_1_W?$AA@ 4013ac4c     ui_main.obj
 0003:0000bc68       ??_C@_0BF@INDECLHI@BOTH_LK_ST_S_T_B_1_L?$AA@ 4013ac68     ui_main.obj
 0003:0000bc84       ??_C@_0BG@FCLCLJHF@BOTH_LK_ST_S_S_SB_1_W?$AA@ 4013ac84     ui_main.obj
 0003:0000bca0       ??_C@_0BG@PLIEHCOP@BOTH_LK_ST_S_S_SB_1_L?$AA@ 4013aca0     ui_main.obj
 0003:0000bcbc       ??_C@_0BD@CDGHMFIG@BOTH_LK_ST_S_S_L_1?$AA@ 4013acbc     ui_main.obj
 0003:0000bcd4       ??_C@_0BF@COMHOJPL@BOTH_LK_ST_S_S_B_1_W?$AA@ 4013acd4     ui_main.obj
 0003:0000bcf0       ??_C@_0BF@IHPBCCGB@BOTH_LK_ST_S_S_B_1_L?$AA@ 4013acf0     ui_main.obj
 0003:0000bd0c       ??_C@_0BH@LECJIOFK@BOTH_LK_ST_ST_T_SB_1_W?$AA@ 4013ad0c     ui_main.obj
 0003:0000bd28       ??_C@_0BH@BNBPEFMA@BOTH_LK_ST_ST_T_SB_1_L?$AA@ 4013ad28     ui_main.obj
 0003:0000bd44       ??_C@_0BE@BFANDDIK@BOTH_LK_ST_ST_T_L_1?$AA@ 4013ad44     ui_main.obj
 0003:0000bd5c       ??_C@_0BG@NGKMMHLE@BOTH_LK_ST_ST_T_B_1_W?$AA@ 4013ad5c     ui_main.obj
 0003:0000bd78       ??_C@_0BG@HPJKAMCO@BOTH_LK_ST_ST_T_B_1_L?$AA@ 4013ad78     ui_main.obj
 0003:0000bd94       ??_C@_0BH@NAEIODJD@BOTH_LK_ST_ST_S_SB_1_W?$AA@ 4013ad94     ui_main.obj
 0003:0000bdb0       ??_C@_0BH@HJHOCIAJ@BOTH_LK_ST_ST_S_SB_1_L?$AA@ 4013adb0     ui_main.obj
 0003:0000bdcc       ??_C@_0BE@IAIADDC@BOTH_LK_ST_ST_S_L_1?$AA@ 4013adcc     ui_main.obj
 0003:0000bde4       ??_C@_0BG@NMGJMOKN@BOTH_LK_ST_ST_S_B_1_W?$AA@ 4013ade4     ui_main.obj
 0003:0000be00       ??_C@_0BG@HFFPAFDH@BOTH_LK_ST_ST_S_B_1_L?$AA@ 4013ae00     ui_main.obj
 0003:0000be1c       ??_C@_0BH@NIJMKPKH@BOTH_LK_ST_DL_T_SB_1_W?$AA@ 4013ae1c     ui_main.obj
 0003:0000be38       ??_C@_0BH@HBKKGEDN@BOTH_LK_ST_DL_T_SB_1_L?$AA@ 4013ae38     ui_main.obj
 0003:0000be54       ??_C@_0BE@HCPCDGKM@BOTH_LK_ST_DL_T_L_1?$AA@ 4013ae54     ui_main.obj
 0003:0000be6c       ??_C@_0BG@GFBINHOA@BOTH_LK_ST_DL_T_B_1_W?$AA@ 4013ae6c     ui_main.obj
 0003:0000be88       ??_C@_0BG@MMCOBMHK@BOTH_LK_ST_DL_T_B_1_L?$AA@ 4013ae88     ui_main.obj
 0003:0000bea4       ??_C@_0BH@LMPNMCGO@BOTH_LK_ST_DL_S_SB_1_W?$AA@ 4013aea4     ui_main.obj
 0003:0000bec0       ??_C@_0BH@BFMLAJPE@BOTH_LK_ST_DL_S_SB_1_L?$AA@ 4013aec0     ui_main.obj
 0003:0000bedc       ??_C@_0BE@GPPHAGBE@BOTH_LK_ST_DL_S_L_1?$AA@ 4013aedc     ui_main.obj
 0003:0000bef4       ??_C@_0BG@GPNNNOPJ@BOTH_LK_ST_DL_S_B_1_W?$AA@ 4013aef4     ui_main.obj
 0003:0000bf10       ??_C@_0BG@MGOLBFGD@BOTH_LK_ST_DL_S_B_1_L?$AA@ 4013af10     ui_main.obj
 0003:0000bf2c       ??_C@_0BG@NLKIDHKH@BOTH_LK_DL_S_T_SB_1_W?$AA@ 4013af2c     ui_main.obj
 0003:0000bf48       ??_C@_0BG@HCJOPMDN@BOTH_LK_DL_S_T_SB_1_L?$AA@ 4013af48     ui_main.obj
 0003:0000bf64       ??_C@_0BD@INNGOFGK@BOTH_LK_DL_S_T_L_1?$AA@ 4013af64     ui_main.obj
 0003:0000bf7c       ??_C@_0BF@OHGCNLGC@BOTH_LK_DL_S_T_B_1_W?$AA@ 4013af7c     ui_main.obj
 0003:0000bf98       ??_C@_0BF@EOFEBAPI@BOTH_LK_DL_S_T_B_1_L?$AA@ 4013af98     ui_main.obj
 0003:0000bfb4       ??_C@_0BG@LPMJFKGO@BOTH_LK_DL_S_S_SB_1_W?$AA@ 4013afb4     ui_main.obj
 0003:0000bfd0       ??_C@_0BG@BGPPJBPE@BOTH_LK_DL_S_S_SB_1_L?$AA@ 4013afd0     ui_main.obj
 0003:0000bfec       ??_C@_0BD@JANDNFNC@BOTH_LK_DL_S_S_L_1?$AA@ 4013afec     ui_main.obj
 0003:0000c004       ??_C@_0BF@ONKHNCHL@BOTH_LK_DL_S_S_B_1_W?$AA@ 4013b004     ui_main.obj
 0003:0000c020       ??_C@_0BF@EEJBBJOB@BOTH_LK_DL_S_S_B_1_L?$AA@ 4013b020     ui_main.obj
 0003:0000c03c       ??_C@_0BH@DOKBDMFF@BOTH_LK_DL_ST_T_SB_1_W?$AA@ 4013b03c     ui_main.obj
 0003:0000c058       ??_C@_0BH@JHJHPHMP@BOTH_LK_DL_ST_T_SB_1_L?$AA@ 4013b058     ui_main.obj
 0003:0000c074       ??_C@_0BE@HJLIBCHH@BOTH_LK_DL_ST_T_L_1?$AA@ 4013b074     ui_main.obj
 0003:0000c08c       ??_C@_0BG@DLNHCEKP@BOTH_LK_DL_ST_T_B_1_W?$AA@ 4013b08c     ui_main.obj
 0003:0000c0a8       ??_C@_0BG@JCOBOPDF@BOTH_LK_DL_ST_T_B_1_L?$AA@ 4013b0a8     ui_main.obj
 0003:0000c0c4       ??_C@_0BH@FKMAFBJM@BOTH_LK_DL_ST_S_SB_1_W?$AA@ 4013b0c4     ui_main.obj
 0003:0000c0e0       ??_C@_0BH@PDPGJKAG@BOTH_LK_DL_ST_S_SB_1_L?$AA@ 4013b0e0     ui_main.obj
 0003:0000c0fc       ??_C@_0BE@GELNCCMP@BOTH_LK_DL_ST_S_L_1?$AA@ 4013b0fc     ui_main.obj
 0003:0000c114       ??_C@_0BG@DBBCCNLG@BOTH_LK_DL_ST_S_B_1_W?$AA@ 4013b114     ui_main.obj
 0003:0000c130       ??_C@_0BG@JICEOGCM@BOTH_LK_DL_ST_S_B_1_L?$AA@ 4013b130     ui_main.obj
 0003:0000c14c       ??_C@_0BH@FCBEBNKI@BOTH_LK_DL_DL_T_SB_1_W?$AA@ 4013b14c     ui_main.obj
 0003:0000c168       ??_C@_0BH@PLCCNGDC@BOTH_LK_DL_DL_T_SB_1_L?$AA@ 4013b168     ui_main.obj
 0003:0000c184       ??_C@_0BE@BOEHBHFB@BOTH_LK_DL_DL_T_L_1?$AA@ 4013b184     ui_main.obj
 0003:0000c19c       ??_C@_0BG@IIGDDEPL@BOTH_LK_DL_DL_T_B_1_W?$AA@ 4013b19c     ui_main.obj
 0003:0000c1b8       ??_C@_0BG@CBFFPPGB@BOTH_LK_DL_DL_T_B_1_L?$AA@ 4013b1b8     ui_main.obj
 0003:0000c1d4       ??_C@_0BH@DGHFHAGB@BOTH_LK_DL_DL_S_SB_1_W?$AA@ 4013b1d4     ui_main.obj
 0003:0000c1f0       ??_C@_0BH@JPEDLLPL@BOTH_LK_DL_DL_S_SB_1_L?$AA@ 4013b1f0     ui_main.obj
 0003:0000c20c       ??_C@_0BE@DECCHOJ@BOTH_LK_DL_DL_S_L_1?$AA@ 4013b20c     ui_main.obj
 0003:0000c224       ??_C@_0BG@ICKGDNOC@BOTH_LK_DL_DL_S_B_1_W?$AA@ 4013b224     ui_main.obj
 0003:0000c240       ??_C@_0BG@CLJAPGHI@BOTH_LK_DL_DL_S_B_1_L?$AA@ 4013b240     ui_main.obj
 0003:0000c25c       ??_C@_0BF@FNCJNOFK@BOTH_LK_S_S_T_SB_1_W?$AA@ 4013b25c     ui_main.obj
 0003:0000c278       ??_C@_0BF@PEBPBFMA@BOTH_LK_S_S_T_SB_1_L?$AA@ 4013b278     ui_main.obj
 0003:0000c294       ??_C@_0BC@PFKDGGJI@BOTH_LK_S_S_T_L_1?$AA@ 4013b294     ui_main.obj
 0003:0000c2ac       ??_C@_0BE@LFFJPCLC@BOTH_LK_S_S_T_B_1_W?$AA@ 4013b2ac     ui_main.obj
 0003:0000c2c4       ??_C@_0BE@BMGPDJCI@BOTH_LK_S_S_T_B_1_L?$AA@ 4013b2c4     ui_main.obj
 0003:0000c2dc       ??_C@_0BF@DJEILDJD@BOTH_LK_S_S_S_SB_1_W?$AA@ 4013b2dc     ui_main.obj
 0003:0000c2f8       ??_C@_0BF@JAHOHIAJ@BOTH_LK_S_S_S_SB_1_L?$AA@ 4013b2f8     ui_main.obj
 0003:0000c314       ??_C@_0BC@OIKGFGCA@BOTH_LK_S_S_S_L_1?$AA@ 4013b314     ui_main.obj
 0003:0000c32c       ??_C@_0BE@LPJMPLKL@BOTH_LK_S_S_S_B_1_W?$AA@ 4013b32c     ui_main.obj
 0003:0000c344       ??_C@_0BE@BGKKDADB@BOTH_LK_S_S_S_B_1_L?$AA@ 4013b344     ui_main.obj
 0003:0000c35c       ??_C@_0BG@PNCLDDBN@BOTH_LK_S_ST_T_SB_1_W?$AA@ 4013b35c     ui_main.obj
 0003:0000c378       ??_C@_0BG@FEBNPIIH@BOTH_LK_S_ST_T_SB_1_L?$AA@ 4013b378     ui_main.obj
 0003:0000c394       ??_C@_0BD@CKHDPEME@BOTH_LK_S_ST_T_L_1?$AA@ 4013b394     ui_main.obj
 0003:0000c3ac       ??_C@_0BF@LNFGMNFC@BOTH_LK_S_ST_T_B_1_W?$AA@ 4013b3ac     ui_main.obj
 0003:0000c3c8       ??_C@_0BF@BEGAAGMI@BOTH_LK_S_ST_T_B_1_L?$AA@ 4013b3c8     ui_main.obj
 0003:0000c3e4       ??_C@_0BG@JJEKFONE@BOTH_LK_S_ST_S_SB_1_W?$AA@ 4013b3e4     ui_main.obj
 0003:0000c400       ??_C@_0BG@DAHMJFEO@BOTH_LK_S_ST_S_SB_1_L?$AA@ 4013b400     ui_main.obj
 0003:0000c41c       ??_C@_0BD@DHHGMEHM@BOTH_LK_S_ST_S_L_1?$AA@ 4013b41c     ui_main.obj
 0003:0000c434       ??_C@_0BF@LHJDMEEL@BOTH_LK_S_ST_S_B_1_W?$AA@ 4013b434     ui_main.obj
 0003:0000c450       ??_C@_0BF@BOKFAPNB@BOTH_LK_S_ST_S_B_1_L?$AA@ 4013b450     ui_main.obj
 0003:0000c46c       ??_C@_0BG@JBJOBCOA@BOTH_LK_S_DL_T_SB_1_W?$AA@ 4013b46c     ui_main.obj
 0003:0000c488       ??_C@_0BG@DIKINJHK@BOTH_LK_S_DL_T_SB_1_L?$AA@ 4013b488     ui_main.obj
 0003:0000c4a4       ??_C@_0BD@ENIMPBOC@BOTH_LK_S_DL_T_L_1?$AA@ 4013b4a4     ui_main.obj
 0003:0000c4bc       ??_C@_0BF@OOCNNAG@BOTH_LK_S_DL_T_B_1_W?$AA@ 4013b4bc     ui_main.obj
 0003:0000c4d8       ??_C@_0BF@KHNEBGJM@BOTH_LK_S_DL_T_B_1_L?$AA@ 4013b4d8     ui_main.obj
 0003:0000c4f4       ??_C@_0BG@PFPPHPCJ@BOTH_LK_S_DL_S_SB_1_W?$AA@ 4013b4f4     ui_main.obj
 0003:0000c510       ??_C@_0BG@FMMJLELD@BOTH_LK_S_DL_S_SB_1_L?$AA@ 4013b510     ui_main.obj
 0003:0000c52c       ??_C@_0BD@FAIJMBFK@BOTH_LK_S_DL_S_L_1?$AA@ 4013b52c     ui_main.obj
 0003:0000c544       ??_C@_0BF@ECHNEBP@BOTH_LK_S_DL_S_B_1_W?$AA@ 4013b544     ui_main.obj
 0003:0000c560       ??_C@_0BF@KNBBBPIF@BOTH_LK_S_DL_S_B_1_L?$AA@ 4013b560     ui_main.obj
 0003:0000c57c       ??_C@_0O@MBLOLAIA@BOTH_H7_S7_BR?$AA@ 4013b57c     ui_main.obj
 0003:0000c58c       ??_C@_0O@HEBAMOMN@BOTH_H7_S7_B_?$AA@ 4013b58c     ui_main.obj
 0003:0000c59c       ??_C@_0O@BFPPIPFP@BOTH_H7_S7_BL?$AA@ 4013b59c     ui_main.obj
 0003:0000c5ac       ??_C@_0O@NFEFAJN@BOTH_H7_S7_TL?$AA@ 4013b5ac     ui_main.obj
 0003:0000c5bc       ??_C@_0O@NJBFGPEC@BOTH_H7_S7_TR?$AA@ 4013b5bc     ui_main.obj
 0003:0000c5cc       ??_C@_0O@GMLLBBAP@BOTH_H7_S7_T_?$AA@ 4013b5cc     ui_main.obj
 0003:0000c5dc       ??_C@_0O@MBBKJCHE@BOTH_V7_B__S7?$AA@ 4013b5dc     ui_main.obj
 0003:0000c5ec       ??_C@_0O@OGFKHPCG@BOTH_V7_BL_S7?$AA@ 4013b5ec     ui_main.obj
 0003:0000c5fc       ??_C@_0O@FJBCGOGD@BOTH_V7__L_S7?$AA@ 4013b5fc     ui_main.obj
 0003:0000c60c       ??_C@_0O@DDNFJOKA@BOTH_V7_TL_S7?$AA@ 4013b60c     ui_main.obj
 0003:0000c61c       ??_C@_0O@BEJFHDPC@BOTH_V7_T__S7?$AA@ 4013b61c     ui_main.obj
 0003:0000c62c       ??_C@_0O@OMAFLHED@BOTH_V7_TR_S7?$AA@ 4013b62c     ui_main.obj
 0003:0000c63c       ??_C@_0O@IGMCEHIA@BOTH_V7__R_S7?$AA@ 4013b63c     ui_main.obj
 0003:0000c64c       ??_C@_0O@DJIKFGMF@BOTH_V7_BR_S7?$AA@ 4013b64c     ui_main.obj
 0003:0000c65c       ??_C@_0O@PIDDIMEF@BOTH_K7_S7_BR?$AA@ 4013b65c     ui_main.obj
 0003:0000c66c       ??_C@_0O@ENJNPCAI@BOTH_K7_S7_B_?$AA@ 4013b66c     ui_main.obj
 0003:0000c67c       ??_C@_0O@CMHCLDJK@BOTH_K7_S7_BL?$AA@ 4013b67c     ui_main.obj
 0003:0000c68c       ??_C@_0O@DENJGMFI@BOTH_K7_S7_TL?$AA@ 4013b68c     ui_main.obj
 0003:0000c69c       ??_C@_0O@OAJIFDIH@BOTH_K7_S7_TR?$AA@ 4013b69c     ui_main.obj
 0003:0000c6ac       ??_C@_0O@FFDGCNMK@BOTH_K7_S7_T_?$AA@ 4013b6ac     ui_main.obj
 0003:0000c6bc       ??_C@_0O@NGKGFAOJ@BOTH_P7_S7_BR?$AA@ 4013b6bc     ui_main.obj
 0003:0000c6cc       ??_C@_0O@COHGPDG@BOTH_P7_S7_BL?$AA@ 4013b6cc     ui_main.obj
 0003:0000c6dc       ??_C@_0O@BKEMLAPE@BOTH_P7_S7_TL?$AA@ 4013b6dc     ui_main.obj
 0003:0000c6ec       ??_C@_0O@MOANIPCL@BOTH_P7_S7_TR?$AA@ 4013b6ec     ui_main.obj
 0003:0000c6fc       ??_C@_0O@HLKDPBGG@BOTH_P7_S7_T_?$AA@ 4013b6fc     ui_main.obj
 0003:0000c70c       ??_C@_0O@DAHEJJKO@BOTH_H6_S6_BR?$AA@ 4013b70c     ui_main.obj
 0003:0000c71c       ??_C@_0O@IFNKOHOD@BOTH_H6_S6_B_?$AA@ 4013b71c     ui_main.obj
 0003:0000c72c       ??_C@_0O@OEDFKGHB@BOTH_H6_S6_BL?$AA@ 4013b72c     ui_main.obj
 0003:0000c73c       ??_C@_0O@PMJOHJLD@BOTH_H6_S6_TL?$AA@ 4013b73c     ui_main.obj
 0003:0000c74c       ??_C@_0O@CINPEGGM@BOTH_H6_S6_TR?$AA@ 4013b74c     ui_main.obj
 0003:0000c75c       ??_C@_0O@JNHBDICB@BOTH_H6_S6_T_?$AA@ 4013b75c     ui_main.obj
 0003:0000c76c       ??_C@_0O@BEKLKDKL@BOTH_V6_B__S6?$AA@ 4013b76c     ui_main.obj
 0003:0000c77c       ??_C@_0O@DDOLEOPJ@BOTH_V6_BL_S6?$AA@ 4013b77c     ui_main.obj
 0003:0000c78c       ??_C@_0O@IMKDFPLM@BOTH_V6__L_S6?$AA@ 4013b78c     ui_main.obj
 0003:0000c79c       ??_C@_0O@OGGEKPHP@BOTH_V6_TL_S6?$AA@ 4013b79c     ui_main.obj
 0003:0000c7ac       ??_C@_0O@MBCEECCN@BOTH_V6_T__S6?$AA@ 4013b7ac     ui_main.obj
 0003:0000c7bc       ??_C@_0O@DJLEIGJM@BOTH_V6_TR_S6?$AA@ 4013b7bc     ui_main.obj
 0003:0000c7cc       ??_C@_0O@FDHDHGFP@BOTH_V6__R_S6?$AA@ 4013b7cc     ui_main.obj
 0003:0000c7dc       ??_C@_0O@OMDLGHBK@BOTH_V6_BR_S6?$AA@ 4013b7dc     ui_main.obj
 0003:0000c7ec       ??_C@_0O@JPJKFGL@BOTH_K6_S6_BR?$AA@ 4013b7ec     ui_main.obj
 0003:0000c7fc       ??_C@_0O@LMFHNLCG@BOTH_K6_S6_B_?$AA@ 4013b7fc     ui_main.obj
 0003:0000c80c       ??_C@_0O@NNLIJKLE@BOTH_K6_S6_BL?$AA@ 4013b80c     ui_main.obj
 0003:0000c81c       ??_C@_0O@MFBDEFHG@BOTH_K6_S6_TL?$AA@ 4013b81c     ui_main.obj
 0003:0000c82c       ??_C@_0O@BBFCHKKJ@BOTH_K6_S6_TR?$AA@ 4013b82c     ui_main.obj
 0003:0000c83c       ??_C@_0O@KEPMAEOE@BOTH_K6_S6_T_?$AA@ 4013b83c     ui_main.obj
 0003:0000c84c       ??_C@_0O@CHGMHJMH@BOTH_P6_S6_BR?$AA@ 4013b84c     ui_main.obj
 0003:0000c85c       ??_C@_0O@PDCNEGBI@BOTH_P6_S6_BL?$AA@ 4013b85c     ui_main.obj
 0003:0000c86c       ??_C@_0O@OLIGJJNK@BOTH_P6_S6_TL?$AA@ 4013b86c     ui_main.obj
 0003:0000c87c       ??_C@_0O@DPMHKGAF@BOTH_P6_S6_TR?$AA@ 4013b87c     ui_main.obj
 0003:0000c88c       ??_C@_0O@IKGJNIEI@BOTH_P6_S6_T_?$AA@ 4013b88c     ui_main.obj
 0003:0000c89c       ??_C@_0O@IIJBEMKH@BOTH_H1_S1_BR?$AA@ 4013b89c     ui_main.obj
 0003:0000c8ac       ??_C@_0O@DNDPDCOK@BOTH_H1_S1_B_?$AA@ 4013b8ac     ui_main.obj
 0003:0000c8bc       ??_C@_0O@FMNAHDHI@BOTH_H1_S1_BL?$AA@ 4013b8bc     ui_main.obj
 0003:0000c8cc       ??_C@_0O@EEHLKMLK@BOTH_H1_S1_TL?$AA@ 4013b8cc     ui_main.obj
 0003:0000c8dc       ??_C@_0O@JADKJDGF@BOTH_H1_S1_TR?$AA@ 4013b8dc     ui_main.obj
 0003:0000c8ec       ??_C@_0O@CFJEONCI@BOTH_H1_S1_T_?$AA@ 4013b8ec     ui_main.obj
 0003:0000c8fc       ??_C@_0O@FBCPDMHF@BOTH_V1_B__S1?$AA@ 4013b8fc     ui_main.obj
 0003:0000c90c       ??_C@_0O@HGGPNBCH@BOTH_V1_BL_S1?$AA@ 4013b90c     ui_main.obj
 0003:0000c91c       ??_C@_0O@MJCHMAGC@BOTH_V1__L_S1?$AA@ 4013b91c     ui_main.obj
 0003:0000c92c       ??_C@_0O@KDOADAKB@BOTH_V1_TL_S1?$AA@ 4013b92c     ui_main.obj
 0003:0000c93c       ??_C@_0O@IEKANNPD@BOTH_V1_T__S1?$AA@ 4013b93c     ui_main.obj
 0003:0000c94c       ??_C@_0O@HMDABJEC@BOTH_V1_TR_S1?$AA@ 4013b94c     ui_main.obj
 0003:0000c95c       ??_C@_0O@BGPHOJIB@BOTH_V1__R_S1?$AA@ 4013b95c     ui_main.obj
 0003:0000c96c       ??_C@_0O@KJLPPIME@BOTH_V1_BR_S1?$AA@ 4013b96c     ui_main.obj
 0003:0000c97c       ??_C@_0O@LBBMHAGC@BOTH_K1_S1_BR?$AA@ 4013b97c     ui_main.obj
 0003:0000c98c       ??_C@_0O@ELCAOCP@BOTH_K1_S1_B_?$AA@ 4013b98c     ui_main.obj
 0003:0000c99c       ??_C@_0O@GFFNEPLN@BOTH_K1_S1_BL?$AA@ 4013b99c     ui_main.obj
 0003:0000c9ac       ??_C@_0O@HNPGJAHP@BOTH_K1_S1_TL?$AA@ 4013b9ac     ui_main.obj
 0003:0000c9bc       ??_C@_0O@KJLHKPKA@BOTH_K1_S1_TR?$AA@ 4013b9bc     ui_main.obj
 0003:0000c9cc       ??_C@_0O@BMBJNBON@BOTH_K1_S1_T_?$AA@ 4013b9cc     ui_main.obj
 0003:0000c9dc       ??_C@_0O@JPIJKMMO@BOTH_P1_S1_BR?$AA@ 4013b9dc     ui_main.obj
 0003:0000c9ec       ??_C@_0O@ELMIJDBB@BOTH_P1_S1_BL?$AA@ 4013b9ec     ui_main.obj
 0003:0000c9fc       ??_C@_0O@FDGDEMND@BOTH_P1_S1_TL?$AA@ 4013b9fc     ui_main.obj
 0003:0000ca0c       ??_C@_0O@IHCCHDAM@BOTH_P1_S1_TR?$AA@ 4013ba0c     ui_main.obj
 0003:0000ca1c       ??_C@_0O@DCIMANEB@BOTH_P1_S1_T_?$AA@ 4013ba1c     ui_main.obj
 0003:0000ca2c       ??_C@_0O@OHBCOAEI@BOTH_D7_B____?$AA@ 4013ba2c     ui_main.obj
 0003:0000ca3c       ??_C@_0O@MAFCANBK@BOTH_D7_BL___?$AA@ 4013ba3c     ui_main.obj
 0003:0000ca4c       ??_C@_0O@HPBKBMFP@BOTH_D7__L___?$AA@ 4013ba4c     ui_main.obj
 0003:0000ca5c       ??_C@_0O@BFNNOMJM@BOTH_D7_TL___?$AA@ 4013ba5c     ui_main.obj
 0003:0000ca6c       ??_C@_0O@MKANMFHP@BOTH_D7_TR___?$AA@ 4013ba6c     ui_main.obj
 0003:0000ca7c       ??_C@_0O@KAMKDFLM@BOTH_D7__R___?$AA@ 4013ba7c     ui_main.obj
 0003:0000ca8c       ??_C@_0O@BPICCEPJ@BOTH_D7_BR___?$AA@ 4013ba8c     ui_main.obj
 0003:0000ca9c       ??_C@_0O@LDEIHEJA@BOTH_B7_BL___?$AA@ 4013ba9c     ui_main.obj
 0003:0000caac       ??_C@_0O@MAAGFNF@BOTH_B7__L___?$AA@ 4013baac     ui_main.obj
 0003:0000cabc       ??_C@_0O@GGMHJFBG@BOTH_B7_TL___?$AA@ 4013babc     ui_main.obj
 0003:0000cacc       ??_C@_0O@EBIHHIEE@BOTH_B7_T____?$AA@ 4013bacc     ui_main.obj
 0003:0000cadc       ??_C@_0O@LJBHLMPF@BOTH_B7_TR___?$AA@ 4013badc     ui_main.obj
 0003:0000caec       ??_C@_0O@NDNAEMDG@BOTH_B7__R___?$AA@ 4013baec     ui_main.obj
 0003:0000cafc       ??_C@_0O@GMJIFNHD@BOTH_B7_BR___?$AA@ 4013bafc     ui_main.obj
 0003:0000cb0c       ??_C@_0O@LBOJOGEP@BOTH_R7_TR_S7?$AA@ 4013bb0c     ui_main.obj
 0003:0000cb1c       ??_C@_0O@LLLGCOCK@BOTH_R7_BL_S7?$AA@ 4013bb1c     ui_main.obj
 0003:0000cb2c       ??_C@_0O@GEGGAHMJ@BOTH_R7_BR_S7?$AA@ 4013bb2c     ui_main.obj
 0003:0000cb3c       ??_C@_0O@GODJMPKM@BOTH_R7_TL_S7?$AA@ 4013bb3c     ui_main.obj
 0003:0000cb4c       ??_C@_0O@NLCOBGIM@BOTH_R7__R_S7?$AA@ 4013bb4c     ui_main.obj
 0003:0000cb5c       ??_C@_0O@EPODPGP@BOTH_R7__L_S7?$AA@ 4013bb5c     ui_main.obj
 0003:0000cb6c       ??_C@_0O@JMPGMDHI@BOTH_R7_B__S7?$AA@ 4013bb6c     ui_main.obj
 0003:0000cb7c       ??_C@_0O@PHIALDOO@BOTH_S7_S7_TR?$AA@ 4013bb7c     ui_main.obj
 0003:0000cb8c       ??_C@_0O@DLGKFDPD@BOTH_S7_S7_BL?$AA@ 4013bb8c     ui_main.obj
 0003:0000cb9c       ??_C@_0O@OPCLGMCM@BOTH_S7_S7_BR?$AA@ 4013bb9c     ui_main.obj
 0003:0000cbac       ??_C@_0O@CDMBIMDB@BOTH_S7_S7_TL?$AA@ 4013bbac     ui_main.obj
 0003:0000cbbc       ??_C@_0O@PLNFFMAP@BOTH_S7_S7__R?$AA@ 4013bbbc     ui_main.obj
 0003:0000cbcc       ??_C@_0O@CPJEGDNA@BOTH_S7_S7__L?$AA@ 4013bbcc     ui_main.obj
 0003:0000cbdc       ??_C@_0O@ECCOMNKD@BOTH_S7_S7_T_?$AA@ 4013bbdc     ui_main.obj
 0003:0000cbec       ??_C@_0O@BCIOBBI@BOTH_T7_BL_TL?$AA@ 4013bbec     ui_main.obj
 0003:0000cbfc       ??_C@_0O@GAMHKAIK@BOTH_T7_BL_T_?$AA@ 4013bbfc     ui_main.obj
 0003:0000cc0c       ??_C@_0O@KGMLCPJP@BOTH_T7__L_BL?$AA@ 4013bc0c     ui_main.obj
 0003:0000cc1c       ??_C@_0O@NPIPLBMP@BOTH_T7__L_T_?$AA@ 4013bc1c     ui_main.obj
 0003:0000cc2c       ??_C@_0O@GKCBMPIC@BOTH_T7__L_TR?$AA@ 4013bc2c     ui_main.obj
 0003:0000cc3c       ??_C@_0O@NIPCOPHP@BOTH_T7_TL__L?$AA@ 4013bc3c     ui_main.obj
 0003:0000cc4c       ??_C@_0O@LFEIEBAM@BOTH_T7_TL_T_?$AA@ 4013bc4c     ui_main.obj
 0003:0000cc5c       ??_C@_0O@OGDPEB@BOTH_T7_TL_TR?$AA@ 4013bc5c     ui_main.obj
 0003:0000cc6c       ??_C@_0O@MLDNAKA@BOTH_T7_TL__R?$AA@ 4013bc6c     ui_main.obj
 0003:0000cc7c       ??_C@_0O@GKJIGIOP@BOTH_T7_TR_T_?$AA@ 4013bc7c     ui_main.obj
 0003:0000cc8c       ??_C@_0O@NDGDPJED@BOTH_T7_TR__R?$AA@ 4013bc8c     ui_main.obj
 0003:0000cc9c       ??_C@_0O@FPJICM@BOTH_T7__R_T_?$AA@ 4013bc9c     ui_main.obj
 0003:0000ccac       ??_C@_0O@KNFKDJKD@BOTH_T7__R_BR?$AA@ 4013bcac     ui_main.obj
 0003:0000ccbc       ??_C@_0O@LPBHIJGJ@BOTH_T7_BR_T_?$AA@ 4013bcbc     ui_main.obj
 0003:0000cccc       ??_C@_0O@KLJPHCE@BOTH_T7_BR_TR?$AA@ 4013bccc     ui_main.obj
 0003:0000ccdc       ??_C@_0O@NHNAOPJ@BOTH_T7_BL__L?$AA@ 4013bcdc     ui_main.obj
 0003:0000ccec       ??_C@_0O@NFGJNOMH@BOTH_T7_BL_TR?$AA@ 4013bcec     ui_main.obj
 0003:0000ccfc       ??_C@_0O@NJDMDBCG@BOTH_T7_BL__R?$AA@ 4013bcfc     ui_main.obj
 0003:0000cd0c       ??_C@_0O@MNMCABAF@BOTH_T7_BL_BR?$AA@ 4013bd0c     ui_main.obj
 0003:0000cd1c       ??_C@_0O@LOGAPAFN@BOTH_T7__L_TL?$AA@ 4013bd1c     ui_main.obj
 0003:0000cd2c       ??_C@_0O@GGHECAGD@BOTH_T7__L__R?$AA@ 4013bd2c     ui_main.obj
 0003:0000cd3c       ??_C@_0O@HCIKBAEA@BOTH_T7__L_BR?$AA@ 4013bd3c     ui_main.obj
 0003:0000cd4c       ??_C@_0O@MMAMNPFM@BOTH_T7_TL_BL?$AA@ 4013bd4c     ui_main.obj
 0003:0000cd5c       ??_C@_0O@BIENOAID@BOTH_T7_TL_BR?$AA@ 4013bd5c     ui_main.obj
 0003:0000cd6c       ??_C@_0O@OLEMDCAO@BOTH_T7_T__BL?$AA@ 4013bd6c     ui_main.obj
 0003:0000cd7c       ??_C@_0O@PPLCACCN@BOTH_T7_T___L?$AA@ 4013bd7c     ui_main.obj
 0003:0000cd8c       ??_C@_0O@PDOHONMM@BOTH_T7_T__TL?$AA@ 4013bd8c     ui_main.obj
 0003:0000cd9c       ??_C@_0O@CHKGNCBD@BOTH_T7_T__TR?$AA@ 4013bd9c     ui_main.obj
 0003:0000cdac       ??_C@_0O@CLPDDNPC@BOTH_T7_T___R?$AA@ 4013bdac     ui_main.obj
 0003:0000cdbc       ??_C@_0O@DPANANNB@BOTH_T7_T__BR?$AA@ 4013bdbc     ui_main.obj
 0003:0000cdcc       ??_C@_0O@BDNMPGLP@BOTH_T7_TR_BL?$AA@ 4013bdcc     ui_main.obj
 0003:0000cddc       ??_C@_0O@HCCMGJM@BOTH_T7_TR__L?$AA@ 4013bddc     ui_main.obj
 0003:0000cdec       ??_C@_0O@LHHCJHN@BOTH_T7_TR_TL?$AA@ 4013bdec     ui_main.obj
 0003:0000cdfc       ??_C@_0O@MHJNMJGA@BOTH_T7_TR_BR?$AA@ 4013bdfc     ui_main.obj
 0003:0000ce0c       ??_C@_0O@HJBLAGHM@BOTH_T7__R_BL?$AA@ 4013be0c     ui_main.obj
 0003:0000ce1c       ??_C@_0O@GNOFDGFP@BOTH_T7__R__L?$AA@ 4013be1c     ui_main.obj
 0003:0000ce2c       ??_C@_0O@GBLANJLO@BOTH_T7__R_TL?$AA@ 4013be2c     ui_main.obj
 0003:0000ce3c       ??_C@_0O@LFPBOGGB@BOTH_T7__R_TR?$AA@ 4013be3c     ui_main.obj
 0003:0000ce4c       ??_C@_0O@MGFDBHDJ@BOTH_T7_BR_BL?$AA@ 4013be4c     ui_main.obj
 0003:0000ce5c       ??_C@_0O@NCKNCHBK@BOTH_T7_BR__L?$AA@ 4013be5c     ui_main.obj
 0003:0000ce6c       ??_C@_0O@NOPIMIPL@BOTH_T7_BR_TL?$AA@ 4013be6c     ui_main.obj
 0003:0000ce7c       ??_C@_0O@GOMBIMF@BOTH_T7_BR__R?$AA@ 4013be7c     ui_main.obj
 0003:0000ce8c       ??_C@_0O@PFILPBIB@BOTH_A7_TR_BL?$AA@ 4013be8c     ui_main.obj
 0003:0000ce9c       ??_C@_0O@DDDONJPJ@BOTH_A7_BL_TR?$AA@ 4013be9c     ui_main.obj
 0003:0000ceac       ??_C@_0O@DIKPMPMF@BOTH_A7_BR_TL?$AA@ 4013beac     ui_main.obj
 0003:0000cebc       ??_C@_0O@POBKOHLN@BOTH_A7_TL_BR?$AA@ 4013bebc     ui_main.obj
 0003:0000cecc       ??_C@_0O@ILLCDBGB@BOTH_A7__R__L?$AA@ 4013becc     ui_main.obj
 0003:0000cedc       ??_C@_0O@IACDCHFN@BOTH_A7__L__R?$AA@ 4013bedc     ui_main.obj
 0003:0000ceec       ??_C@_0O@GMPEHEKC@BOTH_A7_T__B_?$AA@ 4013beec     ui_main.obj
 0003:0000cefc       ??_C@_0O@CLLIOANG@BOTH_D6_B____?$AA@ 4013befc     ui_main.obj
 0003:0000cf0c       ??_C@_0O@MPIANIE@BOTH_D6_BL___?$AA@ 4013bf0c     ui_main.obj
 0003:0000cf1c       ??_C@_0O@LDLABMMB@BOTH_D6__L___?$AA@ 4013bf1c     ui_main.obj
 0003:0000cf2c       ??_C@_0O@NJHHOMAC@BOTH_D6_TL___?$AA@ 4013bf2c     ui_main.obj
 0003:0000cf3c       ??_C@_0O@GKHMFOB@BOTH_D6_TR___?$AA@ 4013bf3c     ui_main.obj
 0003:0000cf4c       ??_C@_0O@GMGADFCC@BOTH_D6__R___?$AA@ 4013bf4c     ui_main.obj
 0003:0000cf5c       ??_C@_0O@NDCICEGH@BOTH_D6_BR___?$AA@ 4013bf5c     ui_main.obj
 0003:0000cf6c       ??_C@_0O@HPOCHEAO@BOTH_B6_BL___?$AA@ 4013bf6c     ui_main.obj
 0003:0000cf7c       ??_C@_0O@MAKKGFEL@BOTH_B6__L___?$AA@ 4013bf7c     ui_main.obj
 0003:0000cf8c       ??_C@_0O@KKGNJFII@BOTH_B6_TL___?$AA@ 4013bf8c     ui_main.obj
 0003:0000cf9c       ??_C@_0O@INCNHINK@BOTH_B6_T____?$AA@ 4013bf9c     ui_main.obj
 0003:0000cfac       ??_C@_0O@HFLNLMGL@BOTH_B6_TR___?$AA@ 4013bfac     ui_main.obj
 0003:0000cfbc       ??_C@_0O@BPHKEMKI@BOTH_B6__R___?$AA@ 4013bfbc     ui_main.obj
 0003:0000cfcc       ??_C@_0O@KADCFNON@BOTH_B6_BR___?$AA@ 4013bfcc     ui_main.obj
 0003:0000cfdc       ??_C@_0O@GEFINHJA@BOTH_R6_TR_S6?$AA@ 4013bfdc     ui_main.obj
 0003:0000cfec       ??_C@_0O@GOAHBPPF@BOTH_R6_BL_S6?$AA@ 4013bfec     ui_main.obj
 0003:0000cffc       ??_C@_0O@LBNHDGBG@BOTH_R6_BR_S6?$AA@ 4013bffc     ui_main.obj
 0003:0000d00c       ??_C@_0O@LLIIPOHD@BOTH_R6_TL_S6?$AA@ 4013c00c     ui_main.obj
 0003:0000d01c       ??_C@_0O@OJPCHFD@BOTH_R6__R_S6?$AA@ 4013c01c     ui_main.obj
 0003:0000d02c       ??_C@_0O@NBEPAOLA@BOTH_R6__L_S6?$AA@ 4013c02c     ui_main.obj
 0003:0000d03c       ??_C@_0O@EJEHPCKH@BOTH_R6_B__S6?$AA@ 4013c03c     ui_main.obj
 0003:0000d04c       ??_C@_0O@GEKJKMA@BOTH_S6_S6_TR?$AA@ 4013c04c     ui_main.obj
 0003:0000d05c       ??_C@_0O@MKKAHKNN@BOTH_S6_S6_BL?$AA@ 4013c05c     ui_main.obj
 0003:0000d06c       ??_C@_0O@BOOBEFAC@BOTH_S6_S6_BR?$AA@ 4013c06c     ui_main.obj
 0003:0000d07c       ??_C@_0O@NCALKFBP@BOTH_S6_S6_TL?$AA@ 4013c07c     ui_main.obj
 0003:0000d08c       ??_C@_0O@KBPHFCB@BOTH_S6_S6__R?$AA@ 4013c08c     ui_main.obj
 0003:0000d09c       ??_C@_0O@NOFOEKPO@BOTH_S6_S6__L?$AA@ 4013c09c     ui_main.obj
 0003:0000d0ac       ??_C@_0O@LDOEOEIN@BOTH_S6_S6_T_?$AA@ 4013c0ac     ui_main.obj
 0003:0000d0bc       ??_C@_0O@MNICOBIG@BOTH_T6_BL_TL?$AA@ 4013c0bc     ui_main.obj
 0003:0000d0cc       ??_C@_0O@KMGNKABE@BOTH_T6_BL_T_?$AA@ 4013c0cc     ui_main.obj
 0003:0000d0dc       ??_C@_0O@GKGBCPAB@BOTH_T6__L_BL?$AA@ 4013c0dc     ui_main.obj
 0003:0000d0ec       ??_C@_0O@BDCFLBFB@BOTH_T6__L_T_?$AA@ 4013c0ec     ui_main.obj
 0003:0000d0fc       ??_C@_0O@KGILMPBM@BOTH_T6__L_TR?$AA@ 4013c0fc     ui_main.obj
 0003:0000d10c       ??_C@_0O@BEFIOPOB@BOTH_T6_TL__L?$AA@ 4013c10c     ui_main.obj
 0003:0000d11c       ??_C@_0O@HJOCEBJC@BOTH_T6_TL_T_?$AA@ 4013c11c     ui_main.obj
 0003:0000d12c       ??_C@_0O@MMEMDPNP@BOTH_T6_TL_TR?$AA@ 4013c12c     ui_main.obj
 0003:0000d13c       ??_C@_0O@MABJNADO@BOTH_T6_TL__R?$AA@ 4013c13c     ui_main.obj
 0003:0000d14c       ??_C@_0O@KGDCGIHB@BOTH_T6_TR_T_?$AA@ 4013c14c     ui_main.obj
 0003:0000d15c       ??_C@_0O@BPMJPJNN@BOTH_T6_TR__R?$AA@ 4013c15c     ui_main.obj
 0003:0000d16c       ??_C@_0O@MMPFJILC@BOTH_T6__R_T_?$AA@ 4013c16c     ui_main.obj
 0003:0000d17c       ??_C@_0O@GBPADJDN@BOTH_T6__R_BR?$AA@ 4013c17c     ui_main.obj
 0003:0000d18c       ??_C@_0O@HDLNIJPH@BOTH_T6_BR_T_?$AA@ 4013c18c     ui_main.obj
 0003:0000d19c       ??_C@_0O@MGBDPHLK@BOTH_T6_BR_TR?$AA@ 4013c19c     ui_main.obj
 0003:0000d1ac       ??_C@_0O@MBNHAOGH@BOTH_T6_BL__L?$AA@ 4013c1ac     ui_main.obj
 0003:0000d1bc       ??_C@_0O@BJMDNOFJ@BOTH_T6_BL_TR?$AA@ 4013c1bc     ui_main.obj
 0003:0000d1cc       ??_C@_0O@BFJGDBLI@BOTH_T6_BL__R?$AA@ 4013c1cc     ui_main.obj
 0003:0000d1dc       ??_C@_0O@BGIABJL@BOTH_T6_BL_BR?$AA@ 4013c1dc     ui_main.obj
 0003:0000d1ec       ??_C@_0O@HCMKPAMD@BOTH_T6__L_TL?$AA@ 4013c1ec     ui_main.obj
 0003:0000d1fc       ??_C@_0O@KKNOCAPN@BOTH_T6__L__R?$AA@ 4013c1fc     ui_main.obj
 0003:0000d20c       ??_C@_0O@LOCABANO@BOTH_T6__L_BR?$AA@ 4013c20c     ui_main.obj
 0003:0000d21c       ??_C@_0O@KGNPMC@BOTH_T6_TL_BL?$AA@ 4013c21c     ui_main.obj
 0003:0000d22c       ??_C@_0O@NEOHOABN@BOTH_T6_TL_BR?$AA@ 4013c22c     ui_main.obj
 0003:0000d23c       ??_C@_0O@CHOGDCJA@BOTH_T6_T__BL?$AA@ 4013c23c     ui_main.obj
 0003:0000d24c       ??_C@_0O@DDBIACLD@BOTH_T6_T___L?$AA@ 4013c24c     ui_main.obj
 0003:0000d25c       ??_C@_0O@DPENONFC@BOTH_T6_T__TL?$AA@ 4013c25c     ui_main.obj
 0003:0000d26c       ??_C@_0O@OLAMNCIN@BOTH_T6_T__TR?$AA@ 4013c26c     ui_main.obj
 0003:0000d27c       ??_C@_0O@OHFJDNGM@BOTH_T6_T___R?$AA@ 4013c27c     ui_main.obj
 0003:0000d28c       ??_C@_0O@PDKHANEP@BOTH_T6_T__BR?$AA@ 4013c28c     ui_main.obj
 0003:0000d29c       ??_C@_0O@NPHGPGCB@BOTH_T6_TR_BL?$AA@ 4013c29c     ui_main.obj
 0003:0000d2ac       ??_C@_0O@MLIIMGAC@BOTH_T6_TR__L?$AA@ 4013c2ac     ui_main.obj
 0003:0000d2bc       ??_C@_0O@MHNNCJOD@BOTH_T6_TR_TL?$AA@ 4013c2bc     ui_main.obj
 0003:0000d2cc       ??_C@_0O@LDHMJPO@BOTH_T6_TR_BR?$AA@ 4013c2cc     ui_main.obj
 0003:0000d2dc       ??_C@_0O@LFLBAGOC@BOTH_T6__R_BL?$AA@ 4013c2dc     ui_main.obj
 0003:0000d2ec       ??_C@_0O@KBEPDGMB@BOTH_T6__R__L?$AA@ 4013c2ec     ui_main.obj
 0003:0000d2fc       ??_C@_0O@KNBKNJCA@BOTH_T6__R_TL?$AA@ 4013c2fc     ui_main.obj
 0003:0000d30c       ??_C@_0O@HJFLOGPP@BOTH_T6__R_TR?$AA@ 4013c30c     ui_main.obj
 0003:0000d31c       ??_C@_0O@KPJBHKH@BOTH_T6_BR_BL?$AA@ 4013c31c     ui_main.obj
 0003:0000d32c       ??_C@_0O@BOAHCHIE@BOTH_T6_BR__L?$AA@ 4013c32c     ui_main.obj
 0003:0000d33c       ??_C@_0O@BCFCMIGF@BOTH_T6_BR_TL?$AA@ 4013c33c     ui_main.obj
 0003:0000d34c       ??_C@_0O@MKEGBIFL@BOTH_T6_BR__R?$AA@ 4013c34c     ui_main.obj
 0003:0000d35c       ??_C@_0O@DJCBPBBP@BOTH_A6_TR_BL?$AA@ 4013c35c     ui_main.obj
 0003:0000d36c       ??_C@_0O@PPJENJGH@BOTH_A6_BL_TR?$AA@ 4013c36c     ui_main.obj
 0003:0000d37c       ??_C@_0O@PEAFMPFL@BOTH_A6_BR_TL?$AA@ 4013c37c     ui_main.obj
 0003:0000d38c       ??_C@_0O@DCLAOHCD@BOTH_A6_TL_BR?$AA@ 4013c38c     ui_main.obj
 0003:0000d39c       ??_C@_0O@EHBIDBPP@BOTH_A6__R__L?$AA@ 4013c39c     ui_main.obj
 0003:0000d3ac       ??_C@_0O@EMIJCHMD@BOTH_A6__L__R?$AA@ 4013c3ac     ui_main.obj
 0003:0000d3bc       ??_C@_0O@KAFOHEDM@BOTH_A6_T__B_?$AA@ 4013c3bc     ui_main.obj
 0003:0000d3cc       ??_C@_0O@KFDHOHDF@BOTH_D5_B____?$AA@ 4013c3cc     ui_main.obj
 0003:0000d3dc       ??_C@_0O@ICHHAKGH@BOTH_D5_BL___?$AA@ 4013c3dc     ui_main.obj
 0003:0000d3ec       ??_C@_0O@DNDPBLCC@BOTH_D5__L___?$AA@ 4013c3ec     ui_main.obj
 0003:0000d3fc       ??_C@_0O@FHPIOLOB@BOTH_D5_TL___?$AA@ 4013c3fc     ui_main.obj
 0003:0000d40c       ??_C@_0O@IICIMCAC@BOTH_D5_TR___?$AA@ 4013c40c     ui_main.obj
 0003:0000d41c       ??_C@_0O@OCOPDCMB@BOTH_D5__R___?$AA@ 4013c41c     ui_main.obj
 0003:0000d42c       ??_C@_0O@FNKHCDIE@BOTH_D5_BR___?$AA@ 4013c42c     ui_main.obj
 0003:0000d43c       ??_C@_0O@PBGNHDON@BOTH_B5_BL___?$AA@ 4013c43c     ui_main.obj
 0003:0000d44c       ??_C@_0O@EOCFGCKI@BOTH_B5__L___?$AA@ 4013c44c     ui_main.obj
 0003:0000d45c       ??_C@_0O@CEOCJCGL@BOTH_B5_TL___?$AA@ 4013c45c     ui_main.obj
 0003:0000d46c       ??_C@_0O@DKCHPDJ@BOTH_B5_T____?$AA@ 4013c46c     ui_main.obj
 0003:0000d47c       ??_C@_0O@PLDCLLII@BOTH_B5_TR___?$AA@ 4013c47c     ui_main.obj
 0003:0000d48c       ??_C@_0O@JBPFELEL@BOTH_B5__R___?$AA@ 4013c48c     ui_main.obj
 0003:0000d49c       ??_C@_0O@COLNFKAO@BOTH_B5_BR___?$AA@ 4013c49c     ui_main.obj
 0003:0000d4ac       ??_C@_0O@KFJGEGLE@BOTH_R5_TR_S1?$AA@ 4013c4ac     ui_main.obj
 0003:0000d4bc       ??_C@_0O@KPMJIONB@BOTH_R5_BL_S1?$AA@ 4013c4bc     ui_main.obj
 0003:0000d4cc       ??_C@_0O@HABJKHDC@BOTH_R5_BR_S1?$AA@ 4013c4cc     ui_main.obj
 0003:0000d4dc       ??_C@_0O@HKEGGPFH@BOTH_R5_TL_S1?$AA@ 4013c4dc     ui_main.obj
 0003:0000d4ec       ??_C@_0O@MPFBLGHH@BOTH_R5__R_S1?$AA@ 4013c4ec     ui_main.obj
 0003:0000d4fc       ??_C@_0O@BAIBJPJE@BOTH_R5__L_S1?$AA@ 4013c4fc     ui_main.obj
 0003:0000d50c       ??_C@_0O@IIIJGDID@BOTH_R5_B__S1?$AA@ 4013c50c     ui_main.obj
 0003:0000d51c       ??_C@_0O@DKOFEBDD@BOTH_S5_S1_TR?$AA@ 4013c51c     ui_main.obj
 0003:0000d52c       ??_C@_0O@PGAPKBCO@BOTH_S5_S1_BL?$AA@ 4013c52c     ui_main.obj
 0003:0000d53c       ??_C@_0O@CCEOJOPB@BOTH_S5_S1_BR?$AA@ 4013c53c     ui_main.obj
 0003:0000d54c       ??_C@_0O@OOKEHOOM@BOTH_S5_S1_TL?$AA@ 4013c54c     ui_main.obj
 0003:0000d55c       ??_C@_0O@DGLAKONC@BOTH_S5_S1__R?$AA@ 4013c55c     ui_main.obj
 0003:0000d56c       ??_C@_0O@OCPBJBAN@BOTH_S5_S1__L?$AA@ 4013c56c     ui_main.obj
 0003:0000d57c       ??_C@_0O@IPELDPHO@BOTH_S5_S1_T_?$AA@ 4013c57c     ui_main.obj
 0003:0000d58c       ??_C@_0O@EDANOGGF@BOTH_T5_BL_TL?$AA@ 4013c58c     ui_main.obj
 0003:0000d59c       ??_C@_0O@CCOCKHPH@BOTH_T5_BL_T_?$AA@ 4013c59c     ui_main.obj
 0003:0000d5ac       ??_C@_0O@OEOOCIOC@BOTH_T5__L_BL?$AA@ 4013c5ac     ui_main.obj
 0003:0000d5bc       ??_C@_0O@JNKKLGLC@BOTH_T5__L_T_?$AA@ 4013c5bc     ui_main.obj
 0003:0000d5cc       ??_C@_0O@CIAEMIPP@BOTH_T5__L_TR?$AA@ 4013c5cc     ui_main.obj
 0003:0000d5dc       ??_C@_0O@JKNHOIAC@BOTH_T5_TL__L?$AA@ 4013c5dc     ui_main.obj
 0003:0000d5ec       ??_C@_0O@PHGNEGHB@BOTH_T5_TL_T_?$AA@ 4013c5ec     ui_main.obj
 0003:0000d5fc       ??_C@_0O@ECMDDIDM@BOTH_T5_TL_TR?$AA@ 4013c5fc     ui_main.obj
 0003:0000d60c       ??_C@_0O@EOJGNHNN@BOTH_T5_TL__R?$AA@ 4013c60c     ui_main.obj
 0003:0000d61c       ??_C@_0O@CILNGPJC@BOTH_T5_TR_T_?$AA@ 4013c61c     ui_main.obj
 0003:0000d62c       ??_C@_0O@JBEGPODO@BOTH_T5_TR__R?$AA@ 4013c62c     ui_main.obj
 0003:0000d63c       ??_C@_0O@ECHKJPFB@BOTH_T5__R_T_?$AA@ 4013c63c     ui_main.obj
 0003:0000d64c       ??_C@_0O@OPHPDONO@BOTH_T5__R_BR?$AA@ 4013c64c     ui_main.obj
 0003:0000d65c       ??_C@_0O@PNDCIOBE@BOTH_T5_BR_T_?$AA@ 4013c65c     ui_main.obj
 0003:0000d66c       ??_C@_0O@EIJMPAFJ@BOTH_T5_BR_TR?$AA@ 4013c66c     ui_main.obj
 0003:0000d67c       ??_C@_0O@EPFIAJIE@BOTH_T5_BL__L?$AA@ 4013c67c     ui_main.obj
 0003:0000d68c       ??_C@_0O@JHEMNJLK@BOTH_T5_BL_TR?$AA@ 4013c68c     ui_main.obj
 0003:0000d69c       ??_C@_0O@JLBJDGFL@BOTH_T5_BL__R?$AA@ 4013c69c     ui_main.obj
 0003:0000d6ac       ??_C@_0O@IPOHAGHI@BOTH_T5_BL_BR?$AA@ 4013c6ac     ui_main.obj
 0003:0000d6bc       ??_C@_0O@PMEFPHCA@BOTH_T5__L_TL?$AA@ 4013c6bc     ui_main.obj
 0003:0000d6cc       ??_C@_0O@CEFBCHBO@BOTH_T5__L__R?$AA@ 4013c6cc     ui_main.obj
 0003:0000d6dc       ??_C@_0O@DAKPBHDN@BOTH_T5__L_BR?$AA@ 4013c6dc     ui_main.obj
 0003:0000d6ec       ??_C@_0O@IOCJNICB@BOTH_T5_TL_BL?$AA@ 4013c6ec     ui_main.obj
 0003:0000d6fc       ??_C@_0O@FKGIOHPO@BOTH_T5_TL_BR?$AA@ 4013c6fc     ui_main.obj
 0003:0000d70c       ??_C@_0O@KJGJDFHD@BOTH_T5_T__BL?$AA@ 4013c70c     ui_main.obj
 0003:0000d71c       ??_C@_0O@LNJHAFFA@BOTH_T5_T___L?$AA@ 4013c71c     ui_main.obj
 0003:0000d72c       ??_C@_0O@LBMCOKLB@BOTH_T5_T__TL?$AA@ 4013c72c     ui_main.obj
 0003:0000d73c       ??_C@_0O@GFIDNFGO@BOTH_T5_T__TR?$AA@ 4013c73c     ui_main.obj
 0003:0000d74c       ??_C@_0O@GJNGDKIP@BOTH_T5_T___R?$AA@ 4013c74c     ui_main.obj
 0003:0000d75c       ??_C@_0O@HNCIAKKM@BOTH_T5_T__BR?$AA@ 4013c75c     ui_main.obj
 0003:0000d76c       ??_C@_0O@FBPJPBMC@BOTH_T5_TR_BL?$AA@ 4013c76c     ui_main.obj
 0003:0000d77c       ??_C@_0O@EFAHMBOB@BOTH_T5_TR__L?$AA@ 4013c77c     ui_main.obj
 0003:0000d78c       ??_C@_0O@EJFCCOAA@BOTH_T5_TR_TL?$AA@ 4013c78c     ui_main.obj
 0003:0000d79c       ??_C@_0O@IFLIMOBN@BOTH_T5_TR_BR?$AA@ 4013c79c     ui_main.obj
 0003:0000d7ac       ??_C@_0O@DLDOABAB@BOTH_T5__R_BL?$AA@ 4013c7ac     ui_main.obj
 0003:0000d7bc       ??_C@_0O@CPMADBCC@BOTH_T5__R__L?$AA@ 4013c7bc     ui_main.obj
 0003:0000d7cc       ??_C@_0O@CDJFNOMD@BOTH_T5__R_TL?$AA@ 4013c7cc     ui_main.obj
 0003:0000d7dc       ??_C@_0O@PHNEOBBM@BOTH_T5__R_TR?$AA@ 4013c7dc     ui_main.obj
 0003:0000d7ec       ??_C@_0O@IEHGBAEE@BOTH_T5_BR_BL?$AA@ 4013c7ec     ui_main.obj
 0003:0000d7fc       ??_C@_0O@JAIICAGH@BOTH_T5_BR__L?$AA@ 4013c7fc     ui_main.obj
 0003:0000d80c       ??_C@_0O@JMNNMPIG@BOTH_T5_BR_TL?$AA@ 4013c80c     ui_main.obj
 0003:0000d81c       ??_C@_0O@EEMJBPLI@BOTH_T5_BR__R?$AA@ 4013c81c     ui_main.obj
 0003:0000d82c       ??_C@_0O@LHKOPGPM@BOTH_A5_TR_BL?$AA@ 4013c82c     ui_main.obj
 0003:0000d83c       ??_C@_0O@HBBLNOIE@BOTH_A5_BL_TR?$AA@ 4013c83c     ui_main.obj
 0003:0000d84c       ??_C@_0O@HKIKMILI@BOTH_A5_BR_TL?$AA@ 4013c84c     ui_main.obj
 0003:0000d85c       ??_C@_0O@LMDPOAMA@BOTH_A5_TL_BR?$AA@ 4013c85c     ui_main.obj
 0003:0000d86c       ??_C@_0O@MJJHDGBM@BOTH_A5__R__L?$AA@ 4013c86c     ui_main.obj
 0003:0000d87c       ??_C@_0O@MCAGCACA@BOTH_A5__L__R?$AA@ 4013c87c     ui_main.obj
 0003:0000d88c       ??_C@_0O@CONBHDNP@BOTH_A5_T__B_?$AA@ 4013c88c     ui_main.obj
 0003:0000d89c       ??_C@_0O@GJJNOHKL@BOTH_D4_B____?$AA@ 4013c89c     ui_main.obj
 0003:0000d8ac       ??_C@_0O@EONNAKPJ@BOTH_D4_BL___?$AA@ 4013c8ac     ui_main.obj
 0003:0000d8bc       ??_C@_0O@PBJFBLLM@BOTH_D4__L___?$AA@ 4013c8bc     ui_main.obj
 0003:0000d8cc       ??_C@_0O@JLFCOLHP@BOTH_D4_TL___?$AA@ 4013c8cc     ui_main.obj
 0003:0000d8dc       ??_C@_0O@EEICMCJM@BOTH_D4_TR___?$AA@ 4013c8dc     ui_main.obj
 0003:0000d8ec       ??_C@_0O@COEFDCFP@BOTH_D4__R___?$AA@ 4013c8ec     ui_main.obj
 0003:0000d8fc       ??_C@_0O@JBANCDBK@BOTH_D4_BR___?$AA@ 4013c8fc     ui_main.obj
 0003:0000d90c       ??_C@_0O@DNMHHDHD@BOTH_B4_BL___?$AA@ 4013c90c     ui_main.obj
 0003:0000d91c       ??_C@_0O@ICIPGCDG@BOTH_B4__L___?$AA@ 4013c91c     ui_main.obj
 0003:0000d92c       ??_C@_0O@OIEIJCPF@BOTH_B4_TL___?$AA@ 4013c92c     ui_main.obj
 0003:0000d93c       ??_C@_0O@MPAIHPKH@BOTH_B4_T____?$AA@ 4013c93c     ui_main.obj
 0003:0000d94c       ??_C@_0O@DHJILLBG@BOTH_B4_TR___?$AA@ 4013c94c     ui_main.obj
 0003:0000d95c       ??_C@_0O@FNFPELNF@BOTH_B4__R___?$AA@ 4013c95c     ui_main.obj
 0003:0000d96c       ??_C@_0O@OCBHFKJA@BOTH_B4_BR___?$AA@ 4013c96c     ui_main.obj
 0003:0000d97c       ??_C@_0O@GJDMEGCK@BOTH_R4_TR_S1?$AA@ 4013c97c     ui_main.obj
 0003:0000d98c       ??_C@_0O@GDGDIOEP@BOTH_R4_BL_S1?$AA@ 4013c98c     ui_main.obj
 0003:0000d99c       ??_C@_0O@LMLDKHKM@BOTH_R4_BR_S1?$AA@ 4013c99c     ui_main.obj
 0003:0000d9ac       ??_C@_0O@LGOMGPMJ@BOTH_R4_TL_S1?$AA@ 4013c9ac     ui_main.obj
 0003:0000d9bc       ??_C@_0O@DPLLGOJ@BOTH_R4__R_S1?$AA@ 4013c9bc     ui_main.obj
 0003:0000d9cc       ??_C@_0O@NMCLJPAK@BOTH_R4__L_S1?$AA@ 4013c9cc     ui_main.obj
 0003:0000d9dc       ??_C@_0O@EECDGDBN@BOTH_R4_B__S1?$AA@ 4013c9dc     ui_main.obj
 0003:0000d9ec       ??_C@_0O@PGEPEBKN@BOTH_S4_S1_TR?$AA@ 4013c9ec     ui_main.obj
 0003:0000d9fc       ??_C@_0O@DKKFKBLA@BOTH_S4_S1_BL?$AA@ 4013c9fc     ui_main.obj
 0003:0000da0c       ??_C@_0O@OOOEJOGP@BOTH_S4_S1_BR?$AA@ 4013ca0c     ui_main.obj
 0003:0000da1c       ??_C@_0O@CCAOHOHC@BOTH_S4_S1_TL?$AA@ 4013ca1c     ui_main.obj
 0003:0000da2c       ??_C@_0O@PKBKKOEM@BOTH_S4_S1__R?$AA@ 4013ca2c     ui_main.obj
 0003:0000da3c       ??_C@_0O@COFLJBJD@BOTH_S4_S1__L?$AA@ 4013ca3c     ui_main.obj
 0003:0000da4c       ??_C@_0O@EDOBDPOA@BOTH_S4_S1_T_?$AA@ 4013ca4c     ui_main.obj
 0003:0000da5c       ??_C@_0O@IPKHOGPL@BOTH_T4_BL_TL?$AA@ 4013ca5c     ui_main.obj
 0003:0000da6c       ??_C@_0O@OOEIKHGJ@BOTH_T4_BL_T_?$AA@ 4013ca6c     ui_main.obj
 0003:0000da7c       ??_C@_0O@CIEECIHM@BOTH_T4__L_BL?$AA@ 4013ca7c     ui_main.obj
 0003:0000da8c       ??_C@_0O@FBAALGCM@BOTH_T4__L_T_?$AA@ 4013ca8c     ui_main.obj
 0003:0000da9c       ??_C@_0O@OEKOMIGB@BOTH_T4__L_TR?$AA@ 4013ca9c     ui_main.obj
 0003:0000daac       ??_C@_0O@FGHNOIJM@BOTH_T4_TL__L?$AA@ 4013caac     ui_main.obj
 0003:0000dabc       ??_C@_0O@DLMHEGOP@BOTH_T4_TL_T_?$AA@ 4013cabc     ui_main.obj
 0003:0000dacc       ??_C@_0O@IOGJDIKC@BOTH_T4_TL_TR?$AA@ 4013cacc     ui_main.obj
 0003:0000dadc       ??_C@_0O@ICDMNHED@BOTH_T4_TL__R?$AA@ 4013cadc     ui_main.obj
 0003:0000daec       ??_C@_0O@OEBHGPAM@BOTH_T4_TR_T_?$AA@ 4013caec     ui_main.obj
 0003:0000dafc       ??_C@_0O@FNOMPOKA@BOTH_T4_TR__R?$AA@ 4013cafc     ui_main.obj
 0003:0000db0c       ??_C@_0O@IONAJPMP@BOTH_T4__R_T_?$AA@ 4013cb0c     ui_main.obj
 0003:0000db1c       ??_C@_0O@CDNFDOEA@BOTH_T4__R_BR?$AA@ 4013cb1c     ui_main.obj
 0003:0000db2c       ??_C@_0O@DBJIIOIK@BOTH_T4_BR_T_?$AA@ 4013cb2c     ui_main.obj
 0003:0000db3c       ??_C@_0O@IEDGPAMH@BOTH_T4_BR_TR?$AA@ 4013cb3c     ui_main.obj
 0003:0000db4c       ??_C@_0O@IDPCAJBK@BOTH_T4_BL__L?$AA@ 4013cb4c     ui_main.obj
 0003:0000db5c       ??_C@_0O@FLOGNJCE@BOTH_T4_BL_TR?$AA@ 4013cb5c     ui_main.obj
 0003:0000db6c       ??_C@_0O@FHLDDGMF@BOTH_T4_BL__R?$AA@ 4013cb6c     ui_main.obj
 0003:0000db7c       ??_C@_0O@EDENAGOG@BOTH_T4_BL_BR?$AA@ 4013cb7c     ui_main.obj
 0003:0000db8c       ??_C@_0O@DAOPPHLO@BOTH_T4__L_TL?$AA@ 4013cb8c     ui_main.obj
 0003:0000db9c       ??_C@_0O@OIPLCHIA@BOTH_T4__L__R?$AA@ 4013cb9c     ui_main.obj
 0003:0000dbac       ??_C@_0O@PMAFBHKD@BOTH_T4__L_BR?$AA@ 4013cbac     ui_main.obj
 0003:0000dbbc       ??_C@_0O@ECIDNILP@BOTH_T4_TL_BL?$AA@ 4013cbbc     ui_main.obj
 0003:0000dbcc       ??_C@_0O@JGMCOHGA@BOTH_T4_TL_BR?$AA@ 4013cbcc     ui_main.obj
 0003:0000dbdc       ??_C@_0O@GFMDDFON@BOTH_T4_T__BL?$AA@ 4013cbdc     ui_main.obj
 0003:0000dbec       ??_C@_0O@HBDNAFMO@BOTH_T4_T___L?$AA@ 4013cbec     ui_main.obj
 0003:0000dbfc       ??_C@_0O@HNGIOKCP@BOTH_T4_T__TL?$AA@ 4013cbfc     ui_main.obj
 0003:0000dc0c       ??_C@_0O@KJCJNFPA@BOTH_T4_T__TR?$AA@ 4013cc0c     ui_main.obj
 0003:0000dc1c       ??_C@_0O@KFHMDKBB@BOTH_T4_T___R?$AA@ 4013cc1c     ui_main.obj
 0003:0000dc2c       ??_C@_0O@LBICAKDC@BOTH_T4_T__BR?$AA@ 4013cc2c     ui_main.obj
 0003:0000dc3c       ??_C@_0O@JNFDPBFM@BOTH_T4_TR_BL?$AA@ 4013cc3c     ui_main.obj
 0003:0000dc4c       ??_C@_0O@IJKNMBHP@BOTH_T4_TR__L?$AA@ 4013cc4c     ui_main.obj
 0003:0000dc5c       ??_C@_0O@IFPICOJO@BOTH_T4_TR_TL?$AA@ 4013cc5c     ui_main.obj
 0003:0000dc6c       ??_C@_0O@EJBCMOID@BOTH_T4_TR_BR?$AA@ 4013cc6c     ui_main.obj
 0003:0000dc7c       ??_C@_0O@PHJEABJP@BOTH_T4__R_BL?$AA@ 4013cc7c     ui_main.obj
 0003:0000dc8c       ??_C@_0O@ODGKDBLM@BOTH_T4__R__L?$AA@ 4013cc8c     ui_main.obj
 0003:0000dc9c       ??_C@_0O@OPDPNOFN@BOTH_T4__R_TL?$AA@ 4013cc9c     ui_main.obj
 0003:0000dcac       ??_C@_0O@DLHOOBIC@BOTH_T4__R_TR?$AA@ 4013ccac     ui_main.obj
 0003:0000dcbc       ??_C@_0O@EINMBANK@BOTH_T4_BR_BL?$AA@ 4013ccbc     ui_main.obj
 0003:0000dccc       ??_C@_0O@FMCCCAPJ@BOTH_T4_BR__L?$AA@ 4013cccc     ui_main.obj
 0003:0000dcdc       ??_C@_0O@FAHHMPBI@BOTH_T4_BR_TL?$AA@ 4013ccdc     ui_main.obj
 0003:0000dcec       ??_C@_0O@IIGDBPCG@BOTH_T4_BR__R?$AA@ 4013ccec     ui_main.obj
 0003:0000dcfc       ??_C@_0O@HLAEPGGC@BOTH_A4_TR_BL?$AA@ 4013ccfc     ui_main.obj
 0003:0000dd0c       ??_C@_0O@LNLBNOBK@BOTH_A4_BL_TR?$AA@ 4013cd0c     ui_main.obj
 0003:0000dd1c       ??_C@_0O@LGCAMICG@BOTH_A4_BR_TL?$AA@ 4013cd1c     ui_main.obj
 0003:0000dd2c       ??_C@_0O@HAJFOAFO@BOTH_A4_TL_BR?$AA@ 4013cd2c     ui_main.obj
 0003:0000dd3c       ??_C@_0O@FDNDGIC@BOTH_A4__R__L?$AA@ 4013cd3c     ui_main.obj
 0003:0000dd4c       ??_C@_0O@OKMCALO@BOTH_A4__L__R?$AA@ 4013cd4c     ui_main.obj
 0003:0000dd5c       ??_C@_0O@OCHLHDEB@BOTH_A4_T__B_?$AA@ 4013cd5c     ui_main.obj
 0003:0000dd6c       ??_C@_0O@GDFIOOLC@BOTH_D3_B____?$AA@ 4013cd6c     ui_main.obj
 0003:0000dd7c       ??_C@_0O@EEBIADOA@BOTH_D3_BL___?$AA@ 4013cd7c     ui_main.obj
 0003:0000dd8c       ??_C@_0O@PLFABCKF@BOTH_D3__L___?$AA@ 4013cd8c     ui_main.obj
 0003:0000dd9c       ??_C@_0O@JBJHOCGG@BOTH_D3_TL___?$AA@ 4013cd9c     ui_main.obj
 0003:0000ddac       ??_C@_0O@EOEHMLIF@BOTH_D3_TR___?$AA@ 4013cdac     ui_main.obj
 0003:0000ddbc       ??_C@_0O@CEIADLEG@BOTH_D3__R___?$AA@ 4013cdbc     ui_main.obj
 0003:0000ddcc       ??_C@_0O@JLMICKAD@BOTH_D3_BR___?$AA@ 4013cdcc     ui_main.obj
 0003:0000dddc       ??_C@_0O@DHACHKGK@BOTH_B3_BL___?$AA@ 4013cddc     ui_main.obj
 0003:0000ddec       ??_C@_0O@IIEKGLCP@BOTH_B3__L___?$AA@ 4013cdec     ui_main.obj
 0003:0000ddfc       ??_C@_0O@OCINJLOM@BOTH_B3_TL___?$AA@ 4013cdfc     ui_main.obj
 0003:0000de0c       ??_C@_0O@MFMNHGLO@BOTH_B3_T____?$AA@ 4013ce0c     ui_main.obj
 0003:0000de1c       ??_C@_0O@DNFNLCAP@BOTH_B3_TR___?$AA@ 4013ce1c     ui_main.obj
 0003:0000de2c       ??_C@_0O@FHJKECMM@BOTH_B3__R___?$AA@ 4013ce2c     ui_main.obj
 0003:0000de3c       ??_C@_0O@OINCFDIJ@BOTH_B3_BR___?$AA@ 4013ce3c     ui_main.obj
 0003:0000de4c       ??_C@_0O@GDPJEPDD@BOTH_R3_TR_S1?$AA@ 4013ce4c     ui_main.obj
 0003:0000de5c       ??_C@_0O@GJKGIHFG@BOTH_R3_BL_S1?$AA@ 4013ce5c     ui_main.obj
 0003:0000de6c       ??_C@_0O@LGHGKOLF@BOTH_R3_BR_S1?$AA@ 4013ce6c     ui_main.obj
 0003:0000de7c       ??_C@_0O@LMCJGGNA@BOTH_R3_TL_S1?$AA@ 4013ce7c     ui_main.obj
 0003:0000de8c       ??_C@_0O@JDOLPPA@BOTH_R3__R_S1?$AA@ 4013ce8c     ui_main.obj
 0003:0000de9c       ??_C@_0O@NGOOJGBD@BOTH_R3__L_S1?$AA@ 4013ce9c     ui_main.obj
 0003:0000deac       ??_C@_0O@EOOGGKAE@BOTH_R3_B__S1?$AA@ 4013ceac     ui_main.obj
 0003:0000debc       ??_C@_0O@PMIKEILE@BOTH_S3_S1_TR?$AA@ 4013cebc     ui_main.obj
 0003:0000decc       ??_C@_0O@DAGAKIKJ@BOTH_S3_S1_BL?$AA@ 4013cecc     ui_main.obj
 0003:0000dedc       ??_C@_0O@OECBJHHG@BOTH_S3_S1_BR?$AA@ 4013cedc     ui_main.obj
 0003:0000deec       ??_C@_0O@CIMLHHGL@BOTH_S3_S1_TL?$AA@ 4013ceec     ui_main.obj
 0003:0000defc       ??_C@_0O@PANPKHFF@BOTH_S3_S1__R?$AA@ 4013cefc     ui_main.obj
 0003:0000df0c       ??_C@_0O@CEJOJIIK@BOTH_S3_S1__L?$AA@ 4013cf0c     ui_main.obj
 0003:0000df1c       ??_C@_0O@EJCEDGPJ@BOTH_S3_S1_T_?$AA@ 4013cf1c     ui_main.obj
 0003:0000df2c       ??_C@_0O@IFGCOPOC@BOTH_T3_BL_TL?$AA@ 4013cf2c     ui_main.obj
 0003:0000df3c       ??_C@_0O@OEINKOHA@BOTH_T3_BL_T_?$AA@ 4013cf3c     ui_main.obj
 0003:0000df4c       ??_C@_0O@CCIBCBGF@BOTH_T3__L_BL?$AA@ 4013cf4c     ui_main.obj
 0003:0000df5c       ??_C@_0O@FLMFLPDF@BOTH_T3__L_T_?$AA@ 4013cf5c     ui_main.obj
 0003:0000df6c       ??_C@_0O@OOGLMBHI@BOTH_T3__L_TR?$AA@ 4013cf6c     ui_main.obj
 0003:0000df7c       ??_C@_0O@FMLIOBIF@BOTH_T3_TL__L?$AA@ 4013cf7c     ui_main.obj
 0003:0000df8c       ??_C@_0O@DBACEPPG@BOTH_T3_TL_T_?$AA@ 4013cf8c     ui_main.obj
 0003:0000df9c       ??_C@_0O@IEKMDBLL@BOTH_T3_TL_TR?$AA@ 4013cf9c     ui_main.obj
 0003:0000dfac       ??_C@_0O@IIPJNOFK@BOTH_T3_TL__R?$AA@ 4013cfac     ui_main.obj
 0003:0000dfbc       ??_C@_0O@OONCGGBF@BOTH_T3_TR_T_?$AA@ 4013cfbc     ui_main.obj
 0003:0000dfcc       ??_C@_0O@FHCJPHLJ@BOTH_T3_TR__R?$AA@ 4013cfcc     ui_main.obj
 0003:0000dfdc       ??_C@_0O@IEBFJGNG@BOTH_T3__R_T_?$AA@ 4013cfdc     ui_main.obj
 0003:0000dfec       ??_C@_0O@CJBADHFJ@BOTH_T3__R_BR?$AA@ 4013cfec     ui_main.obj
 0003:0000dffc       ??_C@_0O@DLFNIHJD@BOTH_T3_BR_T_?$AA@ 4013cffc     ui_main.obj
 0003:0000e00c       ??_C@_0O@IOPDPJNO@BOTH_T3_BR_TR?$AA@ 4013d00c     ui_main.obj
 0003:0000e01c       ??_C@_0O@IJDHAAAD@BOTH_T3_BL__L?$AA@ 4013d01c     ui_main.obj
 0003:0000e02c       ??_C@_0O@FBCDNADN@BOTH_T3_BL_TR?$AA@ 4013d02c     ui_main.obj
 0003:0000e03c       ??_C@_0O@FNHGDPNM@BOTH_T3_BL__R?$AA@ 4013d03c     ui_main.obj
 0003:0000e04c       ??_C@_0O@EJIIAPPP@BOTH_T3_BL_BR?$AA@ 4013d04c     ui_main.obj
 0003:0000e05c       ??_C@_0O@DKCKPOKH@BOTH_T3__L_TL?$AA@ 4013d05c     ui_main.obj
 0003:0000e06c       ??_C@_0O@OCDOCOJJ@BOTH_T3__L__R?$AA@ 4013d06c     ui_main.obj
 0003:0000e07c       ??_C@_0O@PGMABOLK@BOTH_T3__L_BR?$AA@ 4013d07c     ui_main.obj
 0003:0000e08c       ??_C@_0O@EIEGNBKG@BOTH_T3_TL_BL?$AA@ 4013d08c     ui_main.obj
 0003:0000e09c       ??_C@_0O@JMAHOOHJ@BOTH_T3_TL_BR?$AA@ 4013d09c     ui_main.obj
 0003:0000e0ac       ??_C@_0O@GPAGDMPE@BOTH_T3_T__BL?$AA@ 4013d0ac     ui_main.obj
 0003:0000e0bc       ??_C@_0O@HLPIAMNH@BOTH_T3_T___L?$AA@ 4013d0bc     ui_main.obj
 0003:0000e0cc       ??_C@_0O@HHKNODDG@BOTH_T3_T__TL?$AA@ 4013d0cc     ui_main.obj
 0003:0000e0dc       ??_C@_0O@KDOMNMOJ@BOTH_T3_T__TR?$AA@ 4013d0dc     ui_main.obj
 0003:0000e0ec       ??_C@_0O@KPLJDDAI@BOTH_T3_T___R?$AA@ 4013d0ec     ui_main.obj
 0003:0000e0fc       ??_C@_0O@LLEHADCL@BOTH_T3_T__BR?$AA@ 4013d0fc     ui_main.obj
 0003:0000e10c       ??_C@_0O@JHJGPIEF@BOTH_T3_TR_BL?$AA@ 4013d10c     ui_main.obj
 0003:0000e11c       ??_C@_0O@IDGIMIGG@BOTH_T3_TR__L?$AA@ 4013d11c     ui_main.obj
 0003:0000e12c       ??_C@_0O@IPDNCHIH@BOTH_T3_TR_TL?$AA@ 4013d12c     ui_main.obj
 0003:0000e13c       ??_C@_0O@EDNHMHJK@BOTH_T3_TR_BR?$AA@ 4013d13c     ui_main.obj
 0003:0000e14c       ??_C@_0O@PNFBAIIG@BOTH_T3__R_BL?$AA@ 4013d14c     ui_main.obj
 0003:0000e15c       ??_C@_0O@OJKPDIKF@BOTH_T3__R__L?$AA@ 4013d15c     ui_main.obj
 0003:0000e16c       ??_C@_0O@OFPKNHEE@BOTH_T3__R_TL?$AA@ 4013d16c     ui_main.obj
 0003:0000e17c       ??_C@_0O@DBLLOIJL@BOTH_T3__R_TR?$AA@ 4013d17c     ui_main.obj
 0003:0000e18c       ??_C@_0O@ECBJBJMD@BOTH_T3_BR_BL?$AA@ 4013d18c     ui_main.obj
 0003:0000e19c       ??_C@_0O@FGOHCJOA@BOTH_T3_BR__L?$AA@ 4013d19c     ui_main.obj
 0003:0000e1ac       ??_C@_0O@FKLCMGAB@BOTH_T3_BR_TL?$AA@ 4013d1ac     ui_main.obj
 0003:0000e1bc       ??_C@_0O@ICKGBGDP@BOTH_T3_BR__R?$AA@ 4013d1bc     ui_main.obj
 0003:0000e1cc       ??_C@_0O@HBMBPPHL@BOTH_A3_TR_BL?$AA@ 4013d1cc     ui_main.obj
 0003:0000e1dc       ??_C@_0O@LHHENHAD@BOTH_A3_BL_TR?$AA@ 4013d1dc     ui_main.obj
 0003:0000e1ec       ??_C@_0O@LMOFMBDP@BOTH_A3_BR_TL?$AA@ 4013d1ec     ui_main.obj
 0003:0000e1fc       ??_C@_0O@HKFAOJEH@BOTH_A3_TL_BR?$AA@ 4013d1fc     ui_main.obj
 0003:0000e20c       ??_C@_0O@PPIDPJL@BOTH_A3__R__L?$AA@ 4013d20c     ui_main.obj
 0003:0000e21c       ??_C@_0O@EGJCJKH@BOTH_A3__L__R?$AA@ 4013d21c     ui_main.obj
 0003:0000e22c       ??_C@_0O@OILOHKFI@BOTH_A3_T__B_?$AA@ 4013d22c     ui_main.obj
 0003:0000e23c       ??_C@_0O@KPPCOOCM@BOTH_D2_B____?$AA@ 4013d23c     ui_main.obj
 0003:0000e24c       ??_C@_0O@IILCADHO@BOTH_D2_BL___?$AA@ 4013d24c     ui_main.obj
 0003:0000e25c       ??_C@_0O@DHPKBCDL@BOTH_D2__L___?$AA@ 4013d25c     ui_main.obj
 0003:0000e26c       ??_C@_0O@FNDNOCPI@BOTH_D2_TL___?$AA@ 4013d26c     ui_main.obj
 0003:0000e27c       ??_C@_0O@ICONMLBL@BOTH_D2_TR___?$AA@ 4013d27c     ui_main.obj
 0003:0000e28c       ??_C@_0O@OICKDLNI@BOTH_D2__R___?$AA@ 4013d28c     ui_main.obj
 0003:0000e29c       ??_C@_0O@FHGCCKJN@BOTH_D2_BR___?$AA@ 4013d29c     ui_main.obj
 0003:0000e2ac       ??_C@_0O@PLKIHKPE@BOTH_B2_BL___?$AA@ 4013d2ac     ui_main.obj
 0003:0000e2bc       ??_C@_0O@EEOAGLLB@BOTH_B2__L___?$AA@ 4013d2bc     ui_main.obj
 0003:0000e2cc       ??_C@_0O@COCHJLHC@BOTH_B2_TL___?$AA@ 4013d2cc     ui_main.obj
 0003:0000e2dc       ??_C@_0O@JGHHGCA@BOTH_B2_T____?$AA@ 4013d2dc     ui_main.obj
 0003:0000e2ec       ??_C@_0O@PBPHLCJB@BOTH_B2_TR___?$AA@ 4013d2ec     ui_main.obj
 0003:0000e2fc       ??_C@_0O@JLDAECFC@BOTH_B2__R___?$AA@ 4013d2fc     ui_main.obj
 0003:0000e30c       ??_C@_0O@CEHIFDBH@BOTH_B2_BR___?$AA@ 4013d30c     ui_main.obj
 0003:0000e31c       ??_C@_0O@KPFDEPKN@BOTH_R2_TR_S1?$AA@ 4013d31c     ui_main.obj
 0003:0000e32c       ??_C@_0O@KFAMIHMI@BOTH_R2_BL_S1?$AA@ 4013d32c     ui_main.obj
 0003:0000e33c       ??_C@_0O@HKNMKOCL@BOTH_R2_BR_S1?$AA@ 4013d33c     ui_main.obj
 0003:0000e34c       ??_C@_0O@HAIDGGEO@BOTH_R2_TL_S1?$AA@ 4013d34c     ui_main.obj
 0003:0000e35c       ??_C@_0O@MFJELPGO@BOTH_R2__R_S1?$AA@ 4013d35c     ui_main.obj
 0003:0000e36c       ??_C@_0O@BKEEJGIN@BOTH_R2__L_S1?$AA@ 4013d36c     ui_main.obj
 0003:0000e37c       ??_C@_0O@ICEMGKJK@BOTH_R2_B__S1?$AA@ 4013d37c     ui_main.obj
 0003:0000e38c       ??_C@_0O@DACAEICK@BOTH_S2_S1_TR?$AA@ 4013d38c     ui_main.obj
 0003:0000e39c       ??_C@_0O@PMMKKIDH@BOTH_S2_S1_BL?$AA@ 4013d39c     ui_main.obj
 0003:0000e3ac       ??_C@_0O@CIILJHOI@BOTH_S2_S1_BR?$AA@ 4013d3ac     ui_main.obj
 0003:0000e3bc       ??_C@_0O@OEGBHHPF@BOTH_S2_S1_TL?$AA@ 4013d3bc     ui_main.obj
 0003:0000e3cc       ??_C@_0O@DMHFKHML@BOTH_S2_S1__R?$AA@ 4013d3cc     ui_main.obj
 0003:0000e3dc       ??_C@_0O@OIDEJIBE@BOTH_S2_S1__L?$AA@ 4013d3dc     ui_main.obj
 0003:0000e3ec       ??_C@_0O@IFIODGGH@BOTH_S2_S1_T_?$AA@ 4013d3ec     ui_main.obj
 0003:0000e3fc       ??_C@_0O@EJMIOPHM@BOTH_T2_BL_TL?$AA@ 4013d3fc     ui_main.obj
 0003:0000e40c       ??_C@_0O@CICHKOOO@BOTH_T2_BL_T_?$AA@ 4013d40c     ui_main.obj
 0003:0000e41c       ??_C@_0O@OOCLCBPL@BOTH_T2__L_BL?$AA@ 4013d41c     ui_main.obj
 0003:0000e42c       ??_C@_0O@JHGPLPKL@BOTH_T2__L_T_?$AA@ 4013d42c     ui_main.obj
 0003:0000e43c       ??_C@_0O@CCMBMBOG@BOTH_T2__L_TR?$AA@ 4013d43c     ui_main.obj
 0003:0000e44c       ??_C@_0O@JABCOBBL@BOTH_T2_TL__L?$AA@ 4013d44c     ui_main.obj
 0003:0000e45c       ??_C@_0O@PNKIEPGI@BOTH_T2_TL_T_?$AA@ 4013d45c     ui_main.obj
 0003:0000e46c       ??_C@_0O@EIAGDBCF@BOTH_T2_TL_TR?$AA@ 4013d46c     ui_main.obj
 0003:0000e47c       ??_C@_0O@EEFDNOME@BOTH_T2_TL__R?$AA@ 4013d47c     ui_main.obj
 0003:0000e48c       ??_C@_0O@CCHIGGIL@BOTH_T2_TR_T_?$AA@ 4013d48c     ui_main.obj
 0003:0000e49c       ??_C@_0O@JLIDPHCH@BOTH_T2_TR__R?$AA@ 4013d49c     ui_main.obj
 0003:0000e4ac       ??_C@_0O@EILPJGEI@BOTH_T2__R_T_?$AA@ 4013d4ac     ui_main.obj
 0003:0000e4bc       ??_C@_0O@OFLKDHMH@BOTH_T2__R_BR?$AA@ 4013d4bc     ui_main.obj
 0003:0000e4cc       ??_C@_0O@PHPHIHAN@BOTH_T2_BR_T_?$AA@ 4013d4cc     ui_main.obj
 0003:0000e4dc       ??_C@_0O@ECFJPJEA@BOTH_T2_BR_TR?$AA@ 4013d4dc     ui_main.obj
 0003:0000e4ec       ??_C@_0O@EFJNAAJN@BOTH_T2_BL__L?$AA@ 4013d4ec     ui_main.obj
 0003:0000e4fc       ??_C@_0O@JNIJNAKD@BOTH_T2_BL_TR?$AA@ 4013d4fc     ui_main.obj
 0003:0000e50c       ??_C@_0O@JBNMDPEC@BOTH_T2_BL__R?$AA@ 4013d50c     ui_main.obj
 0003:0000e51c       ??_C@_0O@IFCCAPGB@BOTH_T2_BL_BR?$AA@ 4013d51c     ui_main.obj
 0003:0000e52c       ??_C@_0O@PGIAPODJ@BOTH_T2__L_TL?$AA@ 4013d52c     ui_main.obj
 0003:0000e53c       ??_C@_0O@COJECOAH@BOTH_T2__L__R?$AA@ 4013d53c     ui_main.obj
 0003:0000e54c       ??_C@_0O@DKGKBOCE@BOTH_T2__L_BR?$AA@ 4013d54c     ui_main.obj
 0003:0000e55c       ??_C@_0O@IEOMNBDI@BOTH_T2_TL_BL?$AA@ 4013d55c     ui_main.obj
 0003:0000e56c       ??_C@_0O@FAKNOOOH@BOTH_T2_TL_BR?$AA@ 4013d56c     ui_main.obj
 0003:0000e57c       ??_C@_0O@KDKMDMGK@BOTH_T2_T__BL?$AA@ 4013d57c     ui_main.obj
 0003:0000e58c       ??_C@_0O@LHFCAMEJ@BOTH_T2_T___L?$AA@ 4013d58c     ui_main.obj
 0003:0000e59c       ??_C@_0O@LLAHODKI@BOTH_T2_T__TL?$AA@ 4013d59c     ui_main.obj
 0003:0000e5ac       ??_C@_0O@GPEGNMHH@BOTH_T2_T__TR?$AA@ 4013d5ac     ui_main.obj
 0003:0000e5bc       ??_C@_0O@GDBDDDJG@BOTH_T2_T___R?$AA@ 4013d5bc     ui_main.obj
 0003:0000e5cc       ??_C@_0O@HHONADLF@BOTH_T2_T__BR?$AA@ 4013d5cc     ui_main.obj
 0003:0000e5dc       ??_C@_0O@FLDMPINL@BOTH_T2_TR_BL?$AA@ 4013d5dc     ui_main.obj
 0003:0000e5ec       ??_C@_0O@EPMCMIPI@BOTH_T2_TR__L?$AA@ 4013d5ec     ui_main.obj
 0003:0000e5fc       ??_C@_0O@EDJHCHBJ@BOTH_T2_TR_TL?$AA@ 4013d5fc     ui_main.obj
 0003:0000e60c       ??_C@_0O@IPHNMHAE@BOTH_T2_TR_BR?$AA@ 4013d60c     ui_main.obj
 0003:0000e61c       ??_C@_0O@DBPLAIBI@BOTH_T2__R_BL?$AA@ 4013d61c     ui_main.obj
 0003:0000e62c       ??_C@_0O@CFAFDIDL@BOTH_T2__R__L?$AA@ 4013d62c     ui_main.obj
 0003:0000e63c       ??_C@_0O@CJFANHNK@BOTH_T2__R_TL?$AA@ 4013d63c     ui_main.obj
 0003:0000e64c       ??_C@_0O@PNBBOIAF@BOTH_T2__R_TR?$AA@ 4013d64c     ui_main.obj
 0003:0000e65c       ??_C@_0O@IOLDBJFN@BOTH_T2_BR_BL?$AA@ 4013d65c     ui_main.obj
 0003:0000e66c       ??_C@_0O@JKENCJHO@BOTH_T2_BR__L?$AA@ 4013d66c     ui_main.obj
 0003:0000e67c       ??_C@_0O@JGBIMGJP@BOTH_T2_BR_TL?$AA@ 4013d67c     ui_main.obj
 0003:0000e68c       ??_C@_0O@EOAMBGKB@BOTH_T2_BR__R?$AA@ 4013d68c     ui_main.obj
 0003:0000e69c       ??_C@_0O@LNGLPPOF@BOTH_A2_TR_BL?$AA@ 4013d69c     ui_main.obj
 0003:0000e6ac       ??_C@_0O@HLNONHJN@BOTH_A2_BL_TR?$AA@ 4013d6ac     ui_main.obj
 0003:0000e6bc       ??_C@_0O@HAEPMBKB@BOTH_A2_BR_TL?$AA@ 4013d6bc     ui_main.obj
 0003:0000e6cc       ??_C@_0O@LGPKOJNJ@BOTH_A2_TL_BR?$AA@ 4013d6cc     ui_main.obj
 0003:0000e6dc       ??_C@_0O@MDFCDPAF@BOTH_A2__R__L?$AA@ 4013d6dc     ui_main.obj
 0003:0000e6ec       ??_C@_0O@MIMDCJDJ@BOTH_A2__L__R?$AA@ 4013d6ec     ui_main.obj
 0003:0000e6fc       ??_C@_0O@CEBEHKMG@BOTH_A2_T__B_?$AA@ 4013d6fc     ui_main.obj
 0003:0000e70c       ??_C@_0O@CBHNOJMP@BOTH_D1_B____?$AA@ 4013d70c     ui_main.obj
 0003:0000e71c       ??_C@_0O@GDNAEJN@BOTH_D1_BL___?$AA@ 4013d71c     ui_main.obj
 0003:0000e72c       ??_C@_0O@LJHFBFNI@BOTH_D1__L___?$AA@ 4013d72c     ui_main.obj
 0003:0000e73c       ??_C@_0O@NDLCOFBL@BOTH_D1_TL___?$AA@ 4013d73c     ui_main.obj
 0003:0000e74c       ??_C@_0O@MGCMMPI@BOTH_D1_TR___?$AA@ 4013d74c     ui_main.obj
 0003:0000e75c       ??_C@_0O@GGKFDMDL@BOTH_D1__R___?$AA@ 4013d75c     ui_main.obj
 0003:0000e76c       ??_C@_0O@NJONCNHO@BOTH_D1_BR___?$AA@ 4013d76c     ui_main.obj
 0003:0000e77c       ??_C@_0O@HFCHHNBH@BOTH_B1_BL___?$AA@ 4013d77c     ui_main.obj
 0003:0000e78c       ??_C@_0O@MKGPGMFC@BOTH_B1__L___?$AA@ 4013d78c     ui_main.obj
 0003:0000e79c       ??_C@_0O@KAKIJMJB@BOTH_B1_TL___?$AA@ 4013d79c     ui_main.obj
 0003:0000e7ac       ??_C@_0O@IHOIHBMD@BOTH_B1_T____?$AA@ 4013d7ac     ui_main.obj
 0003:0000e7bc       ??_C@_0O@HPHILFHC@BOTH_B1_TR___?$AA@ 4013d7bc     ui_main.obj
 0003:0000e7cc       ??_C@_0O@BFLPEFLB@BOTH_B1__R___?$AA@ 4013d7cc     ui_main.obj
 0003:0000e7dc       ??_C@_0O@KKPHFEPE@BOTH_B1_BR___?$AA@ 4013d7dc     ui_main.obj
 0003:0000e7ec       ??_C@_0O@CBNMEIEO@BOTH_R1_TR_S1?$AA@ 4013d7ec     ui_main.obj
 0003:0000e7fc       ??_C@_0O@CLIDIACL@BOTH_R1_BL_S1?$AA@ 4013d7fc     ui_main.obj
 0003:0000e80c       ??_C@_0O@PEFDKJMI@BOTH_R1_BR_S1?$AA@ 4013d80c     ui_main.obj
 0003:0000e81c       ??_C@_0O@POAMGBKN@BOTH_R1_TL_S1?$AA@ 4013d81c     ui_main.obj
 0003:0000e82c       ??_C@_0O@ELBLLIIN@BOTH_R1__R_S1?$AA@ 4013d82c     ui_main.obj
 0003:0000e83c       ??_C@_0O@JEMLJBGO@BOTH_R1__L_S1?$AA@ 4013d83c     ui_main.obj
 0003:0000e84c       ??_C@_0O@MMDGNHJ@BOTH_R1_B__S1?$AA@ 4013d84c     ui_main.obj
 0003:0000e85c       ??_C@_0O@LOKPEPMJ@BOTH_S1_S1_TR?$AA@ 4013d85c     ui_main.obj
 0003:0000e86c       ??_C@_0O@HCEFKPNE@BOTH_S1_S1_BL?$AA@ 4013d86c     ui_main.obj
 0003:0000e87c       ??_C@_0O@KGAEJAAL@BOTH_S1_S1_BR?$AA@ 4013d87c     ui_main.obj
 0003:0000e88c       ??_C@_0O@GKOOHABG@BOTH_S1_S1_TL?$AA@ 4013d88c     ui_main.obj
 0003:0000e89c       ??_C@_0O@LCPKKACI@BOTH_S1_S1__R?$AA@ 4013d89c     ui_main.obj
 0003:0000e8ac       ??_C@_0O@GGLLJPPH@BOTH_S1_S1__L?$AA@ 4013d8ac     ui_main.obj
 0003:0000e8bc       ??_C@_0O@LABDBIE@BOTH_S1_S1_T_?$AA@ 4013d8bc     ui_main.obj
 0003:0000e8cc       ??_C@_0O@MHEHOIJP@BOTH_T1_BL_TL?$AA@ 4013d8cc     ui_main.obj
 0003:0000e8dc       ??_C@_0O@KGKIKJAN@BOTH_T1_BL_T_?$AA@ 4013d8dc     ui_main.obj
 0003:0000e8ec       ??_C@_0O@GAKECGBI@BOTH_T1__L_BL?$AA@ 4013d8ec     ui_main.obj
 0003:0000e8fc       ??_C@_0O@BJOALIEI@BOTH_T1__L_T_?$AA@ 4013d8fc     ui_main.obj
 0003:0000e90c       ??_C@_0O@KMEOMGAF@BOTH_T1__L_TR?$AA@ 4013d90c     ui_main.obj
 0003:0000e91c       ??_C@_0O@BOJNOGPI@BOTH_T1_TL__L?$AA@ 4013d91c     ui_main.obj
 0003:0000e92c       ??_C@_0O@HDCHEIIL@BOTH_T1_TL_T_?$AA@ 4013d92c     ui_main.obj
 0003:0000e93c       ??_C@_0O@MGIJDGMG@BOTH_T1_TL_TR?$AA@ 4013d93c     ui_main.obj
 0003:0000e94c       ??_C@_0O@MKNMNJCH@BOTH_T1_TL__R?$AA@ 4013d94c     ui_main.obj
 0003:0000e95c       ??_C@_0O@KMPHGBGI@BOTH_T1_TR_T_?$AA@ 4013d95c     ui_main.obj
 0003:0000e96c       ??_C@_0O@BFAMPAME@BOTH_T1_TR__R?$AA@ 4013d96c     ui_main.obj
 0003:0000e97c       ??_C@_0O@MGDAJBKL@BOTH_T1__R_T_?$AA@ 4013d97c     ui_main.obj
 0003:0000e98c       ??_C@_0O@GLDFDACE@BOTH_T1__R_BR?$AA@ 4013d98c     ui_main.obj
 0003:0000e99c       ??_C@_0O@HJHIIAOO@BOTH_T1_BR_T_?$AA@ 4013d99c     ui_main.obj
 0003:0000e9ac       ??_C@_0O@MMNGPOKD@BOTH_T1_BR_TR?$AA@ 4013d9ac     ui_main.obj
 0003:0000e9bc       ??_C@_0O@MLBCAHHO@BOTH_T1_BL__L?$AA@ 4013d9bc     ui_main.obj
 0003:0000e9cc       ??_C@_0O@BDAGNHEA@BOTH_T1_BL_TR?$AA@ 4013d9cc     ui_main.obj
 0003:0000e9dc       ??_C@_0O@BPFDDIKB@BOTH_T1_BL__R?$AA@ 4013d9dc     ui_main.obj
 0003:0000e9ec       ??_C@_0O@LKNAIIC@BOTH_T1_BL_BR?$AA@ 4013d9ec     ui_main.obj
 0003:0000e9fc       ??_C@_0O@HIAPPJNK@BOTH_T1__L_TL?$AA@ 4013d9fc     ui_main.obj
 0003:0000ea0c       ??_C@_0O@KABLCJOE@BOTH_T1__L__R?$AA@ 4013da0c     ui_main.obj
 0003:0000ea1c       ??_C@_0O@LEOFBJMH@BOTH_T1__L_BR?$AA@ 4013da1c     ui_main.obj
 0003:0000ea2c       ??_C@_0O@KGDNGNL@BOTH_T1_TL_BL?$AA@ 4013da2c     ui_main.obj
 0003:0000ea3c       ??_C@_0O@NOCCOJAE@BOTH_T1_TL_BR?$AA@ 4013da3c     ui_main.obj
 0003:0000ea4c       ??_C@_0O@CNCDDLIJ@BOTH_T1_T__BL?$AA@ 4013da4c     ui_main.obj
 0003:0000ea5c       ??_C@_0O@DJNNALKK@BOTH_T1_T___L?$AA@ 4013da5c     ui_main.obj
 0003:0000ea6c       ??_C@_0O@DFIIOEEL@BOTH_T1_T__TL?$AA@ 4013da6c     ui_main.obj
 0003:0000ea7c       ??_C@_0O@OBMJNLJE@BOTH_T1_T__TR?$AA@ 4013da7c     ui_main.obj
 0003:0000ea8c       ??_C@_0O@ONJMDEHF@BOTH_T1_T___R?$AA@ 4013da8c     ui_main.obj
 0003:0000ea9c       ??_C@_0O@PJGCAEFG@BOTH_T1_T__BR?$AA@ 4013da9c     ui_main.obj
 0003:0000eaac       ??_C@_0O@NFLDPPDI@BOTH_T1_TR_BL?$AA@ 4013daac     ui_main.obj
 0003:0000eabc       ??_C@_0O@MBENMPBL@BOTH_T1_TR__L?$AA@ 4013dabc     ui_main.obj
 0003:0000eacc       ??_C@_0O@MNBICAPK@BOTH_T1_TR_TL?$AA@ 4013dacc     ui_main.obj
 0003:0000eadc       ??_C@_0O@BPCMAOH@BOTH_T1_TR_BR?$AA@ 4013dadc     ui_main.obj
 0003:0000eaec       ??_C@_0O@LPHEAPPL@BOTH_T1__R_BL?$AA@ 4013daec     ui_main.obj
 0003:0000eafc       ??_C@_0O@KLIKDPNI@BOTH_T1__R__L?$AA@ 4013dafc     ui_main.obj
 0003:0000eb0c       ??_C@_0O@KHNPNADJ@BOTH_T1__R_TL?$AA@ 4013db0c     ui_main.obj
 0003:0000eb1c       ??_C@_0O@HDJOOPOG@BOTH_T1__R_TR?$AA@ 4013db1c     ui_main.obj
 0003:0000eb2c       ??_C@_0O@DMBOLO@BOTH_T1_BR_BL?$AA@ 4013db2c     ui_main.obj
 0003:0000eb3c       ??_C@_0O@BEMCCOJN@BOTH_T1_BR__L?$AA@ 4013db3c     ui_main.obj
 0003:0000eb4c       ??_C@_0O@BIJHMBHM@BOTH_T1_BR_TL?$AA@ 4013db4c     ui_main.obj
 0003:0000eb5c       ??_C@_0O@MAIDBBEC@BOTH_T1_BR__R?$AA@ 4013db5c     ui_main.obj
 0003:0000eb6c       ??_C@_0O@DDOEPIAG@BOTH_A1_TR_BL?$AA@ 4013db6c     ui_main.obj
 0003:0000eb7c       ??_C@_0O@PFFBNAHO@BOTH_A1_BL_TR?$AA@ 4013db7c     ui_main.obj
 0003:0000eb8c       ??_C@_0O@POMAMGEC@BOTH_A1_BR_TL?$AA@ 4013db8c     ui_main.obj
 0003:0000eb9c       ??_C@_0O@DIHFOODK@BOTH_A1_TL_BR?$AA@ 4013db9c     ui_main.obj
 0003:0000ebac       ??_C@_0O@ENNNDIOG@BOTH_A1__R__L?$AA@ 4013dbac     ui_main.obj
 0003:0000ebbc       ??_C@_0O@EGEMCONK@BOTH_A1__L__R?$AA@ 4013dbbc     ui_main.obj
 0003:0000ebcc       ??_C@_0O@KKJLHNCF@BOTH_A1_T__B_?$AA@ 4013dbcc     ui_main.obj
 0003:0000ebdc       ??_C@_0BD@KGEHHFNO@BOTH_THERMAL_THROW?$AA@ 4013dbdc     ui_main.obj
 0003:0000ebf4       ??_C@_0BD@FIPEGIGM@BOTH_THERMAL_READY?$AA@ 4013dbf4     ui_main.obj
 0003:0000ec0c       ??_C@_0M@JENABCOK@BOTH_MELEE2?$AA@ 4013dc0c     ui_main.obj
 0003:0000ec1c       ??_C@_0M@LPPNEBCJ@BOTH_MELEE1?$AA@ 4013dc1c     ui_main.obj
 0003:0000ec2c       ??_C@_0O@LECODOED@BOTH_ATTACK11?$AA@ 4013dc2c     ui_main.obj
 0003:0000ec3c       ??_C@_0O@KNDFAPAC@BOTH_ATTACK10?$AA@ 4013dc3c     ui_main.obj
 0003:0000ec4c       ??_C@_0N@CCAENDEA@BOTH_ATTACK7?$AA@ 4013dc4c     ui_main.obj
 0003:0000ec5c       ??_C@_0N@DLBPOCAB@BOTH_ATTACK6?$AA@ 4013dc5c     ui_main.obj
 0003:0000ec6c       ??_C@_0N@BADCLBMC@BOTH_ATTACK5?$AA@ 4013dc6c     ui_main.obj
 0003:0000ec7c       ??_C@_0N@JCJIAID@BOTH_ATTACK4?$AA@ 4013dc7c     ui_main.obj
 0003:0000ec8c       ??_C@_0N@EGGIBGEE@BOTH_ATTACK3?$AA@ 4013dc8c     ui_main.obj
 0003:0000ec9c       ??_C@_0N@FPHDCHAF@BOTH_ATTACK2?$AA@ 4013dc9c     ui_main.obj
 0003:0000ecac       ??_C@_0N@HEFOHEMG@BOTH_ATTACK1?$AA@ 4013dcac     ui_main.obj
 0003:0000ecbc       ??_C@_0M@LPLOINIF@BOTH_PAIN18?$AA@ 4013dcbc     ui_main.obj
 0003:0000eccc       ??_C@_0M@DICGJBEK@BOTH_PAIN17?$AA@ 4013dccc     ui_main.obj
 0003:0000ecdc       ??_C@_0M@CBDNKAAL@BOTH_PAIN16?$AA@ 4013dcdc     ui_main.obj
 0003:0000ecec       ??_C@_0M@KBAPDMI@BOTH_PAIN15?$AA@ 4013dcec     ui_main.obj
 0003:0000ecfc       ??_C@_0M@BDALMCIJ@BOTH_PAIN14?$AA@ 4013dcfc     ui_main.obj
 0003:0000ed0c       ??_C@_0M@FMEKFEEO@BOTH_PAIN13?$AA@ 4013dd0c     ui_main.obj
 0003:0000ed1c       ??_C@_0M@EFFBGFAP@BOTH_PAIN12?$AA@ 4013dd1c     ui_main.obj
 0003:0000ed2c       ??_C@_0M@GOHMDGMM@BOTH_PAIN11?$AA@ 4013dd2c     ui_main.obj
 0003:0000ed3c       ??_C@_0M@HHGHAHIN@BOTH_PAIN10?$AA@ 4013dd3c     ui_main.obj
 0003:0000ed4c       ??_C@_0L@IODHKBKF@BOTH_PAIN9?$AA@ 4013dd4c     ui_main.obj
 0003:0000ed5c       ??_C@_0L@JHCMJAOE@BOTH_PAIN8?$AA@ 4013dd5c     ui_main.obj
 0003:0000ed6c       ??_C@_0L@BALEIMCL@BOTH_PAIN7?$AA@ 4013dd6c     ui_main.obj
 0003:0000ed7c       ??_C@_0L@JKPLNGK@BOTH_PAIN6?$AA@ 4013dd7c     ui_main.obj
 0003:0000ed8c       ??_C@_0L@CCICOOKJ@BOTH_PAIN5?$AA@ 4013dd8c     ui_main.obj
 0003:0000ed9c       ??_C@_0L@DLJJNPOI@BOTH_PAIN4?$AA@ 4013dd9c     ui_main.obj
 0003:0000edac       ??_C@_0L@HENIEJCP@BOTH_PAIN3?$AA@ 4013ddac     ui_main.obj
 0003:0000edbc       ??_C@_0L@GNMDHIGO@BOTH_PAIN2?$AA@ 4013ddbc     ui_main.obj
 0003:0000edcc       ??_C@_0L@EGOOCLKN@BOTH_PAIN1?$AA@ 4013ddcc     ui_main.obj
 0003:0000eddc       ??_C@_0BE@FGJIJAMF@BOTH_DISMEMBER_LARM?$AA@ 4013dddc     ui_main.obj
 0003:0000edf4       ??_C@_0BE@IJEILJCG@BOTH_DISMEMBER_RARM?$AA@ 4013ddf4     ui_main.obj
 0003:0000ee0c       ??_C@_0BE@JIKEDMIE@BOTH_DISMEMBER_RLEG?$AA@ 4013de0c     ui_main.obj
 0003:0000ee24       ??_C@_0BE@EHHEBFGH@BOTH_DISMEMBER_LLEG?$AA@ 4013de24     ui_main.obj
 0003:0000ee3c       ??_C@_0BG@CFOELION@BOTH_DISMEMBER_TORSO1?$AA@ 4013de3c     ui_main.obj
 0003:0000ee58       ??_C@_0BF@OGJIODF@BOTH_DISMEMBER_HEAD1?$AA@ 4013de58     ui_main.obj
 0003:0000ee74       ??_C@_0P@BJPINMOA@BOTH_DEADFLOP2?$AA@ 4013de74     ui_main.obj
 0003:0000ee88       ??_C@_0P@DCNFIPCD@BOTH_DEADFLOP1?$AA@ 4013de88     ui_main.obj
 0003:0000ee9c       ??_C@_0BD@BHDKBOHF@BOTH_FALLDEAD1LAND?$AA@ 4013de9c     ui_main.obj
 0003:0000eeb4       ??_C@_0BC@DDLFNCPA@BOTH_STUMBLEDEAD1?$AA@ 4013deb4     ui_main.obj
 0003:0000eecc       ??_C@_0BA@HDEKJGIF@BOTH_LYINGDEAD1?$AA@ 4013decc     ui_main.obj
 0003:0000eee0       ??_C@_0BD@OGHNINBL@BOTH_DEADBACKWARD2?$AA@ 4013dee0     ui_main.obj
 0003:0000eef8       ??_C@_0BD@MNFANONI@BOTH_DEADBACKWARD1?$AA@ 4013def8     ui_main.obj
 0003:0000ef10       ??_C@_0BC@OHBPMGIK@BOTH_DEADFORWARD2?$AA@ 4013df10     ui_main.obj
 0003:0000ef28       ??_C@_0BC@MMDCJFEJ@BOTH_DEADFORWARD1?$AA@ 4013df28     ui_main.obj
 0003:0000ef40       ??_C@_0M@FPJLBMPP@BOTH_DEAD25?$AA@ 4013df40     ui_main.obj
 0003:0000ef50       ??_C@_0M@EGIACNLO@BOTH_DEAD24?$AA@ 4013df50     ui_main.obj
 0003:0000ef60       ??_C@_0M@JMBLLHJ@BOTH_DEAD23?$AA@ 4013df60     ui_main.obj
 0003:0000ef70       ??_C@_0M@BANKIKDI@BOTH_DEAD22?$AA@ 4013df70     ui_main.obj
 0003:0000ef80       ??_C@_0M@DLPHNJPL@BOTH_DEAD21?$AA@ 4013df80     ui_main.obj
 0003:0000ef90       ??_C@_0M@CCOMOILK@BOTH_DEAD20?$AA@ 4013df90     ui_main.obj
 0003:0000efa0       ??_C@_0M@PBGIONKK@BOTH_DEAD19?$AA@ 4013dfa0     ui_main.obj
 0003:0000efb0       ??_C@_0M@OIHDNMOL@BOTH_DEAD18?$AA@ 4013dfb0     ui_main.obj
 0003:0000efc0       ??_C@_0M@GPOLMACE@BOTH_DEAD17?$AA@ 4013dfc0     ui_main.obj
 0003:0000efd0       ??_C@_0M@HGPAPBGF@BOTH_DEAD16?$AA@ 4013dfd0     ui_main.obj
 0003:0000efe0       ??_C@_0M@FNNNKCKG@BOTH_DEAD15?$AA@ 4013dfe0     ui_main.obj
 0003:0000eff0       ??_C@_0M@EEMGJDOH@BOTH_DEAD14?$AA@ 4013dff0     ui_main.obj
 0003:0000f000       ??_C@_0M@LIHAFCA@BOTH_DEAD13?$AA@ 4013e000     ui_main.obj
 0003:0000f010       ??_C@_0M@BCJMDEGB@BOTH_DEAD12?$AA@ 4013e010     ui_main.obj
 0003:0000f020       ??_C@_0M@DJLBGHKC@BOTH_DEAD11?$AA@ 4013e020     ui_main.obj
 0003:0000f030       ??_C@_0M@CAKKFGOD@BOTH_DEAD10?$AA@ 4013e030     ui_main.obj
 0003:0000f040       ??_C@_0L@CLNDOKNB@BOTH_DEAD9?$AA@ 4013e040     ui_main.obj
 0003:0000f050       ??_C@_0L@DCMINLJA@BOTH_DEAD8?$AA@ 4013e050     ui_main.obj
 0003:0000f060       ??_C@_0L@LFFAMHFP@BOTH_DEAD7?$AA@ 4013e060     ui_main.obj
 0003:0000f070       ??_C@_0L@KMELPGBO@BOTH_DEAD6?$AA@ 4013e070     ui_main.obj
 0003:0000f080       ??_C@_0L@IHGGKFNN@BOTH_DEAD5?$AA@ 4013e080     ui_main.obj
 0003:0000f090       ??_C@_0L@JOHNJEJM@BOTH_DEAD4?$AA@ 4013e090     ui_main.obj
 0003:0000f0a0       ??_C@_0L@NBDMACFL@BOTH_DEAD3?$AA@ 4013e0a0     ui_main.obj
 0003:0000f0b0       ??_C@_0L@MICHDDBK@BOTH_DEAD2?$AA@ 4013e0b0     ui_main.obj
 0003:0000f0c0       ??_C@_0L@ODAKGANJ@BOTH_DEAD1?$AA@ 4013e0c0     ui_main.obj
 0003:0000f0d0       ??_C@_0BE@CACMPNDI@BOTH_DEATH_CROUCHED?$AA@ 4013e0d0     ui_main.obj
 0003:0000f0e8       ??_C@_0BG@GMBJBMLI@BOTH_DEATH_FALLING_UP?$AA@ 4013e0e8     ui_main.obj
 0003:0000f104       ??_C@_0BG@KFLMOKCA@BOTH_DEATH_FALLING_DN?$AA@ 4013e104     ui_main.obj
 0003:0000f120       ??_C@_0BE@GLFNKCIG@BOTH_DEATH_LYING_DN?$AA@ 4013e120     ui_main.obj
 0003:0000f138       ??_C@_0BE@KCPIFEBO@BOTH_DEATH_LYING_UP?$AA@ 4013e138     ui_main.obj
 0003:0000f150       ??_C@_0BE@GAFFKNDC@BOTH_DEATH_SPIN_180?$AA@ 4013e150     ui_main.obj
 0003:0000f168       ??_C@_0BF@CCDEOLBH@BOTH_DEATH_SPIN_90_L?$AA@ 4013e168     ui_main.obj
 0003:0000f184       ??_C@_0BF@PGHFNEMI@BOTH_DEATH_SPIN_90_R?$AA@ 4013e184     ui_main.obj
 0003:0000f1a0       ??_C@_0BA@PMBFHAFE@BOTH_DEATH_FLIP?$AA@ 4013e1a0     ui_main.obj
 0003:0000f1b4       ??_C@_0BA@JLHMHBEO@BOTH_DEATH_ROLL?$AA@ 4013e1b4     ui_main.obj
 0003:0000f1c8       ??_C@_0BE@KLPONOFB@BOTH_FALLDEATH1LAND?$AA@ 4013e1c8     ui_main.obj
 0003:0000f1e0       ??_C@_0BF@BGGMCFAN@BOTH_FALLDEATH1INAIR?$AA@ 4013e1e0     ui_main.obj
 0003:0000f1fc       ??_C@_0BA@MMMHHMBO@BOTH_FALLDEATH1?$AA@ 4013e1fc     ui_main.obj
 0003:0000f210       ??_C@_0BD@HAOKEEDM@BOTH_STUMBLEDEATH1?$AA@ 4013e210     ui_main.obj
 0003:0000f228       ??_C@_0BB@FAMFDOML@BOTH_LYINGDEATH1?$AA@ 4013e228     ui_main.obj
 0003:0000f23c       ??_C@_0BA@LIHBIFLP@BOTH_DEATH1IDLE?$AA@ 4013e23c     ui_main.obj
 0003:0000f250       ??_C@_0BE@OINPDLJH@BOTH_DEATHBACKWARD2?$AA@ 4013e250     ui_main.obj
 0003:0000f268       ??_C@_0BE@MDPCGIFE@BOTH_DEATHBACKWARD1?$AA@ 4013e268     ui_main.obj
 0003:0000f280       ??_C@_0BD@IHDKEJMD@BOTH_DEATHFORWARD3?$AA@ 4013e280     ui_main.obj
 0003:0000f298       ??_C@_0BD@JOCBHIIC@BOTH_DEATHFORWARD2?$AA@ 4013e298     ui_main.obj
 0003:0000f2b0       ??_C@_0BD@LFAMCLEB@BOTH_DEATHFORWARD1?$AA@ 4013e2b0     ui_main.obj
 0003:0000f2c8       ??_C@_0N@OOEBHHNI@BOTH_DEATH25?$AA@ 4013e2c8     ui_main.obj
 0003:0000f2d8       ??_C@_0N@PHFKEGJJ@BOTH_DEATH24?$AA@ 4013e2d8     ui_main.obj
 0003:0000f2e8       ??_C@_0N@LIBLNAFO@BOTH_DEATH23?$AA@ 4013e2e8     ui_main.obj
 0003:0000f2f8       ??_C@_0N@KBAAOBBP@BOTH_DEATH22?$AA@ 4013e2f8     ui_main.obj
 0003:0000f308       ??_C@_0N@IKCNLCNM@BOTH_DEATH21?$AA@ 4013e308     ui_main.obj
 0003:0000f318       ??_C@_0N@JDDGIDJN@BOTH_DEATH20?$AA@ 4013e318     ui_main.obj
 0003:0000f328       ??_C@_0N@EALCIGIN@BOTH_DEATH19?$AA@ 4013e328     ui_main.obj
 0003:0000f338       ??_C@_0N@FJKJLHMM@BOTH_DEATH18?$AA@ 4013e338     ui_main.obj
 0003:0000f348       ??_C@_0N@NODBKLAD@BOTH_DEATH17?$AA@ 4013e348     ui_main.obj
 0003:0000f358       ??_C@_0N@MHCKJKEC@BOTH_DEATH16?$AA@ 4013e358     ui_main.obj
 0003:0000f368       ??_C@_0N@OMAHMJIB@BOTH_DEATH15?$AA@ 4013e368     ui_main.obj
 0003:0000f378       ??_C@_0N@PFBMPIMA@BOTH_DEATH14?$AA@ 4013e378     ui_main.obj
 0003:0000f388       ??_C@_0N@LKFNGOAH@BOTH_DEATH13?$AA@ 4013e388     ui_main.obj
 0003:0000f398       ??_C@_0N@KDEGFPEG@BOTH_DEATH12?$AA@ 4013e398     ui_main.obj
 0003:0000f3a8       ??_C@_0N@IIGLAMIF@BOTH_DEATH11?$AA@ 4013e3a8     ui_main.obj
 0003:0000f3b8       ??_C@_0N@JBHADNME@BOTH_DEATH10?$AA@ 4013e3b8     ui_main.obj
 0003:0000f3c8       ??_C@_0M@PKFBOJOK@BOTH_DEATH9?$AA@ 4013e3c8     ui_main.obj
 0003:0000f3d8       ??_C@_0M@ODEKNIKL@BOTH_DEATH8?$AA@ 4013e3d8     ui_main.obj
 0003:0000f3e8       ??_C@_0M@GENCMEGE@BOTH_DEATH7?$AA@ 4013e3e8     ui_main.obj
 0003:0000f3f8       ??_C@_0M@HNMJPFCF@BOTH_DEATH6?$AA@ 4013e3f8     ui_main.obj
 0003:0000f408       ??_C@_0M@FGOEKGOG@BOTH_DEATH5?$AA@ 4013e408     ui_main.obj
 0003:0000f418       ??_C@_0M@EPPPJHKH@BOTH_DEATH4?$AA@ 4013e418     ui_main.obj
 0003:0000f428       ??_C@_0M@LOABGA@BOTH_DEATH3?$AA@ 4013e428     ui_main.obj
 0003:0000f438       ??_C@_0M@BJKFDACB@BOTH_DEATH2?$AA@ 4013e438     ui_main.obj
 0003:0000f448       ??_C@_0M@DCIIGDOC@BOTH_DEATH1?$AA@ 4013e448     ui_main.obj
 0003:0000f458       ??_C@_09OODFOJKI@FACE_DEAD?$AA@ 4013e458     ui_main.obj
 0003:0000f464       ??_C@_0L@NHKOPMDL@FACE_FROWN?$AA@ 4013e464     ui_main.obj
 0003:0000f474       ??_C@_0L@LAOJKFMG@FACE_SMILE?$AA@ 4013e474     ui_main.obj
 0003:0000f484       ??_C@_0L@MMCADNDE@FACE_ALERT?$AA@ 4013e484     ui_main.obj
 0003:0000f494       ??_C@_0L@GMKJNGHP@FACE_TALK4?$AA@ 4013e494     ui_main.obj
 0003:0000f4a4       ??_C@_0L@CDOIEALI@FACE_TALK3?$AA@ 4013e4a4     ui_main.obj
 0003:0000f4b4       ??_C@_0L@DKPDHBPJ@FACE_TALK2?$AA@ 4013e4b4     ui_main.obj
 0003:0000f4c4       ??_C@_0L@BBNOCCDK@FACE_TALK1?$AA@ 4013e4c4     ui_main.obj
 0003:0000f4d4       ??_C@_0L@IMFBDHL@FACE_TALK0?$AA@ 4013e4d4     ui_main.obj
 0003:0000f50c       ??_C@_1DO@LDNFKEKI@?$AAu?$AAi?$AAN?$AAu?$AAm?$AAA?$AAl?$AAl?$AAA?$AAn?$AAi?$AAm?$AAs?$AA?5?$AA?$DM?$AA?5?$AAM?$AAA?$AAX?$AA_?$AAA?$AAN?$AAI?$AAM?$AA_?$AAF?$AAI?$AAL?$AAE?$AAS?$AA?$AA@ 4013e50c     ui_main.obj
 0003:0000f558       ??_C@_1OE@MIGLDLJH@?$AAc?$AA?3?$AA?2?$AAd?$AAo?$AAc?$AAu?$AAm?$AAe?$AAn?$AAt?$AAs?$AA?5?$AAa?$AAn?$AAd?$AA?5?$AAs?$AAe?$AAt?$AAt?$AAi?$AAn?$AAg?$AAs?$AA?2?$AAd?$AAa?$AAn?$AA?2?$AAd?$AAe@ 4013e558     ui_main.obj
 0003:0000f66c       ??_C@_0DB@PNFBPLKE@?$CFs?5exceeds?5the?5allowed?5ui?9side?5a@ 4013e66c     ui_main.obj
 0003:0000f6a8       ??_C@_1BA@MMHCJEBN@?$AAa?$AAn?$AAi?$AAm?$AAs?$AAe?$AAt?$AA?$AA@ 4013e6a8     ui_main.obj
 0003:0000f6bc       ??_C@_1DE@OPKPNFNC@?$AA?$CB?$AA?$CC?$AAA?$AAn?$AAi?$AAm?$AA?5?$AAs?$AAe?$AAt?$AA?5?$AAa?$AAl?$AAl?$AAo?$AAc?$AA?5?$AAf?$AAa?$AAi?$AAl?$AAe?$AAd?$AA?$CB?$AA?$CC?$AA?$AA@ 4013e6bc     ui_main.obj
 0003:0000f6fc       ??_C@_0BH@IPGJJMNG@Anim?5set?5alloc?5failed?$CB?$AA@ 4013e6fc     ui_main.obj
 0003:0000f718       ??_C@_0BD@IAGLKLFM@players?1_humanoid?1?$AA@ 4013e718     ui_main.obj
 0003:0000f730       ??_C@_04HEDFJGEJ@FREE?$AA@ 4013e730     ui_main.obj
 0003:0000f738       ??_C@_09GNDCBOBP@SPECTATOR?$AA@ 4013e738     ui_main.obj
 0003:0000f744       ??_C@_04CNFFLDFF@BLUE?$AA@ 4013e744     ui_main.obj
 0003:0000f74c       ??_C@_03FNPLCCOA@RED?$AA@  4013e74c     ui_main.obj
 0003:0000f750       ??_C@_0BD@PPPBDMEH@gfx?12d?1crosshair?$CFc?$AA@ 4013e750     ui_main.obj
 0003:0000f768       ??_C@_0BD@FAGPOKAI@gfx?1menus?1truejedi?$AA@ 4013e768     ui_main.obj
 0003:0000f780       ??_C@_0BE@DNNKMCEA@gfx?1menus?1saberonly?$AA@ 4013e780     ui_main.obj
 0003:0000f798       ??_C@_0BI@PKLLBMCM@gfx?1menus?1forcerestrict?$AA@ 4013e798     ui_main.obj
 0003:0000f7b4       ??_C@_0BC@PCEOGHHG@gfx?1menus?1noforce?$AA@ 4013e7b4     ui_main.obj
 0003:0000f7cc       ??_C@_0BD@LPALACOE@gfx?1menus?1needpass?$AA@ 4013e7cc     ui_main.obj
 0003:0000f7e4       ??_C@_0BF@IMFGDGLA@menu?1new?1sliderthumb?$AA@ 4013e7e4     ui_main.obj
 0003:0000f800       ??_C@_0BA@IIPDBPAH@menu?1new?1slider?$AA@ 4013e800     ui_main.obj
 0003:0000f814       ??_C@_0BO@OGCKOCFI@gfx?1menus?1scrollbar_thumb?4tga?$AA@ 4013e814     ui_main.obj
 0003:0000f838       ??_C@_0CE@EBDHDKAC@gfx?1menus?1scrollbar_arrow_right?4@ 4013e838     ui_main.obj
 0003:0000f864       ??_C@_0CD@HGBCPEJO@gfx?1menus?1scrollbar_arrow_left?4t@ 4013e864     ui_main.obj
 0003:0000f890       ??_C@_0CD@CMMKEMFC@gfx?1menus?1scrollbar_arrow_up_a?4t@ 4013e890     ui_main.obj
 0003:0000f8bc       ??_C@_0CE@COBFEBJB@gfx?1menus?1scrollbar_arrow_dwn_a?4@ 4013e8bc     ui_main.obj
 0003:0000f8e8       ??_C@_0BI@FDOMFDJL@gfx?1menus?1scrollbar?4tga?$AA@ 4013e8e8     ui_main.obj
 0003:0000f904       ??_C@_0BC@GAPGDHHF@menu?1art?1fx_white?$AA@ 4013e904     ui_main.obj
 0003:0000f91c       ??_C@_0BD@NFOJMJOG@menu?1art?1fx_purple?$AA@ 4013e91c     ui_main.obj
 0003:0000f934       ??_C@_0BB@BKOGMDOJ@menu?1art?1fx_blue?$AA@ 4013e934     ui_main.obj
 0003:0000f948       ??_C@_0BA@IJJPLEBB@menu?1art?1fx_grn?$AA@ 4013e948     ui_main.obj
 0003:0000f95c       ??_C@_0BA@BCAGEDMK@menu?1art?1fx_yel?$AA@ 4013e95c     ui_main.obj
 0003:0000f970       ??_C@_0BD@MCKJDHGG@menu?1art?1fx_orange?$AA@ 4013e970     ui_main.obj
 0003:0000f988       ??_C@_0BA@NNOEOMD@menu?1art?1fx_red?$AA@ 4013e988     ui_main.obj
 0003:0000f99c       ??_C@_0BB@OMABGHIG@menu?1art?1fx_base?$AA@ 4013e99c     ui_main.obj
 0003:0000f9b0       ??_C@_0BL@LDKEDAHM@ui?1assets?1gradientbar2?4tga?$AA@ 4013e9b0     ui_main.obj
 0003:0000f9d0       ??_C@_02HAOIJKIC@?$CFc?$AA@ 4013e9d0     ui_main.obj
 0003:0000f9d4       ??_C@_0O@JEEKIFAP@sv_killserver?$AA@ 4013e9d4     ui_main.obj
 0003:0000f9e4       ??_C@_0P@OPFJLCMG@cg_thirdPerson?$AA@ 4013e9e4     ui_main.obj
 0003:0000f9f8       ??_C@_0P@GDCMABHL@cg_cameraOrbit?$AA@ 4013e9f8     ui_main.obj
 0003:0000fa0c       ??_C@_05ONEOBAM@?$CFs_?$CFs?$AA@ 4013ea0c     ui_main.obj
 0003:0000fa14       ??_C@_09FBJDPOOB@MP_INGAME?$AA@ 4013ea14     ui_main.obj
 0003:0000fa20       ??_C@_0N@IAGLNLB@SET_NEW_RANK?$AA@ 4013ea20     ui_main.obj
 0003:0000fa30       __real@42400000            4013ea30     ui_main.obj
 0003:0000fa34       ??_C@_0DD@JILOANNP@?$FO1menu?5file?5too?5large?3?5?$CFs?5is?5?$CFi?0@ 4013ea34     ui_main.obj
 0003:0000fa74       ??_C@_0CK@ECPONHFG@?$FO1menu?5file?5not?5found?3?5?$CFs?0?5using@ 4013ea74     ui_main.obj
 0003:0000faa8       ??_C@_0O@GIEOJPBC@precacheSound?$AA@ 4013eaa8     ui_main.obj
 0003:0000fab8       ??_C@_0BH@MIEOGMNF@datapadmoveSaberSound6?$AA@ 4013eab8     ui_main.obj
 0003:0000fad4       ??_C@_0BH@ODGDDPBG@datapadmoveSaberSound5?$AA@ 4013ead4     ui_main.obj
 0003:0000faf0       ??_C@_0BH@PKHIAOFH@datapadmoveSaberSound4?$AA@ 4013eaf0     ui_main.obj
 0003:0000fb0c       ??_C@_0BH@LFDJJIJA@datapadmoveSaberSound3?$AA@ 4013eb0c     ui_main.obj
 0003:0000fb28       ??_C@_0BH@KMCCKJNB@datapadmoveSaberSound2?$AA@ 4013eb28     ui_main.obj
 0003:0000fb44       ??_C@_0BH@IHAPPKBC@datapadmoveSaberSound1?$AA@ 4013eb44     ui_main.obj
 0003:0000fb60       ??_C@_0O@MMHPJOBP@moveJumpSound?$AA@ 4013eb60     ui_main.obj
 0003:0000fb70       ??_C@_0O@KNDMGBMI@moveRollSound?$AA@ 4013eb70     ui_main.obj
 0003:0000fb80       ??_C@_0M@JPJLLJDB@shadowColor?$AA@ 4013eb80     ui_main.obj
 0003:0000fb90       ??_C@_07PGMDMGII@shadowY?$AA@ 4013eb90     ui_main.obj
 0003:0000fb9c       ??_C@_07OPNIPHMJ@shadowX?$AA@ 4013eb9c     ui_main.obj
 0003:0000fba8       ??_C@_0L@JDDHILPC@fadeAmount?$AA@ 4013eba8     ui_main.obj
 0003:0000fbb8       ??_C@_09LGBLEGN@fadeCycle?$AA@ 4013ebb8     ui_main.obj
 0003:0000fbc4       ??_C@_09DPBPOIDH@fadeClamp?$AA@ 4013ebc4     ui_main.obj
 0003:0000fbd0       ??_C@_0O@JDBLIAHI@menuBuzzSound?$AA@ 4013ebd0     ui_main.obj
 0003:0000fbe0       ??_C@_0P@IGAMHAPB@itemFocusSound?$AA@ 4013ebe0     ui_main.obj
 0003:0000fbf4       ??_C@_0O@CCIDDBMD@menuExitSound?$AA@ 4013ebf4     ui_main.obj
 0003:0000fc04       ??_C@_0P@HOFNPEDB@menuEnterSound?$AA@ 4013ec04     ui_main.obj
 0003:0000fc18       ??_C@_0M@KMLBJNNP@gradientbar?$AA@ 4013ec18     ui_main.obj
 0003:0000fc28       ??_C@_02JCPHEAGH@?$FO3?$AA@ 4013ec28     ui_main.obj
 0003:0000fc2c       ??_C@_0CH@MFNDJLKG@Bad?51st?5parameter?5for?5keyword?5?8c@ 4013ec2c     ui_main.obj
 0003:0000fc5c       ??_C@_06CHDIMBDP@cursor?$AA@ 4013ec5c     ui_main.obj
 0003:0000fc64       ??_C@_07LOCAKBOA@bigFont?$AA@ 4013ec64     ui_main.obj
 0003:0000fc70       ??_C@_0L@KDLFEFGB@small2Font?$AA@ 4013ec70     ui_main.obj
 0003:0000fc80       ??_C@_09DOKKJGBA@smallFont?$AA@ 4013ec80     ui_main.obj
 0003:0000fc8c       ??_C@_04EFPADHIC@font?$AA@ 4013ec8c     ui_main.obj
 0003:0000fc94       ??_C@_07MCIOFCJF@menudef?$AA@ 4013ec94     ui_main.obj
 0003:0000fca0       ??_C@_0P@JJKHBDCP@assetGlobalDef?$AA@ 4013eca0     ui_main.obj
 0003:0000fcb4       ??_C@_08GJJFPOLP@loadmenu?$AA@ 4013ecb4     ui_main.obj
 0003:0000fcc0       ??_C@_0EC@MBKMCDAN@?$FO1default?5menu?5file?5not?5found?3?5u@ 4013ecc0     ui_main.obj
 0003:0000fd10       ??_C@_0CK@EJKAPAFF@?$FO3menu?5file?5not?5found?3?5?$CFs?0?5using@ 4013ed10     ui_main.obj
 0003:0000fd44       ??_C@_0BC@HIDDINCD@ui?1jamp?1menudef?4h?$AA@ 4013ed44     ui_main.obj
 0003:0000fd5c       ??_C@_0BF@MGJNPIJB@ui?1jamp?1gameinfo?4txt?$AA@ 4013ed5c     ui_main.obj
 0003:0000fd78       ??_C@_0BC@JODHCHLJ@ui?1jampingame?4txt?$AA@ 4013ed78     ui_main.obj
 0003:0000fd90       ??_C@_0BA@DKHOJHPN@g_weaponDisable?$AA@ 4013ed90     ui_main.obj
 0003:0000fda4       ??_C@_0BE@OBOCPLPN@g_duelWeaponDisable?$AA@ 4013eda4     ui_main.obj
 0003:0000fdbc       ??_C@_0M@HDALJKN@g_jediVmerc?$AA@ 4013edbc     ui_main.obj
 0003:0000fdcc       ??_C@_0BE@EDCPOKDI@g_forcePowerDisable?$AA@ 4013edcc     ui_main.obj
 0003:0000fde4       ??_C@_0BB@OFACPPDM@humanbotnonfield?$AA@ 4013ede4     ui_main.obj
 0003:0000fdf8       ??_C@_0O@LLMAEFMN@humanbotfield?$AA@ 4013edf8     ui_main.obj
 0003:0000fe08       ??_C@_0BE@MJMLKIAB@playerforcespectate?$AA@ 4013ee08     ui_main.obj
 0003:0000fe20       ??_C@_0BA@HKGGDOFM@playerforceblue?$AA@ 4013ee20     ui_main.obj
 0003:0000fe34       ??_C@_0P@DNKNCOFM@playerforcered?$AA@ 4013ee34     ui_main.obj
 0003:0000fe48       ??_C@_0BA@KOGLFJKM@playerforcejoin?$AA@ 4013ee48     ui_main.obj
 0003:0000fe5c       ??_C@_0M@JFACKFNB@playerapply?$AA@ 4013ee5c     ui_main.obj
 0003:0000fe6c       ??_C@_08OLKDPGBD@yessaber?$AA@ 4013ee6c     ui_main.obj
 0003:0000fe78       ??_C@_0BC@BDPIFPLC@sabernoneconfigme?$AA@ 4013ee78     ui_main.obj
 0003:0000fe90       ??_C@_08FGJPHEOB@yesforce?$AA@ 4013ee90     ui_main.obj
 0003:0000fe9c       ??_C@_07HEKACAEE@noforce?$AA@ 4013ee9c     ui_main.obj
 0003:0000fea8       ??_C@_0M@OBPKCPBG@jedinonjedi?$AA@ 4013eea8     ui_main.obj
 0003:0000feb8       ??_C@_0O@PJIPPKNP@ingame_player?$AA@ 4013eeb8     ui_main.obj
 0003:0000fec8       ??_C@_0N@PGDAKNHB@vid_restart?$DL?$AA@ 4013eec8     ui_main.obj
 0003:0000fed8       ??_C@_0O@ICGEAHKA@ui_r_modified?$AA@ 4013eed8     ui_main.obj
 0003:0000fee8       ??_C@_0L@MAOLAFLC@cg_shadows?$AA@ 4013eee8     ui_main.obj
 0003:0000fef8       ??_C@_0O@NDJCAFHK@ui_cg_shadows?$AA@ 4013eef8     ui_main.obj
 0003:0000ff08       ??_C@_0BC@HJALDEG@r_allowExtensions?$AA@ 4013ef08     ui_main.obj
 0003:0000ff20       ??_C@_0BF@EOAMBIGF@ui_r_allowExtensions?$AA@ 4013ef20     ui_main.obj
 0003:0000ff3c       ??_C@_0O@EPDAEHAE@r_inGameVideo?$AA@ 4013ef3c     ui_main.obj
 0003:0000ff4c       ??_C@_0BB@PJFFEJHH@ui_r_inGameVideo?$AA@ 4013ef4c     ui_main.obj
 0003:0000ff60       ??_C@_09JKEENNLE@r_fastSky?$AA@ 4013ef60     ui_main.obj
 0003:0000ff6c       ??_C@_0N@IPNMEDKM@ui_r_fastSky?$AA@ 4013ef6c     ui_main.obj
 0003:0000ff7c       ??_C@_0P@CEFBGCNE@r_subdivisions?$AA@ 4013ef7c     ui_main.obj
 0003:0000ff90       ??_C@_0BC@ONOLCHFM@ui_r_subdivisions?$AA@ 4013ef90     ui_main.obj
 0003:0000ffa8       ??_C@_0M@MLADPBHK@r_depthbits?$AA@ 4013efa8     ui_main.obj
 0003:0000ffb8       ??_C@_0P@FOKPMCPI@ui_r_depthbits?$AA@ 4013efb8     ui_main.obj
 0003:0000ffcc       ??_C@_0BI@OCJAALOK@r_ext_compress_textures?$AA@ 4013efcc     ui_main.obj
 0003:0000ffe8       ??_C@_0BL@OMICDKKG@ui_r_ext_compress_textures?$AA@ 4013efe8     ui_main.obj
 0003:00010008       ??_C@_0BB@OJJFINJB@r_detailtextures?$AA@ 4013f008     ui_main.obj
 0003:0001001c       ??_C@_0BE@BMHJODHH@ui_r_detailtextures?$AA@ 4013f01c     ui_main.obj
 0003:00010034       ??_C@_0O@NHGMKMHI@r_texturemode?$AA@ 4013f034     ui_main.obj
 0003:00010044       ??_C@_0BB@GBAJKCAL@ui_r_texturemode?$AA@ 4013f044     ui_main.obj
 0003:00010058       ??_C@_0O@HAOJHCNC@r_texturebits?$AA@ 4013f058     ui_main.obj
 0003:00010068       ??_C@_0BB@MGIMHMKB@ui_r_texturebits?$AA@ 4013f068     ui_main.obj
 0003:0001007c       ??_C@_08PHNBMEML@r_picmip?$AA@ 4013f07c     ui_main.obj
 0003:00010088       ??_C@_0M@LFGCJFJG@ui_r_picmip?$AA@ 4013f088     ui_main.obj
 0003:00010098       ??_C@_09MCCGJPLJ@r_lodbias?$AA@ 4013f098     ui_main.obj
 0003:000100a4       ??_C@_0N@NHLOABKB@ui_r_lodbias?$AA@ 4013f0a4     ui_main.obj
 0003:000100b4       ??_C@_0M@FAHBKNDA@r_colorbits?$AA@ 4013f0b4     ui_main.obj
 0003:000100c4       ??_C@_0P@MFNNJOLC@ui_r_colorbits?$AA@ 4013f0c4     ui_main.obj
 0003:000100d8       ??_C@_0N@JILGCMBC@r_fullscreen?$AA@ 4013f0d8     ui_main.obj
 0003:000100e8       ??_C@_0BA@JLJFGCCN@ui_r_fullscreen?$AA@ 4013f0e8     ui_main.obj
 0003:000100fc       ??_C@_06LBAPPDBG@r_mode?$AA@ 4013f0fc     ui_main.obj
 0003:00010104       ??_C@_09KDEPNMFH@ui_r_mode?$AA@ 4013f104     ui_main.obj
 0003:00010110       ??_C@_0O@DBONOGAA@ui_r_glCustom?$AA@ 4013f110     ui_main.obj
 0003:00010120       ??_C@_0O@EFOJEHBN@class6_button?$AA@ 4013f120     ui_main.obj
 0003:00010130       ??_C@_0O@HMGEHLNI@class5_button?$AA@ 4013f130     ui_main.obj
 0003:00010140       ??_C@_0O@GLBPGPJL@class4_button?$AA@ 4013f140     ui_main.obj
 0003:00010150       ??_C@_0O@PHOACFC@class3_button?$AA@ 4013f150     ui_main.obj
 0003:00010160       ??_C@_0O@BIAFBGBB@class2_button?$AA@ 4013f160     ui_main.obj
 0003:00010170       ??_C@_0O@CBIICKNE@class1_button?$AA@ 4013f170     ui_main.obj
 0003:00010180       ??_C@_0P@CIAMGOJB@ui_siege_class?$AA@ 4013f180     ui_main.obj
 0003:00010194       ??_C@_07KHBLIOLH@onteam2?$AA@ 4013f194     ui_main.obj
 0003:000101a0       ??_C@_07IMDGNNHE@onteam1?$AA@ 4013f1a0     ui_main.obj
 0003:000101ac       ??_C@_0BK@JKAPHHID@team?$CFi_objective?$CFi_mappos?$AA@ 4013f1ac     ui_main.obj
 0003:000101cc       ??_C@_0O@JLHBAKIH@tm?$CFi_l_icon?$CFi?$AA@ 4013f1cc     ui_main.obj
 0003:000101dc       ??_C@_0M@DHPIAGKO@tm?$CFi_icon?$CFi?$AA@ 4013f1dc     ui_main.obj
 0003:000101ec       ??_C@_0BM@BPDOBPLD@?$CKteam?$CFi_objective?$CFi_mapicon?$AA@ 4013f1ec     ui_main.obj
 0003:00010210       ??_C@_0BA@CJPPCFCE@forcepowerlevel?$AA@ 4013f210     ui_main.obj
 0003:00010224       ??_C@_05BLKJBNOD@stats?$AA@ 4013f224     ui_main.obj
 0003:0001022c       ??_C@_0O@COFELBGO@objective_pic?$AA@ 4013f22c     ui_main.obj
 0003:0001023c       ??_C@_0N@OCMMKHNE@obj_longdesc?$AA@ 4013f23c     ui_main.obj
 0003:0001024c       ??_C@_08PHCBGHMJ@minidesc?$AA@ 4013f24c     ui_main.obj
 0003:00010258       ??_C@_0BB@JJEOAMAH@classdescription?$AA@ 4013f258     ui_main.obj
 0003:0001026c       ??_C@_07DOMDDELG@feeders?$AA@ 4013f26c     ui_main.obj
 0003:00010278       ??_C@_0M@EBJIILPK@class_count?$AA@ 4013f278     ui_main.obj
 0003:00010288       ??_C@_0N@LANKDNDD@class_button?$AA@ 4013f288     ui_main.obj
 0003:00010298       ??_C@_0BM@GOKALJHI@models?1players?1?$CFs?1?$HM?$CFs?$HM?$CFs?$HM?$CFs?$AA@ 4013f298     ui_main.obj
 0003:000102c0       ??_C@_0EF@PLGNBLOL@UI_UpdateCharacterSkin?3?5Could?5no@ 4013f2c0     ui_main.obj
 0003:00010314       ??_C@_09MNKJOHH@character?$AA@ 4013f314     ui_main.obj
 0003:00010320       __real@4040000000000000    4013f320     ui_main.obj
 0003:00010330       __real@4008000000000000    4013f330     ui_main.obj
 0003:0001033c       ??_C@_0O@BLJEIMIH@sv_maxClients?$AA@ 4013f33c     ui_main.obj
 0003:0001034c       ??_C@_0M@OAPCOKFL@forceicon?$CFd?$AA@ 4013f34c     ui_main.obj
 0003:0001035c       ??_C@_0N@OLFHJEGP@forceicon0?$CFd?$AA@ 4013f35c     ui_main.obj
 0003:0001036c       ??_C@_0BC@BBDLIMJN@?$CKui_class_power?$CFd?$AA@ 4013f36c     ui_main.obj
 0003:00010384       ??_C@_0M@IAKOKMPN@itemicon0?$CFd?$AA@ 4013f384     ui_main.obj
 0003:00010394       ??_C@_0BB@LEAKOFKD@?$CKui_class_item?$CFd?$AA@ 4013f394     ui_main.obj
 0003:000103a8       ??_C@_0L@EEOPJNIP@wpnicon0?$CFd?$AA@ 4013f3a8     ui_main.obj
 0003:000103b8       ??_C@_0BD@IILHFKPD@?$CKui_class_weapon?$CFd?$AA@ 4013f3b8     ui_main.obj
 0003:000103d0       ??_C@_0DD@IFBJFFKB@models?1players?1characters?1?$CFs?1?$CFs?1@ 4013f3d0     ui_main.obj
 0003:00010410       ??_C@_0CI@LGKPFMHH@models?1players?1?$CFs?1?$CFs?1lower_defau@ 4013f410     ui_main.obj
 0003:00010440       __real@41600000            4013f440     ui_main.obj
 0003:00010444       ??_C@_01LKDEMHDF@s?$AA@    4013f444     ui_main.obj
 0003:00010448       ??_C@_0BI@ICIKICGM@MENUS_SERVERS_FOUNDWITH?$AA@ 4013f448     ui_main.obj
 0003:00010464       ??_C@_0BB@LOIEJCIF@no?5servers?5found?$AA@ 4013f464     ui_main.obj
 0003:00010478       ??_C@_08EHKIGBEA@hostname?$AA@ 4013f478     ui_main.obj
 0003:00010484       ??_C@_0BG@CJDALBBP@ui_playerServersFound?$AA@ 4013f484     ui_main.obj
 0003:000104a0       ??_C@_0BA@KGBMAGOJ@MENUS_SEARCHING?$AA@ 4013f4a0     ui_main.obj
 0003:000104b4       ??_C@_0BK@NLNALACG@cl_serverStatusResendTime?$AA@ 4013f4b4     ui_main.obj
 0003:000104d4       ??_C@_04OONEELOO@ping?$AA@ 4013f4d4     ui_main.obj
 0003:000104dc       ??_C@_05DBKDOICH@score?$AA@ 4013f4dc     ui_main.obj
 0003:000104e4       ??_C@_03IHCLBPIC@num?$AA@  4013f4e4     ui_main.obj
 0003:000104e8       ??_C@_0BK@JABGNFOC@Error?5loading?5teams?5in?5UI?$AA@ 4013f4e8     ui_main.obj
 0003:00010508       ??_C@_07FKIPFDKM@UseTeam?$AA@ 4013f508     ui_main.obj
 0003:00010514       ??_C@_05KBLJHFNC@team2?$AA@ 4013f514     ui_main.obj
 0003:0001051c       ??_C@_0O@FENJAOEK@cg_siegeTeam2?$AA@ 4013f51c     ui_main.obj
 0003:0001052c       ??_C@_05IKJECGBB@team1?$AA@ 4013f52c     ui_main.obj
 0003:00010534       ??_C@_0O@HPPEFNIJ@cg_siegeTeam1?$AA@ 4013f534     ui_main.obj
 0003:00010544       ??_C@_05EPHHAOKA@Teams?$AA@ 4013f544     ui_main.obj
 0003:0001054c       ??_C@_0O@OJPKLLB@maps?1?$CFs?4siege?$AA@ 4013f54c     ui_main.obj
 0003:0001055c       ??_C@_0P@CDNMBAJP@ui_class_speed?$AA@ 4013f55c     ui_main.obj
 0003:00010570       ??_C@_05KLHICNFN@?$CF3?42f?$AA@ 4013f570     ui_main.obj
 0003:00010578       ??_C@_0BK@JKNGBPAN@ui_class_powerlevelslot?$CFi?$AA@ 4013f578     ui_main.obj
 0003:00010598       ??_C@_0BG@CHPIBCHN@ui_class_powerlevel?$CFi?$AA@ 4013f598     ui_main.obj
 0003:000105b4       ??_C@_0BE@OKEDHDBF@ui_class_itemdesc?$CFi?$AA@ 4013f5b4     ui_main.obj
 0003:000105cc       ??_C@_0BK@DOBGMPNF@gfx?1hud?1w_icon_saberstaff?$AA@ 4013f5cc     ui_main.obj
 0003:000105ec       ??_C@_0M@KCMILOII@SABER_STAFF?$AA@ 4013f5ec     ui_main.obj
 0003:000105fc       ??_C@_0BO@FFKCLDKB@gfx?1hud?1w_icon_duallightsaber?$AA@ 4013f5fc     ui_main.obj
 0003:00010620       ??_C@_0BG@LMCEBDMO@ui_class_weapondesc?$CFi?$AA@ 4013f620     ui_main.obj
 0003:0001063c       ??_C@_0O@MJDHKOPJ@ui_class_icon?$AA@ 4013f63c     ui_main.obj
 0003:0001064c       ??_C@_0P@MDLJPIIB@ui_class_armor?$AA@ 4013f64c     ui_main.obj
 0003:00010660       ??_C@_0BA@GPNLKCEM@ui_class_health?$AA@ 4013f660     ui_main.obj
 0003:00010674       ??_C@_0BB@EFKCLBJP@ui_class_power?$CFi?$AA@ 4013f674     ui_main.obj
 0003:00010688       ??_C@_0BA@DIHPMMKF@ui_class_item?$CFi?$AA@ 4013f688     ui_main.obj
 0003:0001069c       ??_C@_0BC@NLJLEPPM@ui_class_weapon?$CFi?$AA@ 4013f69c     ui_main.obj
 0003:000106b4       ??_C@_0O@MHPONILH@gfx?12d?1select?$AA@ 4013f6b4     ui_main.obj
 0003:000106c4       ??_C@_0BB@KJJNHJDC@ui_classPortrait?$AA@ 4013f6c4     ui_main.obj
 0003:000106d8       ??_C@_0N@HMPBMGHL@ui_classDesc?$AA@ 4013f6d8     ui_main.obj
 0003:000106e8       ??_C@_0BE@FPKHHEIG@ui_itemforceinvdesc?$AA@ 4013f6e8     ui_main.obj
 0003:00010700       ??_C@_07EHHPJLF@ui_team?$AA@ 4013f700     ui_main.obj
 0003:0001070c       ??_C@_06LIMIHEAN@?$CFs?4roq?$AA@ 4013f70c     ui_main.obj
 0003:00010714       ??_C@_0N@JIGKLBIC@ui_move_desc?$AA@ 4013f714     ui_main.obj
 0003:00010724       ??_C@_0BA@LMLFIFFM@rulesMenu_moves?$AA@ 4013f724     ui_main.obj
 0003:00010738       ??_C@_0BA@PDECLNK@char_color_blue?$AA@ 4013f738     ui_main.obj
 0003:0001074c       ??_C@_0BB@ECHDKGAH@char_color_green?$AA@ 4013f74c     ui_main.obj
 0003:00010760       ??_C@_0P@FBLDEJO@char_color_red?$AA@ 4013f760     ui_main.obj
 0003:00010774       ??_C@_08OFBBAHIC@?1default?$AA@ 4013f774     ui_main.obj
 0003:00010780       ??_C@_04PEPHHPEI@?1red?$AA@ 4013f780     ui_main.obj
 0003:00010788       ??_C@_05GAHFLAHA@?1blue?$AA@ 4013f788     ui_main.obj
 0003:00010790       ??_C@_04ILAGGJBN@maps?$AA@ 4013f790     ui_main.obj
 0003:00010798       ??_C@_0O@EBHHCFIL@joingametypes?$AA@ 4013f798     ui_main.obj
 0003:000107a8       ??_C@_09LDHGIFEE@gametypes?$AA@ 4013f7a8     ui_main.obj
 0003:000107b4       ??_C@_0CI@IFAKKCDN@Too?5many?5game?5types?0?5last?5one?5re@ 4013f7b4     ui_main.obj
 0003:000107e4       ??_C@_0CM@LGCBCNPC@Too?5many?5net?5game?5types?0?5last?5on@ 4013f7e4     ui_main.obj
 0003:00010818       ??_C@_0CD@INHJOHKK@Too?5many?5maps?0?5last?5one?5replaced@ 4013f818     ui_main.obj
 0003:00010844       ??_C@_0BE@CAPBAJFM@levelshots?1?$CFs_small?$AA@ 4013f844     ui_main.obj
 0003:0001085c       ??_C@_0O@LAIEPDMG@forcecfg?1dark?$AA@ 4013f85c     ui_main.obj
 0003:0001086c       ??_C@_0P@IAEGIPNM@forcecfg?1light?$AA@ 4013f86c     ui_main.obj
 0003:00010880       ??_C@_03LJMADBGE@fcf?$AA@  4013f880     ui_main.obj
 0003:00010884       ??_C@_06IFGIOHDE@Custom?$AA@ 4013f884     ui_main.obj
 0003:0001088c       ??_C@_0CJ@KLKCMJCL@Couldn?8t?5find?5any?5player?5teams?5f@ 4013f88c     ui_main.obj
 0003:000108c0       ??_C@_0CL@BBGLILIJ@Couldn?8t?5find?5any?5player?5classes@ 4013f8c0     ui_main.obj
 0003:000108f4       ??_C@_0BF@MGMPAIBH@ui_actualNetGameType?$AA@ 4013f8f4     ui_main.obj
 0003:00010910       ??_C@_0P@EAAPMMHH@debug_protocol?$AA@ 4013f910     ui_main.obj
 0003:00010924       ??_C@_0BB@OJMPICMM@ui_mousePitchVeh?$AA@ 4013f924     ui_main.obj
 0003:00010938       ??_C@_0L@EKHLDNPG@m_pitchVeh?$AA@ 4013f938     ui_main.obj
 0003:00010948       ??_C@_0O@OGIMAHGE@ui_mousePitch?$AA@ 4013f948     ui_main.obj
 0003:00010958       ??_C@_07JIEGLHEC@m_pitch?$AA@ 4013f958     ui_main.obj
 0003:00010964       ??_C@_06IPMAANOD@color1?$AA@ 4013f964     ui_main.obj
 0003:0001096c       ??_C@_07GAIGJCKN@ui_name?$AA@ 4013f96c     ui_main.obj
 0003:00010978       ??_C@_05PMAELIEO@white?$AA@ 4013f978     ui_main.obj
 0003:00010980       ??_C@_0BD@CHEDBJDN@menu?1art?13_cursor2?$AA@ 4013f980     ui_main.obj
 0003:00010998       __real@3ff5555555555555    4013f998     ui_main.obj
 0003:000109a8       __real@3f5999999999999a    4013f9a8     ui_main.obj
 0003:000109b8       __real@3f61111111111111    4013f9b8     ui_main.obj
 0003:000109c4       ??_C@_0BC@HHPGHHIK@g_siegeTeamSwitch?$AA@ 4013f9c4     ui_main.obj
 0003:000109dc       ??_C@_0BI@DIFBAOHB@ui_lastServerRefresh_?$CFi?$AA@ 4013f9dc     ui_main.obj
 0003:000109f8       ??_C@_0BE@KBBNIJIF@WAITING_FOR_NEW_KEY?$AA@ 4013f9f8     ui_main.obj
 0003:00010a10       ??_C@_0L@CJHDKEPC@MENUS_GAME?$AA@ 4013fa10     ui_main.obj
 0003:00010a20       ??_C@_05DNIIFBMG@?$CFs?5?$CFs?$AA@ 4013fa20     ui_main.obj
 0003:00010a28       ??_C@_0N@DMCGCPKM@MENUS_SOURCE?$AA@ 4013fa28     ui_main.obj
 0003:00010a38       ??_C@_0N@BOLNHJIJ@ui_redteam?$CFi?$AA@ 4013fa38     ui_main.obj
 0003:00010a48       ??_C@_06DELKPIEN@?$CFi?4?5?$CFs?$AA@ 4013fa48     ui_main.obj
 0003:00010a50       ??_C@_05OHCDHBAC@Human?$AA@ 4013fa50     ui_main.obj
 0003:00010a58       ??_C@_0O@MBOEOCIO@ui_blueteam?$CFi?$AA@ 4013fa58     ui_main.obj
 0003:00010a68       ??_C@_0L@GHKHHDJL@ui_redTeam?$AA@ 4013fa68     ui_main.obj
 0003:00010a78       ??_C@_06DJHOIPC@?$CFs?3?5?$CFs?$AA@ 4013fa78     ui_main.obj
 0003:00010a80       ??_C@_0M@BANABNHI@ui_blueTeam?$AA@ 4013fa80     ui_main.obj
 0003:00010a90       ??_C@_0M@MLHGGMAA@ui_teamName?$AA@ 4013fa90     ui_main.obj
 0003:00010aa0       ??_C@_03IPHJCBHH@YES?$AA@  4013faa0     ui_main.obj
 0003:00010aa4       ??_C@_02NFLNFON@NO?$AA@    4013faa4     ui_main.obj
 0003:00010aa8       ??_C@_0P@PMJMCPLH@FORCEDESC_DARK?$AA@ 4013faa8     ui_main.obj
 0003:00010abc       ??_C@_0BA@DCIMPCAI@FORCEDESC_LIGHT?$AA@ 4013fabc     ui_main.obj
 0003:00010ad0       ??_C@_07MGCPDNLD@DEFAULT?$AA@ 4013fad0     ui_main.obj
 0003:00010adc       ??_C@_09BBDECAKM@TEAM_BLUE?$AA@ 4013fadc     ui_main.obj
 0003:00010ae8       ??_C@_05ONMCFNBF@MENUS?$AA@ 4013fae8     ui_main.obj
 0003:00010af0       ??_C@_08DPIMAKME@TEAM_RED?$AA@ 4013faf0     ui_main.obj
 0003:00010afc       __real@40a00000            4013fafc     ui_main.obj
 0003:00010b00       __real@42c80000            4013fb00     ui_main.obj
 0003:00010b04       ??_C@_08HBHLIHAM@handicap?$AA@ 4013fb04     ui_main.obj
 0003:00010b10       ??_C@_02HHFHKOHM@?$DP?$DP?$AA@ 4013fb10     ui_main.obj
 0003:00010b14       ??_C@_0M@POGPACHD@NET_SOURCES?$AA@ 4013fb14     ui_main.obj
 0003:00010b24       ??_C@_0BG@NKPMOGAN@CAPTURE_THE_YSALIMARI?$AA@ 4013fb24     ui_main.obj
 0003:00010b40       ??_C@_0BB@NFDNICPD@CAPTURE_THE_FLAG?$AA@ 4013fb40     ui_main.obj
 0003:00010b54       ??_C@_05MFNFJGDH@SIEGE?$AA@ 4013fb54     ui_main.obj
 0003:00010b5c       ??_C@_08JPMGIABA@TEAM_FFA?$AA@ 4013fb5c     ui_main.obj
 0003:00010b68       ??_C@_09NHOBJKNB@POWERDUEL?$AA@ 4013fb68     ui_main.obj
 0003:00010b74       ??_C@_04ECOAEGNJ@DUEL?$AA@ 4013fb74     ui_main.obj
 0003:00010b7c       ??_C@_04PJHBGHKA@SAGA?$AA@ 4013fb7c     ui_main.obj
 0003:00010b84       ??_C@_0N@IFFHBAH@HOLOCRON_FFA?$AA@ 4013fb84     ui_main.obj
 0003:00010b94       ??_C@_0N@OPJELAJP@FREE_FOR_ALL?$AA@ 4013fb94     ui_main.obj
 0003:00010ba4       ??_C@_0P@INPBKGBE@ui_netGameType?$AA@ 4013fba4     ui_main.obj
 0003:00010bb8       ??_C@_0M@GHKAFFGG@AUTOSWITCH0?$AA@ 4013fbb8     ui_main.obj
 0003:00010bc8       ??_C@_0M@EMINAGKF@AUTOSWITCH3?$AA@ 4013fbc8     ui_main.obj
 0003:00010bd8       ??_C@_0M@FFJGDHOE@AUTOSWITCH2?$AA@ 4013fbd8     ui_main.obj
 0003:00010be8       ??_C@_0M@HOLLGECH@AUTOSWITCH1?$AA@ 4013fbe8     ui_main.obj
 0003:00010bf8       ??_C@_0O@JKEEFDLF@cg_autoswitch?$AA@ 4013fbf8     ui_main.obj
 0003:00010c08       ??_C@_0BA@PKEACILF@ui_joinGameType?$AA@ 4013fc08     ui_main.obj
 0003:00010c1c       ??_C@_07PGAOKCOL@?$CFs_name?$AA@ 4013fc1c     ui_main.obj
 0003:00010c28       ??_C@_08KHGKHFFO@?$CFs_metal?$AA@ 4013fc28     ui_main.obj
 0003:00010c34       ??_C@_03OFBIPEA@?$CFi?$AA?$AA@ 4013fc34     ui_main.obj
 0003:00010c38       ??_C@_0O@LCEJIGL@MENUS_DEFAULT?$AA@ 4013fc38     ui_main.obj
 0003:00010c48       ??_C@_0BA@POGJPFNH@MENUS_TEAM_BLUE?$AA@ 4013fc48     ui_main.obj
 0003:00010c5c       ??_C@_0P@LHEJFLIH@MENUS_TEAM_RED?$AA@ 4013fc5c     ui_main.obj
 0003:00010c70       ??_C@_0BF@NOJGOFAC@MENUS_FORCEDESC_DARK?$AA@ 4013fc70     ui_main.obj
 0003:00010c8c       ??_C@_0BB@JKOHNFAK@lightpowers_team?$AA@ 4013fc8c     ui_main.obj
 0003:00010ca0       ??_C@_0BA@FFAMFDAO@darkpowers_team?$AA@ 4013fca0     ui_main.obj
 0003:00010cb4       ??_C@_0L@BICDFDBI@darkpowers?$AA@ 4013fcb4     ui_main.obj
 0003:00010cc4       ??_C@_0M@HPNGNDDK@lightpowers?$AA@ 4013fcc4     ui_main.obj
 0003:00010cd4       ??_C@_0L@LGILNIKN@forcealloc?$AA@ 4013fcd4     ui_main.obj
 0003:00010ce4       ??_C@_0BG@IJKFLPMB@MENUS_FORCEDESC_LIGHT?$AA@ 4013fce4     ui_main.obj
 0003:00010d00       ??_C@_09MPFFGIMJ@MENUS_YES?$AA@ 4013fd00     ui_main.obj
 0003:00010d0c       ??_C@_08POBJANAH@MENUS_NO?$AA@ 4013fd0c     ui_main.obj
 0003:00010d18       ??_C@_03PADCEAKC@Red?$AA@  4013fd18     ui_main.obj
 0003:00010d1c       ??_C@_04CAKOHOCJ@Blue?$AA@ 4013fd1c     ui_main.obj
 0003:00010d24       ??_C@_05CLBJJDHK@HUMAN?$AA@ 4013fd24     ui_main.obj
 0003:00010d2c       ??_C@_06IOLFCPIM@CLOSED?$AA@ 4013fd2c     ui_main.obj
 0003:00010d34       ??_C@_0BH@NKLBLPLI@menu?1art?1unknownmap_mp?$AA@ 4013fd34     ui_main.obj
 0003:00010d50       ??_C@_08BHLPCOBE@Tier?3?5?$CFs?$AA@ 4013fd50     ui_main.obj
 0003:00010d5c       ??_C@_0P@OGEPOBCA@ui_currentTier?$AA@ 4013fd5c     ui_main.obj
 0003:00010d70       ??_C@_03HPADHAHE@N?1A?$AA@ 4013fd70     ui_main.obj
 0003:00010d74       ??_C@_08LFOMOGKF@Everyone?$AA@ 4013fd74     ui_main.obj
 0003:00010d80       ??_C@_01EFFIKLCJ@n?$AA@    4013fd80     ui_main.obj
 0003:00010d84       ??_C@_0O@OCOCOONB@sv_maxclients?$AA@ 4013fd84     ui_main.obj
 0003:00010d94       ??_C@_01PFHFFBPC@t?$AA@    4013fd94     ui_main.obj
 0003:00010d98       ??_C@_02JKAOMCMK@tl?$AA@   4013fd98     ui_main.obj
 0003:00010d9c       ??_C@_0BN@CIDKCPCG@MP_INGAME_SERVER_REFRESHTIME?$AA@ 4013fd9c     ui_main.obj
 0003:00010dc0       ??_C@_0CA@HGNDPDMG@MP_INGAME_GETTINGINFOFORSERVERS?$AA@ 4013fdc0     ui_main.obj
 0003:00010de8       __real@3fe999999999999a    4013fde8     ui_main.obj
 0003:00010df8       __real@4026000000000000    4013fdf8     ui_main.obj
 0003:00010e08       __real@403e000000000000    4013fe08     ui_main.obj
 0003:00010e14       ??_C@_0DL@LAIIPCFN@GL_PIXELFORMAT?3?5color?$CI?$CFd?9bits?$CJ?5Z@ 4013fe14     ui_main.obj
 0003:00010e60       __real@402e000000000000    4013fe60     ui_main.obj
 0003:00010e6c       ??_C@_0BD@FDNFBAAO@GL_VERSION?3?5?$CFs?3?5?$CFs?$AA@ 4013fe6c     ui_main.obj
 0003:00010e84       ??_C@_0O@LCMFPEGO@GL_VENDOR?3?5?$CFs?$AA@ 4013fe84     ui_main.obj
 0003:00010e94       ??_C@_0BG@KLFHEFNA@?$CIdebug?$CJJAmp?3?5v1?40?41?40?$AA@ 4013fe94     ui_main.obj
 0003:00010eb0       ??_C@_07BFJJCEJD@tactics?$AA@ 4013feb0     ui_main.obj
 0003:00010ebc       ??_C@_04OEEIACIO@spot?$AA@ 4013febc     ui_main.obj
 0003:00010ec4       ??_C@_05INAKFKMM@reply?$AA@ 4013fec4     ui_main.obj
 0003:00010ecc       ??_C@_07ENHGAJCI@request?$AA@ 4013fecc     ui_main.obj
 0003:00010ed8       ??_C@_06BMABBLML@defend?$AA@ 4013fed8     ui_main.obj
 0003:00010ee0       ??_C@_06JMLBDJHL@attack?$AA@ 4013fee0     ui_main.obj
 0003:00010ee8       ??_C@_06JANNPBFM@att_03?$AA@ 4013fee8     ui_main.obj
 0003:00010ef0       ??_C@_06IJMGMABN@att_02?$AA@ 4013fef0     ui_main.obj
 0003:00010ef8       ??_C@_06KCOLJDNO@att_01?$AA@ 4013fef8     ui_main.obj
 0003:00010f00       ??_C@_06FPAOFNOA@def_04?$AA@ 4013ff00     ui_main.obj
 0003:00010f08       ??_C@_06BAEPMLCH@def_03?$AA@ 4013ff08     ui_main.obj
 0003:00010f10       ??_C@_06JFEPKGG@def_02?$AA@ 4013ff10     ui_main.obj
 0003:00010f18       ??_C@_06CCHJKJKF@def_01?$AA@ 4013ff18     ui_main.obj
 0003:00010f20       ??_C@_06LLPGNNAE@req_06?$AA@ 4013ff20     ui_main.obj
 0003:00010f28       ??_C@_06JANLIOMH@req_05?$AA@ 4013ff28     ui_main.obj
 0003:00010f30       ??_C@_06IJMALPIG@req_04?$AA@ 4013ff30     ui_main.obj
 0003:00010f38       ??_C@_06MGIBCJEB@req_03?$AA@ 4013ff38     ui_main.obj
 0003:00010f40       ??_C@_06NPJKBIAA@req_02?$AA@ 4013ff40     ui_main.obj
 0003:00010f48       ??_C@_06PELHELMD@req_01?$AA@ 4013ff48     ui_main.obj
 0003:00010f50       ??_C@_06KNLLKHHH@rep_05?$AA@ 4013ff50     ui_main.obj
 0003:00010f58       ??_C@_06LEKAJGDG@rep_04?$AA@ 4013ff58     ui_main.obj
 0003:00010f60       ??_C@_06PLOBAAPB@rep_03?$AA@ 4013ff60     ui_main.obj
 0003:00010f68       ??_C@_06OCPKDBLA@rep_02?$AA@ 4013ff68     ui_main.obj
 0003:00010f70       ??_C@_06MJNHGCHD@rep_01?$AA@ 4013ff70     ui_main.obj
 0003:00010f78       ??_C@_07KNLFJENN@spot_04?$AA@ 4013ff78     ui_main.obj
 0003:00010f84       ??_C@_07OCPEACBK@spot_03?$AA@ 4013ff84     ui_main.obj
 0003:00010f90       ??_C@_07PLOPDDFL@spot_02?$AA@ 4013ff90     ui_main.obj
 0003:00010f9c       ??_C@_07NAMCGAJI@spot_01?$AA@ 4013ff9c     ui_main.obj
 0003:00010fa8       ??_C@_06FJJHGOMK@tac_06?$AA@ 4013ffa8     ui_main.obj
 0003:00010fb0       ??_C@_06HCLKDNAJ@tac_05?$AA@ 4013ffb0     ui_main.obj
 0003:00010fb8       ??_C@_06GLKBAMEI@tac_04?$AA@ 4013ffb8     ui_main.obj
 0003:00010fc0       ??_C@_06CEOAJKIP@tac_03?$AA@ 4013ffc0     ui_main.obj
 0003:00010fc8       ??_C@_06DNPLKLMO@tac_02?$AA@ 4013ffc8     ui_main.obj
 0003:00010fd0       ??_C@_06BGNGPIAN@tac_01?$AA@ 4013ffd0     ui_main.obj
 0003:00010fd8       ??_C@_0M@FKIBDECH@ui_gameType?$AA@ 4013ffd8     ui_main.obj
 0003:00010fe8       ??_C@_0BF@NOPONDOP@ui_actualnetGameType?$AA@ 4013ffe8     ui_main.obj
 0003:00011004       ??_C@_0BD@BJMADOMH@solo_gametypefield?$AA@ 40140004     ui_main.obj
 0003:0001101c       ??_C@_0BB@CNBELBNI@ui_rules_backout?$AA@ 4014001c     ui_main.obj
 0003:00011030       ??_C@_0N@NNENLBAN@RulesBackout?$AA@ 40140030     ui_main.obj
 0003:00011040       ??_C@_0L@IPGLFCFH@VideoSetup?$AA@ 40140040     ui_main.obj
 0003:00011050       ??_C@_0BG@CKECLFAA@unknown?5UI?5script?5?$CFs?6?$AA@ 40140050     ui_main.obj
 0003:0001106c       ??_C@_0BA@BOOMJJJF@clampmaxplayers?$AA@ 4014006c     ui_main.obj
 0003:00011080       ??_C@_0O@JFOFDMJO@getmousepitch?$AA@ 40140080     ui_main.obj
 0003:00011090       ??_C@_0N@NJGLFHB@resetmaplist?$AA@ 40140090     ui_main.obj
 0003:000110a0       ??_C@_07PANIJHFC@maplist?$AA@ 401400a0     ui_main.obj
 0003:000110ac       ??_C@_0BB@DDCAGBHM@setcurrentNetMap?$AA@ 401400ac     ui_main.obj
 0003:000110c0       ??_C@_0BH@GJEMFJHA@updatesiegestatusicons?$AA@ 401400c0     ui_main.obj
 0003:000110dc       ??_C@_0BE@OPNFBBHA@resetsiegelistboxes?$AA@ 401400dc     ui_main.obj
 0003:000110f4       ??_C@_0BA@EBEIJLAH@itemdescription?$AA@ 401400f4     ui_main.obj
 0003:00011108       ??_C@_0BF@OLGFCJPH@resetitemdescription?$AA@ 40140108     ui_main.obj
 0003:00011124       ??_C@_0BG@GDHDGPHG@base_class_force_feed?$AA@ 40140124     ui_main.obj
 0003:00011140       ??_C@_0BF@HKCNIGAN@updatesiegeforcedesc?$AA@ 40140140     ui_main.obj
 0003:0001115c       ??_C@_0BK@OOPAFGHN@base_class_inventory_feed?$AA@ 4014015c     ui_main.obj
 0003:0001117c       ??_C@_0BJ@FOGOFGLL@updatesiegeinventorydesc?$AA@ 4014017c     ui_main.obj
 0003:0001119c       ??_C@_0BI@CAJMDKNH@base_class_weapons_feed?$AA@ 4014019c     ui_main.obj
 0003:000111b8       ??_C@_0BG@HOOHFEEK@updatesiegeweapondesc?$AA@ 401401b8     ui_main.obj
 0003:000111d4       ??_C@_0BC@LEANKIJC@setteamclassicons?$AA@ 401401d4     ui_main.obj
 0003:000111ec       ??_C@_0BB@BNCJKHME@updatesiegecvars?$AA@ 401401ec     ui_main.obj
 0003:00011200       ??_C@_0BE@DDPMHALA@updatesiegeclasscnt?$AA@ 40140200     ui_main.obj
 0003:00011218       ??_C@_0BM@OKEKCGBI@currentObjMapIconBackground?$AA@ 40140218     ui_main.obj
 0003:0001123c       ??_C@_0BG@PIFHLIOL@currentObjMapIconItem?$AA@ 4014023c     ui_main.obj
 0003:00011258       ??_C@_0BD@KJBNOFGI@setsiegeobjbuttons?$AA@ 40140258     ui_main.obj
 0003:00011270       ??_C@_0BH@MPIOFIPF@updatesiegeobjgraphics?$AA@ 40140270     ui_main.obj
 0003:0001128c       ??_C@_0BB@IKMDCPME@updatesabercvars?$AA@ 4014028c     ui_main.obj
 0003:000112a0       ??_C@_0N@NGEANCK@saber2_color?$AA@ 401402a0     ui_main.obj
 0003:000112b0       ??_C@_0M@EMOBKBMN@saber2_hilt?$AA@ 401402b0     ui_main.obj
 0003:000112c0       ??_C@_0P@OALPMJIP@hiltbut_staves?$AA@ 401402c0     ui_main.obj
 0003:000112d4       ??_C@_0BE@OBDEJJBO@setscreensaberstaff?$AA@ 401402d4     ui_main.obj
 0003:000112ec       ??_C@_08OMNHPKEF@hiltbut2?$AA@ 401402ec     ui_main.obj
 0003:000112f8       ??_C@_0BE@CDEKAPOG@setscreensaberhilt2?$AA@ 401402f8     ui_main.obj
 0003:00011310       ??_C@_08MHPKKJIG@hiltbut1?$AA@ 40140310     ui_main.obj
 0003:0001131c       ??_C@_0BE@IGHFMCF@setscreensaberhilt1?$AA@ 4014031c     ui_main.obj
 0003:00011334       ??_C@_07HMNPDCEB@hiltbut?$AA@ 40140334     ui_main.obj
 0003:00011340       ??_C@_0BD@FLLPAIHH@setscreensaberhilt?$AA@ 40140340     ui_main.obj
 0003:00011358       ??_C@_0M@ENKHOMD@saber_color?$AA@ 40140358     ui_main.obj
 0003:00011368       ??_C@_0L@EENOGDMB@saber_hilt?$AA@ 40140368     ui_main.obj
 0003:00011378       ??_C@_0L@PHDCDHNJ@saber_type?$AA@ 40140378     ui_main.obj
 0003:00011388       ??_C@_0BG@IOCDCAKJ@setsaberboxesandhilts?$AA@ 40140388     ui_main.obj
 0003:000113a4       ??_C@_0O@BDEHIDKC@getsabercvars?$AA@ 401403a4     ui_main.obj
 0003:000113b4       ??_C@_0O@ODEKLGOE@setBotButtons?$AA@ 401403b4     ui_main.obj
 0003:000113c4       ??_C@_06HDLLMMEJ@update?$AA@ 401403c4     ui_main.obj
 0003:000113cc       ??_C@_0BC@KAOKGCMG@updateForceStatus?$AA@ 401403cc     ui_main.obj
 0003:000113e4       ??_C@_0P@BLMLGIOD@clearmouseover?$AA@ 401403e4     ui_main.obj
 0003:000113f8       ??_C@_0P@IGNPDGBD@bot_minplayers?$AA@ 401403f8     ui_main.obj
 0003:0001140c       ??_C@_0P@EBIPKDDC@setSiegeNoBots?$AA@ 4014040c     ui_main.obj
 0003:00011420       ??_C@_0O@BJNHPHDC@weaponDisable?$AA@ 40140420     ui_main.obj
 0003:00011430       ??_C@_0BD@FJFBNPB@forcePowersDisable?$AA@ 40140430     ui_main.obj
 0003:00011448       ??_C@_0BA@JDEFNDFP@dualForcePowers?$AA@ 40140448     ui_main.obj
 0003:0001145c       ??_C@_0BC@MNKKCNGC@ui_dualforcepower?$AA@ 4014045c     ui_main.obj
 0003:00011474       ??_C@_0BF@CNEOFDFE@setui_dualforcepower?$AA@ 40140474     ui_main.obj
 0003:00011490       ??_C@_09LFFNIMNI@char_skin?$AA@ 40140490     ui_main.obj
 0003:0001149c       ??_C@_0N@OPNDMMAM@getcharcvars?$AA@ 4014049c     ui_main.obj
 0003:000114ac       ??_C@_0BA@NGDJMPNF@updatecharmodel?$AA@ 401404ac     ui_main.obj
 0003:000114c0       ??_C@_0BA@GCCOBAAP@updatecharcvars?$AA@ 401404c0     ui_main.obj
 0003:000114d4       ??_C@_0BB@GNNLJJAN@characterchanged?$AA@ 401404d4     ui_main.obj
 0003:000114e8       ??_C@_0BB@KEMAOIGK@setMoveCharacter?$AA@ 401404e8     ui_main.obj
 0003:000114fc       ??_C@_0BI@ELGJCDJA@resetcharacterlistboxes?$AA@ 401404fc     ui_main.obj
 0003:00011518       ??_C@_0P@GHOMHNCH@resetMovesList?$AA@ 40140518     ui_main.obj
 0003:0001152c       ??_C@_0BE@CCCKMIDK@setMovesListDefault?$AA@ 4014052c     ui_main.obj
 0003:00011544       ??_C@_08EBELHFHN@glCustom?$AA@ 40140544     ui_main.obj
 0003:00011550       ??_C@_0N@NDDLJAP@refreshForce?$AA@ 40140550     ui_main.obj
 0003:00011560       ??_C@_0N@KHMHBFNB@saveTemplate?$AA@ 40140560     ui_main.obj
 0003:00011570       ??_C@_0N@OALBNGAO@setBotButton?$AA@ 40140570     ui_main.obj
 0003:00011580       ??_C@_0BB@IKPDFLKJ@siegeclass?5?$CC?$CFs?$CC?6?$AA@ 40140580     ui_main.obj
 0003:00011594       ??_C@_0BD@DKKNDOGD@ui_startsiegeclass?$AA@ 40140594     ui_main.obj
 0003:000115ac       ??_C@_0BA@NOFPOCEH@ui_mySiegeClass?$AA@ 401405ac     ui_main.obj
 0003:000115c0       ??_C@_0BC@KKOKLGCA@ui_startsiegeteam?$AA@ 401405c0     ui_main.obj
 0003:000115d8       ??_C@_0M@PDKKLFLJ@ui_holdteam?$AA@ 401405d8     ui_main.obj
 0003:000115e8       ??_C@_0BF@MNMOBPCJ@setsiegeclassandteam?$AA@ 401405e8     ui_main.obj
 0003:00011604       ??_C@_04FMLAMFAK@same?$AA@ 40140604     ui_main.obj
 0003:0001160c       ??_C@_08BLKMFMH@setForce?$AA@ 4014060c     ui_main.obj
 0003:00011618       ??_C@_0M@JLOCKKJD@voiceOrders?$AA@ 40140618     ui_main.obj
 0003:00011628       ??_C@_0BA@CIKCJHJJ@voiceOrdersTeam?$AA@ 40140628     ui_main.obj
 0003:0001163c       ??_C@_01EEMJAFIK@?6?$AA@   4014063c     ui_main.obj
 0003:00011640       ??_C@_06GKKKPAPA@orders?$AA@ 40140640     ui_main.obj
 0003:00011648       ??_C@_0BD@IEIPHBLJ@ui_favoriteAddress?$AA@ 40140648     ui_main.obj
 0003:00011660       ??_C@_0BA@LFABJOCG@ui_favoriteName?$AA@ 40140660     ui_main.obj
 0003:00011674       ??_C@_0P@OAONNFHL@createFavorite?$AA@ 40140674     ui_main.obj
 0003:00011688       ??_C@_0P@PMAAHNFK@deleteFavorite?$AA@ 40140688     ui_main.obj
 0003:0001169c       ??_C@_0BK@FHDFKECC@Added?5favorite?5server?5?$CFs?6?$AA@ 4014069c     ui_main.obj
 0003:000116bc       ??_C@_0BE@GHLACGPA@Favorite?5list?5full?6?$AA@ 401406bc     ui_main.obj
 0003:000116d4       ??_C@_0BK@MJOGKENH@Favorite?5already?5in?5list?6?$AA@ 401406d4     ui_main.obj
 0003:000116f4       ??_C@_04HLBMEOMD@addr?$AA@ 401406f4     ui_main.obj
 0003:000116fc       ??_C@_0M@EGEBIODJ@addFavorite?$AA@ 401406fc     ui_main.obj
 0003:0001170c       ??_C@_0BD@JODIIMGK@addbot?5?$CC?$CFs?$CC?5?$CFi?5?$CFs?6?$AA@ 4014070c     ui_main.obj
 0003:00011724       ??_C@_06IJEAFLEI@addBot?$AA@ 40140724     ui_main.obj
 0003:0001172c       ??_C@_0BK@IIDJGHM@callteamvote?5leader?5?$CC?$CFs?$CC?6?$AA@ 4014072c     ui_main.obj
 0003:0001174c       ??_C@_0L@PNGBIKK@voteLeader?$AA@ 4014074c     ui_main.obj
 0003:0001175c       ??_C@_0BI@HLNKMHP@callvote?5g_gametype?5?$CFi?6?$AA@ 4014075c     ui_main.obj
 0003:00011778       ??_C@_08OCFGFKGG@voteGame?$AA@ 40140778     ui_main.obj
 0003:00011784       ??_C@_0BK@PAGDHLNA@callvote?5clientkick?5?$CC?$CFi?$CC?6?$AA@ 40140784     ui_main.obj
 0003:000117a4       ??_C@_08HGAPJPAM@voteKick?$AA@ 401407a4     ui_main.obj
 0003:000117b0       ??_C@_0BB@MMOGBGK@callvote?5map?5?$CFs?6?$AA@ 401407b0     ui_main.obj
 0003:000117c4       ??_C@_07EDCJGLGG@voteMap?$AA@ 401407c4     ui_main.obj
 0003:000117d0       ??_C@_0M@CMDMBGBD@closeingame?$AA@ 401407d0     ui_main.obj
 0003:000117e0       ??_C@_0O@NIAKDABK@SkirmishStart?$AA@ 401407e0     ui_main.obj
 0003:000117f0       ??_C@_0N@ENKJLKKO@nextSkirmish?$AA@ 401407f0     ui_main.obj
 0003:00011800       ??_C@_0L@GJDENEEM@ServerSort?$AA@ 40140800     ui_main.obj
 0003:00011810       ??_C@_0BB@PAGDEKNE@updatevideosetup?$AA@ 40140810     ui_main.obj
 0003:00011824       ??_C@_0O@MHPDJFEB@checkforsiege?$AA@ 40140824     ui_main.obj
 0003:00011834       ??_C@_0BB@ONDMGGMI@getsaberhiltinfo?$AA@ 40140834     ui_main.obj
 0003:00011848       ??_C@_0O@GJOHOGLC@getvideosetup?$AA@ 40140848     ui_main.obj
 0003:00011858       ??_C@_0M@MNJNCGPD@disconnect?6?$AA@ 40140858     ui_main.obj
 0003:00011868       ??_C@_05KMBJHHBA@Leave?$AA@ 40140868     ui_main.obj
 0003:00011870       ??_C@_0M@ELCNGBBL@setup_menu2?$AA@ 40140870     ui_main.obj
 0003:00011880       ??_C@_09DIABHAFB@cl_paused?$AA@ 40140880     ui_main.obj
 0003:0001188c       ??_C@_08BJJAFCGA@Controls?$AA@ 4014088c     ui_main.obj
 0003:00011898       ??_C@_04KNNLNNGO@quit?$AA@ 40140898     ui_main.obj
 0003:000118a0       ??_C@_04GMBKPCGK@Quit?$AA@ 401408a0     ui_main.obj
 0003:000118a8       ??_C@_0M@LNGHCJI@connect?5?$CFs?6?$AA@ 401408a8     ui_main.obj
 0003:000118b8       ??_C@_0BG@HCFHGGBJ@FoundPlayerJoinServer?$AA@ 401408b8     ui_main.obj
 0003:000118d4       ??_C@_0L@GBIFOGGA@JoinServer?$AA@ 401408d4     ui_main.obj
 0003:000118e4       ??_C@_0O@BIEPCOGB@checkpassword?$AA@ 401408e4     ui_main.obj
 0003:000118f4       ??_C@_0BA@OKOAECLI@checkservername?$AA@ 401408f4     ui_main.obj
 0003:00011908       ??_C@_0L@PKOEMDLA@FindPlayer?$AA@ 40140908     ui_main.obj
 0003:00011918       ??_C@_0BI@NGEOLCDJ@FoundPlayerServerStatus?$AA@ 40140918     ui_main.obj
 0003:00011934       ??_C@_0N@MFALOAHE@ServerStatus?$AA@ 40140934     ui_main.obj
 0003:00011944       ??_C@_0N@MIKCKLPA@UpdateFilter?$AA@ 40140944     ui_main.obj
 0003:00011954       ??_C@_0M@DFCCPELD@StopRefresh?$AA@ 40140954     ui_main.obj
 0003:00011964       ??_C@_04GHJNJNPO@main?$AA@ 40140964     ui_main.obj
 0003:0001196c       ??_C@_0L@CIKEFACL@joinserver?$AA@ 4014096c     ui_main.obj
 0003:0001197c       ??_C@_09NNPOKNDJ@closeJoin?$AA@ 4014097c     ui_main.obj
 0003:00011988       ??_C@_06EONMBMPE@Quake3?$AA@ 40140988     ui_main.obj
 0003:00011990       ??_C@_0L@NDAIPINK@demo?5?$CC?$CFs?$CC?6?$AA@ 40140990     ui_main.obj
 0003:000119a0       ??_C@_07CJBJDCI@RunDemo?$AA@ 401409a0     ui_main.obj
 0003:000119ac       ??_C@_07FMAMAFJE@fs_game?$AA@ 401409ac     ui_main.obj
 0003:000119b8       ??_C@_06IAFACPBP@RunMod?$AA@ 401409b8     ui_main.obj
 0003:000119c0       ??_C@_0BE@GDKNLHFF@cinematic?5?$CFs?4roq?52?6?$AA@ 401409c0     ui_main.obj
 0003:000119d8       ??_C@_09IMKGDMFP@playMovie?$AA@ 401409d8     ui_main.obj
 0003:000119e4       ??_C@_08BONFJBCM@LoadMods?$AA@ 401409e4     ui_main.obj
 0003:000119f0       ??_C@_0L@NBLDIGEO@LoadMovies?$AA@ 401409f0     ui_main.obj
 0003:00011a00       ??_C@_09DDFPMPLA@LoadDemos?$AA@ 40140a00     ui_main.obj
 0003:00011a0c       ??_C@_0M@FADNIBBJ@demo?5?$CFs_?$CFi?6?$AA@ 40140a0c     ui_main.obj
 0003:00011a1c       ??_C@_09MDJDNIJB@RunSPDemo?$AA@ 40140a1c     ui_main.obj
 0003:00011a28       ??_C@_0O@IEJIOIFM@RefreshFilter?$AA@ 40140a28     ui_main.obj
 0003:00011a38       ??_C@_0P@NGKMMKLC@RefreshServers?$AA@ 40140a38     ui_main.obj
 0003:00011a4c       ??_C@_0M@ECEPFMDA@resetScores?$AA@ 40140a4c     ui_main.obj
 0003:00011a5c       ??_C@_0N@EDJNMDIG@loadGameInfo?$AA@ 40140a5c     ui_main.obj
 0003:00011a6c       ??_C@_0BB@GDGLAKGE@com_errorMessage?$AA@ 40140a6c     ui_main.obj
 0003:00011a80       ??_C@_0L@KEOECIBG@clearError?$AA@ 40140a80     ui_main.obj
 0003:00011a90       ??_C@_0N@HHDEHNGC@loadControls?$AA@ 40140a90     ui_main.obj
 0003:00011aa0       ??_C@_0N@GFHNGHOF@saveControls?$AA@ 40140aa0     ui_main.obj
 0003:00011ab0       ??_C@_0N@LKMLHDLL@createserver?$AA@ 40140ab0     ui_main.obj
 0003:00011ac0       ??_C@_0L@JCFJAPJP@loadArenas?$AA@ 40140ac0     ui_main.obj
 0003:00011ad0       ??_C@_0BA@DOMILBID@com_introPlayed?$AA@ 40140ad0     ui_main.obj
 0003:00011ae4       ??_C@_0N@DAGNKKMD@vid_restart?6?$AA@ 40140ae4     ui_main.obj
 0003:00011af4       ??_C@_0BE@HCEDAJLB@exec?5mpdefault?4cfg?6?$AA@ 40140af4     ui_main.obj
 0003:00011b0c       ??_C@_0O@FOFBEHAC@cvar_restart?6?$AA@ 40140b0c     ui_main.obj
 0003:00011b1c       ??_C@_0O@JMPPEAEI@resetDefaults?$AA@ 40140b1c     ui_main.obj
 0003:00011b2c       ??_C@_08NJICDBID@skirmish?$AA@ 40140b2c     ui_main.obj
 0003:00011b38       ??_C@_0N@DKFPEKGB@updateSPMenu?$AA@ 40140b38     ui_main.obj
 0003:00011b48       ??_C@_0BB@CJNAALAM@addbot?5?$CC?$CFs?$CC?5?$CFf?5?6?$AA@ 40140b48     ui_main.obj
 0003:00011b5c       ??_C@_0BD@GPGODOLP@addbot?5?$CC?$CFs?$CC?5?$CFf?5?$CFs?6?$AA@ 40140b5c     ui_main.obj
 0003:00011b78       __real@4010000000000000    40140b78     ui_main.obj
 0003:00011b84       ??_C@_03GOIFLICK@120?$AA@  40140b84     ui_main.obj
 0003:00011b88       ??_C@_0BG@IEGGLJFO@wait?5?$DL?5wait?5?$DL?5map?5?$CFs?6?$AA@ 40140b88     ui_main.obj
 0003:00011ba4       __real@41000000            40140ba4     ui_main.obj
 0003:00011ba8       __real@40000000            40140ba8     ui_main.obj
 0003:00011bac       ??_C@_09BJOAODLF@dedicated?$AA@ 40140bac     ui_main.obj
 0003:00011bb8       ??_C@_0M@JNAJLIPJ@StartServer?$AA@ 40140bb8     ui_main.obj
 0003:00011bc8       ??_C@_08GEJGLEOK@$modlist?$AA@ 40140bc8     ui_main.obj
 0003:00011bd4       ??_C@_04PDLFDFDK@?4roq?$AA@ 40140bd4     ui_main.obj
 0003:00011bdc       ??_C@_05BPFJLLEL@video?$AA@ 40140bdc     ui_main.obj
 0003:00011be4       ??_C@_03GKCCIMFO@roq?$AA@  40140be4     ui_main.obj
 0003:00011be8       ??_C@_06KDKPKJKM@?4dm_?$CFd?$AA@ 40140be8     ui_main.obj
 0003:00011bf0       ??_C@_05CFPGCNL@demos?$AA@ 40140bf0     ui_main.obj
 0003:00011bf8       ??_C@_05BAIDJFLA@dm_?$CFd?$AA@ 40140bf8     ui_main.obj
 0003:00011c00       ??_C@_05GFOLEBJA@?$CFs?1?$CFs?$AA@ 40140c00     ui_main.obj
 0003:00011c08       ??_C@_02DJGKEECL@?4?4?$AA@ 40140c08     ui_main.obj
 0003:00011c0c       ??_C@_01LFCBOECM@?4?$AA@   40140c0c     ui_main.obj
 0003:00011c10       ??_C@_01KMDKNFGN@?1?$AA@   40140c10     ui_main.obj
 0003:00011c14       ??_C@_03NPMJBIL@?$CFs?1?$AA@ 40140c14     ui_main.obj
 0003:00011c18       ??_C@_0BC@PLCOEMKP@wait?55?$DL?5team?5Red?6?$AA@ 40140c18     ui_main.obj
 0003:00011c30       ??_C@_0BJ@ENECNDNG@addbot?5?$CC?$CFs?$CC?5?$CFf?5?$CFs?5?$CFi?5?$CFs?6?$AA@ 40140c30     ui_main.obj
 0003:00011c50       ??_C@_0BL@FAEKLKLG@wait?5?$DL?5addbot?5?$CFs?5?$CFf?5?0?5?$CFi?5?6?$AA@ 40140c50     ui_main.obj
 0003:00011c70       ??_C@_0BE@CELIAELA@ui_recordSPDemoName?$AA@ 40140c70     ui_main.obj
 0003:00011c88       ??_C@_05LOPJBLNH@?$CFs_?$CFi?$AA@ 40140c88     ui_main.obj
 0003:00011c90       ??_C@_0O@HACBLENO@ui_maxClients?$AA@ 40140c90     ui_main.obj
 0003:00011ca0       ??_C@_0M@KJJNNCLO@ui_scoreMap?$AA@ 40140ca0     ui_main.obj
 0003:00011cb0       __real@bcb43958            40140cb0     ui_main.obj
 0003:00011cb4       __real@3cb43958            40140cb4     ui_main.obj
 0003:00011cb8       ??_C@_0BJ@PCPDHFJH@GL_LINEAR_MIPMAP_NEAREST?$AA@ 40140cb8     ui_main.obj
 0003:00011cd8       __real@40400000            40140cd8     ui_main.obj
 0003:00011cdc       ??_C@_0BI@EMKCPMIG@GL_LINEAR_MIPMAP_LINEAR?$AA@ 40140cdc     ui_main.obj
 0003:00011cf8       __real@42000000            40140cf8     ui_main.obj
 0003:00011cfc       ??_C@_0BA@FECIFLLB@ui_r_fullScreen?$AA@ 40140cfc     ui_main.obj
 0003:00011d10       __real@41a00000            40140d10     ui_main.obj
 0003:00011d14       __real@40800000            40140d14     ui_main.obj
 0003:00011d18       __real@41c00000            40140d18     ui_main.obj
 0003:00011d1c       __real@41800000            40140d1c     ui_main.obj
 0003:00011d20       ??_C@_0L@MNKNEHAB@ui_GetName?$AA@ 40140d20     ui_main.obj
 0003:00011d30       __real@40af400000000000    40140d30     ui_main.obj
 0003:00011d3c       ??_C@_0N@HCACMDEB@cl_packetdup?$AA@ 40140d3c     ui_main.obj
 0003:00011d4c       ??_C@_0O@FAEBFPEP@cl_maxpackets?$AA@ 40140d4c     ui_main.obj
 0003:00011d60       __real@40b3880000000000    40140d60     ui_main.obj
 0003:00011d6c       ??_C@_04HCCHHEEF@rate?$AA@ 40140d6c     ui_main.obj
 0003:00011d74       ??_C@_0L@HKMNPIPK@ui_setRate?$AA@ 40140d74     ui_main.obj
 0003:00011d84       ??_C@_07KBEHLNKJ@ui_Name?$AA@ 40140d84     ui_main.obj
 0003:00011d90       ??_C@_0L@DFFMHINA@ui_SetName?$AA@ 40140d90     ui_main.obj
 0003:00011da0       ??_C@_0N@FJNKPAFP@snd_restart?6?$AA@ 40140da0     ui_main.obj
 0003:00011db0       ??_C@_05GPLACMP@s_khz?$AA@ 40140db0     ui_main.obj
 0003:00011db8       ??_C@_0L@MPAGGMDN@sv_running?$AA@ 40140db8     ui_main.obj
 0003:00011dc8       ??_C@_02PGHGPEOM@?91?$AA@  40140dc8     ui_main.obj
 0003:00011dcc       ??_C@_0M@OODBKNJH@?$CFs?1?$CFs?$HM?$CFs?$HM?$CFs?$AA@ 40140dcc     ui_main.obj
 0003:00011ddc       ??_C@_19HIIIMLFN@?$AAs?$AAk?$AAi?$AAn?$AA?$AA@ 40140ddc     ui_main.obj
 0003:00011de8       ??_C@_15BPDNGDLH@?$AAp?$AA2?$AA?$AA@ 40140de8     ui_main.obj
 0003:00011df0       ??_C@_0P@HNGDHNNN@g_saber2_color?$AA@ 40140df0     ui_main.obj
 0003:00011e04       ??_C@_06KEONFOCA@color2?$AA@ 40140e04     ui_main.obj
 0003:00011e0c       ??_C@_0O@GJFOAGMG@g_saber_color?$AA@ 40140e0c     ui_main.obj
 0003:00011e1c       ??_C@_0L@GCEJADDE@box3bottom?$AA@ 40140e1c     ui_main.obj
 0003:00011e2c       __real@43d10000            40140e2c     ui_main.obj
 0003:00011e30       ??_C@_0L@LIDOGEIM@box3middle?$AA@ 40140e30     ui_main.obj
 0003:00011e40       __real@42700000            40140e40     ui_main.obj
 0003:00011e44       __real@432a0000            40140e44     ui_main.obj
 0003:00011e48       ??_C@_0L@KOODADKK@box2bottom?$AA@ 40140e48     ui_main.obj
 0003:00011e58       __real@42300000            40140e58     ui_main.obj
 0003:00011e5c       __real@435b0000            40140e5c     ui_main.obj
 0003:00011e60       __real@42fc0000            40140e60     ui_main.obj
 0003:00011e64       __real@43540000            40140e64     ui_main.obj
 0003:00011e68       ??_C@_0L@HEJEGEBC@box2middle?$AA@ 40140e68     ui_main.obj
 0003:00011e78       ??_C@_05DDLOIMOJ@staff?$AA@ 40140e78     ui_main.obj
 0003:00011e80       ??_C@_04IJNDAMHN@dual?$AA@ 40140e80     ui_main.obj
 0003:00011e88       ??_C@_0DK@GJFFNJJM@UI_UpdateSaberHilt?3?5Could?5not?5fi@ 40140e88     ui_main.obj
 0003:00011ed0       ??_C@_05KFODFCPJ@saber?$AA@ 40140ed0     ui_main.obj
 0003:00011ed8       ??_C@_08HGDHIMPN@colorbox?$AA@ 40140ed8     ui_main.obj
 0003:00011ee4       ??_C@_0N@CNEKIPHP@lowerlistbox?$AA@ 40140ee4     ui_main.obj
 0003:00011ef4       ??_C@_0N@MFCGACAD@torsolistbox?$AA@ 40140ef4     ui_main.obj
 0003:00011f04       ??_C@_0M@JJJBGDDD@headlistbox?$AA@ 40140f04     ui_main.obj
 0003:00011f14       __real@41b80000            40140f14     ui_main.obj
 0003:00011f18       __real@41b00000            40140f18     ui_main.obj
 0003:00011f1c       __real@41a80000            40140f1c     ui_main.obj
 0003:00011f20       ??_C@_0EB@FIFAIGEN@UI_UpdateCharacter?3?5Could?5not?5fi@ 40140f20     ui_main.obj
 0003:00011f70       ??_C@_0N@PIDHMKOM@ui_heavy_cnt?$AA@ 40140f70     ui_main.obj
 0003:00011f80       ??_C@_0M@ELMIAOPO@ui_demo_cnt?$AA@ 40140f80     ui_main.obj
 0003:00011f90       ??_C@_0M@MAMLHDKC@ui_jedi_cnt?$AA@ 40140f90     ui_main.obj
 0003:00011fa0       ??_C@_0P@LDIIIHAH@ui_support_cnt?$AA@ 40140fa0     ui_main.obj
 0003:00011fb4       ??_C@_0BA@LPPKCGJF@ui_vanguard_cnt?$AA@ 40140fb4     ui_main.obj
 0003:00011fc8       ??_C@_0BA@EMECKJKP@ui_infantry_cnt?$AA@ 40140fc8     ui_main.obj
 0003:00011fdc       ??_C@_08NJPDEKHO@gametype?$AA@ 40140fdc     ui_main.obj
 0003:00011fe8       ??_C@_07HKJFGNHJ@clients?$AA@ 40140fe8     ui_main.obj
 0003:00011ff4       ??_C@_0BM@OFHFBELM@Welcome?5to?5Jedi?5Academy?5MP?$CB?$AA@ 40140ff4     ui_main.obj
 0003:00012018       ??_C@_0O@GJFLJONJ@cl_motdString?$AA@ 40141018     ui_main.obj
 0003:00012028       ??_C@_0BB@NNOBJLOI@password_request?$AA@ 40141028     ui_main.obj
 0003:0001203c       ??_C@_08HHFKLNCD@needpass?$AA@ 4014103c     ui_main.obj
 0003:00012048       __real@4042800000000000    40141048     ui_main.obj
 0003:00012058       __real@4036000000000000    40141058     ui_main.obj
 0003:00012068       __real@4035000000000000    40141068     ui_main.obj
 0003:00012074       ??_C@_0BK@DLHLILP@models?1players?1?$CFs?1icon_?$CFs?$AA@ 40141074     ui_main.obj
 0003:00012098       __real@4034000000000000    40141098     ui_main.obj
 0003:000120a8       __real@4037000000000000    401410a8     ui_main.obj
 0003:000120b8       __real@4044000000000000    401410b8     ui_main.obj
 0003:000120c8       __real@4033000000000000    401410c8     ui_main.obj
 0003:000120d8       __real@4045000000000000    401410d8     ui_main.obj
 0003:000120e8       __real@4044800000000000    401410e8     ui_main.obj
 0003:000120f8       __real@4024000000000000    401410f8     ui_main.obj
 0003:00012108       __real@4022000000000000    40141108     ui_main.obj
 0003:00012118       __real@4020000000000000    40141118     ui_main.obj
 0003:00012128       __real@402c000000000000    40141128     ui_main.obj
 0003:00012138       __real@402a000000000000    40141138     ui_main.obj
 0003:00012144       ??_C@_03KHICJKCI@?4?4?4?$AA@ 40141144     ui_main.obj
 0003:00012148       ??_C@_07NBCGADJA@Unknown?$AA@ 40141148     ui_main.obj
 0003:00012154       ??_C@_08PINKDKH@Inactive?$AA@ 40141154     ui_main.obj
 0003:00012160       ??_C@_07IFMLPBAP@?$CFs?5?$CI?$CFs?$CJ?$AA@ 40141160     ui_main.obj
 0003:0001216c       ??_C@_06MLCMCMG@?$CIA?$CJ?5?$CFs?$AA@ 4014116c     ui_main.obj
 0003:00012174       ??_C@_0BC@DFDLMDDH@sv_allowAnonymous?$AA@ 40141174     ui_main.obj
 0003:0001218c       ??_C@_07HAOKNHOC@?$CFs?5?$FL?$CFs?$FN?$AA@ 4014118c     ui_main.obj
 0003:00012198       ??_C@_07EAJPOACB@nettype?$AA@ 40141198     ui_main.obj
 0003:000121a4       ??_C@_08JIDOFFMP@truejedi?$AA@ 401411a4     ui_main.obj
 0003:000121b0       ??_C@_08CGDHFBIG@wdisable?$AA@ 401411b0     ui_main.obj
 0003:000121bc       ??_C@_08JNIMAHLE@fdisable?$AA@ 401411bc     ui_main.obj
 0003:000121c8       __real@4030000000000000    401411c8     ui_main.obj
 0003:000121d8       __real@4032000000000000    401411d8     ui_main.obj
 0003:000121e8       __real@4031000000000000    401411e8     ui_main.obj
 0003:000121f8       __real@4028000000000000    401411f8     ui_main.obj
 0003:00012208       __real@4045800000000000    40141208     ui_main.obj
 0003:00012218       __real@4043800000000000    40141218     ui_main.obj
 0003:00012228       __real@4043000000000000    40141228     ui_main.obj
 0003:00012234       ??_C@_05KDHLENLH@icon_?$AA@ 40141234     ui_main.obj
 0003:0001223c       ??_C@_0BC@EALEMOON@models?1players?1?$CFs?$AA@ 4014123c     ui_main.obj
 0003:00012254       ??_C@_0P@KAKFFEJE@models?1players?$AA@ 40141254     ui_main.obj
 0003:00012268       ??_C@_0BO@BHADLJEM@models?1players?1?$CFs?1icon_?$CFs?4tga?$AA@ 40141268     ui_main.obj
 0003:0001228c       ??_C@_0BO@MBOKLCBC@models?1players?1?$CFs?1icon_?$CFs?4png?$AA@ 4014128c     ui_main.obj
 0003:000122b0       ??_C@_0BO@OIPGILJD@models?1players?1?$CFs?1icon_?$CFs?4jpg?$AA@ 401412b0     ui_main.obj
 0003:000122d4       ??_C@_06PKHLHNNE@lower_?$AA@ 401412d4     ui_main.obj
 0003:000122dc       ??_C@_06HCGBIGN@torso_?$AA@ 401412dc     ui_main.obj
 0003:000122e4       ??_C@_05KCPJJFH@head_?$AA@ 401412e4     ui_main.obj
 0003:000122ec       ??_C@_0BF@PKIKNPLA@models?1players?1?$CFs?1?$CFs?$AA@ 401412ec     ui_main.obj
 0003:00012308       ??_C@_0N@PLNEKBEI@fs_copyfiles?$AA@ 40141308     ui_main.obj
 0003:00012318       ??_C@_05JNLGGGIB@?4skin?$AA@ 40141318     ui_main.obj
 0003:00012320       ??_C@_0DB@DGPOGINK@?$FO1UI_BuildPlayerModel_List?3?5Erro@ 40141320     ui_main.obj
 0003:0001235c       ??_C@_0CD@HDLBCOLF@models?1players?1?$CFs?1PlayerChoice?4t@ 4014135c     ui_main.obj
 0003:00012388       ??_C@_1LG@KBFDBHCD@?$AAs?$AAp?$AAe?$AAc?$AAi?$AAe?$AAs?$AA?9?$AA?$DO?$AAC?$AAo?$AAl?$AAo?$AAr?$AAC?$AAo?$AAu?$AAn?$AAt?$AA?5?$AA?$DM?$AA?5?$AAs?$AAi?$AAz?$AAe?$AAo?$AAf?$AA?$CI?$AAs?$AAp?$AAe@ 40141388     ui_main.obj
 0003:00012468       ??_C@_1GE@NBLJHAPG@?$AA?$CB?$AAs?$AAp?$AAe?$AAc?$AAi?$AAe?$AAs?$AA?9?$AA?$DO?$AAC?$AAo?$AAl?$AAo?$AAr?$AAA?$AAc?$AAt?$AAi?$AAo?$AAn?$AAT?$AAe?$AAx?$AAt?$AA?$FL?$AAs?$AAp?$AAe?$AAc?$AAi?$AAe@ 40141468     ui_main.obj
 0003:000124e0       ??_C@_0BC@LAHPGJIN@ingame_siegeclass?$AA@ 401414e0     ui_main.obj
 0003:000124f8       ??_C@_0BB@JAANANPO@ingame_voicechat?$AA@ 401414f8     ui_main.obj
 0003:0001250c       ??_C@_0BH@PPHHFDOB@ingame_siegeobjectives?$AA@ 4014150c     ui_main.obj
 0003:00012528       ??_C@_0O@MFMAGGCJ@siege_popmenu?$AA@ 40141528     ui_main.obj
 0003:00012538       ??_C@_06LOEOLLDH@ingame?$AA@ 40141538     ui_main.obj
 0003:00012540       ??_C@_09LIOFIACL@endofgame?$AA@ 40141540     ui_main.obj
 0003:0001254c       ??_C@_04KADBPNCB@team?$AA@ 4014154c     ui_main.obj
 0003:00012554       ??_C@_0O@PEPHHCN@error_popmenu?$AA@ 40141554     ui_main.obj
 0003:00012568       __real@4054000000000000    40141568     ui_main.obj
 0003:00012574       ??_C@_0BJ@OKIBNKAA@MENUS_AWAITING_GAMESTATE?$AA@ 40141574     ui_main.obj
 0003:00012594       ??_C@_0BA@MIMGFFNE@cl_downloadName?$AA@ 40141594     ui_main.obj
 0003:000125a8       ??_C@_0BJ@GEPNJPLO@MENUS_AWAITING_CHALLENGE?$AA@ 401415a8     ui_main.obj
 0003:000125c8       ??_C@_0BK@LJNOAJEC@MENUS_AWAITING_CONNECTION?$AA@ 401415c8     ui_main.obj
 0003:000125e8       __real@4066000000000000    401415e8     ui_main.obj
 0003:000125f4       __real@43d48000            401415f4     ui_main.obj
 0003:000125f8       ??_C@_04GJFDDCGE@motd?$AA@ 401415f8     ui_main.obj
 0003:00012600       ??_C@_0BE@BDBJFBJK@MENUS_CONNECTING_TO?$AA@ 40141600     ui_main.obj
 0003:00012618       __real@4048000000000000    40141618     ui_main.obj
 0003:00012624       __real@40c00000            40141624     ui_main.obj
 0003:00012628       ??_C@_0BC@IMNKPPLH@MENUS_STARTING_UP?$AA@ 40141628     ui_main.obj
 0003:00012640       ??_C@_09IPAEKDAI@localhost?$AA@ 40141640     ui_main.obj
 0003:0001264c       ??_C@_0BG@ILPEHJFI@MENUS_LOADING_MAPNAME?$AA@ 4014164c     ui_main.obj
 0003:00012668       __real@43020000            40141668     ui_main.obj
 0003:0001266c       __real@43a00000            4014166c     ui_main.obj
 0003:00012670       ??_C@_07FJPHLACI@Connect?$AA@ 40141670     ui_main.obj
 0003:00012680       __real@4071000000000000    40141680     ui_main.obj
 0003:0001268c       ??_C@_07OEKBAJML@?$CI?$CFs?5?$CFs?$CJ?$AA@ 4014168c     ui_main.obj
 0003:00012698       __real@4064000000000000    40141698     ui_main.obj
 0003:000126a4       ??_C@_0O@GGKDMBIP@?$CI?$CFs?5?$CFs?5?$CFs?5?$CFs?$CJ?$AA@ 401416a4     ui_main.obj
 0003:000126b8       __real@406b000000000000    401416b8     ui_main.obj
 0003:000126c4       ??_C@_0L@MBCOHHKN@estimating?$AA@ 401416c4     ui_main.obj
 0003:000126d8       __real@4061000000000000    401416d8     ui_main.obj
 0003:000126e4       ??_C@_09KPPELEEE@?$CFs?5?$CI?$CFd?$CF?$CF?$CJ?$AA@ 401416e4     ui_main.obj
 0003:000126f0       __real@406f000000000000    401416f0     ui_main.obj
 0003:00012700       __real@4068000000000000    40141700     ui_main.obj
 0003:00012710       __real@405c000000000000    40141710     ui_main.obj
 0003:0001271c       ??_C@_0BA@CHCCPCBI@cl_downloadTime?$AA@ 4014171c     ui_main.obj
 0003:00012730       ??_C@_0BB@FAHDFBEE@cl_downloadCount?$AA@ 40141730     ui_main.obj
 0003:00012744       ??_C@_0BA@IMGLJLPN@cl_downloadSize?$AA@ 40141744     ui_main.obj
 0003:00012758       ??_C@_0P@LJADJEPN@DOWNLOAD_STUFF?$AA@ 40141758     ui_main.obj
 0003:0001276c       __real@44200000            4014176c     ui_main.obj
 0003:00012770       __real@43f00000            40141770     ui_main.obj
 0003:00012774       __real@3f000000            40141774     ui_main.obj
 0003:00012778       ??_C@_08FFCBIDLK@?$CFd?5bytes?$AA@ 40141778     ui_main.obj
 0003:00012784       ??_C@_05GLFMPLMM@?$CFd?5KB?$AA@ 40141784     ui_main.obj
 0003:0001278c       ??_C@_08HFAPJAAB@?4?$CF02d?5MB?$AA@ 4014178c     ui_main.obj
 0003:00012798       ??_C@_08HIJIBFNH@?4?$CF02d?5GB?$AA@ 40141798     ui_main.obj
 0003:000127a4       ??_C@_07DPFFKEEK@?$CF2d?5sec?$AA@ 401417a4     ui_main.obj
 0003:000127b0       ??_C@_0BA@EJDPLOKB@?$CF2d?5min?5?$CF2d?5sec?$AA@ 401417b0     ui_main.obj
 0003:000127c4       ??_C@_0O@ICFIHIJP@?$CFd?5hr?5?$CF2d?5min?$AA@ 401417c4     ui_main.obj
 0003:000127d8       ??_C@_0EM@DEPKLKAJ@?$CFd?5servers?5not?5listed?5due?5to?5fil@ 401417d8     ui_main.obj
 0003:00012834       ??_C@_0L@KMOIMFOM@cl_maxPing?$AA@ 40141834     ui_main.obj
 0003:00012844       ??_C@_0CP@JCONBAAO@?$CFd?5servers?5listed?5in?5browser?5wit@ 40141844     ui_main.obj
 0003:0001287c       ??_C@_0BF@OIDAJKAK@globalservers?5?$CFd?5?$CFd?6?$AA@ 4014187c     ui_main.obj
 0003:00012898       ??_C@_0BF@PBFJCPPP@globalservers?5?$CFd?5?$CFs?6?$AA@ 40141898     ui_main.obj
 0003:000128b4       ??_C@_0O@GPLHFEBB@localservers?6?$AA@ 401418b4     ui_main.obj
 0003:000128c4       ??_C@_0BD@LBKOHDFN@?$CFs?9?$CFi?0?5?$CFi?5?$EA?5?$CFi?3?$CF2i?$AA@ 401418c4     ui_main.obj
 0003:000128dc       ??_C@_03JIHJHPIE@Jan?$AA@  401418dc     ui_main.obj
 0003:000128e0       ??_C@_06PFPCCALD@MONTHS?$AA@ 401418e0     ui_main.obj
 0003:000128e8       ??_C@_0BP@GGIPNFEP@gfx?1effects?1sabers?1purple_line?$AA@ 401418e8     ui_saber.obj
 0003:00012910       ??_C@_0BP@FPLHAOII@gfx?1effects?1sabers?1purple_glow?$AA@ 40141910     ui_saber.obj
 0003:00012938       ??_C@_0BN@HODAECEB@gfx?1effects?1sabers?1blue_line?$AA@ 40141938     ui_saber.obj
 0003:0001295c       ??_C@_0BN@EHAIJJIG@gfx?1effects?1sabers?1blue_glow?$AA@ 4014195c     ui_saber.obj
 0003:00012980       ??_C@_0BO@CIEHACAD@gfx?1effects?1sabers?1green_line?$AA@ 40141980     ui_saber.obj
 0003:000129a4       ??_C@_0BO@BBHPNJME@gfx?1effects?1sabers?1green_glow?$AA@ 401419a4     ui_saber.obj
 0003:000129c8       ??_C@_0BP@FIINKBCP@gfx?1effects?1sabers?1yellow_line?$AA@ 401419c8     ui_saber.obj
 0003:000129f0       ??_C@_0BP@GBLFHKOI@gfx?1effects?1sabers?1yellow_glow?$AA@ 401419f0     ui_saber.obj
 0003:00012a18       ??_C@_0BP@MEMJANBP@gfx?1effects?1sabers?1orange_line?$AA@ 40141a18     ui_saber.obj
 0003:00012a40       ??_C@_0BP@PNPBNGNI@gfx?1effects?1sabers?1orange_glow?$AA@ 40141a40     ui_saber.obj
 0003:00012a68       ??_C@_0BM@FMMFHOBL@gfx?1effects?1sabers?1red_line?$AA@ 40141a68     ui_saber.obj
 0003:00012a8c       ??_C@_0BM@GFPNKFNM@gfx?1effects?1sabers?1red_glow?$AA@ 40141a8c     ui_saber.obj
 0003:00012ab0       ??_C@_0BO@NBJEGAHB@required?5string?5?8?$CFs?8?5missing?6?$AA@ 40141ab0     ui_saber.obj
 0003:00012ad4       ??_C@_0CM@LKMGCIC@?$FO1ERROR?3?5unexpected?5EOF?5while?5pa@ 40141ad4     ui_saber.obj
 0003:00012b08       ??_C@_09KGFNABEN@saberinfo?$AA@ 40141b08     ui_saber.obj
 0003:00012b14       ??_C@_0L@MHEAGHEK@saberModel?$AA@ 40141b14     ui_saber.obj
 0003:00012b24       ??_C@_0L@EKGCMDJL@customSkin?$AA@ 40141b24     ui_saber.obj
 0003:00012b34       ??_C@_09NAGGCFBE@saberType?$AA@ 40141b34     ui_saber.obj
 0003:00012b40       ??_C@_09NEDLCGJM@numBlades?$AA@ 40141b40     ui_saber.obj
 0003:00012b4c       ??_C@_07OINOPDEA@noBlade?$AA@ 40141b4c     ui_saber.obj
 0003:00012b58       ??_C@_08JLEEMLBC@noBlade2?$AA@ 40141b58     ui_saber.obj
 0003:00012b64       ??_C@_0BB@HJNEKDIH@bladeStyle2Start?$AA@ 40141b64     ui_saber.obj
 0003:00012b78       ??_C@_09BHFJEHJB@twoHanded?$AA@ 40141b78     ui_saber.obj
 0003:00012b84       ??_C@_0O@NPHLGLOI@saberLength?$CFd?$AA@ 40141b84     ui_saber.obj
 0003:00012b94       ??_C@_0M@MOIKADHG@saberLength?$AA@ 40141b94     ui_saber.obj
 0003:00012ba4       __real@42200000            40141ba4     ui_saber.obj
 0003:00012ba8       ??_C@_0O@BLDBDLOB@saberRadius?$CFd?$AA@ 40141ba8     ui_saber.obj
 0003:00012bb8       ??_C@_0M@GAGBGIMM@saberRadius?$AA@ 40141bb8     ui_saber.obj
 0003:00012bc8       ??_C@_07POBCBIAL@notInMP?$AA@ 40141bc8     ui_saber.obj
 0003:00012bd8       ??_C@_0FN@DBBIAKFH@UI_SaberLoadParms?3?5ran?5out?5of?5sp@ 40141bd8     ui_saber.obj
 0003:00012c48       ??_C@_0DG@DBPDBKBJ@UI_SaberLoadParms?3?5file?5?$CFs?5too?5l@ 40141c48     ui_saber.obj
 0003:00012c88       ??_C@_0CF@MHFDKMHE@UI_SaberLoadParms?3?5error?5reading@ 40141c88     ui_saber.obj
 0003:00012cb4       ??_C@_0BD@NNPCBGHA@ext_data?1sabers?1?$CFs?$AA@ 40141cb4     ui_saber.obj
 0003:00012ccc       ??_C@_0BA@MIBHFBCE@ext_data?1sabers?$AA@ 40141ccc     ui_saber.obj
 0003:00012ce0       ??_C@_04CAHIDOMH@?4sab?$AA@ 40141ce0     ui_saber.obj
 0003:00012ce8       __real@40dfffc000000000    40141ce8     ui_saber.obj
 0003:00012cf8       __real@3fb3333340000000    40141cf8     ui_saber.obj
 0003:00012d04       __real@3f666666            40141d04     ui_saber.obj
 0003:00012d08       __real@3ecccccd            40141d08     ui_saber.obj
 0003:00012d0c       __real@3dcccccd            40141d0c     ui_saber.obj
 0003:00012d10       ??_C@_06GEHONCEN@purple?$AA@ 40141d10     ui_saber.obj
 0003:00012d18       ??_C@_05GBEEJKMC@green?$AA@ 40141d18     ui_saber.obj
 0003:00012d20       ??_C@_06HDDOCMMN@orange?$AA@ 40141d20     ui_saber.obj
 0003:00012d28       ??_C@_06NLFCANPD@random?$AA@ 40141d28     ui_saber.obj
 0003:00012d30       ??_C@_0BB@JEAOEMBG@SABER_SITH_SWORD?$AA@ 40141d30     ui_saber.obj
 0003:00012d44       ??_C@_0O@JGGDFEFK@SABER_TRIDENT?$AA@ 40141d44     ui_saber.obj
 0003:00012d54       ??_C@_0L@BONOMJND@SABER_STAR?$AA@ 40141d54     ui_saber.obj
 0003:00012d64       ??_C@_0M@INMNJHEK@SABER_LANCE?$AA@ 40141d64     ui_saber.obj
 0003:00012d74       ??_C@_0L@JGOENFGE@SABER_CLAW?$AA@ 40141d74     ui_saber.obj
 0003:00012d84       ??_C@_09IIGKGANJ@SABER_SAI?$AA@ 40141d84     ui_saber.obj
 0003:00012d90       ??_C@_09JGPFAKGO@SABER_ARC?$AA@ 40141d90     ui_saber.obj
 0003:00012d9c       ??_C@_0N@KPJEOBIO@SABER_DAGGER?$AA@ 40141d9c     ui_saber.obj
 0003:00012dac       ??_C@_0M@FMMLCOEM@SABER_PRONG?$AA@ 40141dac     ui_saber.obj
 0003:00012dbc       ??_C@_0M@DCKEJJCC@SABER_BROAD?$AA@ 40141dbc     ui_saber.obj
 0003:00012dcc       ??_C@_0N@OGPMBMML@SABER_SINGLE?$AA@ 40141dcc     ui_saber.obj
 0003:00012de0       __real@c040000000000000    40141de0     ui_saber.obj
 0003:00012df0       __real@c018000000000000    40141df0     ui_saber.obj
 0003:00012e00       __real@4038000000000000    40141e00     ui_saber.obj
 0003:00012e10       __real@bfe570a3e0000000    40141e10     ui_saber.obj
 0003:00012e20       __real@bfd51eb860000000    40141e20     ui_saber.obj
 0003:00012e30       __real@3fe570a3e0000000    40141e30     ui_saber.obj
 0003:00012e40       __real@3fd51eb860000000    40141e40     ui_saber.obj
 0003:00012e50       __real@c000000000000000    40141e50     ui_saber.obj
 0003:00012e60       __real@bfe8000000000000    40141e60     ui_saber.obj
 0003:00012e70       __real@c030000000000000    40141e70     ui_saber.obj
 0003:00012e80       __real@bfd0000000000000    40141e80     ui_saber.obj
 0003:00012e90       __real@c020000000000000    40141e90     ui_saber.obj
 0003:00012ea0       __real@3fd0000000000000    40141ea0     ui_saber.obj
 0003:00012eb0       __real@3fe8000000000000    40141eb0     ui_saber.obj
 0003:00012ec0       __real@c008000000000000    40141ec0     ui_saber.obj
 0003:00012ecc       ??_C@_06PDDIJHJI@?$CKflash?$AA@ 40141ecc     ui_saber.obj
 0003:00012ed4       ??_C@_08EMAEECNA@?$CKblade?$CFd?$AA@ 40141ed4     ui_saber.obj
 0003:00012ee0       ??_C@_06DCJKKMHM@dual_1?$AA@ 40141ee0     ui_saber.obj
 0003:00012ee8       ??_C@_07CKKFCGNI@?$CKl_hand?$AA@ 40141ee8     ui_saber.obj
 0003:00012ef4       ??_C@_07BNEEMBEL@?$CKr_hand?$AA@ 40141ef4     ui_saber.obj
 0003:00012f00       ??_C@_0DK@KKBLCDJB@WARNING?3?5too?5many?5one?9handed?5sab@ 40141f00     ui_saber.obj
 0003:00012f48       ??_C@_0DK@BNNGOFDP@WARNING?3?5too?5many?5two?9handed?5sab@ 40141f48     ui_saber.obj
 0003:00012f90       ??_C@_09EALBBMIF@saberlist?$AA@ 40141f90     ui_saber.obj
 0003:00012f9c       ??_C@_05EIEHMANA@popup?$AA@ 40141f9c     ui_shared.obj
 0003:00012fa4       ??_C@_06CJGNFCEB@onOpen?$AA@ 40141fa4     ui_shared.obj
 0003:00012fac       ??_C@_0BB@FOHPFLED@outOfBoundsClick?$AA@ 40141fac     ui_shared.obj
 0003:00012fc0       ??_C@_05IIPJAONP@onESC?$AA@ 40141fc0     ui_shared.obj
 0003:00012fc8       ??_C@_08POJJMKJK@onAccept?$AA@ 40141fc8     ui_shared.obj
 0003:00012fd4       ??_C@_07LAOJOJAJ@onClose?$AA@ 40141fd4     ui_shared.obj
 0003:00012fe0       ??_C@_07BNAIEIKL@itemDef?$AA@ 40141fe0     ui_shared.obj
 0003:00012fec       ??_C@_0L@GIACNHMO@fullscreen?$AA@ 40141fec     ui_shared.obj
 0003:00012ffc       ??_C@_0L@OKFLOHAM@focuscolor?$AA@ 40141ffc     ui_shared.obj
 0003:0001300c       ??_C@_0N@EEPADJLO@disablecolor?$AA@ 4014200c     ui_shared.obj
 0003:0001301c       ??_C@_09MEFJHNGH@descScale?$AA@ 4014201c     ui_shared.obj
 0003:00013028       ??_C@_05NEOIHHDL@descY?$AA@ 40142028     ui_shared.obj
 0003:00013030       ??_C@_05MNPDEGHK@descX?$AA@ 40142030     ui_shared.obj
 0003:00013038       ??_C@_09PAHMHFNJ@desccolor?$AA@ 40142038     ui_shared.obj
 0003:00013044       ??_C@_0O@COCPBLJA@descAlignment?$AA@ 40142044     ui_shared.obj
 0003:00013054       ??_C@_0L@NBMNMLHL@borderSize?$AA@ 40142054     ui_shared.obj
 0003:00013064       ??_C@_0BE@MBDLAKDH@appearanceIncrement?$AA@ 40142064     ui_shared.obj
 0003:0001307c       ??_C@_09GCPJPMCM@xoffset?7?7?$AA@ 4014207c     ui_shared.obj
 0003:00013088       ??_C@_0N@OJPOMGGP@scrollhidden?$AA@ 40142088     ui_shared.obj
 0003:00013098       ??_C@_0M@IMNLLLNC@invertyesno?$AA@ 40142098     ui_shared.obj
 0003:000130a8       ??_C@_0L@PPHHMIKE@lineHeight?$AA@ 401420a8     ui_shared.obj
 0003:000130b8       ??_C@_0N@NGJINDLF@maxLineChars?$AA@ 401420b8     ui_shared.obj
 0003:000130c8       ??_C@_07FJHHECNJ@wrapped?$AA@ 401420c8     ui_shared.obj
 0003:000130d4       ??_C@_07DPDAEJMK@visible?$AA@ 401420d4     ui_shared.obj
 0003:000130e0       ??_C@_0M@NBEMMMLH@text2aligny?$AA@ 401420e0     ui_shared.obj
 0003:000130f0       ??_C@_0M@MIFHPNPG@text2alignx?$AA@ 401420f0     ui_shared.obj
 0003:00013100       ??_C@_05JPFPPFDI@text2?$AA@ 40142100     ui_shared.obj
 0003:00013108       ??_C@_09FMCFHDEN@textstyle?$AA@ 40142108     ui_shared.obj
 0003:00013114       ??_C@_09BLEIEHKP@textscale?$AA@ 40142114     ui_shared.obj
 0003:00013120       ??_C@_0L@FCLMCIJC@textaligny?$AA@ 40142120     ui_shared.obj
 0003:00013130       ??_C@_0L@ELKHBJND@textalignx?$AA@ 40142130     ui_shared.obj
 0003:00013140       ??_C@_09PNBDGNCL@textalign?$AA@ 40142140     ui_shared.obj
 0003:0001314c       ??_C@_04CIMGMMMG@text?$AA@ 4014214c     ui_shared.obj
 0003:00013154       ??_C@_05IAKJCFIM@style?$AA@ 40142154     ui_shared.obj
 0003:0001315c       ??_C@_07BELCMIIP@special?$AA@ 4014215c     ui_shared.obj
 0003:00013168       ??_C@_08LNBEMJIA@showCvar?$AA@ 40142168     ui_shared.obj
 0003:00013174       ??_C@_08LBJPPPMM@rectcvar?$AA@ 40142174     ui_shared.obj
 0003:00013180       ??_C@_04LHPFHFPH@rect?$AA@ 40142180     ui_shared.obj
 0003:00013188       ??_C@_0O@DACAJCLK@ownerdrawFlag?$AA@ 40142188     ui_shared.obj
 0003:00013198       ??_C@_09HGLBOMNF@ownerdraw?$AA@ 40142198     ui_shared.obj
 0003:000131a4       ??_C@_0N@LGJOCBPD@outlinecolor?$AA@ 401421a4     ui_shared.obj
 0003:000131b4       ??_C@_07PFEHHELH@onFocus?$AA@ 401421b4     ui_shared.obj
 0003:000131c0       ??_C@_0O@FDEIBLKE@notselectable?$AA@ 401421c0     ui_shared.obj
 0003:000131d0       ??_C@_0O@GFPABKKP@mouseExitText?$AA@ 401421d0     ui_shared.obj
 0003:000131e0       ??_C@_09OIHCIOIA@mouseExit?$AA@ 401421e0     ui_shared.obj
 0003:000131ec       ??_C@_0P@BCEPHLNB@mouseEnterText?$AA@ 401421ec     ui_shared.obj
 0003:00013200       ??_C@_0L@KAGOMOPN@mouseEnter?$AA@ 40142200     ui_shared.obj
 0003:00013210       ??_C@_0N@ONFNKGDF@model_g2anim?$AA@ 40142210     ui_shared.obj
 0003:00013220       ??_C@_0N@OLIOMBCG@model_g2skin?$AA@ 40142220     ui_shared.obj
 0003:00013230       ??_C@_0O@DMCMCDJO@model_g2scale?$AA@ 40142230     ui_shared.obj
 0003:00013240       ??_C@_0N@LJGLKNPK@model_g2maxs?$AA@ 40142240     ui_shared.obj
 0003:00013250       ??_C@_0N@GEHEFKNH@model_g2mins?$AA@ 40142250     ui_shared.obj
 0003:00013260       ??_C@_0P@NOKHMHPD@model_rotation?$AA@ 40142260     ui_shared.obj
 0003:00013274       ??_C@_0N@LHLPLFLG@model_origin?$AA@ 40142274     ui_shared.obj
 0003:00013284       ??_C@_0L@NMCIJLPA@model_fovy?$AA@ 40142284     ui_shared.obj
 0003:00013294       ??_C@_0L@MFDDKKLB@model_fovx?$AA@ 40142294     ui_shared.obj
 0003:000132a4       ??_C@_0M@HHMGANAM@model_angle?$AA@ 401422a4     ui_shared.obj
 0003:000132b4       ??_C@_0O@HPCOAMJM@maxPaintChars?$AA@ 401422b4     ui_shared.obj
 0003:000132c4       ??_C@_08IHGPPBOI@maxChars?$AA@ 401422c4     ui_shared.obj
 0003:000132d0       ??_C@_0L@LMAJDKOE@leaveFocus?$AA@ 401422d0     ui_shared.obj
 0003:000132e0       ??_C@_08EPHDKOFL@isSaber2?$AA@ 401422e0     ui_shared.obj
 0003:000132ec       ??_C@_07GEILFICD@isSaber?$AA@ 401422ec     ui_shared.obj
 0003:000132f8       ??_C@_0M@JODFBNF@isCharacter?$AA@ 401422f8     ui_shared.obj
 0003:00013308       ??_C@_0BB@EIBMEDHI@horizontalscroll?$AA@ 40142308     ui_shared.obj
 0003:0001331c       ??_C@_08BDDCOCNI@hideCvar?$AA@ 4014231c     ui_shared.obj
 0003:00013328       ??_C@_05MGJOOGAJ@group?$AA@ 40142328     ui_shared.obj
 0003:00013330       ??_C@_09MONNBKNO@forecolor?$AA@ 40142330     ui_shared.obj
 0003:0001333c       ??_C@_0L@NOGKCHFE@focusSound?$AA@ 4014233c     ui_shared.obj
 0003:0001334c       ??_C@_04DNPGJOMD@flag?$AA@ 4014234c     ui_shared.obj
 0003:00013354       ??_C@_06GEEPENGB@feeder?$AA@ 40142354     ui_shared.obj
 0003:0001335c       ??_C@_0L@LCDHKNEJ@enableCvar?$AA@ 4014235c     ui_shared.obj
 0003:0001336c       ??_C@_0N@MILKKPGL@elementwidth?$AA@ 4014236c     ui_shared.obj
 0003:0001337c       ??_C@_0M@HBNIAHKL@elementtype?$AA@ 4014237c     ui_shared.obj
 0003:0001338c       ??_C@_0O@MNJDKOBB@elementheight?$AA@ 4014238c     ui_shared.obj
 0003:0001339c       ??_C@_0M@IHJKFHF@doubleclick?$AA@ 4014239c     ui_shared.obj
 0003:000133ac       ??_C@_0M@FBHLBFCC@disableCvar?$AA@ 401423ac     ui_shared.obj
 0003:000133bc       ??_C@_0L@GFEIECKE@decoration?$AA@ 401423bc     ui_shared.obj
 0003:000133cc       ??_C@_08MCIJOGEA@desctext?$AA@ 401423cc     ui_shared.obj
 0003:000133d8       ??_C@_08KBIDCBHN@cvarTest?$AA@ 401423d8     ui_shared.obj
 0003:000133e4       ??_C@_0M@GOKMFACI@cvarStrList?$AA@ 401423e4     ui_shared.obj
 0003:000133f4       ??_C@_0O@IKNDJMDK@cvarFloatList?$AA@ 401423f4     ui_shared.obj
 0003:00013404       ??_C@_09CGGKHKAP@cvarFloat?$AA@ 40142404     ui_shared.obj
 0003:00013410       ??_C@_04PNAHEAFM@cvar?$AA@ 40142410     ui_shared.obj
 0003:00013418       ??_C@_07HIFEPIJN@columns?$AA@ 40142418     ui_shared.obj
 0003:00013424       ??_C@_09DHDJHDLH@cinematic?$AA@ 40142424     ui_shared.obj
 0003:00013430       ??_C@_0L@BAAMOEHP@bordersize?$AA@ 40142430     ui_shared.obj
 0003:00013440       ??_C@_0M@CJNAABJD@bordercolor?$AA@ 40142440     ui_shared.obj
 0003:00013450       ??_C@_06ODFLABIG@border?$AA@ 40142450     ui_shared.obj
 0003:00013458       ??_C@_0L@EGCKCJDC@background?$AA@ 40142458     ui_shared.obj
 0003:00013468       ??_C@_09OPNKCLNO@backcolor?$AA@ 40142468     ui_shared.obj
 0003:00013474       ??_C@_0N@HLFJAKEA@asset_shader?$AA@ 40142474     ui_shared.obj
 0003:00013484       ??_C@_0M@DKAIGAGN@asset_model?$AA@ 40142484     ui_shared.obj
 0003:00013494       ??_C@_0BA@HJNHMKEG@appearance_slot?$AA@ 40142494     ui_shared.obj
 0003:000134a8       ??_C@_0M@HHKOOJO@autowrapped?$AA@ 401424a8     ui_shared.obj
 0003:000134b8       ??_C@_05CBJPDLOK@align?$AA@ 401424b8     ui_shared.obj
 0003:000134c0       ??_C@_0O@BGFKBLBI@addColorRange?$AA@ 401424c0     ui_shared.obj
 0003:000134d0       ??_C@_06DDLLCOJG@action?$AA@ 401424d0     ui_shared.obj
 0003:000134d8       ??_C@_09GLHNJALG@voicechat?$AA@ 401424d8     ui_shared.obj
 0003:000134e4       ??_C@_0P@HBEPEMGI@automap_toggle?$AA@ 401424e4     ui_shared.obj
 0003:000134f8       ??_C@_0P@FDFCLGNA@automap_button?$AA@ 401424f8     ui_shared.obj
 0003:0001350c       ??_C@_0BB@IOOMJMJB@cg_thirdperson?5?$CB?$AA@ 4014250c     ui_shared.obj
 0003:00013520       ??_C@_0L@HCOPHPIB@use_sentry?$AA@ 40142520     ui_shared.obj
 0003:00013530       ??_C@_0BG@OOGFIKBA@use_electrobinoculars?$AA@ 40142530     ui_shared.obj
 0003:0001354c       ??_C@_09GPEOCDOP@use_bacta?$AA@ 4014254c     ui_shared.obj
 0003:00013558       ??_C@_09IOIGHDGJ@use_field?$AA@ 40142558     ui_shared.obj
 0003:00013564       ??_C@_0L@PHNIGFGH@use_seeker?$AA@ 40142564     ui_shared.obj
 0003:00013574       ??_C@_07FMBGBNAB@invprev?$AA@ 40142574     ui_shared.obj
 0003:00013580       ??_C@_07GIMAAJGF@invnext?$AA@ 40142580     ui_shared.obj
 0003:0001358c       ??_C@_09EANJKMNE@forceprev?$AA@ 4014258c     ui_shared.obj
 0003:00013598       ??_C@_09HEAPLILA@forcenext?$AA@ 40142598     ui_shared.obj
 0003:000135a4       ??_C@_09LMEPJCFC@?$CLuseforce?$AA@ 401425a4     ui_shared.obj
 0003:000135b0       ??_C@_0N@PIIHDBOG@force_seeing?$AA@ 401425b0     ui_shared.obj
 0003:000135c0       ??_C@_0BG@IPJAFHDH@force_forcepowerother?$AA@ 401425c0     ui_shared.obj
 0003:000135dc       ??_C@_0BA@FAEJBFDN@force_healother?$AA@ 401425dc     ui_shared.obj
 0003:000135f0       ??_C@_0N@LHEDBPBG@force_absorb?$AA@ 401425f0     ui_shared.obj
 0003:00013600       ??_C@_0O@MHNHIGKF@force_protect?$AA@ 40142600     ui_shared.obj
 0003:00013610       ??_C@_0L@PNAILJHA@force_rage?$AA@ 40142610     ui_shared.obj
 0003:00013620       ??_C@_0N@FFCOOBHL@?$CLforce_drain?$AA@ 40142620     ui_shared.obj
 0003:00013630       ??_C@_0BB@PDNGOECE@?$CLforce_lightning?$AA@ 40142630     ui_shared.obj
 0003:00013644       ??_C@_0M@FDHOJKJI@?$CLforce_grip?$AA@ 40142644     ui_shared.obj
 0003:00013654       ??_C@_0L@INHFGGPP@force_heal?$AA@ 40142654     ui_shared.obj
 0003:00013664       ??_C@_0P@PMALMCEF@force_distract?$AA@ 40142664     ui_shared.obj
 0003:00013678       ??_C@_0M@GNLMHCDK@force_speed?$AA@ 40142678     ui_shared.obj
 0003:00013688       ??_C@_0L@IFCEHOHA@force_pull?$AA@ 40142688     ui_shared.obj
 0003:00013698       ??_C@_0M@IBJPDFKD@force_throw?$AA@ 40142698     ui_shared.obj
 0003:000136a8       ??_C@_0M@DBDAMOEM@?$CLforce_jump?$AA@ 401426a8     ui_shared.obj
 0003:000136b8       ??_C@_0N@NFNJCLFL@messagemode4?$AA@ 401426b8     ui_shared.obj
 0003:000136c8       ??_C@_0N@JKJILNJM@messagemode3?$AA@ 401426c8     ui_shared.obj
 0003:000136d8       ??_C@_0N@IDIDIMNN@messagemode2?$AA@ 401426d8     ui_shared.obj
 0003:000136e8       ??_C@_0M@JINOELJH@messagemode?$AA@ 401426e8     ui_shared.obj
 0003:000136f8       ??_C@_0L@JEAJCAAH@scoresDown?$AA@ 401426f8     ui_shared.obj
 0003:00013708       ??_C@_08NILIEBDN@scoresUp?$AA@ 40142708     ui_shared.obj
 0003:00013714       ??_C@_0O@BNPKDDEF@tauntGauntlet?$AA@ 40142714     ui_shared.obj
 0003:00013724       ??_C@_0BB@DHLHLJJP@tauntDeathInsult?$AA@ 40142724     ui_shared.obj
 0003:00013738       ??_C@_0L@OFGCNOGN@tauntTaunt?$AA@ 40142738     ui_shared.obj
 0003:00013748       ??_C@_0M@FHJJKLIB@tauntPraise?$AA@ 40142748     ui_shared.obj
 0003:00013758       ??_C@_0BA@LAKLAIKA@tauntKillInsult?$AA@ 40142758     ui_shared.obj
 0003:0001376c       ??_C@_0M@HEJOPHDA@taskSuicide?$AA@ 4014276c     ui_shared.obj
 0003:0001377c       ??_C@_0M@NPBCACOK@taskOwnFlag?$AA@ 4014277c     ui_shared.obj
 0003:0001378c       ??_C@_0L@JKHNIMGE@taskEscort?$AA@ 4014278c     ui_shared.obj
 0003:0001379c       ??_C@_0N@DNLIECKN@taskRetrieve?$AA@ 4014279c     ui_shared.obj
 0003:000137ac       ??_C@_0L@HALHAPMG@taskFollow?$AA@ 401427ac     ui_shared.obj
 0003:000137bc       ??_C@_08OELCHPPI@taskCamp?$AA@ 401427bc     ui_shared.obj
 0003:000137c8       ??_C@_0L@HNDPADH@taskPatrol?$AA@ 401427c8     ui_shared.obj
 0003:000137d8       ??_C@_0M@JPJGJJPF@taskDefense?$AA@ 401427d8     ui_shared.obj
 0003:000137e8       ??_C@_0M@PDBEJPDO@taskOffense?$AA@ 401427e8     ui_shared.obj
 0003:000137f8       ??_C@_09PEFBKJOE@denyOrder?$AA@ 401427f8     ui_shared.obj
 0003:00013804       ??_C@_0N@KJLGMAFH@confirmOrder?$AA@ 40142804     ui_shared.obj
 0003:00013814       ??_C@_09DIHAGAEB@nextOrder?$AA@ 40142814     ui_shared.obj
 0003:00013820       ??_C@_0P@GJIGAACM@nextTeamMember?$AA@ 40142820     ui_shared.obj
 0003:00013834       ??_C@_0P@NMPIEJIB@prevTeamMember?$AA@ 40142834     ui_shared.obj
 0003:00013848       ??_C@_08IJHOKAF@weapnext?$AA@ 40142848     ui_shared.obj
 0003:00013854       ??_C@_08DMEBPOGB@weapprev?$AA@ 40142854     ui_shared.obj
 0003:00013860       ??_C@_05GGANABEC@gloat?$AA@ 40142860     ui_shared.obj
 0003:00013868       ??_C@_08KJHFDKHF@flourish?$AA@ 40142868     ui_shared.obj
 0003:00013874       ??_C@_08LIGJJMBO@meditate?$AA@ 40142874     ui_shared.obj
 0003:00013880       ??_C@_03GMGBHMEH@bow?$AA@  40142880     ui_shared.obj
 0003:00013884       ??_C@_05CPCHEFAA@taunt?$AA@ 40142884     ui_shared.obj
 0003:0001388c       ??_C@_0M@HCFMJNJ@engage_duel?$AA@ 4014288c     ui_shared.obj
 0003:0001389c       ??_C@_04JNBAAPLC@?$CLuse?$AA@ 4014289c     ui_shared.obj
 0003:000138a4       ??_C@_0L@GDIPNNOO@?$CLaltattack?$AA@ 401428a4     ui_shared.obj
 0003:000138b4       ??_C@_07MAODEHGM@?$CLattack?$AA@ 401428b4     ui_shared.obj
 0003:000138c0       ??_C@_09EAGNIMIH@weapon?513?$AA@ 401428c0     ui_shared.obj
 0003:000138cc       ??_C@_09FJHGLNMG@weapon?512?$AA@ 401428cc     ui_shared.obj
 0003:000138d8       ??_C@_09HCFLOOAF@weapon?511?$AA@ 401428d8     ui_shared.obj
 0003:000138e4       ??_C@_0BB@CFPBIBMB@saberAttackCycle?$AA@ 401428e4     ui_shared.obj
 0003:000138f8       ??_C@_09GLEANPEE@weapon?510?$AA@ 401428f8     ui_shared.obj
 0003:00013904       ??_C@_08MFIOAKPE@weapon?59?$AA@ 40142904     ui_shared.obj
 0003:00013910       ??_C@_08NMJFDLLF@weapon?58?$AA@ 40142910     ui_shared.obj
 0003:0001391c       ??_C@_08FLANCHHK@weapon?57?$AA@ 4014291c     ui_shared.obj
 0003:00013928       ??_C@_08ECBGBGDL@weapon?56?$AA@ 40142928     ui_shared.obj
 0003:00013934       ??_C@_08GJDLEFPI@weapon?55?$AA@ 40142934     ui_shared.obj
 0003:00013940       ??_C@_08HACAHELJ@weapon?54?$AA@ 40142940     ui_shared.obj
 0003:0001394c       ??_C@_08DPGBOCHO@weapon?53?$AA@ 4014294c     ui_shared.obj
 0003:00013958       ??_C@_08CGHKNDDP@weapon?52?$AA@ 40142958     ui_shared.obj
 0003:00013964       ??_C@_08NFHIAPM@weapon?51?$AA@ 40142964     ui_shared.obj
 0003:00013970       ??_C@_0L@FHIBDANG@centerview?$AA@ 40142970     ui_shared.obj
 0003:00013980       ??_C@_06OBEGBCAL@?$CLmlook?$AA@ 40142980     ui_shared.obj
 0003:00013988       ??_C@_09KCKOGCLI@?$CLlookdown?$AA@ 40142988     ui_shared.obj
 0003:00013994       ??_C@_07BDFIGFL@?$CLlookup?$AA@ 40142994     ui_shared.obj
 0003:000139a0       ??_C@_07CHKKNAEO@?$CLstrafe?$AA@ 401429a0     ui_shared.obj
 0003:000139ac       ??_C@_06NGIHBNMB@?$CLright?$AA@ 401429ac     ui_shared.obj
 0003:000139b4       ??_C@_05HEGFDNLE@?$CLleft?$AA@ 401429b4     ui_shared.obj
 0003:000139bc       ??_C@_09HNJJMOJG@?$CLmovedown?$AA@ 401429bc     ui_shared.obj
 0003:000139c8       ??_C@_07CKGNAPCP@?$CLmoveup?$AA@ 401429c8     ui_shared.obj
 0003:000139d4       ??_C@_0L@FMBJCMEG@?$CLmoveright?$AA@ 401429d4     ui_shared.obj
 0003:000139e4       ??_C@_09IPJNFGKP@?$CLmoveleft?$AA@ 401429e4     ui_shared.obj
 0003:000139f0       ??_C@_05IPKGNIPH@?$CLback?$AA@ 401429f0     ui_shared.obj
 0003:000139f8       ??_C@_08KKEOHAPB@?$CLforward?$AA@ 401429f8     ui_shared.obj
 0003:00013a04       ??_C@_06JIDIHCBO@?$CLspeed?$AA@ 40142a04     ui_shared.obj
 0003:00013a0c       ??_C@_08GFFBPDLD@?$CLbutton2?$AA@ 40142a0c     ui_shared.obj
 0003:00013a18       ??_C@_07PNHLECKB@?$CLscores?$AA@ 40142a18     ui_shared.obj
 0003:00013a24       ??_C@_0M@FLLAMNPB@transition2?$AA@ 40142a24     ui_shared.obj
 0003:00013a34       ??_C@_0M@CIHCAJBI@rundeferred?$AA@ 40142a34     ui_shared.obj
 0003:00013a44       ??_C@_05MBNCFBEN@defer?$AA@ 40142a44     ui_shared.obj
 0003:00013a4c       ??_C@_07DBNODEFN@disable?$AA@ 40142a4c     ui_shared.obj
 0003:00013a58       ??_C@_05MHMEBBGO@scale?$AA@ 40142a58     ui_shared.obj
 0003:00013a60       ??_C@_05KJPHCDKJ@orbit?$AA@ 40142a60     ui_shared.obj
 0003:00013a68       ??_C@_0L@NDOCJLDE@playlooped?$AA@ 40142a68     ui_shared.obj
 0003:00013a78       ??_C@_04GBHMDDO@play?$AA@  40142a78     ui_shared.obj
 0003:00013a80       ??_C@_04MGEIEJAD@exec?$AA@ 40142a80     ui_shared.obj
 0003:00013a88       ??_C@_0O@DOIJMEIF@setcvartocvar?$AA@ 40142a88     ui_shared.obj
 0003:00013a98       ??_C@_07DFOFNCMO@setcvar?$AA@ 40142a98     ui_shared.obj
 0003:00013aa4       ??_C@_0L@KGLELNDP@transition?$AA@ 40142aa4     ui_shared.obj
 0003:00013ab4       ??_C@_0P@COHLPKKB@setplayermodel?$AA@ 40142ab4     ui_shared.obj
 0003:00013ac8       ??_C@_08OKIAJKBO@setfocus?$AA@ 40142ac8     ui_shared.obj
 0003:00013ad4       ??_C@_0N@KMLJLNON@setteamcolor?$AA@ 40142ad4     ui_shared.obj
 0003:00013ae4       ??_C@_0M@DCMJNPEK@setitemrect?$AA@ 40142ae4     ui_shared.obj
 0003:00013af4       ??_C@_0BB@HMPBEODN@setitemcolorcvar?$AA@ 40142af4     ui_shared.obj
 0003:00013b08       ??_C@_0N@EBBIOPHN@setitemcolor?$AA@ 40142b08     ui_shared.obj
 0003:00013b18       ??_C@_0M@KNPKGGHL@setitemtext?$AA@ 40142b18     ui_shared.obj
 0003:00013b28       ??_C@_0BC@IHOKDANM@setitembackground?$AA@ 40142b28     ui_shared.obj
 0003:00013b40       ??_C@_0BA@GEEJLPGN@setitemrectcvar?$AA@ 40142b40     ui_shared.obj
 0003:00013b54       ??_C@_0O@FOIIKEEB@setbackground?$AA@ 40142b54     ui_shared.obj
 0003:00013b64       ??_C@_08FBOLLCAN@setasset?$AA@ 40142b64     ui_shared.obj
 0003:00013b70       ??_C@_05LBOHBHFK@close?$AA@ 40142b70     ui_shared.obj
 0003:00013b78       ??_C@_04PMOCAHAA@open?$AA@ 40142b78     ui_shared.obj
 0003:00013b80       ??_C@_08OKIEAMBM@setcolor?$AA@ 40142b80     ui_shared.obj
 0003:00013b8c       ??_C@_04IBOFHAPJ@hide?$AA@ 40142b8c     ui_shared.obj
 0003:00013b94       ??_C@_04FKMICODN@show?$AA@ 40142b94     ui_shared.obj
 0003:00013b9c       ??_C@_07BJADIKJG@fadeout?$AA@ 40142b9c     ui_shared.obj
 0003:00013ba8       ??_C@_06JFGPOFJL@fadein?$AA@ 40142ba8     ui_shared.obj
 0003:00013bb0       ??_C@_0BF@GHBOAADB@ITEM_TYPE_TEXTSCROLL?$AA@ 40142bb0     ui_shared.obj
 0003:00013bcc       ??_C@_0P@LFNHJNLI@ITEM_TYPE_BIND?$AA@ 40142bcc     ui_shared.obj
 0003:00013be0       ??_C@_0BA@GNNLLMC@ITEM_TYPE_MULTI?$AA@ 40142be0     ui_shared.obj
 0003:00013bf4       ??_C@_0BA@LBOLKKCE@ITEM_TYPE_YESNO?$AA@ 40142bf4     ui_shared.obj
 0003:00013c08       ??_C@_0BB@HPDKNELK@ITEM_TYPE_SLIDER?$AA@ 40142c08     ui_shared.obj
 0003:00013c1c       ??_C@_0BH@GLLADPJF@ITEM_TYPE_NUMERICFIELD?$AA@ 40142c1c     ui_shared.obj
 0003:00013c38       ??_C@_0BE@EAPBKGDL@ITEM_TYPE_OWNERDRAW?$AA@ 40142c38     ui_shared.obj
 0003:00013c50       ??_C@_0BA@IJKKCBAM@ITEM_TYPE_MODEL?$AA@ 40142c50     ui_shared.obj
 0003:00013c64       ??_C@_0BC@OFIOAFNP@ITEM_TYPE_LISTBOX?$AA@ 40142c64     ui_shared.obj
 0003:00013c7c       ??_C@_0BA@OAMKEKLA@ITEM_TYPE_COMBO?$AA@ 40142c7c     ui_shared.obj
 0003:00013c90       ??_C@_0BE@MNNMOPPO@ITEM_TYPE_EDITFIELD?$AA@ 40142c90     ui_shared.obj
 0003:00013ca8       ??_C@_0BD@ILDGMNNN@ITEM_TYPE_CHECKBOX?$AA@ 40142ca8     ui_shared.obj
 0003:00013cc0       ??_C@_0BG@BAAHBGEB@ITEM_TYPE_RADIOBUTTON?$AA@ 40142cc0     ui_shared.obj
 0003:00013cdc       ??_C@_0BB@LJMDMMLE@ITEM_TYPE_BUTTON?$AA@ 40142cdc     ui_shared.obj
 0003:00013cf0       ??_C@_0P@ECMIINLB@ITEM_TYPE_TEXT?$AA@ 40142cf0     ui_shared.obj
 0003:00013d04       ??_C@_0BB@MDDHAHGK@ITEM_ALIGN_RIGHT?$AA@ 40142d04     ui_shared.obj
 0003:00013d18       ??_C@_0BC@JJHJJEIH@ITEM_ALIGN_CENTER?$AA@ 40142d18     ui_shared.obj
 0003:00013d30       ??_C@_0BA@CFDMPPCB@ITEM_ALIGN_LEFT?$AA@ 40142d30     ui_shared.obj
 0003:00013d44       ??_C@_0BH@CDGHPFEH@WINDOW_STYLE_CINEMATIC?$AA@ 40142d44     ui_shared.obj
 0003:00013d60       ??_C@_0BH@KNCNDPMK@WINDOW_STYLE_TEAMCOLOR?$AA@ 40142d60     ui_shared.obj
 0003:00013d7c       ??_C@_0BE@HECCLBFC@WINDOW_STYLE_SHADER?$AA@ 40142d7c     ui_shared.obj
 0003:00013d94       ??_C@_0BG@IEFBEMMN@WINDOW_STYLE_GRADIENT?$AA@ 40142d94     ui_shared.obj
 0003:00013db0       ??_C@_0BE@KLCEIIBH@WINDOW_STYLE_FILLED?$AA@ 40142db0     ui_shared.obj
 0003:00013dc8       ??_C@_0BD@BJJNFIHK@WINDOW_STYLE_EMPTY?$AA@ 40142dc8     ui_shared.obj
 0003:00013de0       ??_C@_0BA@NNDAHIHE@WINDOW_INACTIVE?$AA@ 40142de0     ui_shared.obj
 0003:00013e20       ??_C@_0CD@LBKPCJLM@UI_Alloc?3?5Failure?4?5Out?5of?5memory@ 40142e20     ui_shared.obj
 0003:00013e4c       ??_C@_13COJANIEC@?$AA0?$AA?$AA@ 40142e4c     ui_shared.obj
 0003:00013e50       ??_C@_1OI@LDALBMGD@?$AAc?$AA?3?$AA?2?$AAd?$AAo?$AAc?$AAu?$AAm?$AAe?$AAn?$AAt?$AAs?$AA?5?$AAa?$AAn?$AAd?$AA?5?$AAs?$AAe?$AAt?$AAt?$AAi?$AAn?$AAg?$AAs?$AA?2?$AAd?$AAa?$AAn?$AA?2?$AAd?$AAe@ 40142e50     ui_shared.obj
 0003:00013f68       ??_C@_0DG@OMGKABNP@Memory?5Pool?5is?5?$CF?41f?$CF?$CF?5full?0?5?$CFi?5b@ 40142f68     ui_shared.obj
 0003:00013fa8       __real@4140000000000000    40142fa8     ui_shared.obj
 0003:00013fb4       ??_C@_0DG@MABFDHIF@String?5Pool?5is?5?$CF?41f?$CF?$CF?5full?0?5?$CFi?5b@ 40142fb4     ui_shared.obj
 0003:00013ff8       __real@4059000000000000    40142ff8     ui_shared.obj
 0003:00014008       __real@4118000000000000    40143008     ui_shared.obj
 0003:00014014       ??_C@_0BC@DKLFONDB@?9?9?9?9?9?9?9?9?9?9?9?9?9?9?9?9?6?$AA@ 40143014     ui_shared.obj
 0003:0001402c       ??_C@_0BJ@GAPDFKFM@Memory?1String?5Pool?5Info?6?$AA@ 4014302c     ui_shared.obj
 0003:0001404c       ??_C@_0BM@DJGMFAMK@?$FO3WARNING?3?5?$CFs?0?5line?5?$CFd?3?5?$CFs?6?$AA@ 4014304c     ui_shared.obj
 0003:00014070       ??_C@_0BK@OKFEFFGN@?$FO1ERROR?3?5?$CFs?0?5line?5?$CFd?3?5?$CFs?6?$AA@ 40143070     ui_shared.obj
 0003:00014090       ??_C@_0BN@CKJPOGNB@expected?5float?5but?5found?5?$CFs?6?$AA@ 40143090     ui_shared.obj
 0003:000140b4       ??_C@_0BP@FLADEANJ@expected?5integer?5but?5found?5?$CFs?6?$AA@ 401430b4     ui_shared.obj
 0003:000140dc       ??_C@_04OEDFLLKD@?$CC?$CFs?$CC?$AA@ 401430dc     ui_shared.obj
 0003:000140e4       ??_C@_0CL@IDBGDCGN@?$FO3WARNING?3?5item?5has?5neither?5name@ 401430e4     ui_shared.obj
 0003:00014118       ??_C@_03NFKEKGGK@all?$AA@  40143118     ui_shared.obj
 0003:0001411c       ??_C@_0DD@ICNKGIM@?$FO3WARNING?3?5Script_Transition2?3?5e@ 4014311c     ui_shared.obj
 0003:0001415c       ??_C@_05LKKGNBCL@?$CFs?5?$DL?5?$AA@ 4014315c     ui_shared.obj
 0003:00014168       __real@4058000000000000    40143168     ui_shared.obj
 0003:00014174       ??_C@_02NJPGOMH@?$CFf?$AA@ 40143174     ui_shared.obj
 0003:00014178       ??_C@_0BI@MLGEDDNA@slider?5handle?5key?5exit?6?$AA@ 40143178     ui_shared.obj
 0003:00014194       __real@42cc0000            40143194     ui_shared.obj
 0003:00014198       __real@42c00000            40143198     ui_shared.obj
 0003:0001419c       ??_C@_0M@FHKEBODE@screenshot?6?$AA@ 4014319c     ui_shared.obj
 0003:000141ac       ??_C@_09DNECJBKD@developer?$AA@ 401431ac     ui_shared.obj
 0003:000141b8       ??_C@_04KMMDIKEB@?5?$CFs?5?$AA@ 401431b8     ui_shared.obj
 0003:000141c0       ??_C@_0BB@ECGEJEGA@MENUS_KEYBIND_OR?$AA@ 401431c0     ui_shared.obj
 0003:000141d4       ??_C@_05DJCKAPIL@FIXME?$AA@ 401431d4     ui_shared.obj
 0003:000141e0       __real@3fa99999a0000000    401431e0     ui_shared.obj
 0003:000141f0       __real@4084000000000000    401431f0     ui_shared.obj
 0003:00014200       __real@3fe99999a0000000    40143200     ui_shared.obj
 0003:0001420c       __real@3f4ccccd            4014320c     ui_shared.obj
 0003:00014210       __real@447a0000            40143210     ui_shared.obj
 0003:00014218       __real@405ca5dc00000000    40143218     ui_shared.obj
 0003:00014228       __real@3fd126e978d4fdf4    40143228     ui_shared.obj
 0003:00014238       __real@bfe0000000000000    40143238     ui_shared.obj
 0003:00014244       __real@c1c00000            40143244     ui_shared.obj
 0003:00014248       __real@c1800000            40143248     ui_shared.obj
 0003:0001424c       __real@3d567750            4014324c     ui_shared.obj
 0003:00014250       __real@3f0ccccd            40143250     ui_shared.obj
 0003:00014254       ??_C@_0L@OPBBEMAA@model_root?$AA@ 40143254     ui_shared.obj
 0003:00014268       __real@4049000000000000    40143268     ui_shared.obj
 0003:00014274       ??_C@_0P@BNFHKDFH@?1animation?4cfg?$AA@ 40143274     ui_shared.obj
 0003:00014288       ??_C@_04HAEDHBJD@?4glm?$AA@ 40143288     ui_shared.obj
 0003:00014290       ??_C@_0CH@JIJGKJHM@Could?5not?5find?5?8?$CFs?8?5in?5the?5anim?5@ 40143290     ui_shared.obj
 0003:000142c0       ??_C@_0CA@MBEPFCBH@?$FO3Unknown?5item?5style?5value?5?8?$CFs?8?$AA@ 401432c0     ui_shared.obj
 0003:000142e8       ??_C@_0BL@LEGNDHIH@?$FO3Unknown?5item?5style?5value?$AA@ 401432e8     ui_shared.obj
 0003:00014308       ??_C@_0BP@JDCINHG@?$FO3Unknown?5text?5alignment?5value?$AA@ 40143308     ui_shared.obj
 0003:00014330       ??_C@_0BO@GKGLOPGG@end?5of?5file?5inside?5menu?5item?6?$AA@ 40143330     ui_shared.obj
 0003:00014354       ??_C@_09FCFBCLEB@?$EAMENUS_?$CFs?$AA@ 40143354     ui_shared.obj
 0003:00014360       ??_C@_0CE@OIGKMGKE@couldn?8t?5parse?5menu?5item?5keyword@ 40143360     ui_shared.obj
 0003:0001438c       ??_C@_0BN@JHFMAPJL@unknown?5menu?5item?5keyword?5?$CFs?$AA@ 4014338c     ui_shared.obj
 0003:000143b0       ??_C@_04GJDJEMBE@?$CFc?$CFc?$AA@ 401433b0     ui_shared.obj
 0003:000143b8       ??_C@_0BL@EDFDLOD@?$FO3Unknown?5menu?5style?5value?$AA@ 401433b8     ui_shared.obj
 0003:000143d8       ??_C@_0BP@CHKMFCMK@?$FO3Unknown?5desc?5alignment?5value?$AA@ 401433d8     ui_shared.obj
 0003:00014400       ??_C@_0BP@HJCDHJDP@couldn?8t?5parse?5menu?5keyword?5?$CFs?$AA@ 40143400     ui_shared.obj
 0003:00014428       ??_C@_0BI@PALCAEGK@unknown?5menu?5keyword?5?$CFs?$AA@ 40143428     ui_shared.obj
 0003:00014444       ??_C@_0BJ@MPIMCBOA@end?5of?5file?5inside?5menu?6?$AA@ 40143444     ui_shared.obj
 0003:00014464       __real@42340000            40143464     ui_shared.obj
 0003:00014468       ??_C@_0M@CDGBDLAG@x?3?5?$CFd?5?5y?3?$CFd?$AA@ 40143468     ui_shared.obj
 0003:00014478       __real@41c80000            40143478     ui_shared.obj
 0003:0001447c       __real@3f400000            4014347c     ui_shared.obj
 0003:00014480       ??_C@_07KLAFGBNN@fps?3?5?$CFf?$AA@ 40143480     ui_shared.obj
 0003:0001448c       __real@40e00000            4014348c     ui_shared.obj
 0003:00014490       __FPinit                   40143490     LIBCMTD:_fpinit_.obj
 0003:00014494       __FPmtinit                 40143494     LIBCMTD:_fpinit_.obj
 0003:00014498       __FPmtterm                 40143498     LIBCMTD:_fpinit_.obj
 0003:000144a0       ?ProcessDetach@NativeDll@<CrtImplementationDetails>@@0IB 401434a0     LIBCMTD:atof.obj
 0003:000144a4       ?ProcessAttach@NativeDll@<CrtImplementationDetails>@@0IB 401434a4     LIBCMTD:atof.obj
 0003:000144a8       ?ThreadAttach@NativeDll@<CrtImplementationDetails>@@0IB 401434a8     LIBCMTD:atof.obj
 0003:000144ac       ?ThreadDetach@NativeDll@<CrtImplementationDetails>@@0IB 401434ac     LIBCMTD:atof.obj
 0003:000144b0       ?ProcessVerifier@NativeDll@<CrtImplementationDetails>@@0IB 401434b0     LIBCMTD:atof.obj
 0003:000144b4       ??_C@_1BA@NJCJMLHI@?$AA_?$AAa?$AAt?$AAo?$AAf?$AA_?$AAl?$AA?$AA@ 401434b4     LIBCMTD:atof.obj
 0003:000144c8       ??_C@_1FM@HAAJIFE@?$AAf?$AA?3?$AA?2?$AAd?$AAd?$AA?2?$AAv?$AAc?$AAt?$AAo?$AAo?$AAl?$AAs?$AA?2?$AAc?$AAr?$AAt?$AA_?$AAb?$AAl?$AAd?$AA?2?$AAs?$AAe?$AAl?$AAf?$AA_?$AAx?$AA8?$AA6?$AA?2?$AAc@ 401434c8     LIBCMTD:atof.obj
 0003:00014538       ??_C@_1BK@LAOAACLJ@?$AAn?$AAp?$AAt?$AAr?$AA?5?$AA?$CB?$AA?$DN?$AA?5?$AAN?$AAU?$AAL?$AAL?$AA?$AA@ 40143538     LIBCMTD:atof.obj
 0003:00014558       ??_C@_15IABLJNFO@?$AA?6?$AA?6?$AA?$AA@ 40143558     LIBCMTD:wassert.obj
 0003:00014560       ??_C@_13LBAGMAIH@?$AA?6?$AA?$AA@ 40143560     LIBCMTD:wassert.obj
 0003:00014564       ??_C@_17LGKOMLJ@?$AA?4?$AA?4?$AA?4?$AA?$AA@ 40143564     LIBCMTD:wassert.obj
 0003:00014570       ??_C@_1EK@MBDPDCGA@?$AAM?$AAi?$AAc?$AAr?$AAo?$AAs?$AAo?$AAf?$AAt?$AA?5?$AAV?$AAi?$AAs?$AAu?$AAa?$AAl?$AA?5?$AAC?$AA?$CL?$AA?$CL?$AA?5?$AAR?$AAu?$AAn?$AAt?$AAi?$AAm?$AAe?$AA?5?$AAL?$AAi?$AAb@ 40143570     LIBCMTD:wassert.obj
 0003:000145c8       ??_C@_1HK@POCJMFGK@?$AA?$CI?$AAP?$AAr?$AAe?$AAs?$AAs?$AA?5?$AAR?$AAe?$AAt?$AAr?$AAy?$AA?5?$AAt?$AAo?$AA?5?$AAd?$AAe?$AAb?$AAu?$AAg?$AA?5?$AAt?$AAh?$AAe?$AA?5?$AAa?$AAp?$AAp?$AAl?$AAi?$AAc@ 401435c8     LIBCMTD:wassert.obj
 0003:00014660       ??_C@_1LO@HBAMOOPN@?$AAw?$AAc?$AAs?$AAc?$AAa?$AAt?$AA_?$AAs?$AA?$CI?$AAa?$AAs?$AAs?$AAe?$AAr?$AAt?$AAb?$AAu?$AAf?$AA?0?$AA?5?$AA?$CI?$AA6?$AA0?$AA?5?$AA?$CK?$AA?5?$AA9?$AA?$CJ?$AA?0?$AA?5?$AAL?$AA?$CC@ 40143660     LIBCMTD:wassert.obj
 0003:00014748       ??_C@_1FG@GMPCGFKH@?$AAw?$AAc?$AAs?$AAc?$AAa?$AAt?$AA_?$AAs?$AA?$CI?$AAa?$AAs?$AAs?$AAe?$AAr?$AAt?$AAb?$AAu?$AAf?$AA?0?$AA?5?$AA?$CI?$AA6?$AA0?$AA?5?$AA?$CK?$AA?5?$AA9?$AA?$CJ?$AA?0?$AA?5?$AAd?$AAb@ 40143748     LIBCMTD:wassert.obj
 0003:000147b0       ??_C@_1OA@EGMLFBHJ@?$AAF?$AAo?$AAr?$AA?5?$AAi?$AAn?$AAf?$AAo?$AAr?$AAm?$AAa?$AAt?$AAi?$AAo?$AAn?$AA?5?$AAo?$AAn?$AA?5?$AAh?$AAo?$AAw?$AA?5?$AAy?$AAo?$AAu?$AAr?$AA?5?$AAp?$AAr?$AAo?$AAg@ 401437b0     LIBCMTD:wassert.obj
 0003:000148c0       ??_C@_1BCO@FMFFDPPF@?$AAw?$AAc?$AAs?$AAc?$AAa?$AAt?$AA_?$AAs?$AA?$CI?$AAa?$AAs?$AAs?$AAe?$AAr?$AAt?$AAb?$AAu?$AAf?$AA?0?$AA?5?$AA?$CI?$AA6?$AA0?$AA?5?$AA?$CK?$AA?5?$AA9?$AA?$CJ?$AA?0?$AA?5?$AAL?$AA?$CC@ 401438c0     LIBCMTD:wassert.obj
 0003:00014a30       ??_C@_1EM@MBEKCGIC@?$AAw?$AAc?$AAs?$AAc?$AAa?$AAt?$AA_?$AAs?$AA?$CI?$AA?5?$AAa?$AAs?$AAs?$AAe?$AAr?$AAt?$AAb?$AAu?$AAf?$AA?0?$AA?5?$AA?$CI?$AA6?$AA0?$AA?5?$AA?$CK?$AA?5?$AA9?$AA?$CJ?$AA?0?$AA?5?$AAe@ 40143a30     LIBCMTD:wassert.obj
 0003:00014a90       ??_C@_1CHM@CEIMNDLH@?$AAw?$AAc?$AAs?$AAn?$AAc?$AAa?$AAt?$AA_?$AAs?$AA?$CI?$AA?5?$AAa?$AAs?$AAs?$AAe?$AAr?$AAt?$AAb?$AAu?$AAf?$AA?0?$AA?5?$AA?$CI?$AA6?$AA0?$AA?5?$AA?$CK?$AA?5?$AA9?$AA?$CJ?$AA?0?$AA?5@ 40143a90     LIBCMTD:wassert.obj
 0003:00014d8c       ??_C@_1BK@PEDCIPMA@?$AAE?$AAx?$AAp?$AAr?$AAe?$AAs?$AAs?$AAi?$AAo?$AAn?$AA?3?$AA?5?$AA?$AA@ 40143d8c     LIBCMTD:wassert.obj
 0003:00014db0       ??_C@_1GC@HOBBPFHJ@?$AAw?$AAc?$AAs?$AAc?$AAa?$AAt?$AA_?$AAs?$AA?$CI?$AA?5?$AAa?$AAs?$AAs?$AAe?$AAr?$AAt?$AAb?$AAu?$AAf?$AA?0?$AA?5?$AA?$CI?$AA6?$AA0?$AA?5?$AA?$CK?$AA?5?$AA9?$AA?$CJ?$AA?0?$AA?5?$AAL@ 40143db0     LIBCMTD:wassert.obj
 0003:00014e28       ??_C@_1KG@CFEIMPNH@?$AA_?$AAi?$AAt?$AAo?$AAw?$AA_?$AAs?$AA?$CI?$AA?5?$AAl?$AAi?$AAn?$AAe?$AAn?$AAo?$AA?0?$AA?5?$AAa?$AAs?$AAs?$AAe?$AAr?$AAt?$AAb?$AAu?$AAf?$AA?5?$AA?$CL?$AA?5?$AAw?$AAc?$AAs@ 40143e28     LIBCMTD:wassert.obj
 0003:00014ef0       ??_C@_1O@KCAFKHJE@?$AAL?$AAi?$AAn?$AAe?$AA?3?$AA?5?$AA?$AA@ 40143ef0     LIBCMTD:wassert.obj
 0003:00014f00       ??_C@_1FG@NHDGJLMI@?$AAw?$AAc?$AAs?$AAc?$AAa?$AAt?$AA_?$AAs?$AA?$CI?$AA?5?$AAa?$AAs?$AAs?$AAe?$AAr?$AAt?$AAb?$AAu?$AAf?$AA?0?$AA?5?$AA?$CI?$AA6?$AA0?$AA?5?$AA?$CK?$AA?5?$AA9?$AA?$CJ?$AA?0?$AA?5?$AAL@ 40143f00     LIBCMTD:wassert.obj
 0003:00014f68       ??_C@_1FE@IIFBBPFI@?$AAw?$AAc?$AAs?$AAc?$AAa?$AAt?$AA_?$AAs?$AA?$CI?$AA?5?$AAa?$AAs?$AAs?$AAe?$AAr?$AAt?$AAb?$AAu?$AAf?$AA?0?$AA?5?$AA?$CI?$AA6?$AA0?$AA?5?$AA?$CK?$AA?5?$AA9?$AA?$CJ?$AA?0?$AA?5?$AAf@ 40143f68     LIBCMTD:wassert.obj
 0003:00014fd0       ??_C@_1IC@CFFJBMAD@?$AAw?$AAc?$AAs?$AAc?$AAa?$AAt?$AA_?$AAs?$AA?$CI?$AA?5?$AAa?$AAs?$AAs?$AAe?$AAr?$AAt?$AAb?$AAu?$AAf?$AA?0?$AA?5?$AA?$CI?$AA6?$AA0?$AA?5?$AA?$CK?$AA?5?$AA9?$AA?$CJ?$AA?0?$AA?5?$AAp@ 40143fd0     LIBCMTD:wassert.obj
 0003:00015070       ??_C@_1HG@OJJMBIKO@?$AAw?$AAc?$AAs?$AAn?$AAc?$AAa?$AAt?$AA_?$AAs?$AA?$CI?$AA?5?$AAa?$AAs?$AAs?$AAe?$AAr?$AAt?$AAb?$AAu?$AAf?$AA?0?$AA?5?$AA?$CI?$AA6?$AA0?$AA?5?$AA?$CK?$AA?5?$AA9?$AA?$CJ?$AA?0?$AA?5@ 40144070     LIBCMTD:wassert.obj
 0003:00015100       ??_C@_1GO@BIHLMMND@?$AAw?$AAc?$AAs?$AAn?$AAc?$AAa?$AAt?$AA_?$AAs?$AA?$CI?$AA?5?$AAa?$AAs?$AAs?$AAe?$AAr?$AAt?$AAb?$AAu?$AAf?$AA?0?$AA?5?$AA?$CI?$AA6?$AA0?$AA?5?$AA?$CK?$AA?5?$AA9?$AA?$CJ?$AA?0?$AA?5@ 40144100     LIBCMTD:wassert.obj
 0003:00015188       ??_C@_1FO@IJLLDBEB@?$AAw?$AAc?$AAs?$AAc?$AAa?$AAt?$AA_?$AAs?$AA?$CI?$AA?5?$AAa?$AAs?$AAs?$AAe?$AAr?$AAt?$AAb?$AAu?$AAf?$AA?0?$AA?5?$AA?$CI?$AA6?$AA0?$AA?5?$AA?$CK?$AA?5?$AA9?$AA?$CJ?$AA?0?$AA?5?$AAp@ 40144188     LIBCMTD:wassert.obj
 0003:000151f8       ??_C@_1FG@CLEECKIJ@?$AAw?$AAc?$AAs?$AAc?$AAa?$AAt?$AA_?$AAs?$AA?$CI?$AA?5?$AAa?$AAs?$AAs?$AAe?$AAr?$AAt?$AAb?$AAu?$AAf?$AA?0?$AA?5?$AA?$CI?$AA6?$AA0?$AA?5?$AA?$CK?$AA?5?$AA9?$AA?$CJ?$AA?0?$AA?5?$AAd@ 401441f8     LIBCMTD:wassert.obj
 0003:00015260       ??_C@_1GG@PMHOPJKA@?$AAw?$AAc?$AAs?$AAn?$AAc?$AAa?$AAt?$AA_?$AAs?$AA?$CI?$AA?5?$AAa?$AAs?$AAs?$AAe?$AAr?$AAt?$AAb?$AAu?$AAf?$AA?0?$AA?5?$AA?$CI?$AA6?$AA0?$AA?5?$AA?$CK?$AA?5?$AA9?$AA?$CJ?$AA?0?$AA?5@ 40144260     LIBCMTD:wassert.obj
 0003:000152dc       ??_C@_1O@HEMHKNDC@?$AAF?$AAi?$AAl?$AAe?$AA?3?$AA?5?$AA?$AA@ 401442dc     LIBCMTD:wassert.obj
 0003:000152f0       ??_C@_1FG@HIDBOJF@?$AAw?$AAc?$AAs?$AAc?$AAa?$AAt?$AA_?$AAs?$AA?$CI?$AA?5?$AAa?$AAs?$AAs?$AAe?$AAr?$AAt?$AAb?$AAu?$AAf?$AA?0?$AA?5?$AA?$CI?$AA6?$AA0?$AA?5?$AA?$CK?$AA?5?$AA9?$AA?$CJ?$AA?0?$AA?5?$AAL@ 401442f0     LIBCMTD:wassert.obj
 0003:00015358       ??_C@_1FC@FFKGGIKO@?$AAw?$AAc?$AAs?$AAc?$AAa?$AAt?$AA_?$AAs?$AA?$CI?$AA?5?$AAa?$AAs?$AAs?$AAe?$AAr?$AAt?$AAb?$AAu?$AAf?$AA?0?$AA?5?$AA?$CI?$AA6?$AA0?$AA?5?$AA?$CK?$AA?5?$AA9?$AA?$CJ?$AA?0?$AA?5?$AAn@ 40144358     LIBCMTD:wassert.obj
 0003:000153c0       ??_C@_1EK@BDNABPEK@?$AAw?$AAc?$AAs?$AAc?$AAa?$AAt?$AA_?$AAs?$AA?$CI?$AA?5?$AAa?$AAs?$AAs?$AAe?$AAr?$AAt?$AAb?$AAu?$AAf?$AA?0?$AA?5?$AA?$CI?$AA6?$AA0?$AA?5?$AA?$CK?$AA?5?$AA9?$AA?$CJ?$AA?0?$AA?5?$AAp@ 401443c0     LIBCMTD:wassert.obj
 0003:00015418       ??_C@_1HK@JKBDGMGN@?$AAw?$AAc?$AAs?$AAn?$AAc?$AAp?$AAy?$AA_?$AAs?$AA?$CI?$AA?5?$AAp?$AAc?$AAh?$AA?0?$AA?5?$AA?$CI?$AA2?$AA6?$AA0?$AA?5?$AA?$CL?$AA?5?$AA1?$AA?$CJ?$AA?5?$AA?9?$AA?5?$AA?$CI?$AAp?$AAc?$AAh@ 40144418     LIBCMTD:wassert.obj
 0003:000154ac       ??_C@_1CO@EAEJAADC@?$AA?$DM?$AAp?$AAr?$AAo?$AAg?$AAr?$AAa?$AAm?$AA?5?$AAn?$AAa?$AAm?$AAe?$AA?5?$AAu?$AAn?$AAk?$AAn?$AAo?$AAw?$AAn?$AA?$DO?$AA?$AA@ 401444ac     LIBCMTD:wassert.obj
 0003:000154e8       ??_C@_1HA@EPFCONEE@?$AAw?$AAc?$AAs?$AAc?$AAp?$AAy?$AA_?$AAs?$AA?$CI?$AA?5?$AAp?$AAr?$AAo?$AAg?$AAn?$AAa?$AAm?$AAe?$AA?0?$AA?5?$AA2?$AA6?$AA0?$AA?5?$AA?$CL?$AA?5?$AA1?$AA?0?$AA?5?$AAL?$AA?$CC?$AA?$DM@ 401444e8     LIBCMTD:wassert.obj
 0003:00015570       ??_C@_1BE@PHKBBGE@?$AAP?$AAr?$AAo?$AAg?$AAr?$AAa?$AAm?$AA?3?$AA?5?$AA?$AA@ 40144570     LIBCMTD:wassert.obj
 0003:00015588       ??_C@_1FM@LKICECBD@?$AAw?$AAc?$AAs?$AAc?$AAa?$AAt?$AA_?$AAs?$AA?$CI?$AA?5?$AAa?$AAs?$AAs?$AAe?$AAr?$AAt?$AAb?$AAu?$AAf?$AA?0?$AA?5?$AA?$CI?$AA6?$AA0?$AA?5?$AA?$CK?$AA?5?$AA9?$AA?$CJ?$AA?0?$AA?5?$AAL@ 40144588     LIBCMTD:wassert.obj
 0003:000155f8       ??_C@_1FI@JIGMFG@?$AAw?$AAc?$AAs?$AAc?$AAa?$AAt?$AA_?$AAs?$AA?$CI?$AA?5?$AAa?$AAs?$AAs?$AAe?$AAr?$AAt?$AAb?$AAu?$AAf?$AA?0?$AA?5?$AA?$CI?$AA6?$AA0?$AA?5?$AA?$CK?$AA?5?$AA9?$AA?$CJ?$AA?0?$AA?5?$AAd@ 401445f8     LIBCMTD:wassert.obj
 0003:00015664       ??_C@_1CE@OJBNHDMO@?$AAA?$AAs?$AAs?$AAe?$AAr?$AAt?$AAi?$AAo?$AAn?$AA?5?$AAf?$AAa?$AAi?$AAl?$AAe?$AAd?$AA?$CB?$AA?$AA@ 40144664     LIBCMTD:wassert.obj
 0003:00015690       ??_C@_1GM@EFCJNBAA@?$AAw?$AAc?$AAs?$AAc?$AAp?$AAy?$AA_?$AAs?$AA?$CI?$AA?5?$AAa?$AAs?$AAs?$AAe?$AAr?$AAt?$AAb?$AAu?$AAf?$AA?0?$AA?5?$AA?$CI?$AA6?$AA0?$AA?5?$AA?$CK?$AA?5?$AA9?$AA?$CJ?$AA?0?$AA?5?$AAL@ 40144690     LIBCMTD:wassert.obj
 0003:00015714       ??_C@_1BC@LNOOMFNA@?$AA_?$AAw?$AAa?$AAs?$AAs?$AAe?$AAr?$AAt?$AA?$AA@ 40144714     LIBCMTD:wassert.obj
 0003:00015730       ??_C@_1GA@COEIABIF@?$AAf?$AA?3?$AA?2?$AAd?$AAd?$AA?2?$AAv?$AAc?$AAt?$AAo?$AAo?$AAl?$AAs?$AA?2?$AAc?$AAr?$AAt?$AA_?$AAb?$AAl?$AAd?$AA?2?$AAs?$AAe?$AAl?$AAf?$AA_?$AAx?$AA8?$AA6?$AA?2?$AAc@ 40144730     LIBCMTD:wassert.obj
 0003:000157a4       ??_C@_1CC@MGIEJOME@?$AA?$CI?$AAf?$AAo?$AAr?$AAm?$AAa?$AAt?$AA?5?$AA?$CB?$AA?$DN?$AA?5?$AAN?$AAU?$AAL?$AAL?$AA?$CJ?$AA?$AA@ 401447a4     LIBCMTD:sscanf.obj
 0003:000157cc       ??_C@_1BC@KMGJCMNP@?$AAv?$AAs?$AAc?$AAa?$AAn?$AA_?$AAf?$AAn?$AA?$AA@ 401447cc     LIBCMTD:sscanf.obj
 0003:000157e8       ??_C@_1GA@GDIHGGDN@?$AAf?$AA?3?$AA?2?$AAd?$AAd?$AA?2?$AAv?$AAc?$AAt?$AAo?$AAo?$AAl?$AAs?$AA?2?$AAc?$AAr?$AAt?$AA_?$AAb?$AAl?$AAd?$AA?2?$AAs?$AAe?$AAl?$AAf?$AA_?$AAx?$AA8?$AA6?$AA?2?$AAc@ 401447e8     LIBCMTD:sscanf.obj
 0003:0001585c       ??_C@_1CC@OLIJCKA@?$AA?$CI?$AAs?$AAt?$AAr?$AAi?$AAn?$AAg?$AA?5?$AA?$CB?$AA?$DN?$AA?5?$AAN?$AAU?$AAL?$AAL?$AA?$CJ?$AA?$AA@ 4014485c     LIBCMTD:sscanf.obj
 0003:00015884       ??_C@_1BI@IGILPKD@?$AA_?$AAv?$AAs?$AAp?$AAr?$AAi?$AAn?$AAt?$AAf?$AA_?$AAl?$AA?$AA@ 40144884     LIBCMTD:vsprintf.obj
 0003:000158a0       ??_C@_1GE@DPADKNCG@?$AAf?$AA?3?$AA?2?$AAd?$AAd?$AA?2?$AAv?$AAc?$AAt?$AAo?$AAo?$AAl?$AAs?$AA?2?$AAc?$AAr?$AAt?$AA_?$AAb?$AAl?$AAd?$AA?2?$AAs?$AAe?$AAl?$AAf?$AA_?$AAx?$AA8?$AA6?$AA?2?$AAc@ 401448a0     LIBCMTD:vsprintf.obj
 0003:00015918       ??_C@_1CE@HMKDJHB@?$AA_?$AAv?$AAs?$AAc?$AAp?$AAr?$AAi?$AAn?$AAt?$AAf?$AA_?$AAh?$AAe?$AAl?$AAp?$AAe?$AAr?$AA?$AA@ 40144918     LIBCMTD:vsprintf.obj
 0003:00015a10       ??_C@_1BK@HJGMBFLF@?$AAc?$AAo?$AAm?$AAp?$AA?5?$AA?$CB?$AA?$DN?$AA?5?$AAN?$AAU?$AAL?$AAL?$AA?$AA@ 40144a10     LIBCMTD:qsort.obj
 0003:00015a30       ??_C@_1BE@NJBEBBME@?$AAw?$AAi?$AAd?$AAt?$AAh?$AA?5?$AA?$DO?$AA?5?$AA0?$AA?$AA@ 40144a30     LIBCMTD:qsort.obj
 0003:00015a48       ??_C@_1M@INMHODIG@?$AAq?$AAs?$AAo?$AAr?$AAt?$AA?$AA@ 40144a48     LIBCMTD:qsort.obj
 0003:00015a58       ??_C@_1FO@NDBPJPLL@?$AAf?$AA?3?$AA?2?$AAd?$AAd?$AA?2?$AAv?$AAc?$AAt?$AAo?$AAo?$AAl?$AAs?$AA?2?$AAc?$AAr?$AAt?$AA_?$AAb?$AAl?$AAd?$AA?2?$AAs?$AAe?$AAl?$AAf?$AA_?$AAx?$AA8?$AA6?$AA?2?$AAc@ 40144a58     LIBCMTD:qsort.obj
 0003:00015ac8       ??_C@_1DC@HAGCIKOA@?$AAb?$AAa?$AAs?$AAe?$AA?5?$AA?$CB?$AA?$DN?$AA?5?$AAN?$AAU?$AAL?$AAL?$AA?5?$AA?$HM?$AA?$HM?$AA?5?$AAn?$AAu?$AAm?$AA?5?$AA?$DN?$AA?$DN?$AA?5?$AA0?$AA?$AA@ 40144ac8     LIBCMTD:qsort.obj
 0003:00015b04       ??_C@_1BA@KBJJGFFE@?$AAs?$AAp?$AAr?$AAi?$AAn?$AAt?$AAf?$AA?$AA@ 40144b04     LIBCMTD:sprintf.obj
 0003:00015b18       ??_C@_1GC@BMNPEKNN@?$AAf?$AA?3?$AA?2?$AAd?$AAd?$AA?2?$AAv?$AAc?$AAt?$AAo?$AAo?$AAl?$AAs?$AA?2?$AAc?$AAr?$AAt?$AA_?$AAb?$AAl?$AAd?$AA?2?$AAs?$AAe?$AAl?$AAf?$AA_?$AAx?$AA8?$AA6?$AA?2?$AAc@ 40144b18     LIBCMTD:sprintf.obj
 0003:00015b90       ??_C@_0BO@GNIAFIKK@Unknown?5Runtime?5Check?5Error?6?$AN?$AA@ 40144b90     LIBCMTD:_error_.obj
 0003:00015bb4       ??_C@_0CM@NGINOKPC@Stack?5memory?5around?5_alloca?5was?5@ 40144bb4     LIBCMTD:_error_.obj
 0003:00015be8       ??_C@_0DG@HKJMLLLP@A?5local?5variable?5was?5used?5before@ 40144be8     LIBCMTD:_error_.obj
 0003:00015c28       ??_C@_0BN@FFOINMNJ@Stack?5memory?5was?5corrupted?6?$AN?$AA@ 40144c28     LIBCMTD:_error_.obj
 0003:00015c50       ??_C@_0BBN@GPMLNJCF@A?5cast?5to?5a?5smaller?5data?5type?5ha@ 40144c50     LIBCMTD:_error_.obj
 0003:00015da8       ??_C@_0NN@NGPKDKPD@The?5value?5of?5ESP?5was?5not?5properl@ 40144da8     LIBCMTD:_error_.obj
 0003:00015f70       ??_C@_0CA@IODNCDPG@Run?9Time?5Check?5Failure?5?$CD?$CFd?5?9?5?$CFs?$AA@ 40144f70     LIBCMTD:_error_.obj
 0003:00015f98       ??_C@_0BE@GNBOBNCK@Unknown?5Module?5Name?$AA@ 40144f98     LIBCMTD:_error_.obj
 0003:00015fb0       ??_C@_0BB@PFFGGCJP@Unknown?5Filename?$AA@ 40144fb0     LIBCMTD:_error_.obj
 0003:00015fc8       ??_C@_1EA@NFKNIFJP@?$AAR?$AAu?$AAn?$AA?9?$AAT?$AAi?$AAm?$AAe?$AA?5?$AAC?$AAh?$AAe?$AAc?$AAk?$AA?5?$AAF?$AAa?$AAi?$AAl?$AAu?$AAr?$AAe?$AA?5?$AA?$CD?$AA?$CF?$AAd?$AA?5?$AA?9?$AA?5?$AA?$CF?$AAs?$AA?$AA@ 40144fc8     LIBCMTD:_error_.obj
 0003:00016018       ??_C@_1GM@OLMCBDMB@?$AAR?$AAu?$AAn?$AAt?$AAi?$AAm?$AAe?$AA?5?$AAC?$AAh?$AAe?$AAc?$AAk?$AA?5?$AAE?$AAr?$AAr?$AAo?$AAr?$AA?4?$AA?6?$AA?$AN?$AA?5?$AAU?$AAn?$AAa?$AAb?$AAl?$AAe?$AA?5?$AAt?$AAo@ 40145018     LIBCMTD:_error_.obj
 0003:0001609c       ??_C@_0CG@IAFNJNEE@Stack?5corrupted?5near?5unknown?5var@ 4014509c     LIBCMTD:_error_.obj
 0003:000160d0       ??_C@_0EJ@LJKNEOLN@Stack?5area?5around?5_alloca?5memory@ 401450d0     LIBCMTD:_error_.obj
 0003:00016128       ??_C@_08KJEDNCKC@?$CFs?$CFs?$CFs?$CFs?$AA@ 40145128     LIBCMTD:_error_.obj
 0003:00016134       ??_C@_02LLMPMKNF@?$DO?5?$AA@ 40145134     LIBCMTD:_error_.obj
 0003:00016138       ??_C@_0BC@KIBAILCI@?$CFs?$CFs?$CFp?$CFs?$CFld?$CFs?$CFd?$CFs?$AA@ 40145138     LIBCMTD:_error_.obj
 0003:00016150       ??_C@_0EI@CLEPFNGI@Stack?5area?5around?5_alloca?5memory@ 40145150     LIBCMTD:_error_.obj
 0003:000161a8       ??_C@_0N@MHFFIMFG@?6Address?3?50x?$AA@ 401451a8     LIBCMTD:_error_.obj
 0003:000161b8       ??_C@_07DFDJCKFN@?6Size?3?5?$AA@ 401451b8     LIBCMTD:_error_.obj
 0003:000161c4       ??_C@_0CK@DKGBICFE@?6Allocation?5number?5within?5this?5f@ 401451c4     LIBCMTD:_error_.obj
 0003:000161f8       ??_C@_08OMAHNMHJ@?6Data?3?5?$DM?$AA@ 401451f8     LIBCMTD:_error_.obj
 0003:00016204       ??_C@_09FOPFMPEJ@wsprintfA?$AA@ 40145204     LIBCMTD:_error_.obj
 0003:00016210       ??_C@_0L@GMPLCCII@user32?4dll?$AA@ 40145210     LIBCMTD:_error_.obj
 0003:00016220       ??_C@_05MKKEDADM@?$CF?42X?5?$AA@ 40145220     LIBCMTD:_error_.obj
 0003:00016228       ??_C@_0DE@OHJBPMBP@A?5variable?5is?5being?5used?5without@ 40145228     LIBCMTD:_error_.obj
 0003:00016268       __pDefaultRawDllMain       40145268     LIBCMTD:dllcrt0.obj
 0003:00016268       __pRawDllMain              40145268     LIBCMTD:dllcrt0.obj
 0003:0001626c       ??_C@_0DB@OLNOAEGF@f?3?2dd?2vctools?2crt_bld?2self_x86?2c@ 4014526c     LIBCMTD:dllcrt0.obj
 0003:000162a8       ??_C@_0BP@OGBCLIBO@Stack?5around?5_alloca?5corrupted?$AA@ 401452a8     LIBCMTD:_userapi_.obj
 0003:000162d0       ??_C@_0CK@CNLNOEPB@Local?5variable?5used?5before?5initi@ 401452d0     LIBCMTD:_userapi_.obj
 0003:00016304       ??_C@_0BI@CIGMDCBH@Stack?5memory?5corruption?$AA@ 40145304     LIBCMTD:_userapi_.obj
 0003:00016320       ??_C@_0CK@FEGOIOPB@Cast?5to?5smaller?5type?5causing?5los@ 40145320     LIBCMTD:_userapi_.obj
 0003:00016354       ??_C@_0BJ@HEGAHDFO@Stack?5pointer?5corruption?$AA@ 40145354     LIBCMTD:_userapi_.obj
 0003:0001638c       ??_C@_0DP@CBBAPGOP@f?3?2dd?2vctools?2crt_bld?2self_x86?2c@ 4014538c     LIBCMTD:chkesp.obj
 0003:000163d8       ??_C@_0NM@DNEDKLDF@The?5value?5of?5ESP?5was?5not?5properl@ 401453d8     LIBCMTD:chkesp.obj
 0003:000164e0       ??_C@_1FE@CEHLKAHD@?$AAi?$AAb?$AAa?$AAs?$AAe?$AA?5?$AA?$DN?$AA?$DN?$AA?5?$AA0?$AA?5?$AA?$HM?$AA?$HM?$AA?5?$AA?$CI?$AA2?$AA?5?$AA?$DM?$AA?$DN?$AA?5?$AAi?$AAb?$AAa?$AAs?$AAe?$AA?5?$AA?$CG?$AA?$CG?$AA?5?$AAi?$AAb?$AAa@ 401454e0     LIBCMTD:strtol.obj
 0003:00016544       ??_C@_1BA@LOLAMAJG@?$AAs?$AAt?$AAr?$AAt?$AAo?$AAx?$AAl?$AA?$AA@ 40145544     LIBCMTD:strtol.obj
 0003:00016558       ??_C@_1GA@IPHKKOEI@?$AAf?$AA?3?$AA?2?$AAd?$AAd?$AA?2?$AAv?$AAc?$AAt?$AAo?$AAo?$AAl?$AAs?$AA?2?$AAc?$AAr?$AAt?$AA_?$AAb?$AAl?$AAd?$AA?2?$AAs?$AAe?$AAl?$AAf?$AA_?$AAx?$AA8?$AA6?$AA?2?$AAc@ 40145558     LIBCMTD:strtol.obj
 0003:000165cc       ??_C@_1BA@BMMDEPNE@?$AAs?$AAt?$AAr?$AAt?$AAo?$AAx?$AAq?$AA?$AA@ 401455cc     LIBCMTD:strtoq.obj
 0003:000165e0       ??_C@_1GA@GIMEIKLC@?$AAf?$AA?3?$AA?2?$AAd?$AAd?$AA?2?$AAv?$AAc?$AAt?$AAo?$AAo?$AAl?$AAs?$AA?2?$AAc?$AAr?$AAt?$AA_?$AAb?$AAl?$AAd?$AA?2?$AAs?$AAe?$AAl?$AAf?$AA_?$AAx?$AA8?$AA6?$AA?2?$AAc@ 401455e0     LIBCMTD:strtoq.obj
 0003:000166a0       ??_C@_1GE@KOCFNGPB@?$AA_?$AAc?$AAo?$AAn?$AAt?$AAr?$AAo?$AAl?$AAf?$AAp?$AA_?$AAs?$AA?$CI?$AA?$CI?$AA?$CI?$AAv?$AAo?$AAi?$AAd?$AA?5?$AA?$CK?$AA?$CJ?$AA0?$AA?$CJ?$AA?0?$AA?5?$AA0?$AAx?$AA0?$AA0?$AA0?$AA1@ 401456a0     LIBCMTD:fp8.obj
 0003:00016718       ??_C@_1CK@JMKHCBEI@?$AA_?$AAs?$AAe?$AAt?$AAd?$AAe?$AAf?$AAa?$AAu?$AAl?$AAt?$AAp?$AAr?$AAe?$AAc?$AAi?$AAs?$AAi?$AAo?$AAn?$AA?$AA@ 40145718     LIBCMTD:fp8.obj
 0003:00016750       ??_C@_1GG@PHGJJHBC@?$AAf?$AA?3?$AA?2?$AAd?$AAd?$AA?2?$AAv?$AAc?$AAt?$AAo?$AAo?$AAl?$AAs?$AA?2?$AAc?$AAr?$AAt?$AA_?$AAb?$AAl?$AAd?$AA?2?$AAs?$AAe?$AAl?$AAf?$AA_?$AAx?$AA8?$AA6?$AA?2?$AAc@ 40145750     LIBCMTD:fp8.obj
 0003:000167d0       __real@4150017ec0000000    401457d0     LIBCMTD:_testfdiv_.obj
 0003:000167e0       __real@4147ffff80000000    401457e0     LIBCMTD:_testfdiv_.obj
 0003:000167ec       ??_C@_0BK@NHEOCAHP@IsProcessorFeaturePresent?$AA@ 401457ec     LIBCMTD:_testfdiv_.obj
 0003:0001680c       ??_C@_08CPNIBGIE@KERNEL32?$AA@ 4014580c     LIBCMTD:_testfdiv_.obj
 0003:00016818       ??_C@_1CA@CBMNPEO@?$AAs?$AAi?$AAz?$AAe?$AAI?$AAn?$AAB?$AAy?$AAt?$AAe?$AAs?$AA?5?$AA?$DO?$AA?5?$AA0?$AA?$AA@ 40145818     LIBCMTD:cvt.obj
 0003:00016840       ??_C@_1BC@INKAPMHI@?$AA_?$AAc?$AAf?$AAt?$AAo?$AAe?$AA_?$AAl?$AA?$AA@ 40145840     LIBCMTD:cvt.obj
 0003:00016858       ??_C@_1GO@NCCGBNKI@?$AAf?$AA?3?$AA?2?$AAd?$AAd?$AA?2?$AAv?$AAc?$AAt?$AAo?$AAo?$AAl?$AAs?$AA?2?$AAc?$AAr?$AAt?$AA_?$AAb?$AAl?$AAd?$AA?2?$AAs?$AAe?$AAl?$AAf?$AA_?$AAx?$AA8?$AA6?$AA?2?$AAc@ 40145858     LIBCMTD:cvt.obj
 0003:000168dc       ??_C@_1BI@ICGGMGLK@?$AAb?$AAu?$AAf?$AA?5?$AA?$CB?$AA?$DN?$AA?5?$AAN?$AAU?$AAL?$AAL?$AA?$AA@ 401458dc     LIBCMTD:cvt.obj
 0003:000168f8       ??_C@_05KLBDPFGC@e?$CL000?$AA@ 401458f8     LIBCMTD:cvt.obj
 0003:00016900       ??_C@_1LE@EOIFGNCJ@?$AAs?$AAt?$AAr?$AAc?$AAp?$AAy?$AA_?$AAs?$AA?$CI?$AAp?$AA?0?$AA?5?$AA?$CI?$AAs?$AAi?$AAz?$AAe?$AAI?$AAn?$AAB?$AAy?$AAt?$AAe?$AAs?$AA?5?$AA?$DN?$AA?$DN?$AA?5?$AA?$CI?$AAs?$AAi?$AAz@ 40145900     LIBCMTD:cvt.obj
 0003:000169d8       ??_C@_1HE@NACBNDPP@?$AAs?$AAi?$AAz?$AAe?$AAI?$AAn?$AAB?$AAy?$AAt?$AAe?$AAs?$AA?5?$AA?$DO?$AA?5?$AA?$CI?$AAs?$AAi?$AAz?$AAe?$AA_?$AAt?$AA?$CJ?$AA?$CI?$AA3?$AA?5?$AA?$CL?$AA?5?$AA?$CI?$AAn?$AAd?$AAe?$AAc@ 401459d8     LIBCMTD:cvt.obj
 0003:00016a64       ??_C@_1BE@OLBNEILL@?$AA_?$AAc?$AAf?$AAt?$AAo?$AAe?$AA2?$AA_?$AAl?$AA?$AA@ 40145a64     LIBCMTD:cvt.obj
 0003:00016a80       ??_C@_1FC@IKIMAMJB@?$AAs?$AAi?$AAz?$AAe?$AAI?$AAn?$AAB?$AAy?$AAt?$AAe?$AAs?$AA?5?$AA?$DO?$AA?5?$AA?$CI?$AAs?$AAi?$AAz?$AAe?$AA_?$AAt?$AA?$CJ?$AA?$CI?$AA1?$AA?5?$AA?$CL?$AA?5?$AA4?$AA?5?$AA?$CL?$AA?5?$AAn@ 40145a80     LIBCMTD:cvt.obj
 0003:00016ae4       ??_C@_1BC@JOKPCIC@?$AA_?$AAc?$AAf?$AAt?$AAo?$AAa?$AA_?$AAl?$AA?$AA@ 40145ae4     LIBCMTD:cvt.obj
 0003:00016afc       ??_C@_1BC@DCPPLJL@?$AA_?$AAc?$AAf?$AAt?$AAo?$AAf?$AA_?$AAl?$AA?$AA@ 40145afc     LIBCMTD:cvt.obj
 0003:00016b14       ??_C@_1BE@CKPDLI@?$AA_?$AAc?$AAf?$AAt?$AAo?$AAf?$AA2?$AA_?$AAl?$AA?$AA@ 40145b14     LIBCMTD:cvt.obj
 0003:00016b2c       ??_C@_1BC@MPIFPLAF@?$AA_?$AAc?$AAf?$AAt?$AAo?$AAg?$AA_?$AAl?$AA?$AA@ 40145b2c     LIBCMTD:cvt.obj
 0003:000175c8       __DEFAULT_CW_in_mem        401465c8     LIBCMTD:_common_.obj
 0003:000175ca       __pi_by_2_to_61            401465ca     LIBCMTD:_common_.obj
 0003:0001807c       ??_C@_0L@KDOEJCKC@_nextafter?$AA@ 4014707c     LIBCMTD:_fpexcept_.obj
 0003:0001808c       ??_C@_05JGDBENOH@_logb?$AA@ 4014708c     LIBCMTD:_fpexcept_.obj
 0003:00018094       ??_C@_03ONILCKOB@_yn?$AA@  40147094     LIBCMTD:_fpexcept_.obj
 0003:00018098       ??_C@_03NAKIGLHK@_y1?$AA@  40147098     LIBCMTD:_fpexcept_.obj
 0003:0001809c       ??_C@_03MJLDFKDL@_y0?$AA@  4014709c     LIBCMTD:_fpexcept_.obj
 0003:000180a0       ??_C@_05GKKHEGJL@frexp?$AA@ 401470a0     LIBCMTD:_fpexcept_.obj
 0003:000180a8       ??_C@_04KEPJIHGP@fmod?$AA@ 401470a8     LIBCMTD:_fpexcept_.obj
 0003:000180b0       ??_C@_06MEIMCGCF@_hypot?$AA@ 401470b0     LIBCMTD:_fpexcept_.obj
 0003:000180b8       ??_C@_05KBKMEMPO@_cabs?$AA@ 401470b8     LIBCMTD:_fpexcept_.obj
 0003:000180c0       ??_C@_05CEJMAHNP@ldexp?$AA@ 401470c0     LIBCMTD:_fpexcept_.obj
 0003:000180c8       ??_C@_04EHEDPDJG@modf?$AA@ 401470c8     LIBCMTD:_fpexcept_.obj
 0003:000180d0       ??_C@_04ODHECPBC@fabs?$AA@ 401470d0     LIBCMTD:_fpexcept_.obj
 0003:000180d8       ??_C@_05PBJFFIGL@floor?$AA@ 401470d8     LIBCMTD:_fpexcept_.obj
 0003:000180e0       ??_C@_04GFPJNGEK@ceil?$AA@ 401470e0     LIBCMTD:_fpexcept_.obj
 0003:000180e8       ??_C@_03IIINPABG@tan?$AA@  401470e8     LIBCMTD:_fpexcept_.obj
 0003:000180ec       ??_C@_03LALBNOCG@cos?$AA@  401470ec     LIBCMTD:_fpexcept_.obj
 0003:000180f0       ??_C@_03BLEJJJBH@sin?$AA@  401470f0     LIBCMTD:_fpexcept_.obj
 0003:000180f4       ??_C@_04EIAKFFMI@sqrt?$AA@ 401470f4     LIBCMTD:_fpexcept_.obj
 0003:000180fc       ??_C@_05KNGEOGJB@atan2?$AA@ 401470fc     LIBCMTD:_fpexcept_.obj
 0003:00018104       ??_C@_04MLLJIGOK@atan?$AA@ 40147104     LIBCMTD:_fpexcept_.obj
 0003:0001810c       ??_C@_04PDIFKINK@acos?$AA@ 4014710c     LIBCMTD:_fpexcept_.obj
 0003:00018114       ??_C@_04FIHNOPOL@asin?$AA@ 40147114     LIBCMTD:_fpexcept_.obj
 0003:0001811c       ??_C@_04FJHINJAO@tanh?$AA@ 4014711c     LIBCMTD:_fpexcept_.obj
 0003:00018124       ??_C@_04HPJJNFIM@cosh?$AA@ 40147124     LIBCMTD:_fpexcept_.obj
 0003:0001812c       ??_C@_04COOMCNPB@sinh?$AA@ 4014712c     LIBCMTD:_fpexcept_.obj
 0003:00018134       ??_C@_05HGHHAHAP@log10?$AA@ 40147134     LIBCMTD:_fpexcept_.obj
 0003:0001813c       ??_C@_03MGHMBJCF@log?$AA@  4014713c     LIBCMTD:_fpexcept_.obj
 0003:00018140       ??_C@_03JGHBODFD@pow?$AA@  40147140     LIBCMTD:_fpexcept_.obj
 0003:00018144       ??_C@_03KHJOGHMM@exp?$AA@  40147144     LIBCMTD:_fpexcept_.obj
 0003:00018148       ??_C@_1GC@CHGJNMHG@?$AAf?$AA?3?$AA?2?$AAd?$AAd?$AA?2?$AAv?$AAc?$AAt?$AAo?$AAo?$AAl?$AAs?$AA?2?$AAc?$AAr?$AAt?$AA_?$AAb?$AAl?$AAd?$AA?2?$AAs?$AAe?$AAl?$AAf?$AA_?$AAx?$AA8?$AA6?$AA?2?$AAc@ 40147148     LIBCMTD:isctype.obj
 0003:000181c0       ??_C@_1DC@BPLPALML@?$AA?$CI?$AAu?$AAn?$AAs?$AAi?$AAg?$AAn?$AAe?$AAd?$AA?$CJ?$AA?$CI?$AAc?$AA?5?$AA?$CL?$AA?5?$AA1?$AA?$CJ?$AA?5?$AA?$DM?$AA?$DN?$AA?5?$AA2?$AA5?$AA6?$AA?$AA@ 401471c0     LIBCMTD:isctype.obj
 0003:000181fc       ??_C@_1BG@KCMPBBDK@?$AA_?$AAg?$AAe?$AAt?$AA_?$AAe?$AAr?$AAr?$AAn?$AAo?$AA?$AA@ 401471fc     LIBCMTD:dosmap.obj
 0003:00018218       ??_C@_1GA@MFGIMPNL@?$AAf?$AA?3?$AA?2?$AAd?$AAd?$AA?2?$AAv?$AAc?$AAt?$AAo?$AAo?$AAl?$AAs?$AA?2?$AAc?$AAr?$AAt?$AA_?$AAb?$AAl?$AAd?$AA?2?$AAs?$AAe?$AAl?$AAf?$AA_?$AAx?$AA8?$AA6?$AA?2?$AAc@ 40147218     LIBCMTD:dosmap.obj
 0003:0001828c       ??_C@_1BO@LKEBEKJP@?$AAp?$AAV?$AAa?$AAl?$AAu?$AAe?$AA?5?$AA?$CB?$AA?$DN?$AA?5?$AAN?$AAU?$AAL?$AAL?$AA?$AA@ 4014728c     LIBCMTD:dosmap.obj
 0003:000182b0       ??_C@_1BM@INIPHHDD@?$AA_?$AAg?$AAe?$AAt?$AA_?$AAd?$AAo?$AAs?$AAe?$AAr?$AAr?$AAn?$AAo?$AA?$AA@ 401472b0     LIBCMTD:dosmap.obj
 0003:000182d4       ??_C@_1CC@CGHMNGDG@?$AAA?$AAs?$AAs?$AAe?$AAr?$AAt?$AAi?$AAo?$AAn?$AA?5?$AAF?$AAa?$AAi?$AAl?$AAe?$AAd?$AA?$AA@ 401472d4     LIBCMTD:dbgrptw.obj
 0003:000182fc       ??_C@_1M@ILHOPKA@?$AAE?$AAr?$AAr?$AAo?$AAr?$AA?$AA@ 401472fc     LIBCMTD:dbgrptw.obj
 0003:0001830c       ??_C@_1BA@GLMCNLEM@?$AAW?$AAa?$AAr?$AAn?$AAi?$AAn?$AAg?$AA?$AA@ 4014730c     LIBCMTD:dbgrptw.obj
 0003:00018330       ??_C@_0DA@PCCBBBID@f?3?2dd?2vctools?2crt_bld?2self_x86?2c@ 40147330     LIBCMTD:dbgrptw.obj
 0003:00018370       ??_C@_1FI@PHIAFFHM@?$AA?$CI?$AA?$CC?$AAT?$AAh?$AAe?$AA?5?$AAh?$AAo?$AAo?$AAk?$AA?5?$AAf?$AAu?$AAn?$AAc?$AAt?$AAi?$AAo?$AAn?$AA?5?$AAi?$AAs?$AA?5?$AAn?$AAo?$AAt?$AA?5?$AAi?$AAn?$AA?5?$AAt?$AAh@ 40147370     LIBCMTD:dbgrptw.obj
 0003:000183dc       ??_C@_1CG@JBJEFOCM@?$AAp?$AAf?$AAn?$AAN?$AAe?$AAw?$AAH?$AAo?$AAo?$AAk?$AA?5?$AA?$CB?$AA?$DN?$AA?5?$AAN?$AAU?$AAL?$AAL?$AA?$AA@ 401473dc     LIBCMTD:dbgrptw.obj
 0003:0001840c       ??_C@_1CI@IIHEAKEI@?$AA_?$AAC?$AAr?$AAt?$AAS?$AAe?$AAt?$AAR?$AAe?$AAp?$AAo?$AAr?$AAt?$AAH?$AAo?$AAo?$AAk?$AAW?$AA2?$AA?$AA@ 4014740c     LIBCMTD:dbgrptw.obj
 0003:00018440       ??_C@_1GA@IBJGKIFE@?$AAf?$AA?3?$AA?2?$AAd?$AAd?$AA?2?$AAv?$AAc?$AAt?$AAo?$AAo?$AAl?$AAs?$AA?2?$AAc?$AAr?$AAt?$AA_?$AAb?$AAl?$AAd?$AA?2?$AAs?$AAe?$AAl?$AAf?$AA_?$AAx?$AA8?$AA6?$AA?2?$AAc@ 40147440     LIBCMTD:dbgrptw.obj
 0003:000184b8       ??_C@_1HI@OFEHGPPC@?$AAm?$AAo?$AAd?$AAe?$AA?5?$AA?$DN?$AA?$DN?$AA?5?$AA_?$AAC?$AAR?$AAT?$AA_?$AAR?$AAP?$AAT?$AAH?$AAO?$AAO?$AAK?$AA_?$AAI?$AAN?$AAS?$AAT?$AAA?$AAL?$AAL?$AA?5?$AA?$HM?$AA?$HM?$AA?5@ 401474b8     LIBCMTD:dbgrptw.obj
 0003:00018548       ??_C@_1EG@PEOEAKBB@?$AAM?$AAi?$AAc?$AAr?$AAo?$AAs?$AAo?$AAf?$AAt?$AA?5?$AAV?$AAi?$AAs?$AAu?$AAa?$AAl?$AA?5?$AAC?$AA?$CL?$AA?$CL?$AA?5?$AAD?$AAe?$AAb?$AAu?$AAg?$AA?5?$AAL?$AAi?$AAb?$AAr?$AAa@ 40147548     LIBCMTD:dbgrptw.obj
 0003:000185a0       ??_C@_1FG@BBOLDHGF@?$AA_?$AAC?$AAr?$AAt?$AAD?$AAb?$AAg?$AAR?$AAe?$AAp?$AAo?$AAr?$AAt?$AA?3?$AA?5?$AAS?$AAt?$AAr?$AAi?$AAn?$AAg?$AA?5?$AAt?$AAo?$AAo?$AA?5?$AAl?$AAo?$AAn?$AAg?$AA?5?$AAo@ 401475a0     LIBCMTD:dbgrptw.obj
 0003:00018608       ??_C@_1JI@EACPGHID@?$AAw?$AAc?$AAs?$AAc?$AAp?$AAy?$AA_?$AAs?$AA?$CI?$AAs?$AAz?$AAO?$AAu?$AAt?$AAM?$AAe?$AAs?$AAs?$AAa?$AAg?$AAe?$AA?0?$AA?5?$AA4?$AA0?$AA9?$AA6?$AA?0?$AA?5?$AAL?$AA?$CC?$AA_@ 40147608     LIBCMTD:dbgrptw.obj
 0003:000186c0       ??_C@_1BI@KALLJECN@?$AA?$CI?$AA?$CK?$AA_?$AAe?$AAr?$AAr?$AAn?$AAo?$AA?$CI?$AA?$CJ?$AA?$CJ?$AA?$AA@ 401476c0     LIBCMTD:dbgrptw.obj
 0003:000186e0       ??_C@_1KK@MEFMPOLM@?$AAD?$AAe?$AAb?$AAu?$AAg?$AA?5?$AA?$CF?$AAs?$AA?$CB?$AA?6?$AA?6?$AAP?$AAr?$AAo?$AAg?$AAr?$AAa?$AAm?$AA?3?$AA?5?$AA?$CF?$AAs?$AA?$CF?$AAs?$AA?$CF?$AAs?$AA?$CF?$AAs?$AA?$CF?$AAs?$AA?$CF?$AAs@ 401476e0     LIBCMTD:dbgrptw.obj
 0003:000187ac       ??_C@_1BE@CGCJKGHI@?$AA?6?$AAM?$AAo?$AAd?$AAu?$AAl?$AAe?$AA?3?$AA?5?$AA?$AA@ 401477ac     LIBCMTD:dbgrptw.obj
 0003:000187c4       ??_C@_1BA@LNHECFIM@?$AA?6?$AAF?$AAi?$AAl?$AAe?$AA?3?$AA?5?$AA?$AA@ 401477c4     LIBCMTD:dbgrptw.obj
 0003:000187d8       ??_C@_1BA@GLLGCPCK@?$AA?6?$AAL?$AAi?$AAn?$AAe?$AA?3?$AA?5?$AA?$AA@ 401477d8     LIBCMTD:dbgrptw.obj
 0003:000187ec       ??_C@_11LOCGONAA@?$AA?$AA@ 401477ec     LIBCMTD:dbgrptw.obj
 0003:000187f0       ??_C@_1OG@PMPPFHAF@?$AA?6?$AA?6?$AAF?$AAo?$AAr?$AA?5?$AAi?$AAn?$AAf?$AAo?$AAr?$AAm?$AAa?$AAt?$AAi?$AAo?$AAn?$AA?5?$AAo?$AAn?$AA?5?$AAh?$AAo?$AAw?$AA?5?$AAy?$AAo?$AAu?$AAr?$AA?5?$AAp?$AAr@ 401477f0     LIBCMTD:dbgrptw.obj
 0003:00018908       ??_C@_1NO@LECLLHOL@?$AAm?$AAe?$AAm?$AAc?$AAp?$AAy?$AA_?$AAs?$AA?$CI?$AAs?$AAz?$AAS?$AAh?$AAo?$AAr?$AAt?$AAP?$AAr?$AAo?$AAg?$AAN?$AAa?$AAm?$AAe?$AA?0?$AA?5?$AAs?$AAi?$AAz?$AAe?$AAo?$AAf@ 40147908     LIBCMTD:dbgrptw.obj
 0003:00018a18       ??_C@_1GI@DEDNNLCI@?$AAw?$AAc?$AAs?$AAc?$AAp?$AAy?$AA_?$AAs?$AA?$CI?$AAs?$AAz?$AAE?$AAx?$AAe?$AAN?$AAa?$AAm?$AAe?$AA?0?$AA?5?$AA2?$AA6?$AA0?$AA?0?$AA?5?$AAL?$AA?$CC?$AA?$DM?$AAp?$AAr?$AAo?$AAg@ 40147a18     LIBCMTD:dbgrptw.obj
 0003:00018a94       ??_C@_1CI@PGJIFDEK@?$AA_?$AA_?$AAc?$AAr?$AAt?$AAM?$AAe?$AAs?$AAs?$AAa?$AAg?$AAe?$AAW?$AAi?$AAn?$AAd?$AAo?$AAw?$AAW?$AA?$AA@ 40147a94     LIBCMTD:dbgrptw.obj
 0003:00018ac4       ??_C@_0DB@MHMEONEC@f?3?2dd?2vctools?2crt_bld?2self_x86?2c@ 40147ac4     LIBCMTD:mbctype.obj
 0003:00018b00       ??_C@_07LCBHPJJN@LC_TIME?$AA@ 40147b00     LIBCMTD:setlocal.obj
 0003:00018b0c       ??_C@_0L@DLHIECNL@LC_NUMERIC?$AA@ 40147b0c     LIBCMTD:setlocal.obj
 0003:00018b1c       ??_C@_0M@MIENIKLA@LC_MONETARY?$AA@ 40147b1c     LIBCMTD:setlocal.obj
 0003:00018b2c       ??_C@_08EADHIDAD@LC_CTYPE?$AA@ 40147b2c     LIBCMTD:setlocal.obj
 0003:00018b38       ??_C@_0L@KFJHEKIK@LC_COLLATE?$AA@ 40147b38     LIBCMTD:setlocal.obj
 0003:00018b48       ??_C@_06NEFDFEKB@LC_ALL?$AA@ 40147b48     LIBCMTD:setlocal.obj
 0003:00018b50       ___lc_category             40147b50     LIBCMTD:setlocal.obj
 0003:00018c40       ??_C@_1GE@OLEIGPBJ@?$AAf?$AA?3?$AA?2?$AAd?$AAd?$AA?2?$AAv?$AAc?$AAt?$AAo?$AAo?$AAl?$AAs?$AA?2?$AAc?$AAr?$AAt?$AA_?$AAb?$AAl?$AAd?$AA?2?$AAs?$AAe?$AAl?$AAf?$AA_?$AAx?$AA8?$AA6?$AA?2?$AAc@ 40147c40     LIBCMTD:setlocal.obj
 0003:00018cb8       ??_C@_1BKC@GGIENNAK@?$AA?$CI?$AA?$CI?$AAp?$AAt?$AAl?$AAo?$AAc?$AAi?$AA?9?$AA?$DO?$AAl?$AAc?$AA_?$AAc?$AAa?$AAt?$AAe?$AAg?$AAo?$AAr?$AAy?$AA?$FL?$AAc?$AAa?$AAt?$AAe?$AAg?$AAo?$AAr?$AAy?$AA?$FN?$AA?4@ 40147cb8     LIBCMTD:setlocal.obj
 0003:00018eb0       ??_C@_1CI@FGIONOJM@?$AA_?$AAc?$AAo?$AAn?$AAf?$AAi?$AAg?$AAt?$AAh?$AAr?$AAe?$AAa?$AAd?$AAl?$AAo?$AAc?$AAa?$AAl?$AAe?$AA?$AA@ 40147eb0     LIBCMTD:setlocal.obj
 0003:00018ee0       ??_C@_1GA@LDEGDKD@?$AA?$CI?$AA?$CC?$AAI?$AAn?$AAv?$AAa?$AAl?$AAi?$AAd?$AA?5?$AAp?$AAa?$AAr?$AAa?$AAm?$AAe?$AAt?$AAe?$AAr?$AA?5?$AAf?$AAo?$AAr?$AA?5?$AA_?$AAc?$AAo?$AAn?$AAf?$AAi?$AAg?$AAt@ 40147ee0     LIBCMTD:setlocal.obj
 0003:00018f54       ??_C@_0DC@JCPFNMID@f?3?2dd?2vctools?2crt_bld?2self_x86?2c@ 40147f54     LIBCMTD:setlocal.obj
 0003:00018f90       ??_C@_1BE@DBJGBOJC@?$AAs?$AAe?$AAt?$AAl?$AAo?$AAc?$AAa?$AAl?$AAe?$AA?$AA@ 40147f90     LIBCMTD:setlocal.obj
 0003:00018fa8       ??_C@_1FG@OHLFEKMC@?$AAL?$AAC?$AA_?$AAM?$AAI?$AAN?$AA?5?$AA?$DM?$AA?$DN?$AA?5?$AA_?$AAc?$AAa?$AAt?$AAe?$AAg?$AAo?$AAr?$AAy?$AA?5?$AA?$CG?$AA?$CG?$AA?5?$AA_?$AAc?$AAa?$AAt?$AAe?$AAg?$AAo?$AAr?$AAy@ 40147fa8     LIBCMTD:setlocal.obj
 0003:00019010       ??_C@_1IA@PFIKKKFB@?$AAs?$AAt?$AAr?$AAn?$AAc?$AAp?$AAy?$AA_?$AAs?$AA?$CI?$AAl?$AAc?$AAt?$AAe?$AAm?$AAp?$AA?0?$AA?5?$AA?$CI?$AAs?$AAi?$AAz?$AAe?$AAo?$AAf?$AA?$CI?$AAl?$AAc?$AAt?$AAe?$AAm?$AAp@ 40148010     LIBCMTD:setlocal.obj
 0003:000190ac       ??_C@_1CE@OFNHIOO@?$AA_?$AAs?$AAe?$AAt?$AAl?$AAo?$AAc?$AAa?$AAl?$AAe?$AA_?$AAn?$AAo?$AAl?$AAo?$AAc?$AAk?$AA?$AA@ 401480ac     LIBCMTD:setlocal.obj
 0003:000190d8       ??_C@_01ICJEACDI@?$DL?$AA@ 401480d8     LIBCMTD:setlocal.obj
 0003:000190dc       ??_C@_02BALPLPBG@?$DN?$DL?$AA@ 401480dc     LIBCMTD:setlocal.obj
 0003:000190e0       ??_C@_1GO@JALHLJEH@?$AAs?$AAt?$AAr?$AAc?$AAp?$AAy?$AA_?$AAs?$AA?$CI?$AAp?$AAc?$AAh?$AA?5?$AA?$CL?$AA?5?$AAs?$AAi?$AAz?$AAe?$AAo?$AAf?$AA?$CI?$AAi?$AAn?$AAt?$AA?$CJ?$AA?0?$AA?5?$AAc?$AAc?$AAh?$AA?5@ 401480e0     LIBCMTD:setlocal.obj
 0003:00019164       ??_C@_1CG@IEFIICPK@?$AA_?$AAs?$AAe?$AAt?$AAl?$AAo?$AAc?$AAa?$AAl?$AAe?$AA_?$AAs?$AAe?$AAt?$AA_?$AAc?$AAa?$AAt?$AA?$AA@ 40148164     LIBCMTD:setlocal.obj
 0003:00019194       ??_C@_1DA@GDKKLCLM@?$AAs?$AAt?$AAr?$AAc?$AAa?$AAt?$AA_?$AAs?$AA?$CI?$AAp?$AAc?$AAh?$AA?0?$AA?5?$AAc?$AAc?$AAh?$AA?0?$AA?5?$AA?$CC?$AA?$DL?$AA?$CC?$AA?$CJ?$AA?$AA@ 40148194     LIBCMTD:setlocal.obj
 0003:000191d0       ??_C@_1CG@NNFIJLDA@?$AA_?$AAs?$AAe?$AAt?$AAl?$AAo?$AAc?$AAa?$AAl?$AAe?$AA_?$AAg?$AAe?$AAt?$AA_?$AAa?$AAl?$AAl?$AA?$AA@ 401481d0     LIBCMTD:setlocal.obj
 0003:00019200       ??_C@_01NEMOKFLO@?$DN?$AA@ 40148200     LIBCMTD:setlocal.obj
 0003:00019208       ??_C@_1FA@MHAOOIBO@?$AAs?$AAt?$AAr?$AAc?$AAp?$AAy?$AA_?$AAs?$AA?$CI?$AAo?$AAu?$AAt?$AAp?$AAu?$AAt?$AA?0?$AA?5?$AAs?$AAi?$AAz?$AAe?$AAI?$AAn?$AAC?$AAh?$AAa?$AAr?$AAs?$AA?0?$AA?5?$AAc?$AAa@ 40148208     LIBCMTD:setlocal.obj
 0003:00019268       ??_C@_1IA@ONNFOEDA@?$AAs?$AAt?$AAr?$AAn?$AAc?$AAp?$AAy?$AA_?$AAs?$AA?$CI?$AAc?$AAa?$AAc?$AAh?$AAe?$AAi?$AAn?$AA?0?$AA?5?$AAc?$AAa?$AAc?$AAh?$AAe?$AAi?$AAn?$AAS?$AAi?$AAz?$AAe?$AA?0?$AA?5@ 40148268     LIBCMTD:setlocal.obj
 0003:00019304       ??_C@_01GFHCPBMG@C?$AA@    40148304     LIBCMTD:setlocal.obj
 0003:00019308       ??_C@_1EG@MOMHKOD@?$AAs?$AAt?$AAr?$AAc?$AAp?$AAy?$AA_?$AAs?$AA?$CI?$AAo?$AAu?$AAt?$AAp?$AAu?$AAt?$AA?0?$AA?5?$AAs?$AAi?$AAz?$AAe?$AAI?$AAn?$AAC?$AAh?$AAa?$AAr?$AAs?$AA?0?$AA?5?$AA?$CC?$AAC@ 40148308     LIBCMTD:setlocal.obj
 0003:0001935c       ??_C@_1BM@OIIBLEFG@?$AA_?$AAe?$AAx?$AAp?$AAa?$AAn?$AAd?$AAl?$AAo?$AAc?$AAa?$AAl?$AAe?$AA?$AA@ 4014835c     LIBCMTD:setlocal.obj
 0003:00019380       ??_C@_1BGM@IJDLABMC@?$AAs?$AAt?$AAr?$AAc?$AAa?$AAt?$AA_?$AAs?$AA?$CI?$AAo?$AAu?$AAt?$AAs?$AAt?$AAr?$AA?0?$AA?5?$AAs?$AAi?$AAz?$AAe?$AAI?$AAn?$AAB?$AAy?$AAt?$AAe?$AAs?$AA?0?$AA?5?$AA?$CI?$AA?5@ 40148380     LIBCMTD:setlocal.obj
 0003:00019534       ??_C@_1BC@PIABMDIP@?$AA_?$AAs?$AAt?$AAr?$AAc?$AAa?$AAt?$AAs?$AA?$AA@ 40148534     LIBCMTD:setlocal.obj
 0003:00019550       ??_C@_1MM@NOPMGFHF@?$AAs?$AAt?$AAr?$AAn?$AAc?$AAp?$AAy?$AA_?$AAs?$AA?$CI?$AAn?$AAa?$AAm?$AAe?$AAs?$AA?9?$AA?$DO?$AAs?$AAz?$AAC?$AAo?$AAd?$AAe?$AAP?$AAa?$AAg?$AAe?$AA?0?$AA?5?$AA?$CI?$AAs?$AAi@ 40148550     LIBCMTD:setlocal.obj
 0003:00019648       ??_C@_1MG@PHNILIAG@?$AAs?$AAt?$AAr?$AAn?$AAc?$AAp?$AAy?$AA_?$AAs?$AA?$CI?$AAn?$AAa?$AAm?$AAe?$AAs?$AA?9?$AA?$DO?$AAs?$AAz?$AAC?$AAo?$AAu?$AAn?$AAt?$AAr?$AAy?$AA?0?$AA?5?$AA?$CI?$AAs?$AAi?$AAz@ 40148648     LIBCMTD:setlocal.obj
 0003:00019738       ??_C@_1MM@BFEECMAF@?$AAs?$AAt?$AAr?$AAn?$AAc?$AAp?$AAy?$AA_?$AAs?$AA?$CI?$AAn?$AAa?$AAm?$AAe?$AAs?$AA?9?$AA?$DO?$AAs?$AAz?$AAL?$AAa?$AAn?$AAg?$AAu?$AAa?$AAg?$AAe?$AA?0?$AA?5?$AA?$CI?$AAs?$AAi@ 40148738     LIBCMTD:setlocal.obj
 0003:0001982c       ??_C@_03EGDHDPFD@_?4?0?$AA@ 4014882c     LIBCMTD:setlocal.obj
 0003:00019830       ??_C@_1NG@FMOPGKGG@?$AAs?$AAt?$AAr?$AAn?$AAc?$AAp?$AAy?$AA_?$AAs?$AA?$CI?$AAn?$AAa?$AAm?$AAe?$AAs?$AA?9?$AA?$DO?$AAs?$AAz?$AAC?$AAo?$AAd?$AAe?$AAP?$AAa?$AAg?$AAe?$AA?0?$AA?5?$AA?$CI?$AAs?$AAi@ 40148830     LIBCMTD:setlocal.obj
 0003:00019930       ??_C@_1BK@CBMMLAGJ@?$AA_?$AA_?$AAl?$AAc?$AA_?$AAs?$AAt?$AAr?$AAt?$AAo?$AAl?$AAc?$AA?$AA@ 40148930     LIBCMTD:setlocal.obj
 0003:00019950       ??_C@_01IDAFKMJL@_?$AA@    40148950     LIBCMTD:setlocal.obj
 0003:00019958       ??_C@_1HC@IBDBLKCB@?$AAs?$AAt?$AAr?$AAc?$AAp?$AAy?$AA_?$AAs?$AA?$CI?$AAl?$AAo?$AAc?$AAa?$AAl?$AAe?$AA?0?$AA?5?$AAs?$AAi?$AAz?$AAe?$AAI?$AAn?$AAB?$AAy?$AAt?$AAe?$AAs?$AA?0?$AA?5?$AA?$CI?$AAc@ 40148958     LIBCMTD:setlocal.obj
 0003:000199e0       ??_C@_1BK@FGDJDEPG@?$AA_?$AA_?$AAl?$AAc?$AA_?$AAl?$AAc?$AAt?$AAo?$AAs?$AAt?$AAr?$AA?$AA@ 401489e0     LIBCMTD:setlocal.obj
 0003:00019a00       ??_C@_0O@NLDKAIKN@EncodePointer?$AA@ 40148a00     LIBCMTD:tidtable.obj
 0003:00019a10       ??_C@_1BK@DBDEIDLH@?$AAK?$AAE?$AAR?$AAN?$AAE?$AAL?$AA3?$AA2?$AA?4?$AAD?$AAL?$AAL?$AA?$AA@ 40148a10     LIBCMTD:tidtable.obj
 0003:00019a30       ??_C@_0O@KBPMFGHI@DecodePointer?$AA@ 40148a30     LIBCMTD:tidtable.obj
 0003:00019a40       ??_C@_0DC@LMJHGCKC@f?3?2dd?2vctools?2crt_bld?2self_x86?2c@ 40148a40     LIBCMTD:tidtable.obj
 0003:00019a7c       ??_C@_07PEJMOBNF@FlsFree?$AA@ 40148a7c     LIBCMTD:tidtable.obj
 0003:00019a88       ??_C@_0M@JCPCPOEF@FlsSetValue?$AA@ 40148a88     LIBCMTD:tidtable.obj
 0003:00019a98       ??_C@_0M@GDNOONDI@FlsGetValue?$AA@ 40148a98     LIBCMTD:tidtable.obj
 0003:00019aa8       ??_C@_08KNHFBNJ@FlsAlloc?$AA@ 40148aa8     LIBCMTD:tidtable.obj
 0003:00019ab4       ??_C@_1BO@IHLJHOPI@?$AA_?$AA_?$AAs?$AAt?$AAr?$AAg?$AAt?$AAo?$AAl?$AAd?$AA1?$AA2?$AA_?$AAl?$AA?$AA@ 40148ab4     LIBCMTD:_strgtold_.obj
 0003:00019ad8       ??_C@_1IG@IGKPPFIM@?$AAf?$AA?3?$AA?2?$AAd?$AAd?$AA?2?$AAv?$AAc?$AAt?$AAo?$AAo?$AAl?$AAs?$AA?2?$AAc?$AAr?$AAt?$AA_?$AAb?$AAl?$AAd?$AA?2?$AAs?$AAe?$AAl?$AAf?$AA_?$AAx?$AA8?$AA6?$AA?2?$AAc@ 40148ad8     LIBCMTD:_strgtold_.obj
 0003:00019b78       ??_C@_1CA@MBDBOHIB@?$AA_?$AAL?$AAo?$AAc?$AAa?$AAl?$AAe?$AA?5?$AA?$CB?$AA?$DN?$AA?5?$AAN?$AAU?$AAL?$AAL?$AA?$AA@ 40148b78     LIBCMTD:_strgtold_.obj
 0003:00019ba0       ??_C@_0P@MIGLKIOC@CorExitProcess?$AA@ 40148ba0     LIBCMTD:crt0dat.obj
 0003:00019bb4       ??_C@_1BI@BGOHAHKC@?$AAm?$AAs?$AAc?$AAo?$AAr?$AAe?$AAe?$AA?4?$AAd?$AAl?$AAl?$AA?$AA@ 40148bb4     LIBCMTD:crt0dat.obj
 0003:00019bd0       ??_C@_1CC@CDIPMFPD@?$AA_?$AAw?$AAp?$AAg?$AAm?$AAp?$AAt?$AAr?$AA?5?$AA?$CB?$AA?$DN?$AA?5?$AAN?$AAU?$AAL?$AAL?$AA?$AA@ 40148bd0     LIBCMTD:crt0dat.obj
 0003:00019bf8       ??_C@_1BK@PNLDCCDP@?$AA_?$AAg?$AAe?$AAt?$AA_?$AAw?$AAp?$AAg?$AAm?$AAp?$AAt?$AAr?$AA?$AA@ 40148bf8     LIBCMTD:crt0dat.obj
 0003:00019c18       ??_C@_1GC@DGCPEDNJ@?$AAf?$AA?3?$AA?2?$AAd?$AAd?$AA?2?$AAv?$AAc?$AAt?$AAo?$AAo?$AAl?$AAs?$AA?2?$AAc?$AAr?$AAt?$AA_?$AAb?$AAl?$AAd?$AA?2?$AAs?$AAe?$AAl?$AAf?$AA_?$AAx?$AA8?$AA6?$AA?2?$AAc@ 40148c18     LIBCMTD:crt0dat.obj
 0003:00019c90       ??_C@_1CA@BBNAFCKO@?$AA_?$AAp?$AAg?$AAm?$AAp?$AAt?$AAr?$AA?5?$AA?$CB?$AA?$DN?$AA?5?$AAN?$AAU?$AAL?$AAL?$AA?$AA@ 40148c90     LIBCMTD:crt0dat.obj
 0003:00019cb8       ??_C@_1BI@COAAPHJK@?$AA_?$AAg?$AAe?$AAt?$AA_?$AAp?$AAg?$AAm?$AAp?$AAt?$AAr?$AA?$AA@ 40148cb8     LIBCMTD:crt0dat.obj
 0003:00019cd4       ??_C@_1O@EJLDHPPL@?$AAs?$AAi?$AAg?$AAn?$AAa?$AAl?$AA?$AA@ 40148cd4     LIBCMTD:winsig.obj
 0003:00019ce8       ??_C@_1GA@DBECNFG@?$AAf?$AA?3?$AA?2?$AAd?$AAd?$AA?2?$AAv?$AAc?$AAt?$AAo?$AAo?$AAl?$AAs?$AA?2?$AAc?$AAr?$AAt?$AA_?$AAb?$AAl?$AAd?$AA?2?$AAs?$AAe?$AAl?$AAf?$AA_?$AAx?$AA8?$AA6?$AA?2?$AAc@ 40148ce8     LIBCMTD:winsig.obj
 0003:00019d5c       ??_C@_1DO@MLNEDKGB@?$AA?$CI?$AA?$CC?$AAI?$AAn?$AAv?$AAa?$AAl?$AAi?$AAd?$AA?5?$AAs?$AAi?$AAg?$AAn?$AAa?$AAl?$AA?5?$AAo?$AAr?$AA?5?$AAe?$AAr?$AAr?$AAo?$AAr?$AA?$CC?$AA?0?$AA?5?$AA0?$AA?$CJ?$AA?$AA@ 40148d5c     LIBCMTD:winsig.obj
 0003:00019da8       ??_C@_0DA@ELJOOIJF@f?3?2dd?2vctools?2crt_bld?2self_x86?2c@ 40148da8     LIBCMTD:winsig.obj
 0003:00019de4       ??_C@_1M@DMJEIKHL@?$AAr?$AAa?$AAi?$AAs?$AAe?$AA?$AA@ 40148de4     LIBCMTD:winsig.obj
 0003:00019df4       ??_C@_0BI@DFKBFLJE@GetProcessWindowStation?$AA@ 40148df4     LIBCMTD:crtmboxw.obj
 0003:00019e10       ??_C@_0BK@DEKFELLI@GetUserObjectInformationW?$AA@ 40148e10     LIBCMTD:crtmboxw.obj
 0003:00019e30       ??_C@_0BD@HHGDFDBJ@GetLastActivePopup?$AA@ 40148e30     LIBCMTD:crtmboxw.obj
 0003:00019e48       ??_C@_0BA@HNOPNCHB@GetActiveWindow?$AA@ 40148e48     LIBCMTD:crtmboxw.obj
 0003:00019e5c       ??_C@_0M@DLDCCGNP@MessageBoxW?$AA@ 40148e5c     LIBCMTD:crtmboxw.obj
 0003:00019e6c       ??_C@_1BG@GOEBHBDC@?$AAU?$AAS?$AAE?$AAR?$AA3?$AA2?$AA?4?$AAD?$AAL?$AAL?$AA?$AA@ 40148e6c     LIBCMTD:crtmboxw.obj
 0003:00019e88       ??_C@_1CM@HABGDNLJ@?$AAl?$AAe?$AAn?$AAg?$AAt?$AAh?$AA?5?$AA?$DM?$AA?5?$AAs?$AAi?$AAz?$AAe?$AAI?$AAn?$AAT?$AAC?$AAh?$AAa?$AAr?$AAs?$AA?$AA@ 40148e88     LIBCMTD:xtows.obj
 0003:00019ebc       ??_C@_1DE@PCJGDBBD@?$AA2?$AA?5?$AA?$DM?$AA?$DN?$AA?5?$AAr?$AAa?$AAd?$AAi?$AAx?$AA?5?$AA?$CG?$AA?$CG?$AA?5?$AAr?$AAa?$AAd?$AAi?$AAx?$AA?5?$AA?$DM?$AA?$DN?$AA?5?$AA3?$AA6?$AA?$AA@ 40148ebc     LIBCMTD:xtows.obj
 0003:00019f00       ??_C@_1FA@MKGGAGEI@?$AAs?$AAi?$AAz?$AAe?$AAI?$AAn?$AAT?$AAC?$AAh?$AAa?$AAr?$AAs?$AA?5?$AA?$DO?$AA?5?$AA?$CI?$AAs?$AAi?$AAz?$AAe?$AA_?$AAt?$AA?$CJ?$AA?$CI?$AAi?$AAs?$AA_?$AAn?$AAe?$AAg?$AA?5?$AA?$DP@ 40148f00     LIBCMTD:xtows.obj
 0003:00019f60       ??_C@_1CC@JNJFIMGE@?$AAs?$AAi?$AAz?$AAe?$AAI?$AAn?$AAT?$AAC?$AAh?$AAa?$AAr?$AAs?$AA?5?$AA?$DO?$AA?5?$AA0?$AA?$AA@ 40148f60     LIBCMTD:xtows.obj
 0003:00019f88       ??_C@_1O@NCBFODOE@?$AAx?$AAt?$AAo?$AAw?$AA_?$AAs?$AA?$AA@ 40148f88     LIBCMTD:xtows.obj
 0003:00019f98       ??_C@_1FM@MFCBFCGB@?$AAf?$AA?3?$AA?2?$AAd?$AAd?$AA?2?$AAv?$AAc?$AAt?$AAo?$AAo?$AAl?$AAs?$AA?2?$AAc?$AAr?$AAt?$AA_?$AAb?$AAl?$AAd?$AA?2?$AAs?$AAe?$AAl?$AAf?$AA_?$AAx?$AA8?$AA6?$AA?2?$AAc@ 40148f98     LIBCMTD:xtows.obj
 0003:0001a008       ??_C@_1BC@HDEJCFPB@?$AAx?$AA6?$AA4?$AAt?$AAo?$AAw?$AA_?$AAs?$AA?$AA@ 40149008     LIBCMTD:xtows.obj
 0003:0001a020       ??_C@_1DM@MADKGDLO@?$AA?$CI?$AAL?$AA?$CC?$AAB?$AAu?$AAf?$AAf?$AAe?$AAr?$AA?5?$AAi?$AAs?$AA?5?$AAt?$AAo?$AAo?$AA?5?$AAs?$AAm?$AAa?$AAl?$AAl?$AA?$CC?$AA?5?$AA?$CG?$AA?$CG?$AA?5?$AA0?$AA?$CJ?$AA?$AA@ 40149020     LIBCMTD:wcsncat_s.obj
 0003:0001a068       ??_C@_1CI@HCPHDDLE@?$AAB?$AAu?$AAf?$AAf?$AAe?$AAr?$AA?5?$AAi?$AAs?$AA?5?$AAt?$AAo?$AAo?$AA?5?$AAs?$AAm?$AAa?$AAl?$AAl?$AA?$AA@ 40149068     LIBCMTD:wcsncat_s.obj
 0003:0001a098       ??_C@_1FA@MJKDNFFB@?$AA?$CI?$AAL?$AA?$CC?$AAS?$AAt?$AAr?$AAi?$AAn?$AAg?$AA?5?$AAi?$AAs?$AA?5?$AAn?$AAo?$AAt?$AA?5?$AAn?$AAu?$AAl?$AAl?$AA?5?$AAt?$AAe?$AAr?$AAm?$AAi?$AAn?$AAa?$AAt?$AAe?$AAd@ 40149098     LIBCMTD:wcsncat_s.obj
 0003:0001a0f8       ??_C@_1DM@FHLMIEG@?$AAS?$AAt?$AAr?$AAi?$AAn?$AAg?$AA?5?$AAi?$AAs?$AA?5?$AAn?$AAo?$AAt?$AA?5?$AAn?$AAu?$AAl?$AAl?$AA?5?$AAt?$AAe?$AAr?$AAm?$AAi?$AAn?$AAa?$AAt?$AAe?$AAd?$AA?$AA@ 401490f8     LIBCMTD:wcsncat_s.obj
 0003:0001a140       ??_C@_1CG@OFBJMIGJ@?$AA?$CI?$AA?$CI?$AA?$CI?$AA_?$AAS?$AAr?$AAc?$AA?$CJ?$AA?$CJ?$AA?$CJ?$AA?5?$AA?$CB?$AA?$DN?$AA?5?$AAN?$AAU?$AAL?$AAL?$AA?$AA@ 40149140     LIBCMTD:wcsncat_s.obj
 0003:0001a170       ??_C@_1BE@KPKIKKCF@?$AAw?$AAc?$AAs?$AAn?$AAc?$AAa?$AAt?$AA_?$AAs?$AA?$AA@ 40149170     LIBCMTD:wcsncat_s.obj
 0003:0001a188       ??_C@_1GK@DICCLCDF@?$AAf?$AA?3?$AA?2?$AAd?$AAd?$AA?2?$AAv?$AAc?$AAt?$AAo?$AAo?$AAl?$AAs?$AA?2?$AAc?$AAr?$AAt?$AA_?$AAb?$AAl?$AAd?$AA?2?$AAs?$AAe?$AAl?$AAf?$AA_?$AAx?$AA8?$AA6?$AA?2?$AAc@ 40149188     LIBCMTD:wcsncat_s.obj
 0003:0001a208       ??_C@_1FC@PFMLEHKI@?$AA?$CI?$AA?$CI?$AA_?$AAD?$AAs?$AAt?$AA?$CJ?$AA?$CJ?$AA?5?$AA?$CB?$AA?$DN?$AA?5?$AAN?$AAU?$AAL?$AAL?$AA?5?$AA?$CG?$AA?$CG?$AA?5?$AA?$CI?$AA?$CI?$AA_?$AAS?$AAi?$AAz?$AAe?$AAI?$AAn?$AAW?$AAo?$AAr@ 40149208     LIBCMTD:wcsncat_s.obj
 0003:0001a26c       ??_C@_1BE@PMMBFFCC@?$AAw?$AAc?$AAs?$AAn?$AAc?$AAp?$AAy?$AA_?$AAs?$AA?$AA@ 4014926c     LIBCMTD:wcsncpy_s.obj
 0003:0001a288       ??_C@_1GK@PAJJBKJF@?$AAf?$AA?3?$AA?2?$AAd?$AAd?$AA?2?$AAv?$AAc?$AAt?$AAo?$AAo?$AAl?$AAs?$AA?2?$AAc?$AAr?$AAt?$AA_?$AAb?$AAl?$AAd?$AA?2?$AAs?$AAe?$AAl?$AAf?$AA_?$AAx?$AA8?$AA6?$AA?2?$AAc@ 40149288     LIBCMTD:wcsncpy_s.obj
 0003:0001a308       ??_C@_1BC@PLIEPKPJ@?$AAw?$AAc?$AAs?$AAc?$AAa?$AAt?$AA_?$AAs?$AA?$AA@ 40149308     LIBCMTD:wcscat_s.obj
 0003:0001a320       ??_C@_1GI@NOKGIAGA@?$AAf?$AA?3?$AA?2?$AAd?$AAd?$AA?2?$AAv?$AAc?$AAt?$AAo?$AAo?$AAl?$AAs?$AA?2?$AAc?$AAr?$AAt?$AA_?$AAb?$AAl?$AAd?$AA?2?$AAs?$AAe?$AAl?$AAf?$AA_?$AAx?$AA8?$AA6?$AA?2?$AAc@ 40149320     LIBCMTD:wcscat_s.obj
 0003:0001a39c       ??_C@_1BC@KIONAFPO@?$AAw?$AAc?$AAs?$AAc?$AAp?$AAy?$AA_?$AAs?$AA?$AA@ 4014939c     LIBCMTD:wcscpy_s.obj
 0003:0001a3b8       ??_C@_1GI@BGBNCIMA@?$AAf?$AA?3?$AA?2?$AAd?$AAd?$AA?2?$AAv?$AAc?$AAt?$AAo?$AAo?$AAl?$AAs?$AA?2?$AAc?$AAr?$AAt?$AA_?$AAb?$AAl?$AAd?$AA?2?$AAs?$AAe?$AAl?$AAf?$AA_?$AAx?$AA8?$AA6?$AA?2?$AAc@ 401493b8     LIBCMTD:wcscpy_s.obj
 0003:0001a434       ??_C@_1BC@BHLPNJBO@?$AAf?$AAw?$AAp?$AAr?$AAi?$AAn?$AAt?$AAf?$AA?$AA@ 40149434     LIBCMTD:fwprintf.obj
 0003:0001a450       ??_C@_1GE@NIBJAMDO@?$AAf?$AA?3?$AA?2?$AAd?$AAd?$AA?2?$AAv?$AAc?$AAt?$AAo?$AAo?$AAl?$AAs?$AA?2?$AAc?$AAr?$AAt?$AA_?$AAb?$AAl?$AAd?$AA?2?$AAs?$AAe?$AAl?$AAf?$AA_?$AAx?$AA8?$AA6?$AA?2?$AAc@ 40149450     LIBCMTD:fwprintf.obj
 0003:0001a4c8       ??_C@_1BM@JMKHIAHP@?$AA?$CI?$AAs?$AAt?$AAr?$AA?5?$AA?$CB?$AA?$DN?$AA?5?$AAN?$AAU?$AAL?$AAL?$AA?$CJ?$AA?$AA@ 401494c8     LIBCMTD:fwprintf.obj
 0003:0001a4ec       ??_C@_0DB@MIGHMKAN@f?3?2dd?2vctools?2crt_bld?2self_x86?2c@ 401494ec     LIBCMTD:setvbuf.obj
 0003:0001a528       ??_C@_1EG@IJNJIDNB@?$AA?$CI?$AA?$CI?$AA2?$AA?5?$AA?$DM?$AA?$DN?$AA?5?$AAs?$AAi?$AAz?$AAe?$AA?$CJ?$AA?5?$AA?$CG?$AA?$CG?$AA?5?$AA?$CI?$AAs?$AAi?$AAz?$AAe?$AA?5?$AA?$DM?$AA?$DN?$AA?5?$AAI?$AAN?$AAT?$AA_?$AAM?$AAA?$AAX@ 40149528     LIBCMTD:setvbuf.obj
 0003:0001a580       ??_C@_1HC@CBFEDAGG@?$AA?$CI?$AAt?$AAy?$AAp?$AAe?$AA?5?$AA?$DN?$AA?$DN?$AA?5?$AA_?$AAI?$AAO?$AAN?$AAB?$AAF?$AA?$CJ?$AA?5?$AA?$HM?$AA?$HM?$AA?5?$AA?$CI?$AAt?$AAy?$AAp?$AAe?$AA?5?$AA?$DN?$AA?$DN?$AA?5?$AA_?$AAI?$AAO@ 40149580     LIBCMTD:setvbuf.obj
 0003:0001a608       ??_C@_1BA@OGODIODK@?$AAs?$AAe?$AAt?$AAv?$AAb?$AAu?$AAf?$AA?$AA@ 40149608     LIBCMTD:setvbuf.obj
 0003:0001a620       ??_C@_1GC@FPPJLAOD@?$AAf?$AA?3?$AA?2?$AAd?$AAd?$AA?2?$AAv?$AAc?$AAt?$AAo?$AAo?$AAl?$AAs?$AA?2?$AAc?$AAr?$AAt?$AA_?$AAb?$AAl?$AAd?$AA?2?$AAs?$AAe?$AAl?$AAf?$AA_?$AAx?$AA8?$AA6?$AA?2?$AAc@ 40149620     LIBCMTD:setvbuf.obj
 0003:0001a698       ??_C@_0CP@BNKDODJJ@f?3?2dd?2vctools?2crt_bld?2self_x86?2c@ 40149698     LIBCMTD:_file.obj
 0003:0001a6d0       ??_C@_1CA@LFDHAMEM@?$AA_?$AAs?$AAe?$AAt?$AA_?$AAe?$AAr?$AAr?$AAo?$AAr?$AA_?$AAm?$AAo?$AAd?$AAe?$AA?$AA@ 401496d0     LIBCMTD:errmode.obj
 0003:0001a6f8       ??_C@_1GC@FGMGFCNB@?$AAf?$AA?3?$AA?2?$AAd?$AAd?$AA?2?$AAv?$AAc?$AAt?$AAo?$AAo?$AAl?$AAs?$AA?2?$AAc?$AAr?$AAt?$AA_?$AAb?$AAl?$AAd?$AA?2?$AAs?$AAe?$AAl?$AAf?$AA_?$AAx?$AA8?$AA6?$AA?2?$AAc@ 401496f8     LIBCMTD:errmode.obj
 0003:0001a770       ??_C@_1DE@BCNCAIK@?$AA?$CI?$AA?$CC?$AAI?$AAn?$AAv?$AAa?$AAl?$AAi?$AAd?$AA?5?$AAe?$AAr?$AAr?$AAo?$AAr?$AA_?$AAm?$AAo?$AAd?$AAe?$AA?$CC?$AA?0?$AA?5?$AA0?$AA?$CJ?$AA?$AA@ 40149770     LIBCMTD:errmode.obj
 0003:0001a7b0       ??_C@_1EC@FABAOFFO@?$AA?$CI?$AAc?$AAo?$AAu?$AAn?$AAt?$AA?5?$AA?$DN?$AA?$DN?$AA?5?$AA0?$AA?$CJ?$AA?5?$AA?$HM?$AA?$HM?$AA?5?$AA?$CI?$AAs?$AAt?$AAr?$AAi?$AAn?$AAg?$AA?5?$AA?$CB?$AA?$DN?$AA?5?$AAN?$AAU?$AAL?$AAL?$AA?$CJ@ 401497b0     LIBCMTD:vswprnc.obj
 0003:0001a800       ??_C@_1CE@IGKFIJFD@?$AA_?$AAv?$AAs?$AAw?$AAp?$AAr?$AAi?$AAn?$AAt?$AAf?$AA_?$AAh?$AAe?$AAl?$AAp?$AAe?$AAr?$AA?$AA@ 40149800     LIBCMTD:vswprnc.obj
 0003:0001a830       ??_C@_1GE@KINELFI@?$AAf?$AA?3?$AA?2?$AAd?$AAd?$AA?2?$AAv?$AAc?$AAt?$AAo?$AAo?$AAl?$AAs?$AA?2?$AAc?$AAr?$AAt?$AA_?$AAb?$AAl?$AAd?$AA?2?$AAs?$AAe?$AAl?$AAf?$AA_?$AAx?$AA8?$AA6?$AA?2?$AAc@ 40149830     LIBCMTD:vswprnc.obj
 0003:0001a8a8       ??_C@_1DA@HPBFKMEB@?$AA?$CI?$AA?$CC?$AAB?$AAu?$AAf?$AAf?$AAe?$AAr?$AA?5?$AAt?$AAo?$AAo?$AA?5?$AAs?$AAm?$AAa?$AAl?$AAl?$AA?$CC?$AA?0?$AA?5?$AA0?$AA?$CJ?$AA?$AA@ 401498a8     LIBCMTD:vswprnc.obj
 0003:0001a8e8       ??_C@_1EE@MPCHJFGP@?$AAs?$AAt?$AAr?$AAi?$AAn?$AAg?$AA?5?$AA?$CB?$AA?$DN?$AA?5?$AAN?$AAU?$AAL?$AAL?$AA?5?$AA?$CG?$AA?$CG?$AA?5?$AAs?$AAi?$AAz?$AAe?$AAI?$AAn?$AAW?$AAo?$AAr?$AAd?$AAs?$AA?5?$AA?$DO?$AA?5@ 401498e8     LIBCMTD:vswprnc.obj
 0003:0001a93c       ??_C@_1BO@OALHJLCI@?$AA_?$AAv?$AAs?$AAw?$AAp?$AAr?$AAi?$AAn?$AAt?$AAf?$AA_?$AAs?$AA_?$AAl?$AA?$AA@ 4014993c     LIBCMTD:vswprnc.obj
 0003:0001a960       ??_C@_1BO@MLMCMBKN@?$AAf?$AAo?$AAr?$AAm?$AAa?$AAt?$AA?5?$AA?$CB?$AA?$DN?$AA?5?$AAN?$AAU?$AAL?$AAL?$AA?$AA@ 40149960     LIBCMTD:vswprnc.obj
 0003:0001a984       ??_C@_1CA@BKFKMJFF@?$AA_?$AAv?$AAs?$AAn?$AAw?$AAp?$AAr?$AAi?$AAn?$AAt?$AAf?$AA_?$AAs?$AA_?$AAl?$AA?$AA@ 40149984     LIBCMTD:vswprnc.obj
 0003:0001a9b0       ??_C@_1BAA@ODEGEDCK@?$AA?$CI?$AA?5?$AA?$CI?$AA_?$AAS?$AAt?$AAr?$AAe?$AAa?$AAm?$AA?9?$AA?$DO?$AA_?$AAf?$AAl?$AAa?$AAg?$AA?5?$AA?$CG?$AA?5?$AA_?$AAI?$AAO?$AAS?$AAT?$AAR?$AAG?$AA?$CJ?$AA?5?$AA?$HM?$AA?$HM?$AA?5@ 401499b0     LIBCMTD:input.obj
 0003:0001aae4       ??_C@_1CC@FADMNIL@?$AA?$CI?$AAs?$AAt?$AAr?$AAe?$AAa?$AAm?$AA?5?$AA?$CB?$AA?$DN?$AA?5?$AAN?$AAU?$AAL?$AAL?$AA?$CJ?$AA?$AA@ 40149ae4     LIBCMTD:input.obj
 0003:0001ab0c       ??_C@_1BC@MJNBEDIJ@?$AA_?$AAi?$AAn?$AAp?$AAu?$AAt?$AA_?$AAl?$AA?$AA@ 40149b0c     LIBCMTD:input.obj
 0003:0001ab28       ??_C@_1FO@LDDBLKJ@?$AAf?$AA?3?$AA?2?$AAd?$AAd?$AA?2?$AAv?$AAc?$AAt?$AAo?$AAo?$AAl?$AAs?$AA?2?$AAc?$AAr?$AAt?$AA_?$AAb?$AAl?$AAd?$AA?2?$AAs?$AAe?$AAl?$AAf?$AA_?$AAx?$AA8?$AA6?$AA?2?$AAc@ 40149b28     LIBCMTD:input.obj
 0003:0001ab98       ??_C@_0CP@MMGCGBFO@f?3?2dd?2vctools?2crt_bld?2self_x86?2c@ 40149b98     LIBCMTD:input.obj
 0003:0001abd0       ??_C@_1DO@MBOKMJPK@?$AAn?$AAF?$AAl?$AAo?$AAa?$AAt?$AAS?$AAt?$AAr?$AAU?$AAs?$AAe?$AAd?$AA?$DM?$AA?$DN?$AA?$CI?$AA?$CK?$AAp?$AAn?$AAF?$AAl?$AAo?$AAa?$AAt?$AAS?$AAt?$AAr?$AAS?$AAz?$AA?$CJ?$AA?$AA@ 40149bd0     LIBCMTD:input.obj
 0003:0001ac1c       ??_C@_1DG@MPPGJOHD@?$AA?$CI?$AA?$CC?$AAI?$AAn?$AAv?$AAa?$AAl?$AAi?$AAd?$AA?5?$AAI?$AAn?$AAp?$AAu?$AAt?$AA?5?$AAF?$AAo?$AAr?$AAm?$AAa?$AAt?$AA?$CC?$AA?0?$AA0?$AA?$CJ?$AA?$AA@ 40149c1c     LIBCMTD:inputs.obj
 0003:0001ac5c       ??_C@_1BG@LBKFJFHM@?$AA_?$AAi?$AAn?$AAp?$AAu?$AAt?$AA_?$AAs?$AA_?$AAl?$AA?$AA@ 40149c5c     LIBCMTD:inputs.obj
 0003:0001c978       ??_C@_1HO@MLMGPAFH@?$AA?$CI?$AA?$CC?$AAi?$AAn?$AAc?$AAo?$AAn?$AAs?$AAi?$AAs?$AAt?$AAe?$AAn?$AAt?$AA?5?$AAI?$AAO?$AAB?$AA?5?$AAf?$AAi?$AAe?$AAl?$AAd?$AAs?$AA?$CC?$AA?0?$AA?5?$AAs?$AAt?$AAr?$AAe@ 4014b978     LIBCMTD:_flsbuf.obj
 0003:0001ca10       ??_C@_1GC@GNCCMPNN@?$AAf?$AA?3?$AA?2?$AAd?$AAd?$AA?2?$AAv?$AAc?$AAt?$AAo?$AAo?$AAl?$AAs?$AA?2?$AAc?$AAr?$AAt?$AA_?$AAb?$AAl?$AAd?$AA?2?$AAs?$AAe?$AAl?$AAf?$AA_?$AAx?$AA8?$AA6?$AA?2?$AAc@ 4014ba10     LIBCMTD:_flsbuf.obj
 0003:0001ca88       ??_C@_1BI@MFCLPIBM@?$AAs?$AAt?$AAr?$AA?5?$AA?$CB?$AA?$DN?$AA?5?$AAN?$AAU?$AAL?$AAL?$AA?$AA@ 4014ba88     LIBCMTD:_flsbuf.obj
 0003:0001caa4       ??_C@_1O@CEDCILHN@?$AA?$CI?$AAn?$AAu?$AAl?$AAl?$AA?$CJ?$AA?$AA@ 4014baa4     LIBCMTD:output.obj
 0003:0001cab4       ??_C@_06OJHGLDPL@?$CInull?$CJ?$AA@ 4014bab4     LIBCMTD:output.obj
 0003:0001cac0       ___lookuptable             4014bac0     LIBCMTD:output.obj
 0003:0001cb2c       ??_C@_0DA@NFBEBPEE@f?3?2dd?2vctools?2crt_bld?2self_x86?2c@ 4014bb2c     LIBCMTD:output.obj
 0003:0001cb68       ??_C@_1EK@PNGFDECN@?$AA?$CI?$AA?$CC?$AA?8?$AAn?$AA?8?$AA?5?$AAf?$AAo?$AAr?$AAm?$AAa?$AAt?$AA?5?$AAs?$AAp?$AAe?$AAc?$AAi?$AAf?$AAi?$AAe?$AAr?$AA?5?$AAd?$AAi?$AAs?$AAa?$AAb?$AAl?$AAe?$AAd?$AA?$CC@ 4014bb68     LIBCMTD:output.obj
 0003:0001cbc0       ??_C@_1CC@IFFHEMNF@?$AA?$CI?$AAc?$AAh?$AA?5?$AA?$CB?$AA?$DN?$AA?5?$AA_?$AAT?$AA?$CI?$AA?8?$AA?2?$AA0?$AA?8?$AA?$CJ?$AA?$CJ?$AA?$AA@ 4014bbc0     LIBCMTD:output.obj
 0003:0001cbe8       ??_C@_1BE@IONLIDNC@?$AA_?$AAo?$AAu?$AAt?$AAp?$AAu?$AAt?$AA_?$AAl?$AA?$AA@ 4014bbe8     LIBCMTD:output.obj
 0003:0001cc00       ??_C@_1GA@HHFOFBLN@?$AAf?$AA?3?$AA?2?$AAd?$AAd?$AA?2?$AAv?$AAc?$AAt?$AAo?$AAo?$AAl?$AAs?$AA?2?$AAc?$AAr?$AAt?$AA_?$AAb?$AAl?$AAd?$AA?2?$AAs?$AAe?$AAl?$AAf?$AA_?$AAx?$AA8?$AA6?$AA?2?$AAc@ 4014bc00     LIBCMTD:output.obj
 0003:0001cc78       ??_C@_1FK@BCPANIEK@?$AA?$CI?$AA?$CC?$AAM?$AAi?$AAs?$AAs?$AAi?$AAn?$AAg?$AA?5?$AAp?$AAo?$AAs?$AAi?$AAt?$AAi?$AAo?$AAn?$AA?5?$AAi?$AAn?$AA?5?$AAt?$AAh?$AAe?$AA?5?$AAf?$AAo?$AAr?$AAm?$AAa?$AAt@ 4014bc78     LIBCMTD:outputp.obj
 0003:0001cce8       ??_C@_1FK@LNCFKALM@?$AA?$CI?$AA?$CI?$AAs?$AAt?$AAa?$AAt?$AAe?$AA?5?$AA?$DN?$AA?$DN?$AA?5?$AAS?$AAT?$AA_?$AAN?$AAO?$AAR?$AAM?$AAA?$AAL?$AA?$CJ?$AA?5?$AA?$HM?$AA?$HM?$AA?5?$AA?$CI?$AAs?$AAt?$AAa?$AAt?$AAe?$AA?5@ 4014bce8     LIBCMTD:outputp.obj
 0003:0001cd58       ??_C@_1JC@OACKELNN@?$AA_?$AAt?$AAv?$AAa?$AAl?$AAi?$AAd?$AAa?$AAt?$AAe?$AA_?$AAp?$AAa?$AAr?$AAa?$AAm?$AA_?$AAr?$AAe?$AAu?$AAs?$AAe?$AA?$CI?$AA?$CG?$AAp?$AAo?$AAs?$AA_?$AAv?$AAa?$AAl?$AAu@ 4014bd58     LIBCMTD:outputp.obj
 0003:0001ce08       ??_C@_1IK@NBGDDCBN@?$AA_?$AAt?$AAv?$AAa?$AAl?$AAi?$AAd?$AAa?$AAt?$AAe?$AA_?$AAp?$AAa?$AAr?$AAa?$AAm?$AA_?$AAr?$AAe?$AAu?$AAs?$AAe?$AA?$CI?$AA?$CG?$AAp?$AAo?$AAs?$AA_?$AAv?$AAa?$AAl?$AAu@ 4014be08     LIBCMTD:outputp.obj
 0003:0001ceb0       ??_C@_1DG@GOHGNKHE@?$AAp?$AAa?$AAs?$AAs?$AA?5?$AA?$DN?$AA?$DN?$AA?5?$AAF?$AAO?$AAR?$AAM?$AAA?$AAT?$AA_?$AAO?$AAU?$AAT?$AAP?$AAU?$AAT?$AA_?$AAP?$AAA?$AAS?$AAS?$AA?$AA@ 4014beb0     LIBCMTD:outputp.obj
 0003:0001cef0       ??_C@_1IM@DNGHAPLB@?$AA_?$AAt?$AAv?$AAa?$AAl?$AAi?$AAd?$AAa?$AAt?$AAe?$AA_?$AAp?$AAa?$AAr?$AAa?$AAm?$AA_?$AAr?$AAe?$AAu?$AAs?$AAe?$AA?$CI?$AA?$CG?$AAp?$AAo?$AAs?$AA_?$AAv?$AAa?$AAl?$AAu@ 4014bef0     LIBCMTD:outputp.obj
 0003:0001cf98       ??_C@_1IG@HJIMKDHC@?$AA_?$AAt?$AAv?$AAa?$AAl?$AAi?$AAd?$AAa?$AAt?$AAe?$AA_?$AAp?$AAa?$AAr?$AAa?$AAm?$AA_?$AAr?$AAe?$AAu?$AAs?$AAe?$AA?$CI?$AA?$CG?$AAp?$AAo?$AAs?$AA_?$AAv?$AAa?$AAl?$AAu@ 4014bf98     LIBCMTD:outputp.obj
 0003:0001d038       ??_C@_1IG@FDCPLALG@?$AA_?$AAt?$AAv?$AAa?$AAl?$AAi?$AAd?$AAa?$AAt?$AAe?$AA_?$AAp?$AAa?$AAr?$AAa?$AAm?$AA_?$AAr?$AAe?$AAu?$AAs?$AAe?$AA?$CI?$AA?$CG?$AAp?$AAo?$AAs?$AA_?$AAv?$AAa?$AAl?$AAu@ 4014c038     LIBCMTD:outputp.obj
 0003:0001d0d8       ??_C@_1IK@MHEDJAMK@?$AA_?$AAt?$AAv?$AAa?$AAl?$AAi?$AAd?$AAa?$AAt?$AAe?$AA_?$AAp?$AAa?$AAr?$AAa?$AAm?$AA_?$AAr?$AAe?$AAu?$AAs?$AAe?$AA?$CI?$AA?$CG?$AAp?$AAo?$AAs?$AA_?$AAv?$AAa?$AAl?$AAu@ 4014c0d8     LIBCMTD:outputp.obj
 0003:0001d180       ??_C@_1EM@BNPHBBIA@?$AA?$CI?$AA?$CI?$AAt?$AAy?$AAp?$AAe?$AA_?$AAp?$AAo?$AAs?$AA?$DO?$AA?$DN?$AA0?$AA?$CJ?$AA?5?$AA?$CG?$AA?$CG?$AA?5?$AA?$CI?$AAt?$AAy?$AAp?$AAe?$AA_?$AAp?$AAo?$AAs?$AA?$DM?$AA_?$AAA?$AAR?$AAG@ 4014c180     LIBCMTD:outputp.obj
 0003:0001d1e0       ??_C@_1IK@EIEPDKHJ@?$AA_?$AAt?$AAv?$AAa?$AAl?$AAi?$AAd?$AAa?$AAt?$AAe?$AA_?$AAp?$AAa?$AAr?$AAa?$AAm?$AA_?$AAr?$AAe?$AAu?$AAs?$AAe?$AA?$CI?$AA?$CG?$AAp?$AAo?$AAs?$AA_?$AAv?$AAa?$AAl?$AAu@ 4014c1e0     LIBCMTD:outputp.obj
 0003:0001d288       ??_C@_1JG@JBJBOCFB@?$AA?$CI?$AA?$CI?$AAp?$AAr?$AAe?$AAc?$AAi?$AAs?$AA_?$AAp?$AAo?$AAs?$AA?5?$AA?$DO?$AA?$DN?$AA?5?$AA0?$AA?$CJ?$AA?5?$AA?$CG?$AA?$CG?$AA?5?$AA?$CI?$AA?$CK?$AAe?$AAn?$AAd?$AA_?$AAp?$AAo?$AAs?$AA?5@ 4014c288     LIBCMTD:outputp.obj
 0003:0001d340       ??_C@_1II@PIPIMLPF@?$AA_?$AAt?$AAv?$AAa?$AAl?$AAi?$AAd?$AAa?$AAt?$AAe?$AA_?$AAp?$AAa?$AAr?$AAa?$AAm?$AA_?$AAr?$AAe?$AAu?$AAs?$AAe?$AA?$CI?$AA?$CG?$AAp?$AAo?$AAs?$AA_?$AAv?$AAa?$AAl?$AAu@ 4014c340     LIBCMTD:outputp.obj
 0003:0001d3e8       ??_C@_1JE@NMBHOLFI@?$AA?$CI?$AA?$CI?$AAw?$AAi?$AAd?$AAt?$AAh?$AA_?$AAp?$AAo?$AAs?$AA?5?$AA?$DO?$AA?$DN?$AA?5?$AA0?$AA?$CJ?$AA?5?$AA?$CG?$AA?$CG?$AA?5?$AA?$CI?$AA?$CK?$AAe?$AAn?$AAd?$AA_?$AAp?$AAo?$AAs?$AA?5?$AA?$DN@ 4014c3e8     LIBCMTD:outputp.obj
 0003:0001d4a0       ??_C@_1EE@DMAIGNBG@?$AA?$CI?$AA?$CC?$AAI?$AAn?$AAc?$AAo?$AAr?$AAr?$AAe?$AAc?$AAt?$AA?5?$AAf?$AAo?$AAr?$AAm?$AAa?$AAt?$AA?5?$AAs?$AAp?$AAe?$AAc?$AAi?$AAf?$AAi?$AAe?$AAr?$AA?$CC?$AA?0?$AA?5?$AA0@ 4014c4a0     LIBCMTD:outputp.obj
 0003:0001d4f8       ??_C@_1JC@PFJNKEIO@?$AA?$CI?$AA?$CI?$AAt?$AAy?$AAp?$AAe?$AA_?$AAp?$AAo?$AAs?$AA?5?$AA?$DO?$AA?$DN?$AA?5?$AA0?$AA?$CJ?$AA?5?$AA?$CG?$AA?$CG?$AA?5?$AA?$CI?$AA?$CK?$AAe?$AAn?$AAd?$AA_?$AAp?$AAo?$AAs?$AA?5?$AA?$DN?$AA?$DN@ 4014c4f8     LIBCMTD:outputp.obj
 0003:0001d5a8       ??_C@_1BI@KANOLAMF@?$AA_?$AAo?$AAu?$AAt?$AAp?$AAu?$AAt?$AA_?$AAp?$AA_?$AAl?$AA?$AA@ 4014c5a8     LIBCMTD:outputp.obj
 0003:0001d5c4       ??_C@_13NOLLCAOD@?$AA?$AA?$AA?$AA@ 4014c5c4     LIBCMTD:a_map.obj
 0003:0001d5c8       ??_C@_1GA@INJGGEBC@?$AAf?$AA?3?$AA?2?$AAd?$AAd?$AA?2?$AAv?$AAc?$AAt?$AAo?$AAo?$AAl?$AAs?$AA?2?$AAc?$AAr?$AAt?$AA_?$AAb?$AAl?$AAd?$AA?2?$AAs?$AAe?$AAl?$AAf?$AA_?$AAx?$AA8?$AA6?$AA?2?$AAc@ 4014c5c8     LIBCMTD:a_map.obj
 0003:0001d640       ??_C@_1FE@KNPCCODH@?$AA?$CI?$AA?$CC?$AAC?$AAo?$AAr?$AAr?$AAu?$AAp?$AAt?$AAe?$AAd?$AA?5?$AAp?$AAo?$AAi?$AAn?$AAt?$AAe?$AAr?$AA?5?$AAp?$AAa?$AAs?$AAs?$AAe?$AAd?$AA?5?$AAt?$AAo?$AA?5?$AA_?$AAf@ 4014c640     LIBCMTD:a_map.obj
 0003:0001d724       ??_C@_05EOHGHCHD@exp10?$AA@ 4014c724     LIBCMTD:_libm_error_.obj
 0003:0001d72c       ??_C@_1CE@PCFPEIFI@?$AA_?$AAv?$AAs?$AAn?$AAp?$AAr?$AAi?$AAn?$AAt?$AAf?$AA_?$AAh?$AAe?$AAl?$AAp?$AAe?$AAr?$AA?$AA@ 4014c72c     LIBCMTD:vsnprnc.obj
 0003:0001d758       ??_C@_1EE@OKCKIGFK@?$AAs?$AAt?$AAr?$AAi?$AAn?$AAg?$AA?5?$AA?$CB?$AA?$DN?$AA?5?$AAN?$AAU?$AAL?$AAL?$AA?5?$AA?$CG?$AA?$CG?$AA?5?$AAs?$AAi?$AAz?$AAe?$AAI?$AAn?$AAB?$AAy?$AAt?$AAe?$AAs?$AA?5?$AA?$DO?$AA?5@ 4014c758     LIBCMTD:vsnprnc.obj
 0003:0001d7ac       ??_C@_1BM@BLJALHEF@?$AA_?$AAv?$AAs?$AAp?$AAr?$AAi?$AAn?$AAt?$AAf?$AA_?$AAs?$AA_?$AAl?$AA?$AA@ 4014c7ac     LIBCMTD:vsnprnc.obj
 0003:0001d7d0       ??_C@_1BO@MMPELNIM@?$AA_?$AAv?$AAs?$AAn?$AAp?$AAr?$AAi?$AAn?$AAt?$AAf?$AA_?$AAs?$AA_?$AAl?$AA?$AA@ 4014c7d0     LIBCMTD:vsnprnc.obj
 0003:0001d7f4       ??_C@_0M@EKFFODEC@MSPDB80?4DLL?$AA@ 4014c7f4     LIBCMTD:_pdblkup_.obj
 0003:0001d804       ??_C@_01KDCPPGHE@r?$AA@    4014c804     LIBCMTD:_pdblkup_.obj
 0003:0001d808       ??_C@_0BB@KCIACLNC@PDBOpenValidate5?$AA@ 4014c808     LIBCMTD:_pdblkup_.obj
 0003:0001d81c       ??_C@_0BF@BMIHBHCA@EnvironmentDirectory?$AA@ 4014c81c     LIBCMTD:_pdblkup_.obj
 0003:0001d838       ??_C@_0CN@JNNIHDGH@SOFTWARE?2Microsoft?2VisualStudio?2@ 4014c838     LIBCMTD:_pdblkup_.obj
 0003:0001d870       ??_C@_0M@HLOHPNFA@RegCloseKey?$AA@ 4014c870     LIBCMTD:_pdblkup_.obj
 0003:0001d880       ??_C@_0BB@HHEIPGME@RegQueryValueExA?$AA@ 4014c880     LIBCMTD:_pdblkup_.obj
 0003:0001d894       ??_C@_0O@DCOGKJGG@RegOpenKeyExA?$AA@ 4014c894     LIBCMTD:_pdblkup_.obj
 0003:0001d8a4       ??_C@_0N@JJPEKNFO@ADVAPI32?4DLL?$AA@ 4014c8a4     LIBCMTD:_pdblkup_.obj
 0003:0001f3e8       ??_C@_06PJIGMIJB@Client?$AA@ 4014e3e8     LIBCMTD:dbgheap.obj
 0003:0001f3f0       ??_C@_06KMEJCCGM@Ignore?$AA@ 4014e3f0     LIBCMTD:dbgheap.obj
 0003:0001f3f8       ??_C@_03OGPFLFLO@CRT?$AA@  4014e3f8     LIBCMTD:dbgheap.obj
 0003:0001f3fc       ??_C@_06EFAGIKOH@Normal?$AA@ 4014e3fc     LIBCMTD:dbgheap.obj
 0003:0001f404       ??_C@_04HJMOFLDF@Free?$AA@ 4014e404     LIBCMTD:dbgheap.obj
 0003:0001f424       ??_C@_0DC@JEMAGEKG@Error?3?5memory?5allocation?3?5bad?5me@ 4014e424     LIBCMTD:dbgheap.obj
 0003:0001f460       ??_C@_0CF@BICKFLAF@Invalid?5allocation?5size?3?5?$CFIu?5byt@ 4014e460     LIBCMTD:dbgheap.obj
 0003:0001f48c       ??_C@_0CB@CCLOLAHO@Client?5hook?5allocation?5failure?4?6@ 4014e48c     LIBCMTD:dbgheap.obj
 0003:0001f4b4       ??_C@_0DF@BBEGIFEK@Client?5hook?5allocation?5failure?5a@ 4014e4b4     LIBCMTD:dbgheap.obj
 0003:0001f4f8       ??_C@_1GC@DNJKKEAA@?$AAf?$AA?3?$AA?2?$AAd?$AAd?$AA?2?$AAv?$AAc?$AAt?$AAo?$AAo?$AAl?$AAs?$AA?2?$AAc?$AAr?$AAt?$AA_?$AAb?$AAl?$AAd?$AA?2?$AAs?$AAe?$AAl?$AAf?$AA_?$AAx?$AA8?$AA6?$AA?2?$AAc@ 4014e4f8     LIBCMTD:dbgheap.obj
 0003:0001f570       ??_C@_1CE@LJFEPPMP@?$AA_?$AAC?$AAr?$AAt?$AAC?$AAh?$AAe?$AAc?$AAk?$AAM?$AAe?$AAm?$AAo?$AAr?$AAy?$AA?$CI?$AA?$CJ?$AA?$AA@ 4014e570     LIBCMTD:dbgheap.obj
 0003:0001f59c       ??_C@_1CC@CKBDKDFF@?$AA_?$AAc?$AAa?$AAl?$AAl?$AAo?$AAc?$AA_?$AAd?$AAb?$AAg?$AA_?$AAi?$AAm?$AAp?$AAl?$AA?$AA@ 4014e59c     LIBCMTD:dbgheap.obj
 0003:0001f5c4       ??_C@_1DO@MEOGCGBN@?$AA?$CI?$AA_?$AAH?$AAE?$AAA?$AAP?$AA_?$AAM?$AAA?$AAX?$AAR?$AAE?$AAQ?$AA?5?$AA?1?$AA?5?$AAn?$AAN?$AAu?$AAm?$AA?$CJ?$AA?5?$AA?$DO?$AA?$DN?$AA?5?$AAn?$AAS?$AAi?$AAz?$AAe?$AA?$AA@ 4014e5c4     LIBCMTD:dbgheap.obj
 0003:0001f610       ??_C@_1DE@KOOKLFBB@?$AA_?$AAp?$AAF?$AAi?$AAr?$AAs?$AAt?$AAB?$AAl?$AAo?$AAc?$AAk?$AA?5?$AA?$DN?$AA?$DN?$AA?5?$AAp?$AAO?$AAl?$AAd?$AAB?$AAl?$AAo?$AAc?$AAk?$AA?$AA@ 4014e610     LIBCMTD:dbgheap.obj
 0003:0001f650       ??_C@_1DC@GEFKNOOL@?$AA_?$AAp?$AAL?$AAa?$AAs?$AAt?$AAB?$AAl?$AAo?$AAc?$AAk?$AA?5?$AA?$DN?$AA?$DN?$AA?5?$AAp?$AAO?$AAl?$AAd?$AAB?$AAl?$AAo?$AAc?$AAk?$AA?$AA@ 4014e650     LIBCMTD:dbgheap.obj
 0003:0001f690       ??_C@_1GE@PCKLOLAO@?$AAf?$AAR?$AAe?$AAa?$AAl?$AAl?$AAo?$AAc?$AA?5?$AA?$HM?$AA?$HM?$AA?5?$AA?$CI?$AA?$CB?$AAf?$AAR?$AAe?$AAa?$AAl?$AAl?$AAo?$AAc?$AA?5?$AA?$CG?$AA?$CG?$AA?5?$AAp?$AAN?$AAe?$AAw?$AAB?$AAl@ 4014e690     LIBCMTD:dbgheap.obj
 0003:0001f708       ??_C@_0DA@HFBKENN@Error?3?5possible?5heap?5corruption?5@ 4014e708     LIBCMTD:dbgheap.obj
 0003:0001f748       ??_C@_1IK@DCPKDGNH@?$AAp?$AAO?$AAl?$AAd?$AAB?$AAl?$AAo?$AAc?$AAk?$AA?9?$AA?$DO?$AAn?$AAL?$AAi?$AAn?$AAe?$AA?5?$AA?$DN?$AA?$DN?$AA?5?$AAI?$AAG?$AAN?$AAO?$AAR?$AAE?$AA_?$AAL?$AAI?$AAN?$AAE?$AA?5@ 4014e748     LIBCMTD:dbgheap.obj
 0003:0001f7f0       ??_C@_1EE@GFOPCECE@?$AA_?$AAC?$AAr?$AAt?$AAI?$AAs?$AAV?$AAa?$AAl?$AAi?$AAd?$AAH?$AAe?$AAa?$AAp?$AAP?$AAo?$AAi?$AAn?$AAt?$AAe?$AAr?$AA?$CI?$AAp?$AAU?$AAs?$AAe?$AAr?$AAD?$AAa?$AAt?$AAa@ 4014e7f0     LIBCMTD:dbgheap.obj
 0003:0001f848       ??_C@_0EM@LGFLMAGJ@The?5Block?5at?50x?$CFp?5was?5allocated?5@ 4014e848     LIBCMTD:dbgheap.obj
 0003:0001f8a8       ??_C@_0FA@EFEIGJKG@Error?3?5memory?5allocation?3?5bad?5me@ 4014e8a8     LIBCMTD:dbgheap.obj
 0003:0001f908       ??_C@_0ED@GPCPBAGP@Invalid?5allocation?5size?3?5?$CFIu?5byt@ 4014e908     LIBCMTD:dbgheap.obj
 0003:0001f958       ??_C@_0CE@DOFMDOL@Client?5hook?5re?9allocation?5failur@ 4014e958     LIBCMTD:dbgheap.obj
 0003:0001f984       ??_C@_0DI@KKJPDPGM@Client?5hook?5re?9allocation?5failur@ 4014e984     LIBCMTD:dbgheap.obj
 0003:0001f9c8       ??_C@_1BM@OKFKJCEN@?$AA_?$AAr?$AAe?$AAc?$AAa?$AAl?$AAl?$AAo?$AAc?$AA_?$AAd?$AAb?$AAg?$AA?$AA@ 4014e9c8     LIBCMTD:dbgheap.obj
 0003:0001f9ec       ??_C@_1DO@GOKJCEHJ@?$AA?$CI?$AA_?$AAH?$AAE?$AAA?$AAP?$AA_?$AAM?$AAA?$AAX?$AAR?$AAE?$AAQ?$AA?5?$AA?1?$AA?5?$AAc?$AAo?$AAu?$AAn?$AAt?$AA?$CJ?$AA?5?$AA?$DO?$AA?$DN?$AA?5?$AAs?$AAi?$AAz?$AAe?$AA?$AA@ 4014e9ec     LIBCMTD:dbgheap.obj
 0003:0001fa38       ??_C@_1BI@HAPNGHDP@?$AA_?$AAe?$AAx?$AAp?$AAa?$AAn?$AAd?$AA_?$AAd?$AAb?$AAg?$AA?$AA@ 4014ea38     LIBCMTD:dbgheap.obj
 0003:0001fa54       ??_C@_1CE@CJACEFBA@?$AAp?$AAU?$AAs?$AAe?$AAr?$AAD?$AAa?$AAt?$AAa?$AA?5?$AA?$CB?$AA?$DN?$AA?5?$AAN?$AAU?$AAL?$AAL?$AA?$AA@ 4014ea54     LIBCMTD:dbgheap.obj
 0003:0001fa80       ??_C@_1CM@MMAADDMD@?$AA_?$AAp?$AAF?$AAi?$AAr?$AAs?$AAt?$AAB?$AAl?$AAo?$AAc?$AAk?$AA?5?$AA?$DN?$AA?$DN?$AA?5?$AAp?$AAH?$AAe?$AAa?$AAd?$AA?$AA@ 4014ea80     LIBCMTD:dbgheap.obj
 0003:0001fab4       ??_C@_1CK@DMAGEMBG@?$AA_?$AAp?$AAL?$AAa?$AAs?$AAt?$AAB?$AAl?$AAo?$AAc?$AAk?$AA?5?$AA?$DN?$AA?$DN?$AA?5?$AAp?$AAH?$AAe?$AAa?$AAd?$AA?$AA@ 4014eab4     LIBCMTD:dbgheap.obj
 0003:0001fae8       ??_C@_1DM@ODCJIDCP@?$AAp?$AAH?$AAe?$AAa?$AAd?$AA?9?$AA?$DO?$AAn?$AAB?$AAl?$AAo?$AAc?$AAk?$AAU?$AAs?$AAe?$AA?5?$AA?$DN?$AA?$DN?$AA?5?$AAn?$AAB?$AAl?$AAo?$AAc?$AAk?$AAU?$AAs?$AAe?$AA?$AA@ 4014eae8     LIBCMTD:dbgheap.obj
 0003:0001fb30       ??_C@_1HK@HPCBMDFG@?$AAp?$AAH?$AAe?$AAa?$AAd?$AA?9?$AA?$DO?$AAn?$AAL?$AAi?$AAn?$AAe?$AA?5?$AA?$DN?$AA?$DN?$AA?5?$AAI?$AAG?$AAN?$AAO?$AAR?$AAE?$AA_?$AAL?$AAI?$AAN?$AAE?$AA?5?$AA?$CG?$AA?$CG?$AA?5?$AAp@ 4014eb30     LIBCMTD:dbgheap.obj
 0003:0001fbc8       ??_C@_0IG@LEMBDCJK@HEAP?5CORRUPTION?5DETECTED?3?5after?5@ 4014ebc8     LIBCMTD:dbgheap.obj
 0003:0001fc68       ??_C@_0KE@MBMNHHHN@HEAP?5CORRUPTION?5DETECTED?3?5after?5@ 4014ec68     LIBCMTD:dbgheap.obj
 0003:0001fd30       ??_C@_0IK@PJCGLBOB@HEAP?5CORRUPTION?5DETECTED?3?5before@ 4014ed30     LIBCMTD:dbgheap.obj
 0003:0001fdd8       ??_C@_0KI@JGFOHMEB@HEAP?5CORRUPTION?5DETECTED?3?5before@ 4014edd8     LIBCMTD:dbgheap.obj
 0003:0001fea8       ??_C@_1EO@LHDAJOCM@?$AA_?$AAB?$AAL?$AAO?$AAC?$AAK?$AA_?$AAT?$AAY?$AAP?$AAE?$AA_?$AAI?$AAS?$AA_?$AAV?$AAA?$AAL?$AAI?$AAD?$AA?$CI?$AAp?$AAH?$AAe?$AAa?$AAd?$AA?9?$AA?$DO?$AAn?$AAB?$AAl?$AAo@ 4014eea8     LIBCMTD:dbgheap.obj
 0003:0001ff08       ??_C@_0BL@KEIPLFAC@Client?5hook?5free?5failure?4?6?$AA@ 4014ef08     LIBCMTD:dbgheap.obj
 0003:0001ff28       ??_C@_0EJ@HEIBCIMJ@The?5Block?5at?50x?$CFp?5was?5allocated?5@ 4014ef28     LIBCMTD:dbgheap.obj
 0003:0001ff80       ??_C@_1BG@MBKOGDLD@?$AA_?$AAm?$AAs?$AAi?$AAz?$AAe?$AA_?$AAd?$AAb?$AAg?$AA?$AA@ 4014ef80     LIBCMTD:dbgheap.obj
 0003:0001ff9c       ??_C@_0CI@JMLBEDHJ@?$CFhs?5located?5at?50x?$CFp?5is?5?$CFIu?5bytes@ 4014ef9c     LIBCMTD:dbgheap.obj
 0003:0001ffd0       ??_C@_0EG@DGJMPDBH@?$CFhs?5located?5at?50x?$CFp?5is?5?$CFIu?5bytes@ 4014efd0     LIBCMTD:dbgheap.obj
 0003:00020028       ??_C@_0IC@BBJIOOJH@HEAP?5CORRUPTION?5DETECTED?3?5on?5top@ 4014f028     LIBCMTD:dbgheap.obj
 0003:000200c8       ??_C@_0KA@IHNJJKPL@HEAP?5CORRUPTION?5DETECTED?3?5on?5top@ 4014f0c8     LIBCMTD:dbgheap.obj
 0003:00020188       ??_C@_07OHKEFPKJ@DAMAGED?$AA@ 4014f188     LIBCMTD:dbgheap.obj
 0003:00020194       ??_C@_0CL@HNNNMKMJ@_heapchk?5fails?5with?5unknown?5retu@ 4014f194     LIBCMTD:dbgheap.obj
 0003:000201c8       ??_C@_0CC@MFFCHFHO@_heapchk?5fails?5with?5_HEAPBADPTR?4@ 4014f1c8     LIBCMTD:dbgheap.obj
 0003:000201f0       ??_C@_0CC@MJGLGBDG@_heapchk?5fails?5with?5_HEAPBADEND?4@ 4014f1f0     LIBCMTD:dbgheap.obj
 0003:00020218       ??_C@_0CD@CPKEAPBD@_heapchk?5fails?5with?5_HEAPBADNODE@ 4014f218     LIBCMTD:dbgheap.obj
 0003:00020244       ??_C@_0CE@MKKHMBMK@_heapchk?5fails?5with?5_HEAPBADBEGI@ 4014f244     LIBCMTD:dbgheap.obj
 0003:00020270       ??_C@_1BO@GJFDNMNF@?$AA_?$AAC?$AAr?$AAt?$AAS?$AAe?$AAt?$AAD?$AAb?$AAg?$AAF?$AAl?$AAa?$AAg?$AA?$AA@ 4014f270     LIBCMTD:dbgheap.obj
 0003:00020298       ??_C@_1BHO@NNANJNF@?$AA?$CI?$AAf?$AAN?$AAe?$AAw?$AAB?$AAi?$AAt?$AAs?$AA?$DN?$AA?$DN?$AA_?$AAC?$AAR?$AAT?$AAD?$AAB?$AAG?$AA_?$AAR?$AAE?$AAP?$AAO?$AAR?$AAT?$AA_?$AAF?$AAL?$AAA?$AAG?$AA?$CJ?$AA?5@ 4014f298     LIBCMTD:dbgheap.obj
 0003:00020464       ??_C@_1DE@GJCKCKEC@?$AA_?$AAC?$AAr?$AAt?$AAD?$AAo?$AAF?$AAo?$AAr?$AAA?$AAl?$AAl?$AAC?$AAl?$AAi?$AAe?$AAn?$AAt?$AAO?$AAb?$AAj?$AAe?$AAc?$AAt?$AAs?$AA?$AA@ 4014f464     LIBCMTD:dbgheap.obj
 0003:000204a4       ??_C@_1BI@CJGCEEDL@?$AAp?$AAf?$AAn?$AA?5?$AA?$CB?$AA?$DN?$AA?5?$AAN?$AAU?$AAL?$AAL?$AA?$AA@ 4014f4a4     LIBCMTD:dbgheap.obj
 0003:000204c0       ??_C@_0CB@EAAIGELO@Bad?5memory?5block?5found?5at?50x?$CFp?4?6@ 4014f4c0     LIBCMTD:dbgheap.obj
 0003:000204e8       ??_C@_0DP@LEFMFBOD@Bad?5memory?5block?5found?5at?50x?$CFp?4?6@ 4014f4e8     LIBCMTD:dbgheap.obj
 0003:00020534       ??_C@_1CE@NJJKELF@?$AA_?$AAC?$AAr?$AAt?$AAM?$AAe?$AAm?$AAC?$AAh?$AAe?$AAc?$AAk?$AAp?$AAo?$AAi?$AAn?$AAt?$AA?$AA@ 4014f534     LIBCMTD:dbgheap.obj
 0003:00020560       ??_C@_1BM@MIMANDHC@?$AAs?$AAt?$AAa?$AAt?$AAe?$AA?5?$AA?$CB?$AA?$DN?$AA?5?$AAN?$AAU?$AAL?$AAL?$AA?$AA@ 4014f560     LIBCMTD:dbgheap.obj
 0003:00020584       ??_C@_1CC@DFPEDFBP@?$AAn?$AAe?$AAw?$AAS?$AAt?$AAa?$AAt?$AAe?$AA?5?$AA?$CB?$AA?$DN?$AA?5?$AAN?$AAU?$AAL?$AAL?$AA?$AA@ 4014f584     LIBCMTD:dbgheap.obj
 0003:000205ac       ??_C@_1CC@DHPFEMMN@?$AAo?$AAl?$AAd?$AAS?$AAt?$AAa?$AAt?$AAe?$AA?5?$AA?$CB?$AA?$DN?$AA?5?$AAN?$AAU?$AAL?$AAL?$AA?$AA@ 4014f5ac     LIBCMTD:dbgheap.obj
 0003:000205d4       ??_C@_1CE@PDIENACM@?$AA_?$AAC?$AAr?$AAt?$AAM?$AAe?$AAm?$AAD?$AAi?$AAf?$AAf?$AAe?$AAr?$AAe?$AAn?$AAc?$AAe?$AA?$AA@ 4014f5d4     LIBCMTD:dbgheap.obj
 0003:00020600       ??_C@_0BH@GFGKJDCO@Object?5dump?5complete?4?6?$AA@ 4014f600     LIBCMTD:dbgheap.obj
 0003:0002061c       ??_C@_0DA@MDLBNIBM@crt?5block?5at?50x?$CFp?0?5subtype?5?$CFx?0?5?$CF@ 4014f61c     LIBCMTD:dbgheap.obj
 0003:00020658       ??_C@_0CH@FAGDDGPN@normal?5block?5at?50x?$CFp?0?5?$CFIu?5bytes?5@ 4014f658     LIBCMTD:dbgheap.obj
 0003:00020688       ??_C@_0DD@GHNAAKBB@client?5block?5at?50x?$CFp?0?5subtype?5?$CFx@ 4014f688     LIBCMTD:dbgheap.obj
 0003:000206c8       ??_C@_06PKLGBFGM@?$HL?$CFld?$HN?5?$AA@ 4014f6c8     LIBCMTD:dbgheap.obj
 0003:000206d0       ??_C@_0L@JMEFFCCJ@?$CFhs?$CI?$CFd?$CJ?5?3?5?$AA@ 4014f6d0     LIBCMTD:dbgheap.obj
 0003:000206e0       ??_C@_0BE@OIEFNFL@?$CDFile?5Error?$CD?$CI?$CFd?$CJ?5?3?5?$AA@ 4014f6e0     LIBCMTD:dbgheap.obj
 0003:000206f8       ??_C@_0BE@KCIPKCIA@Dumping?5objects?5?9?$DO?6?$AA@ 4014f6f8     LIBCMTD:dbgheap.obj
 0003:00020710       ??_C@_0BA@HJBKCELP@?5Data?3?5?$DM?$CFs?$DO?5?$CFs?6?$AA@ 4014f710     LIBCMTD:dbgheap.obj
 0003:00020724       ??_C@_1CG@LPFIACGM@?$AA_?$AAp?$AAr?$AAi?$AAn?$AAt?$AAM?$AAe?$AAm?$AAB?$AAl?$AAo?$AAc?$AAk?$AAD?$AAa?$AAt?$AAa?$AA?$AA@ 4014f724     LIBCMTD:dbgheap.obj
 0003:00020754       ??_C@_0BI@JBFPOEJA@Detected?5memory?5leaks?$CB?6?$AA@ 4014f754     LIBCMTD:dbgheap.obj
 0003:00020770       ??_C@_0BP@DEDHGGGI@Total?5allocations?3?5?$CFId?5bytes?4?6?$AA@ 4014f770     LIBCMTD:dbgheap.obj
 0003:00020798       ??_C@_0CB@BLHDAFNE@Largest?5number?5used?3?5?$CFId?5bytes?4?6@ 4014f798     LIBCMTD:dbgheap.obj
 0003:000207c0       ??_C@_0BO@DACNIABB@?$CFId?5bytes?5in?5?$CFId?5?$CFhs?5Blocks?4?6?$AA@ 4014f7c0     LIBCMTD:dbgheap.obj
 0003:000207e4       ??_C@_1CM@MPNIBKGK@?$AA_?$AAC?$AAr?$AAt?$AAM?$AAe?$AAm?$AAD?$AAu?$AAm?$AAp?$AAS?$AAt?$AAa?$AAt?$AAi?$AAs?$AAt?$AAi?$AAc?$AAs?$AA?$AA@ 4014f7e4     LIBCMTD:dbgheap.obj
 0003:00020818       ??_C@_1DK@LFLKFPDA@?$AAo?$AAf?$AAf?$AAs?$AAe?$AAt?$AA?5?$AA?$DN?$AA?$DN?$AA?5?$AA0?$AA?5?$AA?$HM?$AA?$HM?$AA?5?$AAo?$AAf?$AAf?$AAs?$AAe?$AAt?$AA?5?$AA?$DM?$AA?5?$AAs?$AAi?$AAz?$AAe?$AA?$AA@ 4014f818     LIBCMTD:dbgheap.obj
 0003:00020860       ??_C@_1DG@DONCJBBJ@?$AA_?$AAa?$AAl?$AAi?$AAg?$AAn?$AAe?$AAd?$AA_?$AAo?$AAf?$AAf?$AAs?$AAe?$AAt?$AA_?$AAm?$AAa?$AAl?$AAl?$AAo?$AAc?$AA_?$AAd?$AAb?$AAg?$AA?$AA@ 4014f860     LIBCMTD:dbgheap.obj
 0003:000208a0       ??_C@_1CE@NPMGPNNP@?$AAI?$AAS?$AA_?$AA2?$AA_?$AAP?$AAO?$AAW?$AA_?$AAN?$AA?$CI?$AAa?$AAl?$AAi?$AAg?$AAn?$AA?$CJ?$AA?$AA@ 4014f8a0     LIBCMTD:dbgheap.obj
 0003:000208cc       ??_C@_1DI@NINIKFFK@?$AA_?$AAa?$AAl?$AAi?$AAg?$AAn?$AAe?$AAd?$AA_?$AAo?$AAf?$AAf?$AAs?$AAe?$AAt?$AA_?$AAr?$AAe?$AAa?$AAl?$AAl?$AAo?$AAc?$AA_?$AAd?$AAb?$AAg?$AA?$AA@ 4014f8cc     LIBCMTD:dbgheap.obj
 0003:00020910       ??_C@_0DL@PGHMMKNE@Damage?5before?50x?$CFp?5which?5was?5all@ 4014f910     LIBCMTD:dbgheap.obj
 0003:00020958       ??_C@_0EI@NDNJMAJK@The?5block?5at?50x?$CFp?5was?5not?5alloca@ 4014f958     LIBCMTD:dbgheap.obj
 0003:000209b0       ??_C@_1DK@MMLHIFFH@?$AA_?$AAa?$AAl?$AAi?$AAg?$AAn?$AAe?$AAd?$AA_?$AAo?$AAf?$AAf?$AAs?$AAe?$AAt?$AA_?$AAr?$AAe?$AAc?$AAa?$AAl?$AAl?$AAo?$AAc?$AA_?$AAd?$AAb?$AAg?$AA?$AA@ 4014f9b0     LIBCMTD:dbgheap.obj
 0003:000209f8       ??_C@_0EF@PGELACII@The?5block?5at?50x?$CFp?5was?5not?5alloca@ 4014f9f8     LIBCMTD:dbgheap.obj
 0003:00020a4c       ??_C@_1CG@CEGMHIMN@?$AA_?$AAa?$AAl?$AAi?$AAg?$AAn?$AAe?$AAd?$AA_?$AAm?$AAs?$AAi?$AAz?$AAe?$AA_?$AAd?$AAb?$AAg?$AA?$AA@ 4014fa4c     LIBCMTD:dbgheap.obj
 0003:00020a7c       ??_C@_1CC@MOBIKHH@?$AAm?$AAe?$AAm?$AAb?$AAl?$AAo?$AAc?$AAk?$AA?5?$AA?$CB?$AA?$DN?$AA?5?$AAN?$AAU?$AAL?$AAL?$AA?$AA@ 4014fa7c     LIBCMTD:dbgheap.obj
 0003:00020aa4       ??_C@_0DA@NBLAKPEL@f?3?2dd?2vctools?2crt_bld?2self_x86?2c@ 4014faa4     LIBCMTD:ioinit.obj
 0003:00020ae0       ??_C@_1DE@MMOGFGHF@?$AAs?$AAt?$AAr?$AAc?$AAp?$AAy?$AA_?$AAs?$AA?$CI?$AA?$CK?$AAe?$AAn?$AAv?$AA?0?$AA?5?$AAc?$AAc?$AAh?$AAa?$AAr?$AAs?$AA?0?$AA?5?$AAp?$AA?$CJ?$AA?$AA@ 4014fae0     LIBCMTD:stdenvp.obj
 0003:00020b20       ??_C@_1BC@GHMCNHHL@?$AA_?$AAs?$AAe?$AAt?$AAe?$AAn?$AAv?$AAp?$AA?$AA@ 4014fb20     LIBCMTD:stdenvp.obj
 0003:00020b38       ??_C@_1GC@DGBFLDBN@?$AAf?$AA?3?$AA?2?$AAd?$AAd?$AA?2?$AAv?$AAc?$AAt?$AAo?$AAo?$AAl?$AAs?$AA?2?$AAc?$AAr?$AAt?$AA_?$AAb?$AAl?$AAd?$AA?2?$AAs?$AAe?$AAl?$AAf?$AA_?$AAx?$AA8?$AA6?$AA?2?$AAc@ 4014fb38     LIBCMTD:stdenvp.obj
 0003:00020bb0       ??_C@_0DB@BMEBJJKP@f?3?2dd?2vctools?2crt_bld?2self_x86?2c@ 4014fbb0     LIBCMTD:stdenvp.obj
 0003:00020bec       ??_C@_0DB@OEPBJOLC@f?3?2dd?2vctools?2crt_bld?2self_x86?2c@ 4014fbec     LIBCMTD:stdargv.obj
 0003:00020c28       ??_C@_0CP@PPLBCJDN@f?3?2dd?2vctools?2crt_bld?2self_x86?2c@ 4014fc28     LIBCMTD:a_env.obj
 0003:00020c60       ??_C@_1GE@JDDMFOID@?$AAf?$AA?3?$AA?2?$AAd?$AAd?$AA?2?$AAv?$AAc?$AAt?$AAo?$AAo?$AAl?$AAs?$AA?2?$AAc?$AAr?$AAt?$AA_?$AAb?$AAl?$AAd?$AA?2?$AAs?$AAe?$AAl?$AAf?$AA_?$AAx?$AA8?$AA6?$AA?2?$AAc@ 4014fc60     LIBCMTD:heapinit.obj
 0003:00020cd8       ??_C@_1BC@DENNNKIM@?$AA_?$AAc?$AAr?$AAt?$AAh?$AAe?$AAa?$AAp?$AA?$AA@ 4014fcd8     LIBCMTD:heapinit.obj
 0003:00020cf0       __XcptActTab               4014fcf0     LIBCMTD:winxfltr.obj
 0003:00020d80       ??_C@_0BB@NAGLCMLI@Assertion?5Failed?$AA@ 4014fd80     LIBCMTD:dbgrpt.obj
 0003:00020d94       ??_C@_05NAOIJFC@Error?$AA@ 4014fd94     LIBCMTD:dbgrpt.obj
 0003:00020d9c       ??_C@_07KGMMFLDN@Warning?$AA@ 4014fd9c     LIBCMTD:dbgrpt.obj
 0003:00020db8       ??_C@_1CG@GNMJDMIO@?$AA_?$AAC?$AAr?$AAt?$AAS?$AAe?$AAt?$AAR?$AAe?$AAp?$AAo?$AAr?$AAt?$AAH?$AAo?$AAo?$AAk?$AA2?$AA?$AA@ 4014fdb8     LIBCMTD:dbgrpt.obj
 0003:00020de8       ??_C@_0CD@EBCGLDDL@Microsoft?5Visual?5C?$CL?$CL?5Debug?5Libra@ 4014fde8     LIBCMTD:dbgrpt.obj
 0003:00020e14       ??_C@_0CL@EACFGMNB@_CrtDbgReport?3?5String?5too?5long?5o@ 4014fe14     LIBCMTD:dbgrpt.obj
 0003:00020e48       ??_C@_1JG@CPKCIOEE@?$AAs?$AAt?$AAr?$AAc?$AAp?$AAy?$AA_?$AAs?$AA?$CI?$AAs?$AAz?$AAO?$AAu?$AAt?$AAM?$AAe?$AAs?$AAs?$AAa?$AAg?$AAe?$AA?0?$AA?5?$AA4?$AA0?$AA9?$AA6?$AA?0?$AA?5?$AA?$CC?$AA_?$AAC@ 4014fe48     LIBCMTD:dbgrpt.obj
 0003:00020f00       ??_C@_0FF@CCONDJCB@Debug?5?$CFs?$CB?6?6Program?3?5?$CFs?$CFs?$CFs?$CFs?$CFs?$CFs@ 4014ff00     LIBCMTD:dbgrpt.obj
 0003:00020f68       ??_C@_09OFBFHMBK@?6Module?3?5?$AA@ 4014ff68     LIBCMTD:dbgrpt.obj
 0003:00020f74       ??_C@_07OPHPPLBG@?6File?3?5?$AA@ 4014ff74     LIBCMTD:dbgrpt.obj
 0003:00020f80       ??_C@_07DBMPPHDI@?6Line?3?5?$AA@ 4014ff80     LIBCMTD:dbgrpt.obj
 0003:00020f8c       ??_C@_02PHMGELLB@?6?6?$AA@ 4014ff8c     LIBCMTD:dbgrpt.obj
 0003:00020f90       ??_C@_0N@MEECIJGN@Expression?3?5?$AA@ 4014ff90     LIBCMTD:dbgrpt.obj
 0003:00020fa0       ??_C@_0HD@GNBNFCCL@?6?6For?5information?5on?5how?5your?5pr@ 4014ffa0     LIBCMTD:dbgrpt.obj
 0003:0002102c       ??_C@_0BH@DNAGHKFM@?$DMprogram?5name?5unknown?$DO?$AA@ 4015002c     LIBCMTD:dbgrpt.obj
 0003:00021048       ??_C@_1GG@DLDHOIGE@?$AAs?$AAt?$AAr?$AAc?$AAp?$AAy?$AA_?$AAs?$AA?$CI?$AAs?$AAz?$AAE?$AAx?$AAe?$AAN?$AAa?$AAm?$AAe?$AA?0?$AA?5?$AA2?$AA6?$AA0?$AA?0?$AA?5?$AA?$CC?$AA?$DM?$AAp?$AAr?$AAo?$AAg?$AAr@ 40150048     LIBCMTD:dbgrpt.obj
 0003:000210c4       ??_C@_1CI@IDOKFLAJ@?$AA_?$AA_?$AAc?$AAr?$AAt?$AAM?$AAe?$AAs?$AAs?$AAa?$AAg?$AAe?$AAW?$AAi?$AAn?$AAd?$AAo?$AAw?$AAA?$AA?$AA@ 401500c4     LIBCMTD:dbgrpt.obj
 0003:000210f4       ??_C@_1BK@CDOALEA@?$AA_?$AAc?$AAo?$AAn?$AAt?$AAr?$AAo?$AAl?$AAf?$AAp?$AA_?$AAs?$AA?$AA@ 401500f4     LIBCMTD:_contrlfp_.obj
 0003:00021118       ??_C@_1HI@JIOCECAH@?$AAf?$AA?3?$AA?2?$AAd?$AAd?$AA?2?$AAv?$AAc?$AAt?$AAo?$AAo?$AAl?$AAs?$AA?2?$AAc?$AAr?$AAt?$AA_?$AAb?$AAl?$AAd?$AA?2?$AAs?$AAe?$AAl?$AAf?$AA_?$AAx?$AA8?$AA6?$AA?2?$AAc@ 40150118     LIBCMTD:_contrlfp_.obj
 0003:000211a8       ??_C@_1DG@JNDMIEJL@?$AA?$CI?$AA?$CC?$AAI?$AAn?$AAv?$AAa?$AAl?$AAi?$AAd?$AA?5?$AAi?$AAn?$AAp?$AAu?$AAt?$AA?5?$AAv?$AAa?$AAl?$AAu?$AAe?$AA?$CC?$AA?0?$AA?5?$AA0?$AA?$CJ?$AA?$AA@ 401501a8     LIBCMTD:_contrlfp_.obj
 0003:000211e8       ??_C@_1BK@CLIEHFDF@?$AAp?$AAf?$AAl?$AAt?$AA?5?$AA?$CB?$AA?$DN?$AA?5?$AAN?$AAU?$AAL?$AAL?$AA?$AA@ 401501e8     LIBCMTD:_fptostr.obj
 0003:00021208       ??_C@_1GM@CEDLGDDI@?$AAs?$AAi?$AAz?$AAe?$AAI?$AAn?$AAB?$AAy?$AAt?$AAe?$AAs?$AA?5?$AA?$DO?$AA?5?$AA?$CI?$AAs?$AAi?$AAz?$AAe?$AA_?$AAt?$AA?$CJ?$AA?$CI?$AA?$CI?$AAd?$AAi?$AAg?$AAi?$AAt?$AAs?$AA?5?$AA?$DO@ 40150208     LIBCMTD:_fptostr.obj
 0003:0002128c       ??_C@_1BC@OPALLEB@?$AA_?$AAf?$AAp?$AAt?$AAo?$AAs?$AAt?$AAr?$AA?$AA@ 4015028c     LIBCMTD:_fptostr.obj
 0003:000212a8       ??_C@_1GE@BDKOPHIO@?$AAf?$AA?3?$AA?2?$AAd?$AAd?$AA?2?$AAv?$AAc?$AAt?$AAo?$AAo?$AAl?$AAs?$AA?2?$AAc?$AAr?$AAt?$AA_?$AAb?$AAl?$AAd?$AA?2?$AAs?$AAe?$AAl?$AAf?$AA_?$AAx?$AA8?$AA6?$AA?2?$AAc@ 401502a8     LIBCMTD:_fptostr.obj
 0003:00021320       ??_C@_1FK@KODCOBKF@?$AAs?$AAt?$AAr?$AAc?$AAp?$AAy?$AA_?$AAs?$AA?$CI?$AAr?$AAe?$AAs?$AAu?$AAl?$AAt?$AAs?$AAt?$AAr?$AA?0?$AA?5?$AAr?$AAe?$AAs?$AAu?$AAl?$AAt?$AAs?$AAi?$AAz?$AAe?$AA?0?$AA?5@ 40150320     LIBCMTD:_cfout_.obj
 0003:0002138c       ??_C@_1BC@BPMMEHLK@?$AA_?$AAf?$AAl?$AAt?$AAo?$AAu?$AAt?$AA2?$AA?$AA@ 4015038c     LIBCMTD:_cfout_.obj
 0003:000213a8       ??_C@_1HC@PKFDNKN@?$AAf?$AA?3?$AA?2?$AAd?$AAd?$AA?2?$AAv?$AAc?$AAt?$AAo?$AAo?$AAl?$AAs?$AA?2?$AAc?$AAr?$AAt?$AA_?$AAb?$AAl?$AAd?$AA?2?$AAs?$AAe?$AAl?$AAf?$AA_?$AAx?$AA8?$AA6?$AA?2?$AAc@ 401503a8     LIBCMTD:_cfout_.obj
 0003:00021430       ??_C@_1CG@EBJECAJM@?$AA_?$AAs?$AAe?$AAt?$AA_?$AAo?$AAu?$AAt?$AAp?$AAu?$AAt?$AA_?$AAf?$AAo?$AAr?$AAm?$AAa?$AAt?$AA?$AA@ 40150430     LIBCMTD:outputformat.obj
 0003:00021460       ??_C@_1GM@NFGGJJCM@?$AAf?$AA?3?$AA?2?$AAd?$AAd?$AA?2?$AAv?$AAc?$AAt?$AAo?$AAo?$AAl?$AAs?$AA?2?$AAc?$AAr?$AAt?$AA_?$AAb?$AAl?$AAd?$AA?2?$AAs?$AAe?$AAl?$AAf?$AA_?$AAx?$AA8?$AA6?$AA?2?$AAc@ 40150460     LIBCMTD:outputformat.obj
 0003:000214e8       ??_C@_1EM@EGEEBJLG@?$AA?$CI?$AAo?$AAp?$AAt?$AAi?$AAo?$AAn?$AAs?$AA?5?$AA?$CG?$AA?5?$AA?$HO?$AA_?$AAT?$AAW?$AAO?$AA_?$AAD?$AAI?$AAG?$AAI?$AAT?$AA_?$AAE?$AAX?$AAP?$AAO?$AAN?$AAE?$AAN?$AAT?$AA?$CJ@ 401504e8     LIBCMTD:outputformat.obj
 0003:00021544       ??_C@_1BC@CFJEPFGF@?$AAs?$AAt?$AAr?$AAc?$AAp?$AAy?$AA_?$AAs?$AA?$AA@ 40150544     LIBCMTD:strcpy_s.obj
 0003:00021560       ??_C@_1FC@NCPEPIBI@?$AA?$CI?$AA?$CI?$AA_?$AAD?$AAs?$AAt?$AA?$CJ?$AA?$CJ?$AA?5?$AA?$CB?$AA?$DN?$AA?5?$AAN?$AAU?$AAL?$AAL?$AA?5?$AA?$CG?$AA?$CG?$AA?5?$AA?$CI?$AA?$CI?$AA_?$AAS?$AAi?$AAz?$AAe?$AAI?$AAn?$AAB?$AAy?$AAt@ 40150560     LIBCMTD:strcpy_s.obj
 0003:000215c4       ??_C@_0CP@MKONOLCI@f?3?2dd?2vctools?2crt_bld?2self_x86?2c@ 401505c4     LIBCMTD:mlock.obj
 0003:00021600       ??_C@_1NK@LOFHIHFC@?$AAf?$AAM?$AAo?$AAd?$AAe?$AA?5?$AA?$DN?$AA?$DN?$AA?5?$AA_?$AAC?$AAR?$AAT?$AAD?$AAB?$AAG?$AA_?$AAR?$AAE?$AAP?$AAO?$AAR?$AAT?$AA_?$AAM?$AAO?$AAD?$AAE?$AA?5?$AA?$HM?$AA?$HM?$AA?5@ 40150600     LIBCMTD:dbgrptt.obj
 0003:00021708       ??_C@_1CE@FIHIECNJ@?$AA_?$AAC?$AAr?$AAt?$AAS?$AAe?$AAt?$AAR?$AAe?$AAp?$AAo?$AAr?$AAt?$AAM?$AAo?$AAd?$AAe?$AA?$AA@ 40150708     LIBCMTD:dbgrptt.obj
 0003:00021738       ??_C@_1GC@FIGJJMEN@?$AAf?$AA?3?$AA?2?$AAd?$AAd?$AA?2?$AAv?$AAc?$AAt?$AAo?$AAo?$AAl?$AAs?$AA?2?$AAc?$AAr?$AAt?$AA_?$AAb?$AAl?$AAd?$AA?2?$AAs?$AAe?$AAl?$AAf?$AA_?$AAx?$AA8?$AA6?$AA?2?$AAc@ 40150738     LIBCMTD:dbgrptt.obj
 0003:000217b0       ??_C@_1FA@IFFFOLDJ@?$AAn?$AAR?$AAp?$AAt?$AAT?$AAy?$AAp?$AAe?$AA?5?$AA?$DO?$AA?$DN?$AA?5?$AA0?$AA?5?$AA?$CG?$AA?$CG?$AA?5?$AAn?$AAR?$AAp?$AAt?$AAT?$AAy?$AAp?$AAe?$AA?5?$AA?$DM?$AA?5?$AA_?$AAC?$AAR?$AAT@ 401507b0     LIBCMTD:dbgrptt.obj
 0003:00021810       ??_C@_1CE@IKKEDCME@?$AA_?$AAC?$AAr?$AAt?$AAS?$AAe?$AAt?$AAR?$AAe?$AAp?$AAo?$AAr?$AAt?$AAF?$AAi?$AAl?$AAe?$AA?$AA@ 40150810     LIBCMTD:dbgrptt.obj
 0003:00021840       ??_C@_1HO@PJOFIKFE@?$AA_?$AAC?$AAr?$AAt?$AAD?$AAb?$AAg?$AAR?$AAe?$AAp?$AAo?$AAr?$AAt?$AA?3?$AA?5?$AAS?$AAt?$AAr?$AAi?$AAn?$AAg?$AA?5?$AAt?$AAo?$AAo?$AA?5?$AAl?$AAo?$AAn?$AAg?$AA?5?$AAo@ 40150840     LIBCMTD:dbgrptt.obj
 0003:000218d8       ??_C@_1MC@IGEECMDB@?$AAw?$AAc?$AAs?$AAc?$AAp?$AAy?$AA_?$AAs?$AA?$CI?$AAs?$AAz?$AAO?$AAu?$AAt?$AAM?$AAe?$AAs?$AAs?$AAa?$AAg?$AAe?$AA2?$AA?0?$AA?5?$AA4?$AA0?$AA9?$AA6?$AA?0?$AA?5?$AAL?$AA?$CC@ 401508d8     LIBCMTD:dbgrptt.obj
 0003:000219c0       ??_C@_1IM@OOKIFKOH@?$AAe?$AA?5?$AA?$DN?$AA?5?$AAm?$AAb?$AAs?$AAt?$AAo?$AAw?$AAc?$AAs?$AA_?$AAs?$AA?$CI?$AA?$CG?$AAr?$AAe?$AAt?$AA?0?$AA?5?$AAs?$AAz?$AAO?$AAu?$AAt?$AAM?$AAe?$AAs?$AAs?$AAa?$AAg@ 401509c0     LIBCMTD:dbgrptt.obj
 0003:00021a68       ??_C@_1FI@IBIOIHEG@?$AAs?$AAt?$AAr?$AAc?$AAp?$AAy?$AA_?$AAs?$AA?$CI?$AAs?$AAz?$AAO?$AAu?$AAt?$AAM?$AAe?$AAs?$AAs?$AAa?$AAg?$AAe?$AA?0?$AA?5?$AA4?$AA0?$AA9?$AA6?$AA?0?$AA?5?$AAs?$AAz?$AAL@ 40150a68     LIBCMTD:dbgrptt.obj
 0003:00021ad4       ??_C@_0M@IPILFDFN@?$CFs?$CI?$CFd?$CJ?5?3?5?$CFs?$AA@ 40150ad4     LIBCMTD:dbgrptt.obj
 0003:00021ae8       ??_C@_1EI@LDHJEDO@?$AAs?$AAt?$AAr?$AAc?$AAa?$AAt?$AA_?$AAs?$AA?$CI?$AAs?$AAz?$AAL?$AAi?$AAn?$AAe?$AAM?$AAe?$AAs?$AAs?$AAa?$AAg?$AAe?$AA?0?$AA?5?$AA4?$AA0?$AA9?$AA6?$AA?0?$AA?5?$AA?$CC?$AA?2@ 40150ae8     LIBCMTD:dbgrptt.obj
 0003:00021b40       ??_C@_01LIIJDEN@?$AN?$AA@  40150b40     LIBCMTD:dbgrptt.obj
 0003:00021b48       ??_C@_1EI@CACDLAFK@?$AAs?$AAt?$AAr?$AAc?$AAa?$AAt?$AA_?$AAs?$AA?$CI?$AAs?$AAz?$AAL?$AAi?$AAn?$AAe?$AAM?$AAe?$AAs?$AAs?$AAa?$AAg?$AAe?$AA?0?$AA?5?$AA4?$AA0?$AA9?$AA6?$AA?0?$AA?5?$AA?$CC?$AA?2@ 40150b48     LIBCMTD:dbgrptt.obj
 0003:00021ba0       ??_C@_1FK@NPGBPOFO@?$AAs?$AAt?$AAr?$AAc?$AAa?$AAt?$AA_?$AAs?$AA?$CI?$AAs?$AAz?$AAL?$AAi?$AAn?$AAe?$AAM?$AAe?$AAs?$AAs?$AAa?$AAg?$AAe?$AA?0?$AA?5?$AA4?$AA0?$AA9?$AA6?$AA?0?$AA?5?$AAs?$AAz@ 40150ba0     LIBCMTD:dbgrptt.obj
 0003:00021c10       ??_C@_1KK@GIGAEDMO@?$AAs?$AAt?$AAr?$AAc?$AAp?$AAy?$AA_?$AAs?$AA?$CI?$AAs?$AAz?$AAL?$AAi?$AAn?$AAe?$AAM?$AAe?$AAs?$AAs?$AAa?$AAg?$AAe?$AA?0?$AA?5?$AA4?$AA0?$AA9?$AA6?$AA?0?$AA?5?$AAs?$AAz@ 40150c10     LIBCMTD:dbgrptt.obj
 0003:00021cdc       ??_C@_0BC@LAIDCHCH@Assertion?5failed?$CB?$AA@ 40150cdc     LIBCMTD:dbgrptt.obj
 0003:00021cf4       ??_C@_0BD@CAENFOHP@Assertion?5failed?3?5?$AA@ 40150cf4     LIBCMTD:dbgrptt.obj
 0003:00021d10       ??_C@_1JI@GAALPGBM@?$AAs?$AAt?$AAr?$AAc?$AAp?$AAy?$AA_?$AAs?$AA?$CI?$AAs?$AAz?$AAU?$AAs?$AAe?$AAr?$AAM?$AAe?$AAs?$AAs?$AAa?$AAg?$AAe?$AA?0?$AA?5?$AA4?$AA0?$AA9?$AA6?$AA?0?$AA?5?$AA?$CC?$AA_@ 40150d10     LIBCMTD:dbgrptt.obj
 0003:00021dc8       ??_C@_07BHGABMGB@?0?5Line?5?$AA@ 40150dc8     LIBCMTD:dbgrptt.obj
 0003:00021dd4       ??_C@_0P@DFJNDPOP@?$DMfile?5unknown?$DO?$AA@ 40150dd4     LIBCMTD:dbgrptt.obj
 0003:00021de8       ??_C@_0CG@BNGLOCEO@Second?5Chance?5Assertion?5Failed?3?5@ 40150de8     LIBCMTD:dbgrptt.obj
 0003:00021e18       ??_C@_1FA@JPHJBHEM@?$AA_?$AAi?$AAt?$AAo?$AAa?$AA_?$AAs?$AA?$CI?$AAn?$AAL?$AAi?$AAn?$AAe?$AA?0?$AA?5?$AAs?$AAz?$AAL?$AAi?$AAn?$AAe?$AAM?$AAe?$AAs?$AAs?$AAa?$AAg?$AAe?$AA?0?$AA?5?$AA4?$AA0@ 40150e18     LIBCMTD:dbgrptt.obj
 0003:00021e78       ??_C@_1CA@KHJHLKA@?$AA_?$AAV?$AAC?$AAr?$AAt?$AAD?$AAb?$AAg?$AAR?$AAe?$AAp?$AAo?$AAr?$AAt?$AAA?$AA?$AA@ 40150e78     LIBCMTD:dbgrptt.obj
 0003:00021ea0       ??_C@_1IE@CPGKIAGP@?$AAw?$AAc?$AAs?$AAt?$AAo?$AAm?$AAb?$AAs?$AA_?$AAs?$AA?$CI?$AA?$CG?$AAr?$AAe?$AAt?$AA?0?$AA?5?$AAs?$AAz?$AAa?$AAO?$AAu?$AAt?$AAM?$AAe?$AAs?$AAs?$AAa?$AAg?$AAe?$AA?0?$AA?5@ 40150ea0     LIBCMTD:dbgrptt.obj
 0003:00021f40       ??_C@_0DP@GNPEPHJD@_CrtDbgReport?3?5String?5too?5long?5o@ 40150f40     LIBCMTD:dbgrptt.obj
 0003:00021f90       ??_C@_1MA@LBAMNNOB@?$AAs?$AAt?$AAr?$AAc?$AAp?$AAy?$AA_?$AAs?$AA?$CI?$AAs?$AAz?$AAO?$AAu?$AAt?$AAM?$AAe?$AAs?$AAs?$AAa?$AAg?$AAe?$AA2?$AA?0?$AA?5?$AA4?$AA0?$AA9?$AA6?$AA?0?$AA?5?$AA?$CC?$AA_@ 40150f90     LIBCMTD:dbgrptt.obj
 0003:00022078       ??_C@_1JC@EOAPFDLN@?$AAw?$AAc?$AAs?$AAt?$AAo?$AAm?$AAb?$AAs?$AA_?$AAs?$AA?$CI?$AA?$CI?$AA?$CI?$AAv?$AAo?$AAi?$AAd?$AA?5?$AA?$CK?$AA?$CJ?$AA0?$AA?$CJ?$AA?0?$AA?5?$AAs?$AAz?$AAO?$AAu?$AAt?$AAM?$AAe?$AAs@ 40151078     LIBCMTD:dbgrptt.obj
 0003:00022128       ??_C@_1FI@DBAIJPJE@?$AAw?$AAc?$AAs?$AAc?$AAp?$AAy?$AA_?$AAs?$AA?$CI?$AAs?$AAz?$AAO?$AAu?$AAt?$AAM?$AAe?$AAs?$AAs?$AAa?$AAg?$AAe?$AA?0?$AA?5?$AA4?$AA0?$AA9?$AA6?$AA?0?$AA?5?$AAs?$AAz?$AAL@ 40151128     LIBCMTD:dbgrptt.obj
 0003:00022194       ??_C@_1BI@JIDBEPIG@?$AA?$CF?$AAs?$AA?$CI?$AA?$CF?$AAd?$AA?$CJ?$AA?5?$AA?3?$AA?5?$AA?$CF?$AAs?$AA?$AA@ 40151194     LIBCMTD:dbgrptt.obj
 0003:000221b0       ??_C@_1EK@PHCBEDKB@?$AAw?$AAc?$AAs?$AAc?$AAa?$AAt?$AA_?$AAs?$AA?$CI?$AAs?$AAz?$AAL?$AAi?$AAn?$AAe?$AAM?$AAe?$AAs?$AAs?$AAa?$AAg?$AAe?$AA?0?$AA?5?$AA4?$AA0?$AA9?$AA6?$AA?0?$AA?5?$AAL?$AA?$CC@ 401511b0     LIBCMTD:dbgrptt.obj
 0003:00022208       ??_C@_13CMNBPIDO@?$AA?$AN?$AA?$AA@ 40151208     LIBCMTD:dbgrptt.obj
 0003:00022210       ??_C@_1EK@NMDFGHMF@?$AAw?$AAc?$AAs?$AAc?$AAa?$AAt?$AA_?$AAs?$AA?$CI?$AAs?$AAz?$AAL?$AAi?$AAn?$AAe?$AAM?$AAe?$AAs?$AAs?$AAa?$AAg?$AAe?$AA?0?$AA?5?$AA4?$AA0?$AA9?$AA6?$AA?0?$AA?5?$AAL?$AA?$CC@ 40151210     LIBCMTD:dbgrptt.obj
 0003:00022268       ??_C@_1FK@HPADHBBD@?$AAw?$AAc?$AAs?$AAc?$AAa?$AAt?$AA_?$AAs?$AA?$CI?$AAs?$AAz?$AAL?$AAi?$AAn?$AAe?$AAM?$AAe?$AAs?$AAs?$AAa?$AAg?$AAe?$AA?0?$AA?5?$AA4?$AA0?$AA9?$AA6?$AA?0?$AA?5?$AAs?$AAz@ 40151268     LIBCMTD:dbgrptt.obj
 0003:000222d8       ??_C@_1KO@DGAHENCH@?$AAw?$AAc?$AAs?$AAc?$AAp?$AAy?$AA_?$AAs?$AA?$CI?$AAs?$AAz?$AAL?$AAi?$AAn?$AAe?$AAM?$AAe?$AAs?$AAs?$AAa?$AAg?$AAe?$AA?0?$AA?5?$AA4?$AA0?$AA9?$AA6?$AA?0?$AA?5?$AAs?$AAz@ 401512d8     LIBCMTD:dbgrptt.obj
 0003:000223a8       ??_C@_1CG@FFFGGODN@?$AAA?$AAs?$AAs?$AAe?$AAr?$AAt?$AAi?$AAo?$AAn?$AA?5?$AAf?$AAa?$AAi?$AAl?$AAe?$AAd?$AA?3?$AA?5?$AA?$AA@ 401513a8     LIBCMTD:dbgrptt.obj
 0003:000223d8       ??_C@_1JK@KHFABAEO@?$AAw?$AAc?$AAs?$AAc?$AAp?$AAy?$AA_?$AAs?$AA?$CI?$AAs?$AAz?$AAU?$AAs?$AAe?$AAr?$AAM?$AAe?$AAs?$AAs?$AAa?$AAg?$AAe?$AA?0?$AA?5?$AA4?$AA0?$AA9?$AA6?$AA?0?$AA?5?$AAL?$AA?$CC@ 401513d8     LIBCMTD:dbgrptt.obj
 0003:00022490       ??_C@_1BA@ELMMDCFC@?$AA?0?$AA?5?$AAL?$AAi?$AAn?$AAe?$AA?5?$AA?$AA@ 40151490     LIBCMTD:dbgrptt.obj
 0003:000224a4       ??_C@_1BO@OCHMLCAG@?$AA?$DM?$AAf?$AAi?$AAl?$AAe?$AA?5?$AAu?$AAn?$AAk?$AAn?$AAo?$AAw?$AAn?$AA?$DO?$AA?$AA@ 401514a4     LIBCMTD:dbgrptt.obj
 0003:000224c8       ??_C@_1EM@MJFLEDMB@?$AAS?$AAe?$AAc?$AAo?$AAn?$AAd?$AA?5?$AAC?$AAh?$AAa?$AAn?$AAc?$AAe?$AA?5?$AAA?$AAs?$AAs?$AAe?$AAr?$AAt?$AAi?$AAo?$AAn?$AA?5?$AAF?$AAa?$AAi?$AAl?$AAe?$AAd?$AA?3?$AA?5@ 401514c8     LIBCMTD:dbgrptt.obj
 0003:00022528       ??_C@_1FA@CNLLOMHI@?$AA_?$AAi?$AAt?$AAo?$AAw?$AA_?$AAs?$AA?$CI?$AAn?$AAL?$AAi?$AAn?$AAe?$AA?0?$AA?5?$AAs?$AAz?$AAL?$AAi?$AAn?$AAe?$AAM?$AAe?$AAs?$AAs?$AAa?$AAg?$AAe?$AA?0?$AA?5?$AA4?$AA0@ 40151528     LIBCMTD:dbgrptt.obj
 0003:00022588       ??_C@_1CA@HPALHDOD@?$AA_?$AAV?$AAC?$AAr?$AAt?$AAD?$AAb?$AAg?$AAR?$AAe?$AAp?$AAo?$AAr?$AAt?$AAW?$AA?$AA@ 40151588     LIBCMTD:dbgrptt.obj
 0003:000225b0       ??_C@_1BE@BMIJMLDD@?$AA_?$AAs?$AAw?$AAp?$AAr?$AAi?$AAn?$AAt?$AAf?$AA?$AA@ 401515b0     LIBCMTD:swprintf.obj
 0003:000225c8       ??_C@_1GE@DKGHLBLP@?$AAf?$AA?3?$AA?2?$AAd?$AAd?$AA?2?$AAv?$AAc?$AAt?$AAo?$AAo?$AAl?$AAs?$AA?2?$AAc?$AAr?$AAt?$AA_?$AAb?$AAl?$AAd?$AA?2?$AAs?$AAe?$AAl?$AAf?$AA_?$AAx?$AA8?$AA6?$AA?2?$AAc@ 401515c8     LIBCMTD:swprintf.obj
 0003:00022640       ??_C@_1CK@DDKKOLAN@?$AAs?$AAi?$AAz?$AAe?$AAI?$AAn?$AAB?$AAy?$AAt?$AAe?$AAs?$AA?5?$AA?$DO?$AA?$DN?$AA?5?$AAc?$AAo?$AAu?$AAn?$AAt?$AA?$AA@ 40151640     LIBCMTD:memcpy_s.obj
 0003:00022674       ??_C@_1BI@DCHLDCPP@?$AAs?$AAr?$AAc?$AA?5?$AA?$CB?$AA?$DN?$AA?5?$AAN?$AAU?$AAL?$AAL?$AA?$AA@ 40151674     LIBCMTD:memcpy_s.obj
 0003:00022690       ??_C@_1BC@GKHDJMGB@?$AAm?$AAe?$AAm?$AAc?$AAp?$AAy?$AA_?$AAs?$AA?$AA@ 40151690     LIBCMTD:memcpy_s.obj
 0003:000226a8       ??_C@_1GE@NEOPGGBM@?$AAf?$AA?3?$AA?2?$AAd?$AAd?$AA?2?$AAv?$AAc?$AAt?$AAo?$AAo?$AAl?$AAs?$AA?2?$AAc?$AAr?$AAt?$AA_?$AAb?$AAl?$AAd?$AA?2?$AAs?$AAe?$AAl?$AAf?$AA_?$AAx?$AA8?$AA6?$AA?2?$AAc@ 401516a8     LIBCMTD:memcpy_s.obj
 0003:00022720       ??_C@_1BI@GKKCBDMD@?$AAd?$AAs?$AAt?$AA?5?$AA?$CB?$AA?$DN?$AA?5?$AAN?$AAU?$AAL?$AAL?$AA?$AA@ 40151720     LIBCMTD:memcpy_s.obj
 0003:00022740       ___newctype                40151740     LIBCMTD:ctype.obj
 0003:00022a40       __wctype                   40151a40     LIBCMTD:ctype.obj
 0003:00022c48       ___newclmap                40151c48     LIBCMTD:ctype.obj
 0003:00022dc8       ___newcumap                40151dc8     LIBCMTD:ctype.obj
 0003:000230e8       ??_C@_1GE@GJCMHHMH@?$AAf?$AA?3?$AA?2?$AAd?$AAd?$AA?2?$AAv?$AAc?$AAt?$AAo?$AAo?$AAl?$AAs?$AA?2?$AAc?$AAr?$AAt?$AA_?$AAb?$AAl?$AAd?$AA?2?$AAs?$AAe?$AAl?$AAf?$AA_?$AAx?$AA8?$AA6?$AA?2?$AAc@ 401520e8     LIBCMTD:inittime.obj
 0003:00023160       ??_C@_1EE@FDHCFDHN@?$AAp?$AAl?$AAo?$AAc?$AAi?$AA?9?$AA?$DO?$AAl?$AAc?$AA_?$AAt?$AAi?$AAm?$AAe?$AA_?$AAc?$AAu?$AAr?$AAr?$AA?9?$AA?$DO?$AAr?$AAe?$AAf?$AAc?$AAo?$AAu?$AAn?$AAt?$AA?5?$AA?$DO?$AA?5@ 40152160     LIBCMTD:inittime.obj
 0003:000231b4       ??_C@_0DC@KICHHNFK@f?3?2dd?2vctools?2crt_bld?2self_x86?2c@ 401521b4     LIBCMTD:inittime.obj
 0003:000231f0       ??_C@_1GC@EDJOCBCL@?$AAf?$AA?3?$AA?2?$AAd?$AAd?$AA?2?$AAv?$AAc?$AAt?$AAo?$AAo?$AAl?$AAs?$AA?2?$AAc?$AAr?$AAt?$AA_?$AAb?$AAl?$AAd?$AA?2?$AAs?$AAe?$AAl?$AAf?$AA_?$AAx?$AA8?$AA6?$AA?2?$AAc@ 401521f0     LIBCMTD:initnum.obj
 0003:00023268       ??_C@_1DM@IFKAINNE@?$AAp?$AAl?$AAo?$AAc?$AAi?$AA?9?$AA?$DO?$AAl?$AAc?$AAo?$AAn?$AAv?$AA_?$AAn?$AAu?$AAm?$AA_?$AAr?$AAe?$AAf?$AAc?$AAo?$AAu?$AAn?$AAt?$AA?5?$AA?$DO?$AA?5?$AA0?$AA?$AA@ 40152268     LIBCMTD:initnum.obj
 0003:000232b0       ??_C@_0DB@KKFMDHFI@f?3?2dd?2vctools?2crt_bld?2self_x86?2c@ 401522b0     LIBCMTD:initnum.obj
 0003:000232f0       ??_C@_1GC@IKADOFBJ@?$AAf?$AA?3?$AA?2?$AAd?$AAd?$AA?2?$AAv?$AAc?$AAt?$AAo?$AAo?$AAl?$AAs?$AA?2?$AAc?$AAr?$AAt?$AA_?$AAb?$AAl?$AAd?$AA?2?$AAs?$AAe?$AAl?$AAf?$AA_?$AAx?$AA8?$AA6?$AA?2?$AAc@ 401522f0     LIBCMTD:initmon.obj
 0003:00023368       ??_C@_1DM@GKAPAMDO@?$AAp?$AAl?$AAo?$AAc?$AAi?$AA?9?$AA?$DO?$AAl?$AAc?$AAo?$AAn?$AAv?$AA_?$AAm?$AAo?$AAn?$AA_?$AAr?$AAe?$AAf?$AAc?$AAo?$AAu?$AAn?$AAt?$AA?5?$AA?$DO?$AA?5?$AA0?$AA?$AA@ 40152368     LIBCMTD:initmon.obj
 0003:000233b0       ??_C@_0DB@BECNGFDL@f?3?2dd?2vctools?2crt_bld?2self_x86?2c@ 401523b0     LIBCMTD:initmon.obj
 0003:000233ec       ??_C@_1DG@NMBGBDM@?$AAp?$AAl?$AAo?$AAc?$AAi?$AA?9?$AA?$DO?$AAc?$AAt?$AAy?$AAp?$AAe?$AA1?$AA_?$AAr?$AAe?$AAf?$AAc?$AAo?$AAu?$AAn?$AAt?$AA?5?$AA?$DO?$AA?5?$AA0?$AA?$AA@ 401523ec     LIBCMTD:initctyp.obj
 0003:00023430       ??_C@_1GE@OCPKBDKE@?$AAf?$AA?3?$AA?2?$AAd?$AAd?$AA?2?$AAv?$AAc?$AAt?$AAo?$AAo?$AAl?$AAs?$AA?2?$AAc?$AAr?$AAt?$AA_?$AAb?$AAl?$AAd?$AA?2?$AAs?$AAe?$AAl?$AAf?$AA_?$AAx?$AA8?$AA6?$AA?2?$AAc@ 40152430     LIBCMTD:initctyp.obj
 0003:000234a8       ??_C@_0DC@EHLBFILA@f?3?2dd?2vctools?2crt_bld?2self_x86?2c@ 401524a8     LIBCMTD:initctyp.obj
 0003:000234e4       ??_C@_08JCCMCCIL@HH?3mm?3ss?$AA@ 401524e4     LIBCMTD:strftime.obj
 0003:000234f0       ??_C@_0BE@CKGJFCPC@dddd?0?5MMMM?5dd?0?5yyyy?$AA@ 401524f0     LIBCMTD:strftime.obj
 0003:00023508       ??_C@_08BPBNCDIB@MM?1dd?1yy?$AA@ 40152508     LIBCMTD:strftime.obj
 0003:00023514       ??_C@_02CJNFDJBF@PM?$AA@   40152514     LIBCMTD:strftime.obj
 0003:00023518       ??_C@_02DEDBPAFC@AM?$AA@   40152518     LIBCMTD:strftime.obj
 0003:0002351c       ??_C@_08EDHMEBNP@December?$AA@ 4015251c     LIBCMTD:strftime.obj
 0003:00023528       ??_C@_08HCHEGEOA@November?$AA@ 40152528     LIBCMTD:strftime.obj
 0003:00023534       ??_C@_07JJNFCEND@October?$AA@ 40152534     LIBCMTD:strftime.obj
 0003:00023540       ??_C@_09BHHEALKD@September?$AA@ 40152540     LIBCMTD:strftime.obj
 0003:0002354c       ??_C@_06LBBHFDDG@August?$AA@ 4015254c     LIBCMTD:strftime.obj
 0003:00023554       ??_C@_04MIEPOIFP@July?$AA@ 40152554     LIBCMTD:strftime.obj
 0003:0002355c       ??_C@_04CNLMGBGM@June?$AA@ 4015255c     LIBCMTD:strftime.obj
 0003:00023564       ??_C@_05DMJDNLEJ@April?$AA@ 40152564     LIBCMTD:strftime.obj
 0003:0002356c       ??_C@_05HPCKOFNC@March?$AA@ 4015256c     LIBCMTD:strftime.obj
 0003:00023574       ??_C@_08GNJGEPFN@February?$AA@ 40152574     LIBCMTD:strftime.obj
 0003:00023580       ??_C@_07CGJPFGJA@January?$AA@ 40152580     LIBCMTD:strftime.obj
 0003:0002358c       ??_C@_03MKABNOCG@Dec?$AA@  4015258c     LIBCMTD:strftime.obj
 0003:00023590       ??_C@_03JPJOFNIA@Nov?$AA@  40152590     LIBCMTD:strftime.obj
 0003:00023594       ??_C@_03BMAOKBAD@Oct?$AA@  40152594     LIBCMTD:strftime.obj
 0003:00023598       ??_C@_03GGCAPAJC@Sep?$AA@  40152598     LIBCMTD:strftime.obj
 0003:0002359c       ??_C@_03IFJFEIGA@Aug?$AA@  4015259c     LIBCMTD:strftime.obj
 0003:000235a0       ??_C@_03LBGABGKK@Jul?$AA@  401525a0     LIBCMTD:strftime.obj
 0003:000235a4       ??_C@_03IDFGHECI@Jun?$AA@  401525a4     LIBCMTD:strftime.obj
 0003:000235a8       ??_C@_03CNMDKL@May?$AA@    401525a8     LIBCMTD:strftime.obj
 0003:000235ac       ??_C@_03LEOLGMJP@Apr?$AA@  401525ac     LIBCMTD:strftime.obj
 0003:000235b0       ??_C@_03ODNJBKGA@Mar?$AA@  401525b0     LIBCMTD:strftime.obj
 0003:000235b4       ??_C@_03HJBDCHOM@Feb?$AA@  401525b4     LIBCMTD:strftime.obj
 0003:000235b8       ??_C@_08INBOOONO@Saturday?$AA@ 401525b8     LIBCMTD:strftime.obj
 0003:000235c4       ??_C@_06JECMNKMI@Friday?$AA@ 401525c4     LIBCMTD:strftime.obj
 0003:000235cc       ??_C@_08HACCIKIA@Thursday?$AA@ 401525cc     LIBCMTD:strftime.obj
 0003:000235d8       ??_C@_09DLIGFAKA@Wednesday?$AA@ 401525d8     LIBCMTD:strftime.obj
 0003:000235e4       ??_C@_07BAAGCFCM@Tuesday?$AA@ 401525e4     LIBCMTD:strftime.obj
 0003:000235f0       ??_C@_06JLEDEDGH@Monday?$AA@ 401525f0     LIBCMTD:strftime.obj
 0003:000235f8       ??_C@_06OOPIFAJ@Sunday?$AA@ 401525f8     LIBCMTD:strftime.obj
 0003:00023600       ??_C@_03FEFJNEK@Sat?$AA@   40152600     LIBCMTD:strftime.obj
 0003:00023604       ??_C@_03IDIOELNC@Fri?$AA@  40152604     LIBCMTD:strftime.obj
 0003:00023608       ??_C@_03IOFIKPDN@Thu?$AA@  40152608     LIBCMTD:strftime.obj
 0003:0002360c       ??_C@_03MHOMLAJA@Wed?$AA@  4015260c     LIBCMTD:strftime.obj
 0003:00023610       ??_C@_03NAGEINEP@Tue?$AA@  40152610     LIBCMTD:strftime.obj
 0003:00023614       ??_C@_03PDAGKDH@Mon?$AA@   40152614     LIBCMTD:strftime.obj
 0003:00023618       ??_C@_03KOEHGMDN@Sun?$AA@  40152618     LIBCMTD:strftime.obj
 0003:00023620       ??_C@_1FM@LPEPDBJF@?$AAs?$AAt?$AAr?$AAc?$AAp?$AAy?$AA_?$AAs?$AA?$CI?$AAs?$AA?0?$AA?5?$AA?$CI?$AAl?$AAe?$AAn?$AA?5?$AA?$CL?$AA?5?$AA1?$AA?$CJ?$AA?5?$AA?9?$AA?5?$AA?$CI?$AAs?$AA?5?$AA?9?$AA?5?$AAp?$AA?$CJ?$AA?0@ 40152620     LIBCMTD:strftime.obj
 0003:00023690       ??_C@_1GG@NAGHPCAA@?$AAs?$AAt?$AAr?$AAc?$AAp?$AAy?$AA_?$AAs?$AA?$CI?$AAs?$AA?0?$AA?5?$AA?$CI?$AAl?$AAe?$AAn?$AA?5?$AA?$CL?$AA?5?$AA1?$AA?$CJ?$AA?5?$AA?9?$AA?5?$AA?$CI?$AAs?$AA?5?$AA?9?$AA?5?$AAp?$AA?$CJ?$AA?0@ 40152690     LIBCMTD:strftime.obj
 0003:0002370c       ??_C@_1BG@LGACIFJI@?$AA_?$AAG?$AAe?$AAt?$AAd?$AAa?$AAy?$AAs?$AA_?$AAl?$AA?$AA@ 4015270c     LIBCMTD:strftime.obj
 0003:00023728       ??_C@_1GE@FCOIONJG@?$AAf?$AA?3?$AA?2?$AAd?$AAd?$AA?2?$AAv?$AAc?$AAt?$AAo?$AAo?$AAl?$AAs?$AA?2?$AAc?$AAr?$AAt?$AA_?$AAb?$AAl?$AAd?$AA?2?$AAs?$AAe?$AAl?$AAf?$AA_?$AAx?$AA8?$AA6?$AA?2?$AAc@ 40152728     LIBCMTD:strftime.obj
 0003:000237a0       ??_C@_0DC@MEPJBKMO@f?3?2dd?2vctools?2crt_bld?2self_x86?2c@ 401527a0     LIBCMTD:strftime.obj
 0003:000237e0       ??_C@_1FO@IFFKPIEL@?$AAs?$AAt?$AAr?$AAc?$AAp?$AAy?$AA_?$AAs?$AA?$CI?$AAs?$AA?0?$AA?5?$AA?$CI?$AAl?$AAe?$AAn?$AA?5?$AA?$CL?$AA?5?$AA1?$AA?$CJ?$AA?5?$AA?9?$AA?5?$AA?$CI?$AAs?$AA?5?$AA?9?$AA?5?$AAp?$AA?$CJ?$AA?0@ 401527e0     LIBCMTD:strftime.obj
 0003:00023850       ??_C@_1GI@LNJDDNLK@?$AAs?$AAt?$AAr?$AAc?$AAp?$AAy?$AA_?$AAs?$AA?$CI?$AAs?$AA?0?$AA?5?$AA?$CI?$AAl?$AAe?$AAn?$AA?5?$AA?$CL?$AA?5?$AA1?$AA?$CJ?$AA?5?$AA?9?$AA?5?$AA?$CI?$AAs?$AA?5?$AA?9?$AA?5?$AAp?$AA?$CJ?$AA?0@ 40152850     LIBCMTD:strftime.obj
 0003:000238cc       ??_C@_1BK@IDMELNCB@?$AA_?$AAG?$AAe?$AAt?$AAm?$AAo?$AAn?$AAt?$AAh?$AAs?$AA_?$AAl?$AA?$AA@ 401528cc     LIBCMTD:strftime.obj
 0003:000238f0       ??_C@_1FG@CJBIADLJ@?$AAs?$AAt?$AAr?$AAc?$AAp?$AAy?$AA_?$AAs?$AA?$CI?$AAs?$AA?0?$AA?5?$AAl?$AAe?$AAn?$AA?5?$AA?9?$AA?5?$AA?$CI?$AAs?$AA?5?$AA?9?$AA?5?$AAp?$AA?$CJ?$AA?0?$AA?5?$AAp?$AAt?$AA?9?$AA?$DO?$AAw@ 401528f0     LIBCMTD:strftime.obj
 0003:00023958       ??_C@_1FI@PPIHCJGH@?$AAs?$AAt?$AAr?$AAc?$AAp?$AAy?$AA_?$AAs?$AA?$CI?$AAs?$AA?0?$AA?5?$AAl?$AAe?$AAn?$AA?5?$AA?9?$AA?5?$AA?$CI?$AAs?$AA?5?$AA?9?$AA?5?$AAp?$AA?$CJ?$AA?0?$AA?5?$AAp?$AAt?$AA?9?$AA?$DO?$AAw@ 40152958     LIBCMTD:strftime.obj
 0003:000239c8       ??_C@_1FI@GDNOPCGD@?$AAs?$AAt?$AAr?$AAc?$AAp?$AAy?$AA_?$AAs?$AA?$CI?$AAs?$AA?0?$AA?5?$AAl?$AAe?$AAn?$AA?5?$AA?9?$AA?5?$AA?$CI?$AAs?$AA?5?$AA?9?$AA?5?$AAp?$AA?$CJ?$AA?0?$AA?5?$AAp?$AAt?$AA?9?$AA?$DO?$AAw@ 401529c8     LIBCMTD:strftime.obj
 0003:00023a38       ??_C@_1FA@MEHIJEIL@?$AAs?$AAt?$AAr?$AAc?$AAp?$AAy?$AA_?$AAs?$AA?$CI?$AAs?$AA?0?$AA?5?$AAl?$AAe?$AAn?$AA?5?$AA?9?$AA?5?$AA?$CI?$AAs?$AA?5?$AA?9?$AA?5?$AAp?$AA?$CJ?$AA?0?$AA?5?$AAp?$AAt?$AA?9?$AA?$DO?$AAa@ 40152a38     LIBCMTD:strftime.obj
 0003:00023a98       ??_C@_1FA@INCJEBF@?$AAs?$AAt?$AAr?$AAc?$AAp?$AAy?$AA_?$AAs?$AA?$CI?$AAs?$AA?0?$AA?5?$AAl?$AAe?$AAn?$AA?5?$AA?9?$AA?5?$AA?$CI?$AAs?$AA?5?$AA?9?$AA?5?$AAp?$AA?$CJ?$AA?0?$AA?5?$AAp?$AAt?$AA?9?$AA?$DO?$AAa@ 40152a98     LIBCMTD:strftime.obj
 0003:00023af8       ??_C@_1FC@BEAPAEGE@?$AAs?$AAt?$AAr?$AAc?$AAp?$AAy?$AA_?$AAs?$AA?$CI?$AAs?$AA?0?$AA?5?$AAl?$AAe?$AAn?$AA?5?$AA?9?$AA?5?$AA?$CI?$AAs?$AA?5?$AA?9?$AA?5?$AAp?$AA?$CJ?$AA?0?$AA?5?$AAp?$AAt?$AA?9?$AA?$DO?$AAm@ 40152af8     LIBCMTD:strftime.obj
 0003:00023b60       ??_C@_1FM@CHHONFED@?$AAs?$AAt?$AAr?$AAc?$AAp?$AAy?$AA_?$AAs?$AA?$CI?$AAs?$AA?0?$AA?5?$AAl?$AAe?$AAn?$AA?5?$AA?9?$AA?5?$AA?$CI?$AAs?$AA?5?$AA?9?$AA?5?$AAp?$AA?$CJ?$AA?0?$AA?5?$AAp?$AAt?$AA?9?$AA?$DO?$AAm@ 40152b60     LIBCMTD:strftime.obj
 0003:00023bd0       ??_C@_1FA@EBHJJADL@?$AAs?$AAt?$AAr?$AAc?$AAp?$AAy?$AA_?$AAs?$AA?$CI?$AAs?$AA?0?$AA?5?$AAl?$AAe?$AAn?$AA?5?$AA?9?$AA?5?$AA?$CI?$AAs?$AA?5?$AA?9?$AA?5?$AAp?$AA?$CJ?$AA?0?$AA?5?$AAp?$AAt?$AA?9?$AA?$DO?$AAw@ 40152bd0     LIBCMTD:strftime.obj
 0003:00023c30       ??_C@_1FK@ODMKEFLD@?$AAs?$AAt?$AAr?$AAc?$AAp?$AAy?$AA_?$AAs?$AA?$CI?$AAs?$AA?0?$AA?5?$AAl?$AAe?$AAn?$AA?5?$AA?9?$AA?5?$AA?$CI?$AAs?$AA?5?$AA?9?$AA?5?$AAp?$AA?$CJ?$AA?0?$AA?5?$AAp?$AAt?$AA?9?$AA?$DO?$AAw@ 40152c30     LIBCMTD:strftime.obj
 0003:00023c9c       ??_C@_1BK@MJNHIAGO@?$AA_?$AAG?$AAe?$AAt?$AAt?$AAn?$AAa?$AAm?$AAe?$AAs?$AA_?$AAl?$AA?$AA@ 40152c9c     LIBCMTD:strftime.obj
 0003:00023cbc       ??_C@_1M@HCOOECOK@?$AAF?$AAA?$AAL?$AAS?$AAE?$AA?$AA@ 40152cbc     LIBCMTD:strftime.obj
 0003:00023cd0       ??_C@_1HC@JGDOBCNK@?$AA?$CI?$AA?$CC?$AAI?$AAn?$AAv?$AAa?$AAl?$AAi?$AAd?$AA?5?$AAM?$AAB?$AAC?$AAS?$AA?5?$AAc?$AAh?$AAa?$AAr?$AAa?$AAc?$AAt?$AAe?$AAr?$AA?5?$AAs?$AAe?$AAq?$AAu?$AAe?$AAn?$AAc@ 40152cd0     LIBCMTD:strftime.obj
 0003:00023d58       ??_C@_1CA@COHOENPC@?$AAt?$AAi?$AAm?$AAe?$AAp?$AAt?$AAr?$AA?5?$AA?$CB?$AA?$DN?$AA?5?$AAN?$AAU?$AAL?$AAL?$AA?$AA@ 40152d58     LIBCMTD:strftime.obj
 0003:00023d80       ??_C@_1CG@MHIOFJLE@?$AA?$CI?$AA?5?$AAf?$AAo?$AAr?$AAm?$AAa?$AAt?$AA?5?$AA?$CB?$AA?$DN?$AA?5?$AAN?$AAU?$AAL?$AAL?$AA?5?$AA?$CJ?$AA?$AA@ 40152d80     LIBCMTD:strftime.obj
 0003:00023db0       ??_C@_1CC@IHEJKGMG@?$AA?$CI?$AA?5?$AAm?$AAa?$AAx?$AAs?$AAi?$AAz?$AAe?$AA?5?$AA?$CB?$AA?$DN?$AA?5?$AA0?$AA?5?$AA?$CJ?$AA?$AA@ 40152db0     LIBCMTD:strftime.obj
 0003:00023dd8       ??_C@_1BI@ONBMGNNA@?$AA_?$AAS?$AAt?$AAr?$AAf?$AAt?$AAi?$AAm?$AAe?$AA_?$AAl?$AA?$AA@ 40152dd8     LIBCMTD:strftime.obj
 0003:00023df4       ??_C@_1CG@MPKJHDAA@?$AA?$CI?$AA?5?$AAs?$AAt?$AAr?$AAi?$AAn?$AAg?$AA?5?$AA?$CB?$AA?$DN?$AA?5?$AAN?$AAU?$AAL?$AAL?$AA?5?$AA?$CJ?$AA?$AA@ 40152df4     LIBCMTD:strftime.obj
 0003:00023e28       ??_C@_1EG@JNJKHKFI@?$AA?$CI?$AA?5?$AA?$CC?$AAI?$AAn?$AAv?$AAa?$AAl?$AAi?$AAd?$AA?5?$AAf?$AAo?$AAr?$AAm?$AAa?$AAt?$AA?5?$AAd?$AAi?$AAr?$AAe?$AAc?$AAt?$AAi?$AAv?$AAe?$AA?$CC?$AA?5?$AA?0?$AA?5?$AA0@ 40152e28     LIBCMTD:strftime.obj
 0003:00023e80       ??_C@_1HM@LBNGKIAD@?$AA?$CI?$AA?5?$AAt?$AAi?$AAm?$AAe?$AAp?$AAt?$AAr?$AA?9?$AA?$DO?$AAt?$AAm?$AA_?$AAy?$AAe?$AAa?$AAr?$AA?5?$AA?$DO?$AA?$DN?$AA?5?$AA?9?$AA1?$AA9?$AA0?$AA0?$AA?5?$AA?$CJ?$AA?5?$AA?$CG?$AA?$CG@ 40152e80     LIBCMTD:strftime.obj
 0003:00023f14       ??_C@_1DC@NMCFBMJP@?$AA?$CI?$AA?5?$AAt?$AAi?$AAm?$AAe?$AAp?$AAt?$AAr?$AA?9?$AA?$DO?$AAt?$AAm?$AA_?$AAy?$AAe?$AAa?$AAr?$AA?5?$AA?$DO?$AA?$DN?$AA0?$AA?5?$AA?$CJ?$AA?$AA@ 40152f14     LIBCMTD:strftime.obj
 0003:00023f50       ??_C@_1HC@HLKHIKOB@?$AA?$CI?$AA?5?$AA?$CI?$AA?5?$AAt?$AAi?$AAm?$AAe?$AAp?$AAt?$AAr?$AA?9?$AA?$DO?$AAt?$AAm?$AA_?$AAs?$AAe?$AAc?$AA?5?$AA?$DO?$AA?$DN?$AA0?$AA?5?$AA?$CJ?$AA?5?$AA?$CG?$AA?$CG?$AA?5?$AA?$CI?$AA?5?$AAt@ 40152f50     LIBCMTD:strftime.obj
 0003:00023fd8       ??_C@_1HC@IGKDPPHL@?$AA?$CI?$AA?5?$AA?$CI?$AA?5?$AAt?$AAi?$AAm?$AAe?$AAp?$AAt?$AAr?$AA?9?$AA?$DO?$AAt?$AAm?$AA_?$AAm?$AAi?$AAn?$AA?5?$AA?$DO?$AA?$DN?$AA0?$AA?5?$AA?$CJ?$AA?5?$AA?$CG?$AA?$CG?$AA?5?$AA?$CI?$AA?5?$AAt@ 40152fd8     LIBCMTD:strftime.obj
 0003:00024060       ??_C@_1HI@HHCJCPE@?$AA?$CI?$AA?5?$AA?$CI?$AA?5?$AAt?$AAi?$AAm?$AAe?$AAp?$AAt?$AAr?$AA?9?$AA?$DO?$AAt?$AAm?$AA_?$AAy?$AAd?$AAa?$AAy?$AA?5?$AA?$DO?$AA?$DN?$AA0?$AA?5?$AA?$CJ?$AA?5?$AA?$CG?$AA?$CG?$AA?5?$AA?$CI?$AA?5@ 40153060     LIBCMTD:strftime.obj
 0003:000240f0       ??_C@_1HG@KCGGFLNI@?$AA?$CI?$AA?5?$AA?$CI?$AA?5?$AAt?$AAi?$AAm?$AAe?$AAp?$AAt?$AAr?$AA?9?$AA?$DO?$AAt?$AAm?$AA_?$AAh?$AAo?$AAu?$AAr?$AA?5?$AA?$DO?$AA?$DN?$AA0?$AA?5?$AA?$CJ?$AA?5?$AA?$CG?$AA?$CG?$AA?5?$AA?$CI?$AA?5@ 401530f0     LIBCMTD:strftime.obj
 0003:00024180       ??_C@_1HG@NFHHOAD@?$AA?$CI?$AA?5?$AA?$CI?$AA?5?$AAt?$AAi?$AAm?$AAe?$AAp?$AAt?$AAr?$AA?9?$AA?$DO?$AAt?$AAm?$AA_?$AAm?$AAd?$AAa?$AAy?$AA?5?$AA?$DO?$AA?$DN?$AA1?$AA?5?$AA?$CJ?$AA?5?$AA?$CG?$AA?$CG?$AA?5?$AA?$CI?$AA?5@ 40153180     LIBCMTD:strftime.obj
 0003:00024210       ??_C@_1HC@OOAMILFB@?$AA?$CI?$AA?5?$AA?$CI?$AA?5?$AAt?$AAi?$AAm?$AAe?$AAp?$AAt?$AAr?$AA?9?$AA?$DO?$AAt?$AAm?$AA_?$AAm?$AAo?$AAn?$AA?5?$AA?$DO?$AA?$DN?$AA0?$AA?5?$AA?$CJ?$AA?5?$AA?$CG?$AA?$CG?$AA?5?$AA?$CI?$AA?5?$AAt@ 40153210     LIBCMTD:strftime.obj
 0003:00024298       ??_C@_1BI@HBKPAJH@?$AA_?$AAe?$AAx?$AAp?$AAa?$AAn?$AAd?$AAt?$AAi?$AAm?$AAe?$AA?$AA@ 40153298     LIBCMTD:strftime.obj
 0003:000242b8       ??_C@_1HE@BFLEOKFO@?$AA?$CI?$AA?5?$AA?$CI?$AA?5?$AAt?$AAi?$AAm?$AAe?$AAp?$AAt?$AAr?$AA?9?$AA?$DO?$AAt?$AAm?$AA_?$AAw?$AAd?$AAa?$AAy?$AA?5?$AA?$DO?$AA?$DN?$AA0?$AA?5?$AA?$CJ?$AA?5?$AA?$CG?$AA?$CG?$AA?5?$AA?$CI?$AA?5@ 401532b8     LIBCMTD:strftime.obj
 0003:00024348       ??_C@_1HG@PAEENAPO@?$AA?$CI?$AA?$CC?$AAI?$AAn?$AAv?$AAa?$AAl?$AAi?$AAd?$AA?5?$AAM?$AAB?$AAC?$AAS?$AA?5?$AAc?$AAh?$AAa?$AAr?$AAa?$AAc?$AAt?$AAe?$AAr?$AA?5?$AAs?$AAe?$AAq?$AAu?$AAe?$AAn?$AAc@ 40153348     LIBCMTD:strftime.obj
 0003:000243d8       ??_C@_1IE@EIDABBDG@?$AA?$CI?$AA?$CC?$AAI?$AAn?$AAv?$AAa?$AAl?$AAi?$AAd?$AA?5?$AAM?$AAB?$AAC?$AAS?$AA?5?$AAc?$AAh?$AAa?$AAr?$AAa?$AAc?$AAt?$AAe?$AAr?$AA?5?$AAs?$AAe?$AAq?$AAu?$AAe?$AAn?$AAc@ 401533d8     LIBCMTD:strftime.obj
 0003:00024478       ??_C@_03EBAPMIKO@a?1p?$AA@ 40153478     LIBCMTD:strftime.obj
 0003:0002447c       ??_C@_05JAMEPDIN@am?1pm?$AA@ 4015347c     LIBCMTD:strftime.obj
 0003:00024484       ??_C@_1BE@NDMJHJJG@?$AAs?$AAt?$AAr?$AAn?$AAc?$AAp?$AAy?$AA_?$AAs?$AA?$AA@ 40153484     LIBCMTD:strncpy_s.obj
 0003:0002449c       ??_C@_1BC@HGPNAKGC@?$AAs?$AAt?$AAr?$AAc?$AAa?$AAt?$AA_?$AAs?$AA?$AA@ 4015349c     LIBCMTD:strcat_s.obj
 0003:000244b4       ??_C@_0O@FMJNFNKE@united?9states?$AA@ 401534b4     LIBCMTD:getqloc.obj
 0003:000244c4       ??_C@_0P@NDHFFKCA@united?9kingdom?$AA@ 401534c4     LIBCMTD:getqloc.obj
 0003:000244d8       ??_C@_0BC@HHDADLGF@trinidad?5?$CG?5tobago?$AA@ 401534d8     LIBCMTD:getqloc.obj
 0003:000244f0       ??_C@_0M@IOAEBDAC@south?9korea?$AA@ 401534f0     LIBCMTD:getqloc.obj
 0003:00024500       ??_C@_0N@FIELFKIJ@south?9africa?$AA@ 40153500     LIBCMTD:getqloc.obj
 0003:00024510       ??_C@_0M@OPNDHCMC@south?5korea?$AA@ 40153510     LIBCMTD:getqloc.obj
 0003:00024520       ??_C@_0N@MDEOEPFI@south?5africa?$AA@ 40153520     LIBCMTD:getqloc.obj
 0003:00024530       ??_C@_06FKAPCJLB@slovak?$AA@ 40153530     LIBCMTD:getqloc.obj
 0003:00024538       ??_C@_0M@EFJANOAL@puerto?9rico?$AA@ 40153538     LIBCMTD:getqloc.obj
 0003:00024548       ??_C@_08PGOJKDAI@pr?9china?$AA@ 40153548     LIBCMTD:getqloc.obj
 0003:00024554       ??_C@_08JHDOMCMI@pr?5china?$AA@ 40153554     LIBCMTD:getqloc.obj
 0003:00024560       ??_C@_02JHCHFBLL@nz?$AA@   40153560     LIBCMTD:getqloc.obj
 0003:00024564       ??_C@_0M@LINHDHKP@new?9zealand?$AA@ 40153564     LIBCMTD:getqloc.obj
 0003:00024574       ??_C@_09IIIPPBDB@hong?9kong?$AA@ 40153574     LIBCMTD:getqloc.obj
 0003:00024580       ??_C@_07HJLCKBG@holland?$AA@ 40153580     LIBCMTD:getqloc.obj
 0003:0002458c       ??_C@_0O@LEHGMHAG@great?5britain?$AA@ 4015358c     LIBCMTD:getqloc.obj
 0003:0002459c       ??_C@_07FACOMELA@england?$AA@ 4015359c     LIBCMTD:getqloc.obj
 0003:000245a8       ??_C@_05JIHCEICB@czech?$AA@ 401535a8     LIBCMTD:getqloc.obj
 0003:000245b0       ??_C@_05BBJOBLGB@china?$AA@ 401535b0     LIBCMTD:getqloc.obj
 0003:000245b8       ??_C@_07GPKPHICP@britain?$AA@ 401535b8     LIBCMTD:getqloc.obj
 0003:000245c4       ??_C@_07MHIPBHMG@america?$AA@ 401535c4     LIBCMTD:getqloc.obj
 0003:000245d0       ??_C@_03KIALPMKC@usa?$AA@  401535d0     LIBCMTD:getqloc.obj
 0003:000245d4       ??_C@_02FGJGKGGD@us?$AA@   401535d4     LIBCMTD:getqloc.obj
 0003:000245d8       ??_C@_02NEINDODK@uk?$AA@   401535d8     LIBCMTD:getqloc.obj
 0003:000245dc       ??_C@_05JMPCFJFJ@swiss?$AA@ 401535dc     LIBCMTD:getqloc.obj
 0003:000245e4       ??_C@_0BA@HLOCPIOD@swedish?9finland?$AA@ 401535e4     LIBCMTD:getqloc.obj
 0003:000245f8       ??_C@_0BC@PKCNIABK@spanish?9venezuela?$AA@ 401535f8     LIBCMTD:getqloc.obj
 0003:00024610       ??_C@_0BA@GBHHMIJI@spanish?9uruguay?$AA@ 40153610     LIBCMTD:getqloc.obj
 0003:00024624       ??_C@_0BE@BHDOHPMC@spanish?9puerto?5rico?$AA@ 40153624     LIBCMTD:getqloc.obj
 0003:0002463c       ??_C@_0N@KMOIDGGN@spanish?9peru?$AA@ 4015363c     LIBCMTD:getqloc.obj
 0003:0002464c       ??_C@_0BB@HMHLPGPH@spanish?9paraguay?$AA@ 4015364c     LIBCMTD:getqloc.obj
 0003:00024660       ??_C@_0P@MCPKNGFD@spanish?9panama?$AA@ 40153660     LIBCMTD:getqloc.obj
 0003:00024674       ??_C@_0BC@IHOHGAIL@spanish?9nicaragua?$AA@ 40153674     LIBCMTD:getqloc.obj
 0003:0002468c       ??_C@_0P@KLMJDNFJ@spanish?9modern?$AA@ 4015368c     LIBCMTD:getqloc.obj
 0003:000246a0       ??_C@_0BA@BPAPGBCM@spanish?9mexican?$AA@ 401536a0     LIBCMTD:getqloc.obj
 0003:000246b4       ??_C@_0BB@PDECHHHE@spanish?9honduras?$AA@ 401536b4     LIBCMTD:getqloc.obj
 0003:000246c8       ??_C@_0BC@KLHKFGDB@spanish?9guatemala?$AA@ 401536c8     LIBCMTD:getqloc.obj
 0003:000246e0       ??_C@_0BE@MFOOKJAI@spanish?9el?5salvador?$AA@ 401536e0     LIBCMTD:getqloc.obj
 0003:000246f8       ??_C@_0BA@FCOKFPFC@spanish?9ecuador?$AA@ 401536f8     LIBCMTD:getqloc.obj
 0003:0002470c       ??_C@_0BL@PLMGIMOO@spanish?9dominican?5republic?$AA@ 4015370c     LIBCMTD:getqloc.obj
 0003:0002472c       ??_C@_0BD@HLGDNMHB@spanish?9costa?5rica?$AA@ 4015372c     LIBCMTD:getqloc.obj
 0003:00024744       ??_C@_0BB@PKCBKCPE@spanish?9colombia?$AA@ 40153744     LIBCMTD:getqloc.obj
 0003:00024758       ??_C@_0O@MCBIJGNE@spanish?9chile?$AA@ 40153758     LIBCMTD:getqloc.obj
 0003:00024768       ??_C@_0BA@BEFEIGJJ@spanish?9bolivia?$AA@ 40153768     LIBCMTD:getqloc.obj
 0003:0002477c       ??_C@_0BC@EMECMPD@spanish?9argentina?$AA@ 4015377c     LIBCMTD:getqloc.obj
 0003:00024794       ??_C@_0BF@EALFLENP@portuguese?9brazilian?$AA@ 40153794     LIBCMTD:getqloc.obj
 0003:000247b0       ??_C@_0BC@HBLEBLNN@norwegian?9nynorsk?$AA@ 401537b0     LIBCMTD:getqloc.obj
 0003:000247c8       ??_C@_0BB@HMACDDCK@norwegian?9bokmal?$AA@ 401537c8     LIBCMTD:getqloc.obj
 0003:000247dc       ??_C@_09BAFFPPHE@norwegian?$AA@ 401537dc     LIBCMTD:getqloc.obj
 0003:000247e8       ??_C@_0O@EAJFJDFG@italian?9swiss?$AA@ 401537e8     LIBCMTD:getqloc.obj
 0003:000247f8       ??_C@_0O@CNOMPGD@irish?9english?$AA@ 401537f8     LIBCMTD:getqloc.obj
 0003:00024808       ??_C@_0N@EDHBGCKG@german?9swiss?$AA@ 40153808     LIBCMTD:getqloc.obj
 0003:00024818       ??_C@_0BC@JACMHNBP@german?9luxembourg?$AA@ 40153818     LIBCMTD:getqloc.obj
 0003:00024830       ??_C@_0BE@HBGMGFEG@german?9lichtenstein?$AA@ 40153830     LIBCMTD:getqloc.obj
 0003:00024848       ??_C@_0BA@HKKBIBKL@german?9austrian?$AA@ 40153848     LIBCMTD:getqloc.obj
 0003:0002485c       ??_C@_0N@GCAEPEBK@french?9swiss?$AA@ 4015385c     LIBCMTD:getqloc.obj
 0003:0002486c       ??_C@_0BC@DJFJJCK@french?9luxembourg?$AA@ 4015386c     LIBCMTD:getqloc.obj
 0003:00024884       ??_C@_0BA@NNCEDFIC@french?9canadian?$AA@ 40153884     LIBCMTD:getqloc.obj
 0003:00024898       ??_C@_0P@CMPOCLM@french?9belgian?$AA@ 40153898     LIBCMTD:getqloc.obj
 0003:000248ac       ??_C@_0M@GHHDJOK@english?9usa?$AA@ 401538ac     LIBCMTD:getqloc.obj
 0003:000248bc       ??_C@_0L@PLDJKEIL@english?9us?$AA@ 401538bc     LIBCMTD:getqloc.obj
 0003:000248cc       ??_C@_0L@HJCCDMNC@english?9uk?$AA@ 401538cc     LIBCMTD:getqloc.obj
 0003:000248dc       ??_C@_0BK@CKLIAGJB@english?9trinidad?5y?5tobago?$AA@ 401538dc     LIBCMTD:getqloc.obj
 0003:000248fc       ??_C@_0BF@JMJMGNNF@english?9south?5africa?$AA@ 401538fc     LIBCMTD:getqloc.obj
 0003:00024918       ??_C@_0L@DKIIFDFD@english?9nz?$AA@ 40153918     LIBCMTD:getqloc.obj
 0003:00024928       ??_C@_0BA@ONHGJCLH@english?9jamaica?$AA@ 40153928     LIBCMTD:getqloc.obj
 0003:0002493c       ??_C@_0M@HJBGHOPO@english?9ire?$AA@ 4015393c     LIBCMTD:getqloc.obj
 0003:0002494c       ??_C@_0BC@LFEKMIFB@english?9caribbean?$AA@ 4015394c     LIBCMTD:getqloc.obj
 0003:00024964       ??_C@_0M@OLDPFKHI@english?9can?$AA@ 40153964     LIBCMTD:getqloc.obj
 0003:00024974       ??_C@_0P@OMDEHBMP@english?9belize?$AA@ 40153974     LIBCMTD:getqloc.obj
 0003:00024988       ??_C@_0M@KFHFPFED@english?9aus?$AA@ 40153988     LIBCMTD:getqloc.obj
 0003:00024998       ??_C@_0BB@MNMBKDFE@english?9american?$AA@ 40153998     LIBCMTD:getqloc.obj
 0003:000249ac       ??_C@_0O@KIDLNNBA@dutch?9belgian?$AA@ 401539ac     LIBCMTD:getqloc.obj
 0003:000249bc       ??_C@_0BE@JBKABBMH@chinese?9traditional?$AA@ 401539bc     LIBCMTD:getqloc.obj
 0003:000249d4       ??_C@_0BC@MJJMPKCG@chinese?9singapore?$AA@ 401539d4     LIBCMTD:getqloc.obj
 0003:000249ec       ??_C@_0BD@FDKADDCP@chinese?9simplified?$AA@ 401539ec     LIBCMTD:getqloc.obj
 0003:00024a04       ??_C@_0BB@DBEFDDME@chinese?9hongkong?$AA@ 40153a04     LIBCMTD:getqloc.obj
 0003:00024a18       ??_C@_07DHNMFMCI@chinese?$AA@ 40153a18     LIBCMTD:getqloc.obj
 0003:00024a24       ??_C@_03FNDDCHI@chi?$AA@   40153a24     LIBCMTD:getqloc.obj
 0003:00024a28       ??_C@_03BMMIADDJ@chh?$AA@  40153a28     LIBCMTD:getqloc.obj
 0003:00024a2c       ??_C@_08OAIPJDGI@canadian?$AA@ 40153a2c     LIBCMTD:getqloc.obj
 0003:00024a38       ??_C@_07HBPMNPNJ@belgian?$AA@ 40153a38     LIBCMTD:getqloc.obj
 0003:00024a44       ??_C@_0L@OEKOPBEL@australian?$AA@ 40153a44     LIBCMTD:getqloc.obj
 0003:00024a54       ??_C@_0BB@MEIMBEDG@american?9english?$AA@ 40153a54     LIBCMTD:getqloc.obj
 0003:00024a68       ??_C@_0BB@DFMDPDGB@american?5english?$AA@ 40153a68     LIBCMTD:getqloc.obj
 0003:00024a7c       ??_C@_08IJLOKOLL@american?$AA@ 40153a7c     LIBCMTD:getqloc.obj
 0003:00024a88       ___rg_language             40153a88     LIBCMTD:getqloc.obj
 0003:00024cf8       ___rg_country              40153cf8     LIBCMTD:getqloc.obj
 0003:00024dd4       ___rglangidNotDefault      40153dd4     LIBCMTD:getqloc.obj
 0003:00024dec       ??_C@_0BC@NFIEMBLL@Norwegian?9Nynorsk?$AA@ 40153dec     LIBCMTD:getqloc.obj
 0003:00024e08       ??_C@_1OM@OECHDGCF@?$AAs?$AAt?$AAr?$AAc?$AAp?$AAy?$AA_?$AAs?$AA?$CI?$AAl?$AAp?$AAO?$AAu?$AAt?$AAS?$AAt?$AAr?$AA?9?$AA?$DO?$AAs?$AAz?$AAL?$AAa?$AAn?$AAg?$AAu?$AAa?$AAg?$AAe?$AA?0?$AA?5?$AA?$CI@ 40153e08     LIBCMTD:getqloc.obj
 0003:00024f24       ??_C@_1CO@NJACLALJ@?$AA_?$AA_?$AAg?$AAe?$AAt?$AA_?$AAq?$AAu?$AAa?$AAl?$AAi?$AAf?$AAi?$AAe?$AAd?$AA_?$AAl?$AAo?$AAc?$AAa?$AAl?$AAe?$AA?$AA@ 40153f24     LIBCMTD:getqloc.obj
 0003:00024f60       ??_C@_1GC@FECJGAE@?$AAf?$AA?3?$AA?2?$AAd?$AAd?$AA?2?$AAv?$AAc?$AAt?$AAo?$AAo?$AAl?$AAs?$AA?2?$AAc?$AAr?$AAt?$AA_?$AAb?$AAl?$AAd?$AA?2?$AAs?$AAe?$AAl?$AAf?$AA_?$AAx?$AA8?$AA6?$AA?2?$AAc@ 40153f60     LIBCMTD:getqloc.obj
 0003:00024fd8       ??_C@_03NFKLAGEF@OCP?$AA@  40153fd8     LIBCMTD:getqloc.obj
 0003:00024fdc       ??_C@_03DFHEHBHG@ACP?$AA@  40153fdc     LIBCMTD:getqloc.obj
 0003:00024fe0       ??_C@_0DA@HMCPFNKN@f?3?2dd?2vctools?2crt_bld?2self_x86?2c@ 40153fe0     LIBCMTD:onexit.obj
 0003:0002501c       ??_C@_0P@GGKDKEEG@runtime?5error?5?$AA@ 4015401c     LIBCMTD:crt0msg.obj
 0003:00025030       ??_C@_02PCIJFNDE@?$AN?6?$AA@ 40154030     LIBCMTD:crt0msg.obj
 0003:00025034       ??_C@_0O@MJNIPGOH@TLOSS?5error?$AN?6?$AA@ 40154034     LIBCMTD:crt0msg.obj
 0003:00025044       ??_C@_0N@BONNPDHF@SING?5error?$AN?6?$AA@ 40154044     LIBCMTD:crt0msg.obj
 0003:00025054       ??_C@_0P@MBDAJNE@DOMAIN?5error?$AN?6?$AA@ 40154054     LIBCMTD:crt0msg.obj
 0003:00025068       ??_C@_0BFB@HKKMCDOL@R6034?$AN?6An?5application?5has?5made?5a@ 40154068     LIBCMTD:crt0msg.obj
 0003:00025200       ??_C@_0PH@EPAFIJ@R6033?$AN?6?9?5Attempt?5to?5use?5MSIL?5cod@ 40154200     LIBCMTD:crt0msg.obj
 0003:00025328       ??_C@_0DD@BKEEABMM@R6032?$AN?6?9?5not?5enough?5space?5for?5lo@ 40154328     LIBCMTD:crt0msg.obj
 0003:00025368       ??_C@_0GD@OFKILIED@R6031?$AN?6?9?5Attempt?5to?5initialize?5t@ 40154368     LIBCMTD:crt0msg.obj
 0003:000253e0       ??_C@_0BP@LPMHJOKI@R6030?$AN?6?9?5CRT?5not?5initialized?$AN?6?$AA@ 401543e0     LIBCMTD:crt0msg.obj
 0003:00025408       ??_C@_0CF@KJDAIALP@R6028?$AN?6?9?5unable?5to?5initialize?5he@ 40154408     LIBCMTD:crt0msg.obj
 0003:00025434       ??_C@_0DF@GAKBPDFP@R6027?$AN?6?9?5not?5enough?5space?5for?5lo@ 40154434     LIBCMTD:crt0msg.obj
 0003:00025474       ??_C@_0DF@IBLNNAIG@R6026?$AN?6?9?5not?5enough?5space?5for?5st@ 40154474     LIBCMTD:crt0msg.obj
 0003:000254b4       ??_C@_0CG@IOHKGFNJ@R6025?$AN?6?9?5pure?5virtual?5function?5c@ 401544b4     LIBCMTD:crt0msg.obj
 0003:000254e4       ??_C@_0DF@JIJJFJDC@R6024?$AN?6?9?5not?5enough?5space?5for?5_o@ 401544e4     LIBCMTD:crt0msg.obj
 0003:00025524       ??_C@_0CJ@EGEJHFME@R6019?$AN?6?9?5unable?5to?5open?5console?5@ 40154524     LIBCMTD:crt0msg.obj
 0003:00025558       ??_C@_0CB@GNHNIELH@R6018?$AN?6?9?5unexpected?5heap?5error?$AN?6@ 40154558     LIBCMTD:crt0msg.obj
 0003:00025580       ??_C@_0CN@FOLDKNG@R6017?$AN?6?9?5unexpected?5multithread?5@ 40154580     LIBCMTD:crt0msg.obj
 0003:000255b8       ??_C@_0CM@FAHFJNHO@R6016?$AN?6?9?5not?5enough?5space?5for?5th@ 401545b8     LIBCMTD:crt0msg.obj
 0003:000255f0       ??_C@_0JG@LBKMGKLD@?$AN?6This?5application?5has?5requested@ 401545f0     LIBCMTD:crt0msg.obj
 0003:000256a4       ??_C@_0CM@FLCNIPKK@R6009?$AN?6?9?5not?5enough?5space?5for?5en@ 401546a4     LIBCMTD:crt0msg.obj
 0003:000256d8       ??_C@_0CK@KMMJOAPP@R6008?$AN?6?9?5not?5enough?5space?5for?5ar@ 401546d8     LIBCMTD:crt0msg.obj
 0003:0002570c       ??_C@_0CN@LEKKICBM@R6002?$AN?6?9?5floating?5point?5support?5@ 4015470c     LIBCMTD:crt0msg.obj
 0003:00025744       ??_C@_0CF@GOGNBNAK@Microsoft?5Visual?5C?$CL?$CL?5Runtime?5Lib@ 40154744     LIBCMTD:crt0msg.obj
 0003:00025770       ??_C@_1KC@JBIKIPNF@?$AAs?$AAt?$AAr?$AAc?$AAa?$AAt?$AA_?$AAs?$AA?$CI?$AAo?$AAu?$AAt?$AAm?$AAs?$AAg?$AA?0?$AA?5?$AA?$CI?$AAs?$AAi?$AAz?$AAe?$AAo?$AAf?$AA?$CI?$AAo?$AAu?$AAt?$AAm?$AAs?$AAg?$AA?$CJ@ 40154770     LIBCMTD:crt0msg.obj
 0003:00025838       ??_C@_1HO@POLIDBMF@?$AAs?$AAt?$AAr?$AAc?$AAa?$AAt?$AA_?$AAs?$AA?$CI?$AAo?$AAu?$AAt?$AAm?$AAs?$AAg?$AA?0?$AA?5?$AA?$CI?$AAs?$AAi?$AAz?$AAe?$AAo?$AAf?$AA?$CI?$AAo?$AAu?$AAt?$AAm?$AAs?$AAg?$AA?$CJ@ 40154838     LIBCMTD:crt0msg.obj
 0003:000258d0       ??_C@_1HG@CJJGKFHK@?$AAs?$AAt?$AAr?$AAn?$AAc?$AAp?$AAy?$AA_?$AAs?$AA?$CI?$AAp?$AAc?$AAh?$AA?0?$AA?5?$AAp?$AAr?$AAo?$AAg?$AAn?$AAa?$AAm?$AAe?$AA_?$AAs?$AAi?$AAz?$AAe?$AA?5?$AA?9?$AA?5?$AA?$CI@ 401548d0     LIBCMTD:crt0msg.obj
 0003:00025960       ??_C@_1HI@FOOPEDMH@?$AAs?$AAt?$AAr?$AAc?$AAp?$AAy?$AA_?$AAs?$AA?$CI?$AAp?$AAr?$AAo?$AAg?$AAn?$AAa?$AAm?$AAe?$AA?0?$AA?5?$AAp?$AAr?$AAo?$AAg?$AAn?$AAa?$AAm?$AAe?$AA_?$AAs?$AAi?$AAz?$AAe@ 40154960     LIBCMTD:crt0msg.obj
 0003:000259f0       ??_C@_0BK@OFGJDLJJ@Runtime?5Error?$CB?6?6Program?3?5?$AA@ 401549f0     LIBCMTD:crt0msg.obj
 0003:00025a10       ??_C@_1KM@NKKPELHG@?$AAs?$AAt?$AAr?$AAc?$AAp?$AAy?$AA_?$AAs?$AA?$CI?$AAo?$AAu?$AAt?$AAm?$AAs?$AAg?$AA?0?$AA?5?$AA?$CI?$AAs?$AAi?$AAz?$AAe?$AAo?$AAf?$AA?$CI?$AAo?$AAu?$AAt?$AAm?$AAs?$AAg?$AA?$CJ@ 40154a10     LIBCMTD:crt0msg.obj
 0003:00025ae0       ??_C@_1BI@EAHMBMEC@?$AA_?$AAN?$AAM?$AAS?$AAG?$AA_?$AAW?$AAR?$AAI?$AAT?$AAE?$AA?$AA@ 40154ae0     LIBCMTD:crt0msg.obj
 0003:00025b00       ??_C@_1GC@HKOJBOFF@?$AAf?$AA?3?$AA?2?$AAd?$AAd?$AA?2?$AAv?$AAc?$AAt?$AAo?$AAo?$AAl?$AAs?$AA?2?$AAc?$AAr?$AAt?$AA_?$AAb?$AAl?$AAd?$AA?2?$AAs?$AAe?$AAl?$AAf?$AA_?$AAx?$AA8?$AA6?$AA?2?$AAc@ 40154b00     LIBCMTD:crt0msg.obj
 0003:00025b78       ??_C@_0BC@JEAENNKH@SystemFunction036?$AA@ 40154b78     LIBCMTD:rand_s.obj
 0003:00025b90       ??_C@_1GA@EBEDGGGB@?$AA?$CI?$AA?$CC?$AAr?$AAa?$AAn?$AAd?$AA_?$AAs?$AA?5?$AAi?$AAs?$AA?5?$AAn?$AAo?$AAt?$AA?5?$AAa?$AAv?$AAa?$AAi?$AAl?$AAa?$AAb?$AAl?$AAe?$AA?5?$AAo?$AAn?$AA?5?$AAt?$AAh?$AAi@ 40154b90     LIBCMTD:rand_s.obj
 0003:00025c04       ??_C@_1O@IJGPPOGF@?$AAr?$AAa?$AAn?$AAd?$AA_?$AAs?$AA?$AA@ 40154c04     LIBCMTD:rand_s.obj
 0003:00025c18       ??_C@_1GA@HBGBBKCD@?$AAf?$AA?3?$AA?2?$AAd?$AAd?$AA?2?$AAv?$AAc?$AAt?$AAo?$AAo?$AAl?$AAs?$AA?2?$AAc?$AAr?$AAt?$AA_?$AAb?$AAl?$AAd?$AA?2?$AAs?$AAe?$AAl?$AAf?$AA_?$AAx?$AA8?$AA6?$AA?2?$AAc@ 40154c18     LIBCMTD:rand_s.obj
 0003:00025c8c       ??_C@_1CK@GFDNDKK@?$AA_?$AAR?$AAa?$AAn?$AAd?$AAo?$AAm?$AAV?$AAa?$AAl?$AAu?$AAe?$AA?5?$AA?$CB?$AA?$DN?$AA?5?$AAN?$AAU?$AAL?$AAL?$AA?$AA@ 40154c8c     LIBCMTD:rand_s.obj
 0003:00025cc0       ??_C@_1GO@NGIGJNHH@?$AAs?$AAt?$AAr?$AAn?$AAc?$AAp?$AAy?$AA_?$AAs?$AA?$CI?$AA?$CK?$AAs?$AAt?$AAr?$AAa?$AAd?$AAd?$AAr?$AAe?$AAs?$AAs?$AA?0?$AA?5?$AAo?$AAu?$AAt?$AAs?$AAi?$AAz?$AAe?$AA?0?$AA?5@ 40154cc0     LIBCMTD:inithelp.obj
 0003:00025d44       ??_C@_1CA@KHHCPEI@?$AA_?$AA_?$AAg?$AAe?$AAt?$AAl?$AAo?$AAc?$AAa?$AAl?$AAe?$AAi?$AAn?$AAf?$AAo?$AA?$AA@ 40154d44     LIBCMTD:inithelp.obj
 0003:00025d70       ??_C@_1GE@PLPIMDHG@?$AAf?$AA?3?$AA?2?$AAd?$AAd?$AA?2?$AAv?$AAc?$AAt?$AAo?$AAo?$AAl?$AAs?$AA?2?$AAc?$AAr?$AAt?$AA_?$AAb?$AAl?$AAd?$AA?2?$AAs?$AAe?$AAl?$AAf?$AA_?$AAx?$AA8?$AA6?$AA?2?$AAc@ 40154d70     LIBCMTD:inithelp.obj
 0003:00025de8       ??_C@_0DC@CFDMMFIG@f?3?2dd?2vctools?2crt_bld?2self_x86?2c@ 40154de8     LIBCMTD:inithelp.obj
 0003:00025e28       ??_C@_1GG@CDHAPCGF@?$AAf?$AA?3?$AA?2?$AAd?$AAd?$AA?2?$AAv?$AAc?$AAt?$AAo?$AAo?$AAl?$AAs?$AA?2?$AAc?$AAr?$AAt?$AA_?$AAb?$AAl?$AAd?$AA?2?$AAs?$AAe?$AAl?$AAf?$AA_?$AAx?$AA8?$AA6?$AA?2?$AAc@ 40154e28     LIBCMTD:handler.obj
 0003:00025ea4       ??_C@_1BC@JLLICHIC@?$AAp?$AAn?$AAh?$AA?5?$AA?$DN?$AA?$DN?$AA?5?$AA0?$AA?$AA@ 40154ea4     LIBCMTD:handler.obj
 0003:00025ec0       ??_C@_1JE@ECKHFIFP@?$AA?$CI?$AA?$CC?$AAI?$AAn?$AAv?$AAa?$AAl?$AAi?$AAd?$AA?5?$AAf?$AAi?$AAl?$AAe?$AA?5?$AAd?$AAe?$AAs?$AAc?$AAr?$AAi?$AAp?$AAt?$AAo?$AAr?$AA?4?$AA?5?$AAF?$AAi?$AAl?$AAe?$AA?5@ 40154ec0     LIBCMTD:commit.obj
 0003:00025f74       ??_C@_1DG@LNNHNFHJ@?$AA?$CI?$AA_?$AAo?$AAs?$AAf?$AAi?$AAl?$AAe?$AA?$CI?$AAf?$AAi?$AAl?$AAe?$AAd?$AAe?$AAs?$AA?$CJ?$AA?5?$AA?$CG?$AA?5?$AAF?$AAO?$AAP?$AAE?$AAN?$AA?$CJ?$AA?$AA@ 40154f74     LIBCMTD:commit.obj
 0003:00025fb4       ??_C@_1BA@FLNMBBIM@?$AA_?$AAc?$AAo?$AAm?$AAm?$AAi?$AAt?$AA?$AA@ 40154fb4     LIBCMTD:commit.obj
 0003:00025fc8       ??_C@_1GA@BOPCOCFN@?$AAf?$AA?3?$AA?2?$AAd?$AAd?$AA?2?$AAv?$AAc?$AAt?$AAo?$AAo?$AAl?$AAs?$AA?2?$AAc?$AAr?$AAt?$AA_?$AAb?$AAl?$AAd?$AA?2?$AAs?$AAe?$AAl?$AAf?$AA_?$AAx?$AA8?$AA6?$AA?2?$AAc@ 40154fc8     LIBCMTD:commit.obj
 0003:00026040       ??_C@_1HC@KFLBHHBC@?$AA?$CI?$AAf?$AAi?$AAl?$AAe?$AAd?$AAe?$AAs?$AA?5?$AA?$DO?$AA?$DN?$AA?5?$AA0?$AA?5?$AA?$CG?$AA?$CG?$AA?5?$AA?$CI?$AAu?$AAn?$AAs?$AAi?$AAg?$AAn?$AAe?$AAd?$AA?$CJ?$AAf?$AAi?$AAl?$AAe?$AAd@ 40155040     LIBCMTD:commit.obj
 0003:000260c8       ??_C@_1BA@JGHIEKKM@?$AA_?$AAf?$AAi?$AAl?$AAe?$AAn?$AAo?$AA?$AA@ 401550c8     LIBCMTD:fileno.obj
 0003:000260e0       ??_C@_1GA@PBJHELNC@?$AAf?$AA?3?$AA?2?$AAd?$AAd?$AA?2?$AAv?$AAc?$AAt?$AAo?$AAo?$AAl?$AAs?$AA?2?$AAc?$AAr?$AAt?$AA_?$AAb?$AAl?$AAd?$AA?2?$AAs?$AAe?$AAl?$AAf?$AA_?$AAx?$AA8?$AA6?$AA?2?$AAc@ 401550e0     LIBCMTD:fileno.obj
 0003:00026154       ??_C@_1CM@OKGMMMDH@?$AA?$CI?$AA_?$AAo?$AAs?$AAf?$AAi?$AAl?$AAe?$AA?$CI?$AAf?$AAh?$AA?$CJ?$AA?5?$AA?$CG?$AA?5?$AAF?$AAO?$AAP?$AAE?$AAN?$AA?$CJ?$AA?$AA@ 40155154     LIBCMTD:write.obj
 0003:00026188       ??_C@_1O@KOFKDHPL@?$AA_?$AAw?$AAr?$AAi?$AAt?$AAe?$AA?$AA@ 40155188     LIBCMTD:write.obj
 0003:00026198       ??_C@_1FO@EPLDPDDL@?$AAf?$AA?3?$AA?2?$AAd?$AAd?$AA?2?$AAv?$AAc?$AAt?$AAo?$AAo?$AAl?$AAs?$AA?2?$AAc?$AAr?$AAt?$AA_?$AAb?$AAl?$AAd?$AA?2?$AAs?$AAe?$AAl?$AAf?$AA_?$AAx?$AA8?$AA6?$AA?2?$AAc@ 40155198     LIBCMTD:write.obj
 0003:00026208       ??_C@_1FO@LPCLHKGE@?$AA?$CI?$AAf?$AAh?$AA?5?$AA?$DO?$AA?$DN?$AA?5?$AA0?$AA?5?$AA?$CG?$AA?$CG?$AA?5?$AA?$CI?$AAu?$AAn?$AAs?$AAi?$AAg?$AAn?$AAe?$AAd?$AA?$CJ?$AAf?$AAh?$AA?5?$AA?$DM?$AA?5?$AA?$CI?$AAu?$AAn?$AAs?$AAi@ 40155208     LIBCMTD:write.obj
 0003:00026278       ??_C@_1DI@CNMHHHLG@?$AAi?$AAs?$AAl?$AAe?$AAa?$AAd?$AAb?$AAy?$AAt?$AAe?$AA?$CI?$AA_?$AAd?$AAb?$AAc?$AAs?$AAB?$AAu?$AAf?$AAf?$AAe?$AAr?$AA?$CI?$AAf?$AAh?$AA?$CJ?$AA?$CJ?$AA?$AA@ 40155278     LIBCMTD:write.obj
 0003:000262bc       ??_C@_1CC@EEOLPHGO@?$AA?$CI?$AA?$CI?$AAc?$AAn?$AAt?$AA?5?$AA?$CG?$AA?5?$AA1?$AA?$CJ?$AA?5?$AA?$DN?$AA?$DN?$AA?5?$AA0?$AA?$CJ?$AA?$AA@ 401552bc     LIBCMTD:write.obj
 0003:000262e4       ??_C@_1BM@NCANHCIP@?$AA_?$AAw?$AAr?$AAi?$AAt?$AAe?$AA_?$AAn?$AAo?$AAl?$AAo?$AAc?$AAk?$AA?$AA@ 401552e4     LIBCMTD:write.obj
 0003:00026308       ??_C@_1BM@KFJLMBPG@?$AA?$CI?$AAb?$AAu?$AAf?$AA?5?$AA?$CB?$AA?$DN?$AA?5?$AAN?$AAU?$AAL?$AAL?$AA?$CJ?$AA?$AA@ 40155308     LIBCMTD:write.obj
 0003:0002632c       ??_C@_0DB@OLNNDFNH@f?3?2dd?2vctools?2crt_bld?2self_x86?2c@ 4015532c     LIBCMTD:_sftbuf.obj
 0003:00026368       ??_C@_1GC@DGAFOCMO@?$AAf?$AA?3?$AA?2?$AAd?$AAd?$AA?2?$AAv?$AAc?$AAt?$AAo?$AAo?$AAl?$AAs?$AA?2?$AAc?$AAr?$AAt?$AA_?$AAb?$AAl?$AAd?$AA?2?$AAs?$AAe?$AAl?$AAf?$AA_?$AAx?$AA8?$AA6?$AA?2?$AAc@ 40155368     LIBCMTD:_sftbuf.obj
 0003:000263e0       ??_C@_1CO@KCKAACMI@?$AAf?$AAl?$AAa?$AAg?$AA?5?$AA?$DN?$AA?$DN?$AA?5?$AA0?$AA?5?$AA?$HM?$AA?$HM?$AA?5?$AAf?$AAl?$AAa?$AAg?$AA?5?$AA?$DN?$AA?$DN?$AA?5?$AA1?$AA?$AA@ 401553e0     LIBCMTD:_sftbuf.obj
 0003:00026418       ??_C@_1BG@BBCDFOMA@?$AA_?$AAw?$AAo?$AAu?$AAt?$AAp?$AAu?$AAt?$AA_?$AAl?$AA?$AA@ 40155418     LIBCMTD:woutput.obj
 0003:00026434       ??_C@_1CC@MONNFDCM@?$AAv?$AAf?$AAw?$AAp?$AAr?$AAi?$AAn?$AAt?$AAf?$AA_?$AAh?$AAe?$AAl?$AAp?$AAe?$AAr?$AA?$AA@ 40155434     LIBCMTD:vfwprint.obj
 0003:00026460       ??_C@_1GE@MBMBDAGC@?$AAf?$AA?3?$AA?2?$AAd?$AAd?$AA?2?$AAv?$AAc?$AAt?$AAo?$AAo?$AAl?$AAs?$AA?2?$AAc?$AAr?$AAt?$AA_?$AAb?$AAl?$AAd?$AA?2?$AAs?$AAe?$AAl?$AAf?$AA_?$AAx?$AA8?$AA6?$AA?2?$AAc@ 40155460     LIBCMTD:vfwprint.obj
 0003:000264d8       ??_C@_1GE@MIMBMOF@?$AAf?$AA?3?$AA?2?$AAd?$AAd?$AA?2?$AAv?$AAc?$AAt?$AAo?$AAo?$AAl?$AAs?$AA?2?$AAc?$AAr?$AAt?$AA_?$AAb?$AAl?$AAd?$AA?2?$AAs?$AAe?$AAl?$AAf?$AA_?$AAx?$AA8?$AA6?$AA?2?$AAc@ 401554d8     LIBCMTD:_freebuf.obj
 0003:00026550       ??_C@_1BO@KIJENGPH@?$AAs?$AAt?$AAr?$AAe?$AAa?$AAm?$AA?5?$AA?$CB?$AA?$DN?$AA?5?$AAN?$AAU?$AAL?$AAL?$AA?$AA@ 40155550     LIBCMTD:_freebuf.obj
 0003:00026574       ??_C@_1BK@ONMFGLDB@?$AA_?$AAw?$AAo?$AAu?$AAt?$AAp?$AAu?$AAt?$AA_?$AAs?$AA_?$AAl?$AA?$AA@ 40155574     LIBCMTD:woutputs.obj
 0003:00026594       ??_C@_1BK@GDEKGMNC@?$AA_?$AAw?$AAo?$AAu?$AAt?$AAp?$AAu?$AAt?$AA_?$AAp?$AA_?$AAl?$AA?$AA@ 40155594     LIBCMTD:woutputp.obj
 0003:000265b8       ??_C@_1GA@GFFDGGFH@?$AAf?$AA?3?$AA?2?$AAd?$AAd?$AA?2?$AAv?$AAc?$AAt?$AAo?$AAo?$AAl?$AAs?$AA?2?$AAc?$AAr?$AAt?$AA_?$AAb?$AAl?$AAd?$AA?2?$AAs?$AAe?$AAl?$AAf?$AA_?$AAx?$AA8?$AA6?$AA?2?$AAc@ 401555b8     LIBCMTD:mbtowc.obj
 0003:00026630       ??_C@_1NC@EINCOKCO@?$AA_?$AAl?$AAo?$AAc?$AA_?$AAu?$AAp?$AAd?$AAa?$AAt?$AAe?$AA?4?$AAG?$AAe?$AAt?$AAL?$AAo?$AAc?$AAa?$AAl?$AAe?$AAT?$AA?$CI?$AA?$CJ?$AA?9?$AA?$DO?$AAl?$AAo?$AAc?$AAi?$AAn?$AAf@ 40155630     LIBCMTD:mbtowc.obj
 0003:0002672c       ??_C@_1BA@IIKEPOGH@?$AA_?$AAf?$AAi?$AAl?$AAb?$AAu?$AAf?$AA?$AA@ 4015572c     LIBCMTD:_filbuf.obj
 0003:00026740       ??_C@_1GC@CHFNJKFB@?$AAf?$AA?3?$AA?2?$AAd?$AAd?$AA?2?$AAv?$AAc?$AAt?$AAo?$AAo?$AAl?$AAs?$AA?2?$AAc?$AAr?$AAt?$AA_?$AAb?$AAl?$AAd?$AA?2?$AAs?$AAe?$AAl?$AAf?$AA_?$AAx?$AA8?$AA6?$AA?2?$AAc@ 40155740     LIBCMTD:_filbuf.obj
 0003:000267b8       ??_C@_1O@JDPLECOK@?$AAu?$AAn?$AAg?$AAe?$AAt?$AAc?$AA?$AA@ 401557b8     LIBCMTD:ungetc.obj
 0003:000267c8       ??_C@_1GA@OAFAANFO@?$AAf?$AA?3?$AA?2?$AAd?$AAd?$AA?2?$AAv?$AAc?$AAt?$AAo?$AAo?$AAl?$AAs?$AA?2?$AAc?$AAr?$AAt?$AA_?$AAb?$AAl?$AAd?$AA?2?$AAs?$AAe?$AAl?$AAf?$AA_?$AAx?$AA8?$AA6?$AA?2?$AAc@ 401557c8     LIBCMTD:ungetc.obj
 0003:0002683c       ??_C@_1BO@OLMLKKEA@?$AA_?$AAu?$AAn?$AAg?$AAe?$AAt?$AAc?$AA_?$AAn?$AAo?$AAl?$AAo?$AAc?$AAk?$AA?$AA@ 4015583c     LIBCMTD:ungetc.obj
 0003:00026860       ??_C@_1HC@OEJDDIIH@?$AAf?$AA?3?$AA?2?$AAd?$AAd?$AA?2?$AAv?$AAc?$AAt?$AAo?$AAo?$AAl?$AAs?$AA?2?$AAc?$AAr?$AAt?$AA_?$AAb?$AAl?$AAd?$AA?2?$AAs?$AAe?$AAl?$AAf?$AA_?$AAx?$AA8?$AA6?$AA?2?$AAc@ 40155860     LIBCMTD:ungetc.obj
 0003:000268e8       ??_C@_1BE@KHFBJMNM@?$AA_?$AAl?$AAs?$AAe?$AAe?$AAk?$AAi?$AA6?$AA4?$AA?$AA@ 401558e8     LIBCMTD:lseeki64.obj
 0003:00026900       ??_C@_1GE@MINKPNPH@?$AAf?$AA?3?$AA?2?$AAd?$AAd?$AA?2?$AAv?$AAc?$AAt?$AAo?$AAo?$AAl?$AAs?$AA?2?$AAc?$AAr?$AAt?$AA_?$AAb?$AAl?$AAd?$AA?2?$AAs?$AAe?$AAl?$AAf?$AA_?$AAx?$AA8?$AA6?$AA?2?$AAc@ 40155900     LIBCMTD:lseeki64.obj
 0003:00026978       ??_C@_0DB@JEHOCBEJ@f?3?2dd?2vctools?2crt_bld?2self_x86?2c@ 40155978     LIBCMTD:_getbuf.obj
 0003:000269b8       ??_C@_1GC@DKMGNNCC@?$AAf?$AA?3?$AA?2?$AAd?$AAd?$AA?2?$AAv?$AAc?$AAt?$AAo?$AAo?$AAl?$AAs?$AA?2?$AAc?$AAr?$AAt?$AA_?$AAb?$AAl?$AAd?$AA?2?$AAs?$AAe?$AAl?$AAf?$AA_?$AAx?$AA8?$AA6?$AA?2?$AAc@ 401559b8     LIBCMTD:_getbuf.obj
 0003:00026a30       ??_C@_1BA@LEBDGIHM@?$AA_?$AAi?$AAs?$AAa?$AAt?$AAt?$AAy?$AA?$AA@ 40155a30     LIBCMTD:isatty.obj
 0003:00026a48       ??_C@_1GA@LPGDJDEN@?$AAf?$AA?3?$AA?2?$AAd?$AAd?$AA?2?$AAv?$AAc?$AAt?$AAo?$AAo?$AAl?$AAs?$AA?2?$AAc?$AAr?$AAt?$AA_?$AAb?$AAl?$AAd?$AA?2?$AAs?$AAe?$AAl?$AAf?$AA_?$AAx?$AA8?$AA6?$AA?2?$AAc@ 40155a48     LIBCMTD:isatty.obj
 0003:00026abc       ??_C@_1O@GKDHFACN@?$AAp?$AAr?$AAi?$AAn?$AAt?$AAf?$AA?$AA@ 40155abc     LIBCMTD:printf.obj
 0003:00026ad0       ??_C@_1GA@LHEGHOAF@?$AAf?$AA?3?$AA?2?$AAd?$AAd?$AA?2?$AAv?$AAc?$AAt?$AAo?$AAo?$AAl?$AAs?$AA?2?$AAc?$AAr?$AAt?$AA_?$AAb?$AAl?$AAd?$AA?2?$AAs?$AAe?$AAl?$AAf?$AA_?$AAx?$AA8?$AA6?$AA?2?$AAc@ 40155ad0     LIBCMTD:printf.obj
 0003:00026b44       ??_C@_1BI@IEADNOHF@?$AA_?$AAw?$AAc?$AAt?$AAo?$AAm?$AAb?$AA_?$AAs?$AA_?$AAl?$AA?$AA@ 40155b44     LIBCMTD:wctomb.obj
 0003:00026b60       ??_C@_1GA@LDLHPOO@?$AAf?$AA?3?$AA?2?$AAd?$AAd?$AA?2?$AAv?$AAc?$AAt?$AAo?$AAo?$AAl?$AAs?$AA?2?$AAc?$AAr?$AAt?$AA_?$AAb?$AAl?$AAd?$AA?2?$AAs?$AAe?$AAl?$AAf?$AA_?$AAx?$AA8?$AA6?$AA?2?$AAc@ 40155b60     LIBCMTD:wctomb.obj
 0003:00026bd4       ??_C@_1CO@HFMIILNF@?$AAs?$AAi?$AAz?$AAe?$AAI?$AAn?$AAB?$AAy?$AAt?$AAe?$AAs?$AA?5?$AA?$DM?$AA?$DN?$AA?5?$AAI?$AAN?$AAT?$AA_?$AAM?$AAA?$AAX?$AA?$AA@ 40155bd4     LIBCMTD:wctomb.obj
 0003:00026c10       ___lookuptable_s           40155c10     LIBCMTD:outputs.obj
 0003:00026c7c       ??_C@_1BI@COFBLHCG@?$AA_?$AAo?$AAu?$AAt?$AAp?$AAu?$AAt?$AA_?$AAs?$AA_?$AAl?$AA?$AA@ 40155c7c     LIBCMTD:outputs.obj
 0003:00026c98       ??_C@_0DC@IHGBBJOH@f?3?2dd?2vctools?2crt_bld?2self_x86?2c@ 40155c98     LIBCMTD:convrtcp.obj
 0003:00026cd4       ??_C@_1BK@JMCGJOCC@?$AA_?$AAe?$AAx?$AAp?$AAa?$AAn?$AAd?$AA_?$AAb?$AAa?$AAs?$AAe?$AA?$AA@ 40155cd4     LIBCMTD:expand.obj
 0003:00026cf8       ??_C@_1GA@EBHFLDNH@?$AAf?$AA?3?$AA?2?$AAd?$AAd?$AA?2?$AAv?$AAc?$AAt?$AAo?$AAo?$AAl?$AAs?$AA?2?$AAc?$AAr?$AAt?$AA_?$AAb?$AAl?$AAd?$AA?2?$AAs?$AAe?$AAl?$AAf?$AA_?$AAx?$AA8?$AA6?$AA?2?$AAc@ 40155cf8     LIBCMTD:expand.obj
 0003:00026d6c       ??_C@_1BO@KFIJIAEA@?$AAp?$AAB?$AAl?$AAo?$AAc?$AAk?$AA?5?$AA?$CB?$AA?$DN?$AA?5?$AAN?$AAU?$AAL?$AAL?$AA?$AA@ 40155d6c     LIBCMTD:expand.obj
 0003:00026d90       ??_C@_0BF@PEEJCKGM@HeapQueryInformation?$AA@ 40155d90     LIBCMTD:expand.obj
 0003:00026dac       ??_C@_1BK@MGMFAEKH@?$AAk?$AAe?$AAr?$AAn?$AAe?$AAl?$AA3?$AA2?$AA?4?$AAd?$AAl?$AAl?$AA?$AA@ 40155dac     LIBCMTD:expand.obj
 0003:00026dd0       ??_C@_1GA@CMCJKKIB@?$AAf?$AA?3?$AA?2?$AAd?$AAd?$AA?2?$AAv?$AAc?$AAt?$AAo?$AAo?$AAl?$AAs?$AA?2?$AAc?$AAr?$AAt?$AA_?$AAb?$AAl?$AAd?$AA?2?$AAs?$AAe?$AAl?$AAf?$AA_?$AAx?$AA8?$AA6?$AA?2?$AAc@ 40155dd0     LIBCMTD:sbheap.obj
 0003:00026e48       ??_C@_1IC@MOGBEBCE@?$AA?$CI?$AAt?$AAh?$AAr?$AAe?$AAs?$AAh?$AAo?$AAl?$AAd?$AA?5?$AA?$DM?$AA?$DN?$AA?5?$AAM?$AAA?$AAX?$AA_?$AAA?$AAL?$AAL?$AAO?$AAC?$AA_?$AAD?$AAA?$AAT?$AAA?$AA_?$AAS?$AAI?$AAZ@ 40155e48     LIBCMTD:sbheap.obj
 0003:00026ee4       ??_C@_1CG@BBFCGKBK@?$AA_?$AAs?$AAe?$AAt?$AA_?$AAs?$AAb?$AAh?$AA_?$AAt?$AAh?$AAr?$AAe?$AAs?$AAh?$AAo?$AAl?$AAd?$AA?$AA@ 40155ee4     LIBCMTD:sbheap.obj
 0003:00026f18       ??_C@_1EC@DACAONFE@?$AAt?$AAh?$AAr?$AAe?$AAs?$AAh?$AAo?$AAl?$AAd?$AA?5?$AA?$DM?$AA?$DN?$AA?5?$AAM?$AAA?$AAX?$AA_?$AAA?$AAL?$AAL?$AAO?$AAC?$AA_?$AAD?$AAA?$AAT?$AAA?$AA_?$AAS?$AAI?$AAZ?$AAE@ 40155f18     LIBCMTD:sbheap.obj
 0003:00026f68       ??_C@_1BM@GFNECEDD@?$AA_?$AAs?$AAe?$AAt?$AA_?$AAa?$AAm?$AAb?$AAl?$AAk?$AAs?$AAi?$AAz?$AA?$AA@ 40155f68     LIBCMTD:sbheap.obj
 0003:00026f8c       ??_C@_1DK@BKLENMLC@?$AA0?$AA?5?$AA?$DM?$AA?5?$AAs?$AAi?$AAz?$AAe?$AA?5?$AA?$CG?$AA?$CG?$AA?5?$AAs?$AAi?$AAz?$AAe?$AA?5?$AA?$DM?$AA?$DN?$AA?5?$AAU?$AAI?$AAN?$AAT?$AA_?$AAM?$AAA?$AAX?$AA?$AA@ 40155f8c     LIBCMTD:sbheap.obj
 0003:00026fd4       ??_C@_1BM@OFBCOJJF@?$AA_?$AAg?$AAe?$AAt?$AA_?$AAa?$AAm?$AAb?$AAl?$AAk?$AAs?$AAi?$AAz?$AA?$AA@ 40155fd4     LIBCMTD:sbheap.obj
 0003:00026ff8       ??_C@_1BM@IELHFPPM@?$AAp?$AAS?$AAi?$AAz?$AAe?$AA?5?$AA?$CB?$AA?$DN?$AA?5?$AAN?$AAU?$AAL?$AAL?$AA?$AA@ 40155ff8     LIBCMTD:sbheap.obj
 0003:0002701c       ??_C@_0BK@CIDNPOGP@GetUserObjectInformationA?$AA@ 4015601c     LIBCMTD:crtmbox.obj
 0003:0002703c       ??_C@_0M@CHKKJDAI@MessageBoxA?$AA@ 4015603c     LIBCMTD:crtmbox.obj
 0003:0002704c       ??_C@_0L@NDEGIDAG@USER32?4DLL?$AA@ 4015604c     LIBCMTD:crtmbox.obj
 0003:0002705c       ??_C@_0P@GHFPNOJB@bad?5allocation?$AA@ 4015605c     LIBCMTD:frame.obj
 0003:00027070       __pDestructExceptionObject 40156070     LIBCMTD:frame.obj
 0003:00027074       ??_C@_0O@DPKOEFFH@bad?5exception?$AA@ 40156074     LIBCMTD:frame.obj
 0003:00027088       ??_7bad_exception@std@@6B@ 40156088     LIBCMTD:frame.obj
 0003:00027094       ?commonFlags@?1??_control87@@9@9 40156094     LIBCMTD:_ieee87_.obj
 0003:00027098       ??_C@_1GO@OKJGOMCB@?$AA_?$AAc?$AAo?$AAn?$AAt?$AAr?$AAo?$AAl?$AAf?$AAp?$AA_?$AAs?$AA?$CI?$AA?$CI?$AA?$CI?$AAv?$AAo?$AAi?$AAd?$AA?5?$AA?$CK?$AA?$CJ?$AA0?$AA?$CJ?$AA?0?$AA?5?$AAn?$AAe?$AAw?$AAc?$AAt?$AAr@ 40156098     LIBCMTD:_ieee87_.obj
 0003:0002711c       ??_C@_1BO@OFDNCLL@?$AA_?$AAs?$AAe?$AAt?$AA_?$AAc?$AAo?$AAn?$AAt?$AAr?$AAo?$AAl?$AAf?$AAp?$AA?$AA@ 4015611c     LIBCMTD:_ieee87_.obj
 0003:00027140       ??_C@_1HO@BFDKGHOI@?$AAf?$AA?3?$AA?2?$AAd?$AAd?$AA?2?$AAv?$AAc?$AAt?$AAo?$AAo?$AAl?$AAs?$AA?2?$AAc?$AAr?$AAt?$AA_?$AAb?$AAl?$AAd?$AA?2?$AAs?$AAe?$AAl?$AAf?$AA_?$AAx?$AA8?$AA6?$AA?2?$AAc@ 40156140     LIBCMTD:_ieee87_.obj
 0003:000271d8       ??_C@_06IMKFLFPG@1?$CDQNAN?$AA@ 401561d8     LIBCMTD:_x10fout_.obj
 0003:000271e0       ??_C@_1EG@MCFPJJEM@?$AAs?$AAt?$AAr?$AAc?$AAp?$AAy?$AA_?$AAs?$AA?$CI?$AAf?$AAo?$AAs?$AA?9?$AA?$DO?$AAm?$AAa?$AAn?$AA?0?$AA?5?$AA2?$AA1?$AA?$CL?$AA1?$AA?0?$AA?5?$AA?$CC?$AA1?$AA?$CD?$AAQ?$AAN?$AAA?$AAN@ 401561e0     LIBCMTD:_x10fout_.obj
 0003:00027234       ??_C@_05DNEBIAHO@1?$CDINF?$AA@ 40156234     LIBCMTD:_x10fout_.obj
 0003:00027240       ??_C@_1EE@ICBBBPAI@?$AAs?$AAt?$AAr?$AAc?$AAp?$AAy?$AA_?$AAs?$AA?$CI?$AAf?$AAo?$AAs?$AA?9?$AA?$DO?$AAm?$AAa?$AAn?$AA?0?$AA?5?$AA2?$AA1?$AA?$CL?$AA1?$AA?0?$AA?5?$AA?$CC?$AA1?$AA?$CD?$AAI?$AAN?$AAF?$AA?$CC@ 40156240     LIBCMTD:_x10fout_.obj
 0003:00027294       ??_C@_05PHHOCPM@1?$CDIND?$AA@ 40156294     LIBCMTD:_x10fout_.obj
 0003:000272a0       ??_C@_1EE@MADEBIHF@?$AAs?$AAt?$AAr?$AAc?$AAp?$AAy?$AA_?$AAs?$AA?$CI?$AAf?$AAo?$AAs?$AA?9?$AA?$DO?$AAm?$AAa?$AAn?$AA?0?$AA?5?$AA2?$AA1?$AA?$CL?$AA1?$AA?0?$AA?5?$AA?$CC?$AA1?$AA?$CD?$AAI?$AAN?$AAD?$AA?$CC@ 401562a0     LIBCMTD:_x10fout_.obj
 0003:000272f4       ??_C@_06PGGFOGJG@1?$CDSNAN?$AA@ 401562f4     LIBCMTD:_x10fout_.obj
 0003:00027300       ??_C@_1EG@CDDBFNOB@?$AAs?$AAt?$AAr?$AAc?$AAp?$AAy?$AA_?$AAs?$AA?$CI?$AAf?$AAo?$AAs?$AA?9?$AA?$DO?$AAm?$AAa?$AAn?$AA?0?$AA?5?$AA2?$AA1?$AA?$CL?$AA1?$AA?0?$AA?5?$AA?$CC?$AA1?$AA?$CD?$AAS?$AAN?$AAA?$AAN@ 40156300     LIBCMTD:_x10fout_.obj
 0003:00027354       ??_C@_1BI@ELMAAFLN@?$AA$?$AAI?$AA1?$AA0?$AA_?$AAO?$AAU?$AAT?$AAP?$AAU?$AAT?$AA?$AA@ 40156354     LIBCMTD:_x10fout_.obj
 0003:00027370       ??_C@_1HG@HFJMHCFK@?$AAf?$AA?3?$AA?2?$AAd?$AAd?$AA?2?$AAv?$AAc?$AAt?$AAo?$AAo?$AAl?$AAs?$AA?2?$AAc?$AAr?$AAt?$AA_?$AAb?$AAl?$AAd?$AA?2?$AAs?$AAe?$AAl?$AAf?$AA_?$AAx?$AA8?$AA6?$AA?2?$AAc@ 40156370     LIBCMTD:_x10fout_.obj
 0003:00027400       ??_C@_1CG@JEHFHLNG@?$AA_?$AAm?$AAb?$AAs?$AAt?$AAo?$AAw?$AAc?$AAs?$AA_?$AAl?$AA_?$AAh?$AAe?$AAl?$AAp?$AAe?$AAr?$AA?$AA@ 40156400     LIBCMTD:mbstowcs.obj
 0003:00027430       ??_C@_1GE@LCCDHBMH@?$AAf?$AA?3?$AA?2?$AAd?$AAd?$AA?2?$AAv?$AAc?$AAt?$AAo?$AAo?$AAl?$AAs?$AA?2?$AAc?$AAr?$AAt?$AA_?$AAb?$AAl?$AAd?$AA?2?$AAs?$AAe?$AAl?$AAf?$AA_?$AAx?$AA8?$AA6?$AA?2?$AAc@ 40156430     LIBCMTD:mbstowcs.obj
 0003:000274a8       ??_C@_1BE@EEKACIGI@?$AAs?$AA?5?$AA?$CB?$AA?$DN?$AA?5?$AAN?$AAU?$AAL?$AAL?$AA?$AA@ 401564a8     LIBCMTD:mbstowcs.obj
 0003:000274c0       ??_C@_1CO@JNPEPJAL@?$AAr?$AAe?$AAt?$AAs?$AAi?$AAz?$AAe?$AA?5?$AA?$DM?$AA?$DN?$AA?5?$AAs?$AAi?$AAz?$AAe?$AAI?$AAn?$AAW?$AAo?$AAr?$AAd?$AAs?$AA?$AA@ 401564c0     LIBCMTD:mbstowcs.obj
 0003:000274f8       ??_C@_1CM@LLECFMFH@?$AAb?$AAu?$AAf?$AAf?$AAe?$AAr?$AAS?$AAi?$AAz?$AAe?$AA?5?$AA?$DM?$AA?$DN?$AA?5?$AAI?$AAN?$AAT?$AA_?$AAM?$AAA?$AAX?$AA?$AA@ 401564f8     LIBCMTD:mbstowcs.obj
 0003:0002752c       ??_C@_1BM@PHENIGHD@?$AA_?$AAm?$AAb?$AAs?$AAt?$AAo?$AAw?$AAc?$AAs?$AA_?$AAs?$AA_?$AAl?$AA?$AA@ 4015652c     LIBCMTD:mbstowcs.obj
 0003:00027550       ??_C@_1JA@JKDFMOPO@?$AA?$CI?$AAp?$AAw?$AAc?$AAs?$AA?5?$AA?$DN?$AA?$DN?$AA?5?$AAN?$AAU?$AAL?$AAL?$AA?5?$AA?$CG?$AA?$CG?$AA?5?$AAs?$AAi?$AAz?$AAe?$AAI?$AAn?$AAW?$AAo?$AAr?$AAd?$AAs?$AA?5?$AA?$DN?$AA?$DN?$AA?5@ 40156550     LIBCMTD:mbstowcs.obj
 0003:000275fc       ??_C@_1O@GIMBNLEI@?$AAx?$AAt?$AAo?$AAa?$AA_?$AAs?$AA?$AA@ 401565fc     LIBCMTD:xtoas.obj
 0003:0002760c       ??_C@_1BC@MJJNBNFN@?$AAx?$AA6?$AA4?$AAt?$AAo?$AAa?$AA_?$AAs?$AA?$AA@ 4015660c     LIBCMTD:xtoas.obj
 0003:00027624       ??_C@_1CG@LLJCAOHF@?$AA_?$AAw?$AAc?$AAs?$AAt?$AAo?$AAm?$AAb?$AAs?$AA_?$AAl?$AA_?$AAh?$AAe?$AAl?$AAp?$AAe?$AAr?$AA?$AA@ 40156624     LIBCMTD:wcstombs.obj
 0003:00027658       ??_C@_1GE@OAENIBOD@?$AAf?$AA?3?$AA?2?$AAd?$AAd?$AA?2?$AAv?$AAc?$AAt?$AAo?$AAo?$AAl?$AAs?$AA?2?$AAc?$AAr?$AAt?$AA_?$AAb?$AAl?$AAd?$AA?2?$AAs?$AAe?$AAl?$AAf?$AA_?$AAx?$AA8?$AA6?$AA?2?$AAc@ 40156658     LIBCMTD:wcstombs.obj
 0003:000276d0       ??_C@_1BK@OIBENBPM@?$AAp?$AAw?$AAc?$AAs?$AA?5?$AA?$CB?$AA?$DN?$AA?5?$AAN?$AAU?$AAL?$AAL?$AA?$AA@ 401566d0     LIBCMTD:wcstombs.obj
 0003:000276f0       ??_C@_1CM@KEOGBFLI@?$AAs?$AAi?$AAz?$AAe?$AAI?$AAn?$AAB?$AAy?$AAt?$AAe?$AAs?$AA?5?$AA?$DO?$AA?5?$AAr?$AAe?$AAt?$AAs?$AAi?$AAz?$AAe?$AA?$AA@ 401566f0     LIBCMTD:wcstombs.obj
 0003:00027724       ??_C@_1BM@BDMCLLDL@?$AA_?$AAw?$AAc?$AAs?$AAt?$AAo?$AAm?$AAb?$AAs?$AA_?$AAs?$AA_?$AAl?$AA?$AA@ 40156724     LIBCMTD:wcstombs.obj
 0003:00027748       ??_C@_1IM@MFGKHGBP@?$AA?$CI?$AAd?$AAs?$AAt?$AA?5?$AA?$CB?$AA?$DN?$AA?5?$AAN?$AAU?$AAL?$AAL?$AA?5?$AA?$CG?$AA?$CG?$AA?5?$AAs?$AAi?$AAz?$AAe?$AAI?$AAn?$AAB?$AAy?$AAt?$AAe?$AAs?$AA?5?$AA?$DO?$AA?5?$AA0?$AA?$CJ@ 40156748     LIBCMTD:wcstombs.obj
 0003:000277f0       ??_C@_1BK@EPLNBKAK@?$AA_?$AAv?$AAs?$AAw?$AAp?$AAr?$AAi?$AAn?$AAt?$AAf?$AA_?$AAl?$AA?$AA@ 401567f0     LIBCMTD:vswprint.obj
 0003:00027810       ??_C@_1CG@IMMIEPNA@?$AA_?$AAv?$AAs?$AAc?$AAw?$AAp?$AAr?$AAi?$AAn?$AAt?$AAf?$AA_?$AAh?$AAe?$AAl?$AAp?$AAe?$AAr?$AA?$AA@ 40156810     LIBCMTD:vswprint.obj
 0003:00027840       ___dnames                  40156840     LIBCMTD:timeset.obj
 0003:00027858       ___mnames                  40156858     LIBCMTD:timeset.obj
 0003:0002788c       ??_C@_1BM@FIMHBHEB@?$AA_?$AAg?$AAe?$AAt?$AA_?$AAd?$AAa?$AAy?$AAl?$AAi?$AAg?$AAh?$AAt?$AA?$AA@ 4015688c     LIBCMTD:timeset.obj
 0003:000278b0       ??_C@_1GC@NEGFAKA@?$AAf?$AA?3?$AA?2?$AAd?$AAd?$AA?2?$AAv?$AAc?$AAt?$AAo?$AAo?$AAl?$AAs?$AA?2?$AAc?$AAr?$AAt?$AA_?$AAb?$AAl?$AAd?$AA?2?$AAs?$AAe?$AAl?$AAf?$AA_?$AAx?$AA8?$AA6?$AA?2?$AAc@ 401568b0     LIBCMTD:timeset.obj
 0003:00027928       ??_C@_1CI@MKJEHFPG@?$AA?$CI?$AA_?$AAD?$AAa?$AAy?$AAl?$AAi?$AAg?$AAh?$AAt?$AA?5?$AA?$CB?$AA?$DN?$AA?5?$AAN?$AAU?$AAL?$AAL?$AA?$CJ?$AA?$AA@ 40156928     LIBCMTD:timeset.obj
 0003:00027958       ??_C@_1BK@EMODDHEE@?$AA_?$AAg?$AAe?$AAt?$AA_?$AAd?$AAs?$AAt?$AAb?$AAi?$AAa?$AAs?$AA?$AA@ 40156958     LIBCMTD:timeset.obj
 0003:00027978       ??_C@_1EC@PKDJPAAB@?$AA?$CI?$AA_?$AAD?$AAa?$AAy?$AAl?$AAi?$AAg?$AAh?$AAt?$AA_?$AAs?$AAa?$AAv?$AAi?$AAn?$AAg?$AAs?$AA_?$AAb?$AAi?$AAa?$AAs?$AA?5?$AA?$CB?$AA?$DN?$AA?5?$AAN?$AAU?$AAL?$AAL?$AA?$CJ@ 40156978     LIBCMTD:timeset.obj
 0003:000279c8       ??_C@_1BM@MGEAKPEJ@?$AA_?$AAg?$AAe?$AAt?$AA_?$AAt?$AAi?$AAm?$AAe?$AAz?$AAo?$AAn?$AAe?$AA?$AA@ 401569c8     LIBCMTD:timeset.obj
 0003:000279ec       ??_C@_1CI@PODJJGAL@?$AA?$CI?$AA_?$AAT?$AAi?$AAm?$AAe?$AAz?$AAo?$AAn?$AAe?$AA?5?$AA?$CB?$AA?$DN?$AA?5?$AAN?$AAU?$AAL?$AAL?$AA?$CJ?$AA?$AA@ 401569ec     LIBCMTD:timeset.obj
 0003:00027a1c       ??_C@_1DG@HLGKANIP@?$AA_?$AAI?$AAn?$AAd?$AAe?$AAx?$AA?5?$AA?$DN?$AA?$DN?$AA?5?$AA0?$AA?5?$AA?$HM?$AA?$HM?$AA?5?$AA_?$AAI?$AAn?$AAd?$AAe?$AAx?$AA?5?$AA?$DN?$AA?$DN?$AA?5?$AA1?$AA?$AA@ 40156a1c     LIBCMTD:timeset.obj
 0003:00027a5c       ??_C@_1CK@GBKHKEI@?$AA_?$AAR?$AAe?$AAt?$AAu?$AAr?$AAn?$AAV?$AAa?$AAl?$AAu?$AAe?$AA?5?$AA?$CB?$AA?$DN?$AA?5?$AAN?$AAU?$AAL?$AAL?$AA?$AA@ 40156a5c     LIBCMTD:timeset.obj
 0003:00027a90       ??_C@_1BI@BHCKCCFA@?$AA_?$AAg?$AAe?$AAt?$AA_?$AAt?$AAz?$AAn?$AAa?$AAm?$AAe?$AA?$AA@ 40156a90     LIBCMTD:timeset.obj
 0003:00027ab0       ??_C@_1KA@POFLNEC@?$AA?$CI?$AA_?$AAB?$AAu?$AAf?$AAf?$AAe?$AAr?$AA?5?$AA?$CB?$AA?$DN?$AA?5?$AAN?$AAU?$AAL?$AAL?$AA?5?$AA?$CG?$AA?$CG?$AA?5?$AA_?$AAS?$AAi?$AAz?$AAe?$AAI?$AAn?$AAB?$AAy?$AAt?$AAe?$AAs@ 40156ab0     LIBCMTD:timeset.obj
 0003:00027b70       ??_C@_1EA@GEPBEDLJ@?$AAs?$AAt?$AAr?$AAn?$AAc?$AAp?$AAy?$AA_?$AAs?$AA?$CI?$AAt?$AAz?$AAn?$AAa?$AAm?$AAe?$AA?$FL?$AA1?$AA?$FN?$AA?0?$AA?5?$AA6?$AA4?$AA?0?$AA?5?$AAT?$AAZ?$AA?0?$AA?5?$AA3?$AA?$CJ?$AA?$AA@ 40156b70     LIBCMTD:tzset.obj
 0003:00027bc0       ??_C@_1EA@FIJBKALB@?$AAs?$AAt?$AAr?$AAn?$AAc?$AAp?$AAy?$AA_?$AAs?$AA?$CI?$AAt?$AAz?$AAn?$AAa?$AAm?$AAe?$AA?$FL?$AA0?$AA?$FN?$AA?0?$AA?5?$AA6?$AA4?$AA?0?$AA?5?$AAT?$AAZ?$AA?0?$AA?5?$AA3?$AA?$CJ?$AA?$AA@ 40156bc0     LIBCMTD:tzset.obj
 0003:00027c10       ??_C@_1EK@MCAIMDPB@?$AAs?$AAt?$AAr?$AAc?$AAp?$AAy?$AA_?$AAs?$AA?$CI?$AAl?$AAa?$AAs?$AAt?$AAT?$AAZ?$AA?0?$AA?5?$AAs?$AAt?$AAr?$AAl?$AAe?$AAn?$AA?$CI?$AAT?$AAZ?$AA?$CJ?$AA?5?$AA?$CL?$AA?5?$AA1?$AA?0@ 40156c10     LIBCMTD:tzset.obj
 0003:00027c68       ??_C@_0CP@FODJBIFF@f?3?2dd?2vctools?2crt_bld?2self_x86?2c@ 40156c68     LIBCMTD:tzset.obj
 0003:00027ca0       ??_C@_02CLFPBFFP@TZ?$AA@   40156ca0     LIBCMTD:tzset.obj
 0003:00027ca4       ??_C@_1CO@IMMOMMCB@?$AA_?$AAg?$AAe?$AAt?$AA_?$AAd?$AAs?$AAt?$AAb?$AAi?$AAa?$AAs?$AA?$CI?$AA?$CG?$AAd?$AAs?$AAt?$AAb?$AAi?$AAa?$AAs?$AA?$CJ?$AA?$AA@ 40156ca4     LIBCMTD:tzset.obj
 0003:00027cdc       ??_C@_1DC@MEHEMOPB@?$AA_?$AAg?$AAe?$AAt?$AA_?$AAd?$AAa?$AAy?$AAl?$AAi?$AAg?$AAh?$AAt?$AA?$CI?$AA?$CG?$AAd?$AAa?$AAy?$AAl?$AAi?$AAg?$AAh?$AAt?$AA?$CJ?$AA?$AA@ 40156cdc     LIBCMTD:tzset.obj
 0003:00027d18       ??_C@_1DC@CMKCHHFC@?$AA_?$AAg?$AAe?$AAt?$AA_?$AAt?$AAi?$AAm?$AAe?$AAz?$AAo?$AAn?$AAe?$AA?$CI?$AA?$CG?$AAt?$AAi?$AAm?$AAe?$AAz?$AAo?$AAn?$AAe?$AA?$CJ?$AA?$AA@ 40156d18     LIBCMTD:tzset.obj
 0003:00027d54       ??_C@_1BM@IIODHMJC@?$AA_?$AAt?$AAz?$AAs?$AAe?$AAt?$AA_?$AAn?$AAo?$AAl?$AAo?$AAc?$AAk?$AA?$AA@ 40156d54     LIBCMTD:tzset.obj
 0003:00027d78       ??_C@_1FO@MLHAIHAB@?$AAf?$AA?3?$AA?2?$AAd?$AAd?$AA?2?$AAv?$AAc?$AAt?$AAo?$AAo?$AAl?$AAs?$AA?2?$AAc?$AAr?$AAt?$AA_?$AAb?$AAl?$AAd?$AA?2?$AAs?$AAe?$AAl?$AAf?$AA_?$AAx?$AA8?$AA6?$AA?2?$AAc@ 40156d78     LIBCMTD:tzset.obj
 0003:00027de8       ??_C@_1CA@GOLIIEDM@?$AA_?$AAi?$AAs?$AAi?$AAn?$AAd?$AAs?$AAt?$AA_?$AAn?$AAo?$AAl?$AAo?$AAc?$AAk?$AA?$AA@ 40156de8     LIBCMTD:tzset.obj
 0003:00027e10       ??_C@_1BA@GOCKIDGO@?$AAc?$AAv?$AAt?$AAd?$AAa?$AAt?$AAe?$AA?$AA@ 40156e10     LIBCMTD:tzset.obj
 0003:00027e24       ??_C@_1BG@GLLONOEH@?$AA_?$AAs?$AAt?$AAr?$AAi?$AAc?$AAm?$AAp?$AA_?$AAl?$AA?$AA@ 40156e24     LIBCMTD:stricmp.obj
 0003:00027e40       ??_C@_1GC@OILHAOLL@?$AAf?$AA?3?$AA?2?$AAd?$AAd?$AA?2?$AAv?$AAc?$AAt?$AAo?$AAo?$AAl?$AAs?$AA?2?$AAc?$AAr?$AAt?$AA_?$AAb?$AAl?$AAd?$AA?2?$AAs?$AAe?$AAl?$AAf?$AA_?$AAx?$AA8?$AA6?$AA?2?$AAc@ 40156e40     LIBCMTD:stricmp.obj
 0003:00027eb8       ??_C@_1BC@JLGKKIIG@?$AA_?$AAs?$AAt?$AAr?$AAi?$AAc?$AAm?$AAp?$AA?$AA@ 40156eb8     LIBCMTD:stricmp.obj
 0003:00027ed0       ??_C@_1CC@JLPHKJPH@?$AAc?$AAo?$AAu?$AAn?$AAt?$AA?5?$AA?$DM?$AA?$DN?$AA?5?$AAI?$AAN?$AAT?$AA_?$AAM?$AAA?$AAX?$AA?$AA@ 40156ed0     LIBCMTD:strnicmp.obj
 0003:00027ef8       ??_C@_1BI@BJLEPLEF@?$AA_?$AAs?$AAt?$AAr?$AAn?$AAi?$AAc?$AAm?$AAp?$AA_?$AAl?$AA?$AA@ 40156ef8     LIBCMTD:strnicmp.obj
 0003:00027f18       ??_C@_1GE@CONPOJMA@?$AAf?$AA?3?$AA?2?$AAd?$AAd?$AA?2?$AAv?$AAc?$AAt?$AAo?$AAo?$AAl?$AAs?$AA?2?$AAc?$AAr?$AAt?$AA_?$AAb?$AAl?$AAd?$AA?2?$AAs?$AAe?$AAl?$AAf?$AA_?$AAx?$AA8?$AA6?$AA?2?$AAc@ 40156f18     LIBCMTD:strnicmp.obj
 0003:00027f90       ??_C@_1BE@BHJDFFNA@?$AA_?$AAs?$AAt?$AAr?$AAn?$AAi?$AAc?$AAm?$AAp?$AA?$AA@ 40156f90     LIBCMTD:strnicmp.obj
 0003:00027fa8       ??_C@_0DB@KIKNCIEC@f?3?2dd?2vctools?2crt_bld?2self_x86?2c@ 40156fa8     LIBCMTD:osfinfo.obj
 0003:00027fe4       ??_C@_1BO@EMBOBGKE@?$AA_?$AAg?$AAe?$AAt?$AA_?$AAo?$AAs?$AAf?$AAh?$AAa?$AAn?$AAd?$AAl?$AAe?$AA?$AA@ 40156fe4     LIBCMTD:osfinfo.obj
 0003:00028008       ??_C@_1GC@MLKLDJJG@?$AAf?$AA?3?$AA?2?$AAd?$AAd?$AA?2?$AAv?$AAc?$AAt?$AAo?$AAo?$AAl?$AAs?$AA?2?$AAc?$AAr?$AAt?$AA_?$AAb?$AAl?$AAd?$AA?2?$AAs?$AAe?$AAl?$AAf?$AA_?$AAx?$AA8?$AA6?$AA?2?$AAc@ 40157008     LIBCMTD:osfinfo.obj
 0003:00028080       ??_C@_1BA@NGNGNDEP@?$AA_?$AAc?$AAp?$AAu?$AAt?$AAw?$AAs?$AA?$AA@ 40157080     LIBCMTD:putwch.obj
 0003:00028098       ??_C@_1GA@NKLOJFIJ@?$AAf?$AA?3?$AA?2?$AAd?$AAd?$AA?2?$AAv?$AAc?$AAt?$AAo?$AAo?$AAl?$AAs?$AA?2?$AAc?$AAr?$AAt?$AA_?$AAb?$AAl?$AAd?$AA?2?$AAs?$AAe?$AAl?$AAf?$AA_?$AAx?$AA8?$AA6?$AA?2?$AAc@ 40157098     LIBCMTD:putwch.obj
 0003:0002810c       ??_C@_1O@HJNPHHHB@?$AAf?$AAp?$AAu?$AAt?$AAw?$AAc?$AA?$AA@ 4015710c     LIBCMTD:fputwc.obj
 0003:00028120       ??_C@_1GA@BJIGKGEA@?$AAf?$AA?3?$AA?2?$AAd?$AAd?$AA?2?$AAv?$AAc?$AAt?$AAo?$AAo?$AAl?$AAs?$AA?2?$AAc?$AAr?$AAt?$AA_?$AAb?$AAl?$AAd?$AA?2?$AAs?$AAe?$AAl?$AAf?$AA_?$AAx?$AA8?$AA6?$AA?2?$AAc@ 40157120     LIBCMTD:fputwc.obj
 0003:00028194       ??_C@_1O@EGMJNCOI@?$AAf?$AAc?$AAl?$AAo?$AAs?$AAe?$AA?$AA@ 40157194     LIBCMTD:fclose.obj
 0003:000281a8       ??_C@_1GA@KMIDAPAP@?$AAf?$AA?3?$AA?2?$AAd?$AAd?$AA?2?$AAv?$AAc?$AAt?$AAo?$AAo?$AAl?$AAs?$AA?2?$AAc?$AAr?$AAt?$AA_?$AAb?$AAl?$AAd?$AA?2?$AAs?$AAe?$AAl?$AAf?$AA_?$AAx?$AA8?$AA6?$AA?2?$AAc@ 401571a8     LIBCMTD:fclose.obj
 0003:0002821c       ??_C@_1BO@JINCABEC@?$AA_?$AAf?$AAc?$AAl?$AAo?$AAs?$AAe?$AA_?$AAn?$AAo?$AAl?$AAo?$AAc?$AAk?$AA?$AA@ 4015721c     LIBCMTD:fclose.obj
 0003:00028240       ??_C@_1BA@PCFLFGNC@?$AAw?$AAc?$AAs?$AAt?$AAo?$AAx?$AAl?$AA?$AA@ 40157240     LIBCMTD:wcstol.obj
 0003:00028258       ??_C@_1GA@CADFOND@?$AAf?$AA?3?$AA?2?$AAd?$AAd?$AA?2?$AAv?$AAc?$AAt?$AAo?$AAo?$AAl?$AAs?$AA?2?$AAc?$AAr?$AAt?$AA_?$AAb?$AAl?$AAd?$AA?2?$AAs?$AAe?$AAl?$AAf?$AA_?$AAx?$AA8?$AA6?$AA?2?$AAc@ 40157258     LIBCMTD:wcstol.obj
 0003:000282cc       ??_C@_1CC@HBLPFNKH@?$AA?$CI?$AAc?$AAn?$AAt?$AA?5?$AA?$DM?$AA?$DN?$AA?5?$AAI?$AAN?$AAT?$AA_?$AAM?$AAA?$AAX?$AA?$CJ?$AA?$AA@ 401572cc     LIBCMTD:read.obj
 0003:000282f4       ??_C@_1M@NHJOLLDM@?$AA_?$AAr?$AAe?$AAa?$AAd?$AA?$AA@ 401572f4     LIBCMTD:read.obj
 0003:00028308       ??_C@_1FM@NGICBHLO@?$AAf?$AA?3?$AA?2?$AAd?$AAd?$AA?2?$AAv?$AAc?$AAt?$AAo?$AAo?$AAl?$AAs?$AA?2?$AAc?$AAr?$AAt?$AA_?$AAb?$AAl?$AAd?$AA?2?$AAs?$AAe?$AAl?$AAf?$AA_?$AAx?$AA8?$AA6?$AA?2?$AAc@ 40157308     LIBCMTD:read.obj
 0003:00028378       ??_C@_0CO@CEGKNHEH@f?3?2dd?2vctools?2crt_bld?2self_x86?2c@ 40157378     LIBCMTD:read.obj
 0003:000283b0       ??_C@_1CG@OHLJHGGK@?$AA?$CI?$AAi?$AAn?$AAp?$AAu?$AAt?$AAb?$AAu?$AAf?$AA?5?$AA?$CB?$AA?$DN?$AA?5?$AAN?$AAU?$AAL?$AAL?$AA?$CJ?$AA?$AA@ 401573b0     LIBCMTD:read.obj
 0003:000283e0       ??_C@_1BK@JJBHNDKJ@?$AA_?$AAr?$AAe?$AAa?$AAd?$AA_?$AAn?$AAo?$AAl?$AAo?$AAc?$AAk?$AA?$AA@ 401573e0     LIBCMTD:read.obj
 0003:00028400       ??_C@_1BO@JGFPDJCP@?$AAv?$AAp?$AAr?$AAi?$AAn?$AAt?$AAf?$AA_?$AAh?$AAe?$AAl?$AAp?$AAe?$AAr?$AA?$AA@ 40157400     LIBCMTD:vprintf.obj
 0003:00028428       ??_C@_1GC@DHFFJKMC@?$AAf?$AA?3?$AA?2?$AAd?$AAd?$AA?2?$AAv?$AAc?$AAt?$AAo?$AAo?$AAl?$AAs?$AA?2?$AAc?$AAr?$AAt?$AA_?$AAb?$AAl?$AAd?$AA?2?$AAs?$AAe?$AAl?$AAf?$AA_?$AAx?$AA8?$AA6?$AA?2?$AAc@ 40157428     LIBCMTD:vprintf.obj
 0003:000284cc       ??_7type_info@@6B@         401574cc     LIBCMTD:typinfo.obj
 0003:000284d8       ??_7exception@std@@6B@     401574d8     LIBCMTD:stdexcpt.obj
 0003:000284e4       ??_C@_0BC@EOODALEL@Unknown?5exception?$AA@ 401574e4     LIBCMTD:stdexcpt.obj
 0003:00028500       ??_7bad_cast@std@@6B@      40157500     LIBCMTD:stdexcpt.obj
 0003:00028510       ??_7bad_typeid@std@@6B@    40157510     LIBCMTD:stdexcpt.obj
 0003:00028520       ??_7__non_rtti_object@std@@6B@ 40157520     LIBCMTD:stdexcpt.obj
 0003:00028530       ??_C@_1GE@BDAODJCD@?$AAf?$AA?3?$AA?2?$AAd?$AAd?$AA?2?$AAv?$AAc?$AAt?$AAo?$AAo?$AAl?$AAs?$AA?2?$AAc?$AAr?$AAt?$AA_?$AAb?$AAl?$AAd?$AA?2?$AAs?$AAe?$AAl?$AAf?$AA_?$AAx?$AA8?$AA6?$AA?2?$AAc@ 40157530     LIBCMTD:dbgdel.obj
 0003:000285a8       ??_C@_1FA@HILOOCMA@?$AA?$CI?$AA_?$AAt?$AAc?$AAs?$AAn?$AAl?$AAe?$AAn?$AA?$CI?$AAo?$AAp?$AAt?$AAi?$AAo?$AAn?$AA?0?$AA?5?$AA_?$AAM?$AAA?$AAX?$AA_?$AAE?$AAN?$AAV?$AA?$CJ?$AA?5?$AA?$DM?$AA?5?$AA_?$AAM@ 401575a8     LIBCMTD:getenv.obj
 0003:00028608       ??_C@_1O@GMKGKCJO@?$AAg?$AAe?$AAt?$AAe?$AAn?$AAv?$AA?$AA@ 40157608     LIBCMTD:getenv.obj
 0003:00028618       ??_C@_1GA@IPPICGKB@?$AAf?$AA?3?$AA?2?$AAd?$AAd?$AA?2?$AAv?$AAc?$AAt?$AAo?$AAo?$AAl?$AAs?$AA?2?$AAc?$AAr?$AAt?$AA_?$AAb?$AAl?$AAd?$AA?2?$AAs?$AAe?$AAl?$AAf?$AA_?$AAx?$AA8?$AA6?$AA?2?$AAc@ 40157618     LIBCMTD:getenv.obj
 0003:0002868c       ??_C@_1CC@FKAOHHLO@?$AA?$CI?$AAo?$AAp?$AAt?$AAi?$AAo?$AAn?$AA?5?$AA?$CB?$AA?$DN?$AA?5?$AAN?$AAU?$AAL?$AAL?$AA?$CJ?$AA?$AA@ 4015768c     LIBCMTD:getenv.obj
 0003:000286b8       ??_C@_1GI@JBIFPFJH@?$AA_?$AAt?$AAc?$AAs?$AAn?$AAl?$AAe?$AAn?$AA?$CI?$AA?$CK?$AAs?$AAe?$AAa?$AAr?$AAc?$AAh?$AA?5?$AA?$CL?$AA?5?$AAl?$AAe?$AAn?$AAg?$AAt?$AAh?$AA?5?$AA?$CL?$AA?5?$AA1?$AA?0?$AA?5?$AA_@ 401576b8     LIBCMTD:getenv.obj
 0003:00028738       ??_C@_1EI@HHOBPCFK@?$AAs?$AAt?$AAr?$AAc?$AAp?$AAy?$AA_?$AAs?$AA?$CI?$AAb?$AAu?$AAf?$AAf?$AAe?$AAr?$AA?0?$AA?5?$AAs?$AAi?$AAz?$AAe?$AAI?$AAn?$AAT?$AAC?$AAh?$AAa?$AAr?$AAs?$AA?0?$AA?5?$AAs@ 40157738     LIBCMTD:getenv.obj
 0003:00028790       ??_C@_1JM@NLPGJJPH@?$AA?$CI?$AAb?$AAu?$AAf?$AAf?$AAe?$AAr?$AA?5?$AA?$CB?$AA?$DN?$AA?5?$AAN?$AAU?$AAL?$AAL?$AA?5?$AA?$CG?$AA?$CG?$AA?5?$AAs?$AAi?$AAz?$AAe?$AAI?$AAn?$AAT?$AAC?$AAh?$AAa?$AAr?$AAs?$AA?5@ 40157790     LIBCMTD:getenv.obj
 0003:0002884c       ??_C@_1CC@BAJKDIIF@?$AA_?$AAg?$AAe?$AAt?$AAe?$AAn?$AAv?$AA_?$AAs?$AA_?$AAh?$AAe?$AAl?$AAp?$AAe?$AAr?$AA?$AA@ 4015784c     LIBCMTD:getenv.obj
 0003:00028874       ??_C@_1CK@PIKDAOCL@?$AAp?$AAR?$AAe?$AAt?$AAu?$AAr?$AAn?$AAV?$AAa?$AAl?$AAu?$AAe?$AA?5?$AA?$CB?$AA?$DN?$AA?5?$AAN?$AAU?$AAL?$AAL?$AA?$AA@ 40157874     LIBCMTD:getenv.obj
 0003:000288a8       ??_C@_1DM@GNKNEGJO@?$AAs?$AAt?$AAr?$AAc?$AAp?$AAy?$AA_?$AAs?$AA?$CI?$AA?$CK?$AAp?$AAB?$AAu?$AAf?$AAf?$AAe?$AAr?$AA?0?$AA?5?$AAs?$AAi?$AAz?$AAe?$AA?0?$AA?5?$AAs?$AAt?$AAr?$AA?$CJ?$AA?$AA@ 401578a8     LIBCMTD:getenv.obj
 0003:000288f0       ??_C@_1CA@GDBKELOE@?$AAv?$AAa?$AAr?$AAn?$AAa?$AAm?$AAe?$AA?5?$AA?$CB?$AA?$DN?$AA?5?$AAN?$AAU?$AAL?$AAL?$AA?$AA@ 401578f0     LIBCMTD:getenv.obj
 0003:00028918       ??_C@_1CC@KPLOPIEM@?$AA_?$AAd?$AAu?$AAp?$AAe?$AAn?$AAv?$AA_?$AAs?$AA_?$AAh?$AAe?$AAl?$AAp?$AAe?$AAr?$AA?$AA@ 40157918     LIBCMTD:getenv.obj
 0003:00028940       ??_C@_1CA@FHNFMDOJ@?$AAp?$AAB?$AAu?$AAf?$AAf?$AAe?$AAr?$AA?5?$AA?$CB?$AA?$DN?$AA?5?$AAN?$AAU?$AAL?$AAL?$AA?$AA@ 40157940     LIBCMTD:getenv.obj
 0003:00028968       ??_C@_06GDENEHCP@CONIN$?$AA@ 40157968     LIBCMTD:initcon.obj
 0003:00028970       ??_C@_07GPDNMNG@CONOUT$?$AA@ 40157970     LIBCMTD:initcon.obj
 0003:0002897c       ??_C@_1O@EDEJGJBM@?$AA_?$AAc?$AAl?$AAo?$AAs?$AAe?$AA?$AA@ 4015797c     LIBCMTD:close.obj
 0003:00028990       ??_C@_1FO@NNGNFGFH@?$AAf?$AA?3?$AA?2?$AAd?$AAd?$AA?2?$AAv?$AAc?$AAt?$AAo?$AAo?$AAl?$AAs?$AA?2?$AAc?$AAr?$AAt?$AA_?$AAb?$AAl?$AAd?$AA?2?$AAs?$AAe?$AAl?$AAf?$AA_?$AAx?$AA8?$AA6?$AA?2?$AAc@ 40157990     LIBCMTD:close.obj
 0003:00028a00       ??_C@_1HG@KNCBMCDD@?$AAf?$AA?3?$AA?2?$AAd?$AAd?$AA?2?$AAv?$AAc?$AAt?$AAo?$AAo?$AAl?$AAs?$AA?2?$AAc?$AAr?$AAt?$AA_?$AAb?$AAl?$AAd?$AA?2?$AAs?$AAe?$AAl?$AAf?$AA_?$AAx?$AA8?$AA6?$AA?2?$AAc@ 40157a00     LIBCMTD:typname.obj
 0003:00028a90       ??_C@_1CI@IDCGDBOP@?$AAp?$AAN?$AAo?$AAd?$AAe?$AA?9?$AA?$DO?$AAn?$AAe?$AAx?$AAt?$AA?5?$AA?$CB?$AA?$DN?$AA?5?$AAN?$AAU?$AAL?$AAL?$AA?$AA@ 40157a90     LIBCMTD:typname.obj
 0003:00028ac0       ??_C@_1JK@MLBKHELP@?$AAs?$AAt?$AAr?$AAc?$AAp?$AAy?$AA_?$AAs?$AA?5?$AA?$CI?$AA?$CI?$AAc?$AAh?$AAa?$AAr?$AA?5?$AA?$CK?$AA?$CJ?$AA?$CI?$AA?$CI?$AAt?$AAy?$AAp?$AAe?$AA_?$AAi?$AAn?$AAf?$AAo?$AA?5?$AA?$CK?$AA?$CJ@ 40157ac0     LIBCMTD:typname.obj
 0003:00028b78       ??_C@_1CM@OOICDMK@?$AAt?$AAy?$AAp?$AAe?$AA_?$AAi?$AAn?$AAf?$AAo?$AA?3?$AA?3?$AA_?$AAN?$AAa?$AAm?$AAe?$AA_?$AAb?$AAa?$AAs?$AAe?$AA?$AA@ 40157b78     LIBCMTD:typname.obj
 0003:00028bb0       ??_C@_1GI@EAJKJPED@?$AAs?$AAt?$AAr?$AAc?$AAp?$AAy?$AA_?$AAs?$AA?5?$AA?$CI?$AAp?$AAT?$AAm?$AAp?$AAT?$AAy?$AAp?$AAe?$AAN?$AAa?$AAm?$AAe?$AA?0?$AA?5?$AAl?$AAe?$AAn?$AA?$CL?$AA2?$AA?0?$AA?5?$AA?$CI@ 40157bb0     LIBCMTD:typname.obj
 0003:00028c2c       ??_C@_1DO@OJJLFJPE@?$AAt?$AAy?$AAp?$AAe?$AA_?$AAi?$AAn?$AAf?$AAo?$AA?3?$AA?3?$AA_?$AAN?$AAa?$AAm?$AAe?$AA_?$AAb?$AAa?$AAs?$AAe?$AA_?$AAi?$AAn?$AAt?$AAe?$AAr?$AAn?$AAa?$AAl?$AA?$AA@ 40157c2c     LIBCMTD:typname.obj
 0003:00028c78       ??_C@_1BK@CMPKHPEC@?$AAn?$AA?5?$AA?$DM?$AA?$DN?$AA?5?$AAI?$AAN?$AAT?$AA_?$AAM?$AAA?$AAX?$AA?$AA@ 40157c78     LIBCMTD:mbsnbico.obj
 0003:00028c98       ??_C@_1BG@GBJNMPFA@?$AAs?$AA2?$AA?5?$AA?$CB?$AA?$DN?$AA?5?$AAN?$AAU?$AAL?$AAL?$AA?$AA@ 40157c98     LIBCMTD:mbsnbico.obj
 0003:00028cb4       ??_C@_1BM@FKNNDAHH@?$AA_?$AAm?$AAb?$AAs?$AAn?$AAb?$AAi?$AAc?$AAo?$AAl?$AAl?$AA_?$AAl?$AA?$AA@ 40157cb4     LIBCMTD:mbsnbico.obj
 0003:00028cd8       ??_C@_1GE@NJHAJPKI@?$AAf?$AA?3?$AA?2?$AAd?$AAd?$AA?2?$AAv?$AAc?$AAt?$AAo?$AAo?$AAl?$AAs?$AA?2?$AAc?$AAr?$AAt?$AA_?$AAb?$AAl?$AAd?$AA?2?$AAs?$AAe?$AAl?$AAf?$AA_?$AAx?$AA8?$AA6?$AA?2?$AAc@ 40157cd8     LIBCMTD:mbsnbico.obj
 0003:00028d50       ??_C@_1BG@MODEICJK@?$AAs?$AA1?$AA?5?$AA?$CB?$AA?$DN?$AA?5?$AAN?$AAU?$AAL?$AAL?$AA?$AA@ 40157d50     LIBCMTD:mbsnbico.obj
 0003:00028d6c       ??_C@_0DC@CAFDLBC@f?3?2dd?2vctools?2crt_bld?2self_x86?2c@ 40157d6c     LIBCMTD:wtombenv.obj
 0003:00028da8       ??_C@_0BK@CFCOFLF@?5Complete?5Object?5Locator?8?$AA@ 40157da8     LIBCMTD:undname.obj
 0003:00028dc8       ??_C@_0BN@MECKDCOJ@?5Class?5Hierarchy?5Descriptor?8?$AA@ 40157dc8     LIBCMTD:undname.obj
 0003:00028dec       ??_C@_0BD@LGICGFMM@?5Base?5Class?5Array?8?$AA@ 40157dec     LIBCMTD:undname.obj
 0003:00028e04       ??_C@_0BM@LDKODKLH@?5Base?5Class?5Descriptor?5at?5?$CI?$AA@ 40157e04     LIBCMTD:undname.obj
 0003:00028e28       ??_C@_0BC@DAFEJGAK@?5Type?5Descriptor?8?$AA@ 40157e28     LIBCMTD:undname.obj
 0003:00028e40       ??_C@_0BM@PMGGMLDN@?$GAlocal?5static?5thread?5guard?8?$AA@ 40157e40     LIBCMTD:undname.obj
 0003:00028e64       ??_C@_0CL@FGIJHLCE@?$GAmanaged?5vector?5copy?5constructor@ 40157e64     LIBCMTD:undname.obj
 0003:00028e98       ??_C@_0CJ@GJELGAMM@?$GAvector?5vbase?5copy?5constructor?5i@ 40157e98     LIBCMTD:undname.obj
 0003:00028ecc       ??_C@_0CD@CGAJBKEJ@?$GAvector?5copy?5constructor?5iterato@ 40157ecc     LIBCMTD:undname.obj
 0003:00028ef8       ??_C@_0CB@PDBIFEP@?$GAdynamic?5atexit?5destructor?5for?5?8@ 40157ef8     LIBCMTD:undname.obj
 0003:00028f20       ??_C@_0BL@CLIPGLGB@?$GAdynamic?5initializer?5for?5?8?$AA@ 40157f20     LIBCMTD:undname.obj
 0003:00028f40       ??_C@_0CM@FCBBDIGB@?$GAeh?5vector?5vbase?5copy?5constructo@ 40157f40     LIBCMTD:undname.obj
 0003:00028f74       ??_C@_0CG@HLDDJMAG@?$GAeh?5vector?5copy?5constructor?5iter@ 40157f74     LIBCMTD:undname.obj
 0003:00028fa4       ??_C@_0CF@IMGKMJNO@?$GAmanaged?5vector?5destructor?5itera@ 40157fa4     LIBCMTD:undname.obj
 0003:00028fd0       ??_C@_0CG@CFDHKGGD@?$GAmanaged?5vector?5constructor?5iter@ 40157fd0     LIBCMTD:undname.obj
 0003:00029000       ??_C@_0BN@CKNJLHMB@?$GAplacement?5delete?$FL?$FN?5closure?8?$AA@ 40158000     LIBCMTD:undname.obj
 0003:00029024       ??_C@_0BL@CNOONJFP@?$GAplacement?5delete?5closure?8?$AA@ 40158024     LIBCMTD:undname.obj
 0003:00029044       ??_C@_0P@HJKNJFNN@?$GAomni?5callsig?8?$AA@ 40158044     LIBCMTD:undname.obj
 0003:00029058       ??_C@_09LBNFPBCA@?5delete?$FL?$FN?$AA@ 40158058     LIBCMTD:undname.obj
 0003:00029064       ??_C@_06FHBGPFGH@?5new?$FL?$FN?$AA@ 40158064     LIBCMTD:undname.obj
 0003:0002906c       ??_C@_0CE@IIHCMGGL@?$GAlocal?5vftable?5constructor?5closu@ 4015806c     LIBCMTD:undname.obj
 0003:00029098       ??_C@_0BA@KKLDJDLB@?$GAlocal?5vftable?8?$AA@ 40158098     LIBCMTD:undname.obj
 0003:000290ac       ??_C@_05KHLCHHI@?$GARTTI?$AA@ 401580ac     LIBCMTD:undname.obj
 0003:000290b4       ??_C@_03KLGMFNMG@?$GAEH?$AA@ 401580b4     LIBCMTD:undname.obj
 0003:000290b8       ??_C@_0BA@KBCDOMBN@?$GAudt?5returning?8?$AA@ 401580b8     LIBCMTD:undname.obj
 0003:000290cc       ??_C@_0BL@LLKPOHJI@?$GAcopy?5constructor?5closure?8?$AA@ 401580cc     LIBCMTD:undname.obj
 0003:000290ec       ??_C@_0CH@OOJPLCPH@?$GAeh?5vector?5vbase?5constructor?5ite@ 401580ec     LIBCMTD:undname.obj
 0003:0002911c       ??_C@_0CA@GCEOPDGL@?$GAeh?5vector?5destructor?5iterator?8?$AA@ 4015811c     LIBCMTD:undname.obj
 0003:00029144       ??_C@_0CB@JONCMFFK@?$GAeh?5vector?5constructor?5iterator?8@ 40158144     LIBCMTD:undname.obj
 0003:0002916c       ??_C@_0BL@NILFHHPC@?$GAvirtual?5displacement?5map?8?$AA@ 4015816c     LIBCMTD:undname.obj
 0003:0002918c       ??_C@_0CE@IKBNEHA@?$GAvector?5vbase?5constructor?5iterat@ 4015818c     LIBCMTD:undname.obj
 0003:000291b8       ??_C@_0BN@LFPFMEDL@?$GAvector?5destructor?5iterator?8?$AA@ 401581b8     LIBCMTD:undname.obj
 0003:000291dc       ??_C@_0BO@PFGOCPJJ@?$GAvector?5constructor?5iterator?8?$AA@ 401581dc     LIBCMTD:undname.obj
 0003:00029200       ??_C@_0BN@IMDCHIKM@?$GAscalar?5deleting?5destructor?8?$AA@ 40158200     LIBCMTD:undname.obj
 0003:00029224       ??_C@_0BO@OBMKPJIG@?$GAdefault?5constructor?5closure?8?$AA@ 40158224     LIBCMTD:undname.obj
 0003:00029248       ??_C@_0BN@DEGPLNFK@?$GAvector?5deleting?5destructor?8?$AA@ 40158248     LIBCMTD:undname.obj
 0003:0002926c       ??_C@_0BD@JDLKDPAB@?$GAvbase?5destructor?8?$AA@ 4015826c     LIBCMTD:undname.obj
 0003:00029284       ??_C@_08OBABFOLI@?$GAstring?8?$AA@ 40158284     LIBCMTD:undname.obj
 0003:00029290       ??_C@_0BF@KDPPACIK@?$GAlocal?5static?5guard?8?$AA@ 40158290     LIBCMTD:undname.obj
 0003:000292ac       ??_C@_08LLFFHHDJ@?$GAtypeof?8?$AA@ 401582ac     LIBCMTD:undname.obj
 0003:000292b8       ??_C@_07FEEIOKP@?$GAvcall?8?$AA@ 401582b8     LIBCMTD:undname.obj
 0003:000292c4       ??_C@_09BLBHBJP@?$GAvbtable?8?$AA@ 401582c4     LIBCMTD:undname.obj
 0003:000292d0       ??_C@_09IFPLHPGF@?$GAvftable?8?$AA@ 401582d0     LIBCMTD:undname.obj
 0003:000292dc       ??_C@_02MHEGNOJ@?$FO?$DN?$AA@ 401582dc     LIBCMTD:undname.obj
 0003:000292e0       ??_C@_02DHLNPPGH@?$HM?$DN?$AA@ 401582e0     LIBCMTD:undname.obj
 0003:000292e4       ??_C@_02FGJGFEAB@?$CG?$DN?$AA@ 401582e4     LIBCMTD:undname.obj
 0003:000292e8       ??_C@_03CDNPDDLA@?$DM?$DM?$DN?$AA@ 401582e8     LIBCMTD:undname.obj
 0003:000292ec       ??_C@_03IKFCCPFF@?$DO?$DO?$DN?$AA@ 401582ec     LIBCMTD:undname.obj
 0003:000292f0       ??_C@_02FENAOKFI@?$CF?$DN?$AA@ 401582f0     LIBCMTD:undname.obj
 0003:000292f4       ??_C@_02FJEHGPIO@?1?$DN?$AA@ 401582f4     LIBCMTD:undname.obj
 0003:000292f8       ??_C@_02FKMDLLOA@?9?$DN?$AA@ 401582f8     LIBCMTD:undname.obj
 0003:000292fc       ??_C@_02FOEOMHFC@?$CL?$DN?$AA@ 401582fc     LIBCMTD:undname.obj
 0003:00029300       ??_C@_02FPIMKNGF@?$CK?$DN?$AA@ 40158300     LIBCMTD:undname.obj
 0003:00029304       ??_C@_02NONPIBCD@?$HM?$HM?$AA@ 40158304     LIBCMTD:undname.obj
 0003:00029308       ??_C@_02PPKAJPJL@?$CG?$CG?$AA@ 40158308     LIBCMTD:undname.obj
 0003:0002930c       ??_C@_01DNKMNLPK@?$HM?$AA@ 4015830c     LIBCMTD:undname.obj
 0003:00029310       ??_C@_01JKBOJNNK@?$FO?$AA@ 40158310     LIBCMTD:undname.obj
 0003:00029314       ??_C@_01PJKLJHI@?$HO?$AA@  40158314     LIBCMTD:undname.obj
 0003:00029318       ??_C@_02HCKGKOFO@?$CI?$CJ?$AA@ 40158318     LIBCMTD:undname.obj
 0003:0002931c       ??_C@_01IHBHIGKO@?0?$AA@   4015831c     LIBCMTD:undname.obj
 0003:00029320       ??_C@_02EEKDKGMJ@?$DO?$DN?$AA@ 40158320     LIBCMTD:undname.obj
 0003:00029324       ??_C@_01PPODPGHN@?$DO?$AA@ 40158324     LIBCMTD:undname.obj
 0003:00029328       ??_C@_02EHCHHCKH@?$DM?$DN?$AA@ 40158328     LIBCMTD:undname.obj
 0003:0002932c       ??_C@_01MNNFJEPP@?$DM?$AA@ 4015832c     LIBCMTD:undname.obj
 0003:00029330       ??_C@_01FGNFDNOH@?$CF?$AA@ 40158330     LIBCMTD:undname.obj
 0003:00029334       ??_C@_03MNHNFDLC@?9?$DO?$CK?$AA@ 40158334     LIBCMTD:undname.obj
 0003:00029338       ??_C@_01HNPIGOCE@?$CG?$AA@ 40158338     LIBCMTD:undname.obj
 0003:0002933c       ??_C@_01MIFGBAGJ@?$CL?$AA@ 4015833c     LIBCMTD:undname.obj
 0003:00029340       ??_C@_01JOAMLHOP@?9?$AA@   40158340     LIBCMTD:undname.obj
 0003:00029344       ??_C@_02BAABKJLB@?9?9?$AA@ 40158344     LIBCMTD:undname.obj
 0003:00029348       ??_C@_02ECNGHCIF@?$CL?$CL?$AA@ 40158348     LIBCMTD:undname.obj
 0003:0002934c       ??_C@_01NBENCBCI@?$CK?$AA@ 4015834c     LIBCMTD:undname.obj
 0003:00029350       ??_C@_02HBOOOICD@?9?$DO?$AA@ 40158350     LIBCMTD:undname.obj
 0003:00029354       ??_C@_08LHJFAFGD@operator?$AA@ 40158354     LIBCMTD:undname.obj
 0003:00029360       ??_C@_02GPECMEKF@?$FL?$FN?$AA@ 40158360     LIBCMTD:undname.obj
 0003:00029364       ??_C@_02FDNJECIE@?$CB?$DN?$AA@ 40158364     LIBCMTD:undname.obj
 0003:00029368       ??_C@_02EGOFBIJA@?$DN?$DN?$AA@ 40158368     LIBCMTD:undname.obj
 0003:0002936c       ??_C@_01DCLJPIOD@?$CB?$AA@ 4015836c     LIBCMTD:undname.obj
 0003:00029370       ??_C@_02FODMEDOG@?$DM?$DM?$AA@ 40158370     LIBCMTD:undname.obj
 0003:00029374       ??_C@_02GPIOPFAK@?$DO?$DO?$AA@ 40158374     LIBCMTD:undname.obj
 0003:00029378       ??_C@_07FPCDHGMM@?5delete?$AA@ 40158378     LIBCMTD:undname.obj
 0003:00029384       ??_C@_04NIHEBCM@?5new?$AA@ 40158384     LIBCMTD:undname.obj
 0003:0002938c       ??_C@_0M@GFIIJFMG@__unaligned?$AA@ 4015838c     LIBCMTD:undname.obj
 0003:0002939c       ??_C@_0L@PILCLIHE@__restrict?$AA@ 4015839c     LIBCMTD:undname.obj
 0003:000293ac       ??_C@_07JOMMBBKO@__ptr64?$AA@ 401583ac     LIBCMTD:undname.obj
 0003:000293b8       ??_C@_09HIJEGCPM@__clrcall?$AA@ 401583b8     LIBCMTD:undname.obj
 0003:000293c4       ??_C@_0L@JMKHOMEK@__fastcall?$AA@ 401583c4     LIBCMTD:undname.obj
 0003:000293d4       ??_C@_0L@NPHFGOKO@__thiscall?$AA@ 401583d4     LIBCMTD:undname.obj
 0003:000293e4       ??_C@_09IFJBGAPI@__stdcall?$AA@ 401583e4     LIBCMTD:undname.obj
 0003:000293f0       ??_C@_08GHMPAG@__pascal?$AA@ 401583f0     LIBCMTD:undname.obj
 0003:000293fc       ??_C@_07KOLFKCDI@__cdecl?$AA@ 401583fc     LIBCMTD:undname.obj
 0003:00029408       ??_C@_08EHJDFFNH@__based?$CI?$AA@ 40158408     LIBCMTD:undname.obj
 0003:000295e4       ??_C@_04HEJADOOB@CV?3?5?$AA@ 401585e4     LIBCMTD:undname.obj
 0003:000295ec       ??_C@_02MOLJINC@?3?3?$AA@  401585ec     LIBCMTD:undname.obj
 0003:000295f0       ??_C@_01GEODFPGF@?8?$AA@   401585f0     LIBCMTD:undname.obj
 0003:000295f4       ??_C@_01NLNLIGKH@?$GA?$AA@ 401585f4     LIBCMTD:undname.obj
 0003:000295f8       ??_C@_0O@KHGCOMHP@generic?9type?9?$AA@ 401585f8     LIBCMTD:undname.obj
 0003:00029608       ??_C@_0BE@JAEOCHPE@template?9parameter?9?$AA@ 40158608     LIBCMTD:undname.obj
 0003:00029620       ??_C@_02OHHJMEON@?8?8?$AA@ 40158620     LIBCMTD:undname.obj
 0003:00029624       ??_C@_0BG@JNJLAMPM@?$GAanonymous?5namespace?8?$AA@ 40158624     LIBCMTD:undname.obj
 0003:00029640       ??_C@_0BN@IBLMMFAP@?$GAnon?9type?9template?9parameter?$AA@ 40158640     LIBCMTD:undname.obj
 0003:00029664       ??_C@_0BE@EODMJLIF@?$GAtemplate?9parameter?$AA@ 40158664     LIBCMTD:undname.obj
 0003:0002967c       ??_C@_04GKJNKENE@void?$AA@ 4015867c     LIBCMTD:undname.obj
 0003:00029684       ??_C@_0M@DHNBOJMP@extern?5?$CCC?$CC?5?$AA@ 40158684     LIBCMTD:undname.obj
 0003:00029694       ??_C@_08KJLFOPNE@?$FLthunk?$FN?3?$AA@ 40158694     LIBCMTD:undname.obj
 0003:000296a0       ??_C@_08GPDDCMKI@public?3?5?$AA@ 401586a0     LIBCMTD:undname.obj
 0003:000296ac       ??_C@_0M@GAIFPFIP@protected?3?5?$AA@ 401586ac     LIBCMTD:undname.obj
 0003:000296bc       ??_C@_09LAPHOOG@private?3?5?$AA@ 401586bc     LIBCMTD:undname.obj
 0003:000296c8       ??_C@_08NIEOINHE@virtual?5?$AA@ 401586c8     LIBCMTD:undname.obj
 0003:000296d4       ??_C@_07PGOEDBHP@static?5?$AA@ 401586d4     LIBCMTD:undname.obj
 0003:000296e0       ??_C@_0DA@HGFJFBBE@?$GAtemplate?5static?5data?5member?5des@ 401586e0     LIBCMTD:undname.obj
 0003:0002971c       ??_C@_0DB@ILEFOCIJ@?$GAtemplate?5static?5data?5member?5con@ 4015871c     LIBCMTD:undname.obj
 0003:00029758       ??_C@_0CB@KJDOOODE@?$GAlocal?5static?5destructor?5helper?8@ 40158758     LIBCMTD:undname.obj
 0003:00029780       ??_C@_0L@HNGCOGAE@?$GAadjustor?$HL?$AA@ 40158780     LIBCMTD:undname.obj
 0003:00029790       ??_C@_0L@GHPFDFH@?$GAvtordisp?$HL?$AA@ 40158790     LIBCMTD:undname.obj
 0003:000297a0       ??_C@_0N@CBHHHENL@?$GAvtordispex?$HL?$AA@ 401587a0     LIBCMTD:undname.obj
 0003:000297b0       ??_C@_02IGFCGPIL@?$HN?8?$AA@ 401587b0     LIBCMTD:undname.obj
 0003:000297b4       ??_C@_03OPGICMGF@?$HN?8?5?$AA@ 401587b4     LIBCMTD:undname.obj
 0003:000297b8       ??_C@_02KCKGHPCA@?$CJ?5?$AA@ 401587b8     LIBCMTD:undname.obj
 0003:000297bc       ??_C@_05BEFAKPML@void?5?$AA@ 401587bc     LIBCMTD:undname.obj
 0003:000297c4       ??_C@_08PABEKFH@volatile?$AA@ 401587c4     LIBCMTD:undname.obj
 0003:000297d0       ??_C@_0M@ELJOJFFH@?0?$DMellipsis?$DO?$AA@ 401587d0     LIBCMTD:undname.obj
 0003:000297e0       ??_C@_04EENFHACM@?0?4?4?4?$AA@ 401587e0     LIBCMTD:undname.obj
 0003:000297e8       ??_C@_0L@EGPHHEKN@?$DMellipsis?$DO?$AA@ 401587e8     LIBCMTD:undname.obj
 0003:000297f8       ??_C@_07HDJPLPEK@?5throw?$CI?$AA@ 401587f8     LIBCMTD:undname.obj
 0003:00029804       ??_C@_09EFNPDFFP@?5volatile?$AA@ 40158804     LIBCMTD:undname.obj
 0003:00029810       ??_C@_05BNCCCJPP@const?$AA@ 40158810     LIBCMTD:undname.obj
 0003:00029818       ??_C@_07EDHNAJHC@signed?5?$AA@ 40158818     LIBCMTD:undname.obj
 0003:00029824       ??_C@_09EBBEKKIH@unsigned?5?$AA@ 40158824     LIBCMTD:undname.obj
 0003:00029830       ??_C@_07NFANNNEC@UNKNOWN?$AA@ 40158830     LIBCMTD:undname.obj
 0003:0002983c       ??_C@_06GCICPBLB@__w64?5?$AA@ 4015883c     LIBCMTD:undname.obj
 0003:00029844       ??_C@_07CLGGIAMF@wchar_t?$AA@ 40158844     LIBCMTD:undname.obj
 0003:00029850       ??_C@_08GAHOLHEO@__int128?$AA@ 40158850     LIBCMTD:undname.obj
 0003:0002985c       ??_C@_07LFCOJCAC@__int64?$AA@ 4015885c     LIBCMTD:undname.obj
 0003:00029868       ??_C@_07OFLPPHGP@__int32?$AA@ 40158868     LIBCMTD:undname.obj
 0003:00029874       ??_C@_07ICFHOGAF@__int16?$AA@ 40158874     LIBCMTD:undname.obj
 0003:00029880       ??_C@_06EBGKOKIG@__int8?$AA@ 40158880     LIBCMTD:undname.obj
 0003:00029888       ??_C@_04DDKJGDCM@bool?$AA@ 40158888     LIBCMTD:undname.obj
 0003:00029890       ??_C@_06BNJCAIGJ@double?$AA@ 40158890     LIBCMTD:undname.obj
 0003:00029898       ??_C@_05CJIMAING@long?5?$AA@ 40158898     LIBCMTD:undname.obj
 0003:000298a0       ??_C@_05KNFBNCOH@float?$AA@ 401588a0     LIBCMTD:undname.obj
 0003:000298a8       ??_C@_04GOKPGOLB@long?$AA@ 401588a8     LIBCMTD:undname.obj
 0003:000298b0       ??_C@_03JBIPMCLC@int?$AA@  401588b0     LIBCMTD:undname.obj
 0003:000298b4       ??_C@_05BFKKPKCG@short?$AA@ 401588b4     LIBCMTD:undname.obj
 0003:000298bc       ??_C@_04ENMBGAPA@char?$AA@ 401588bc     LIBCMTD:undname.obj
 0003:000298c4       ??_C@_05LJGMCFOG@enum?5?$AA@ 401588c4     LIBCMTD:undname.obj
 0003:000298cc       ??_C@_0N@DLIEFKNA@cointerface?5?$AA@ 401588cc     LIBCMTD:undname.obj
 0003:000298dc       ??_C@_08KOFANOFK@coclass?5?$AA@ 401588dc     LIBCMTD:undname.obj
 0003:000298e8       ??_C@_06LJBABKPM@class?5?$AA@ 401588e8     LIBCMTD:undname.obj
 0003:000298f0       ??_C@_07DIBCDNGL@struct?5?$AA@ 401588f0     LIBCMTD:undname.obj
 0003:000298fc       ??_C@_06MOJHIBMG@union?5?$AA@ 401588fc     LIBCMTD:undname.obj
 0003:00029904       ??_C@_0P@GCIFDJCJ@?$GAunknown?5ecsu?8?$AA@ 40158904     LIBCMTD:undname.obj
 0003:00029918       ??_C@_04LAHKHJMA@int?5?$AA@ 40158918     LIBCMTD:undname.obj
 0003:00029920       ??_C@_06EHJMALKF@short?5?$AA@ 40158920     LIBCMTD:undname.obj
 0003:00029928       ??_C@_05CIHEBHNO@char?5?$AA@ 40158928     LIBCMTD:undname.obj
 0003:00029930       ??_C@_06LIJLOJAG@const?5?$AA@ 40158930     LIBCMTD:undname.obj
 0003:00029938       ??_C@_09GAIEOBLP@volatile?5?$AA@ 40158938     LIBCMTD:undname.obj
 0003:00029944       ??_C@_0O@GKABPPIF@cli?3?3pin_ptr?$DM?$AA@ 40158944     LIBCMTD:undname.obj
 0003:00029954       ??_C@_0M@EALIELKG@cli?3?3array?$DM?$AA@ 40158954     LIBCMTD:undname.obj
 0003:00029964       ??_C@_02GOGNNPBN@?$CJ?$FL?$AA@ 40158964     LIBCMTD:undname.obj
 0003:00029968       ??_C@_06EEGAIFAK@?$HLflat?$HN?$AA@ 40158968     LIBCMTD:undname.obj
 0003:00029970       ??_C@_02MDINNEEG@s?5?$AA@  40158970     LIBCMTD:undname.obj
 0003:00029974       ??_C@_05JIBOFOHK@?$HLfor?5?$AA@ 40158974     LIBCMTD:undname.obj
 0003:0002997c       ??_7DNameNode@@6B@         4015897c     LIBCMTD:undname.obj
 0003:0002998c       ??_7charNode@@6B@          4015898c     LIBCMTD:undname.obj
 0003:0002999c       ??_7pcharNode@@6B@         4015899c     LIBCMTD:undname.obj
 0003:000299ac       ??_7pDNameNode@@6B@        401589ac     LIBCMTD:undname.obj
 0003:000299bc       ??_7DNameStatusNode@@6B@   401589bc     LIBCMTD:undname.obj
 0003:000299cc       ??_C@_04OKOHEJBO@?5?$DP?$DP?5?$AA@ 401589cc     LIBCMTD:undname.obj
 0003:000299d4       ??_7pairNode@@6B@          401589d4     LIBCMTD:undname.obj
 0003:000299e8       ??_C@_1FO@IFEMNBMO@?$AAf?$AA?3?$AA?2?$AAd?$AAd?$AA?2?$AAv?$AAc?$AAt?$AAo?$AAo?$AAl?$AAs?$AA?2?$AAc?$AAr?$AAt?$AA_?$AAb?$AAl?$AAd?$AA?2?$AAs?$AAe?$AAl?$AAf?$AA_?$AAx?$AA8?$AA6?$AA?2?$AAc@ 401589e8     LIBCMTD:a_cmp.obj
 0003:00029a58       ??_C@_1HK@ELDMAMK@?$AAc?$AAc?$AAh?$AAC?$AAo?$AAu?$AAn?$AAt?$AA1?$AA?$DN?$AA?$DN?$AA0?$AA?5?$AA?$CG?$AA?$CG?$AA?5?$AAc?$AAc?$AAh?$AAC?$AAo?$AAu?$AAn?$AAt?$AA2?$AA?$DN?$AA?$DN?$AA1?$AA?5?$AA?$HM?$AA?$HM?$AA?5@ 40158a58     LIBCMTD:a_cmp.obj
 0003:00029aec       ??_C@_1CC@CNADELFK@?$AA_?$AAs?$AAt?$AAr?$AAi?$AAn?$AAg?$AA2?$AA?5?$AA?$CB?$AA?$DN?$AA?5?$AAN?$AAU?$AAL?$AAL?$AA?$AA@ 40158aec     LIBCMTD:strnicol.obj
 0003:00029b14       ??_C@_1BK@IOJEBPLP@?$AA_?$AAs?$AAt?$AAr?$AAn?$AAi?$AAc?$AAo?$AAl?$AAl?$AA_?$AAl?$AA?$AA@ 40158b14     LIBCMTD:strnicol.obj
 0003:00029b38       ??_C@_1GE@BDOBNJJ@?$AAf?$AA?3?$AA?2?$AAd?$AAd?$AA?2?$AAv?$AAc?$AAt?$AAo?$AAo?$AAl?$AAs?$AA?2?$AAc?$AAr?$AAt?$AA_?$AAb?$AAl?$AAd?$AA?2?$AAs?$AAe?$AAl?$AAf?$AA_?$AAx?$AA8?$AA6?$AA?2?$AAc@ 40158b38     LIBCMTD:strnicol.obj
 0003:00029bb0       ??_C@_1CC@ICKKAGJA@?$AA_?$AAs?$AAt?$AAr?$AAi?$AAn?$AAg?$AA1?$AA?5?$AA?$CB?$AA?$DN?$AA?5?$AAN?$AAU?$AAL?$AAL?$AA?$AA@ 40158bb0     LIBCMTD:strnicol.obj
 0003:00029bd8       ??_C@_1FG@OKIAKKPK@?$AAs?$AAt?$AAr?$AAc?$AAp?$AAy?$AA_?$AAs?$AA?$CI?$AAn?$AAa?$AAm?$AAe?$AA?0?$AA?5?$AAs?$AAt?$AAr?$AAl?$AAe?$AAn?$AA?$CI?$AAo?$AAp?$AAt?$AAi?$AAo?$AAn?$AA?$CJ?$AA?5?$AA?$CL?$AA?5@ 40158bd8     LIBCMTD:setenv.obj
 0003:00029c40       ??_C@_1EI@GHDNAPMG@?$AA?$CI?$AA?$CC?$AAC?$AAR?$AAT?$AA?5?$AAL?$AAo?$AAg?$AAi?$AAc?$AA?5?$AAe?$AAr?$AAr?$AAo?$AAr?$AA?5?$AAd?$AAu?$AAr?$AAi?$AAn?$AAg?$AA?5?$AAs?$AAe?$AAt?$AAe?$AAn?$AAv?$AA?$CC@ 40158c40     LIBCMTD:setenv.obj
 0003:00029c98       ??_C@_0DA@NHJGCDK@f?3?2dd?2vctools?2crt_bld?2self_x86?2c@ 40158c98     LIBCMTD:setenv.obj
 0003:00029cd8       ??_C@_1FC@EEJIEIDF@?$AA_?$AAt?$AAc?$AAs?$AAn?$AAl?$AAe?$AAn?$AA?$CI?$AAe?$AAq?$AAu?$AAa?$AAl?$AA?5?$AA?$CL?$AA?5?$AA1?$AA?0?$AA?5?$AA_?$AAM?$AAA?$AAX?$AA_?$AAE?$AAN?$AAV?$AA?$CJ?$AA?5?$AA?$DM?$AA?5@ 40158cd8     LIBCMTD:setenv.obj
 0003:00029d3c       ??_C@_1DE@EEHFNNGH@?$AAe?$AAq?$AAu?$AAa?$AAl?$AA?5?$AA?9?$AA?5?$AAo?$AAp?$AAt?$AAi?$AAo?$AAn?$AA?5?$AA?$DM?$AA?5?$AA_?$AAM?$AAA?$AAX?$AA_?$AAE?$AAN?$AAV?$AA?$AA@ 40158d3c     LIBCMTD:setenv.obj
 0003:00029d7c       ??_C@_1BI@CDAFOAAL@?$AA_?$AA_?$AAc?$AAr?$AAt?$AAs?$AAe?$AAt?$AAe?$AAn?$AAv?$AA?$AA@ 40158d7c     LIBCMTD:setenv.obj
 0003:00029d98       ??_C@_1GA@KKPDKNLP@?$AAf?$AA?3?$AA?2?$AAd?$AAd?$AA?2?$AAv?$AAc?$AAt?$AAo?$AAo?$AAl?$AAs?$AA?2?$AAc?$AAr?$AAt?$AA_?$AAb?$AAl?$AAd?$AA?2?$AAs?$AAe?$AAl?$AAf?$AA_?$AAx?$AA8?$AA6?$AA?2?$AAc@ 40158d98     LIBCMTD:setenv.obj
 0003:00029e0c       ??_C@_1CA@LMBEKBDN@?$AAp?$AAo?$AAp?$AAt?$AAi?$AAo?$AAn?$AA?5?$AA?$CB?$AA?$DN?$AA?5?$AAN?$AAU?$AAL?$AAL?$AA?$AA@ 40158e0c     LIBCMTD:setenv.obj
 0003:00029e38       ??_C@_1FK@DNFLNPD@?$AAs?$AAt?$AAr?$AAc?$AAp?$AAy?$AA_?$AAs?$AA?$CI?$AA?$CK?$AAn?$AAe?$AAw?$AAe?$AAn?$AAv?$AAp?$AAt?$AAr?$AA?0?$AA?5?$AAe?$AAn?$AAv?$AAp?$AAt?$AAr?$AAS?$AAi?$AAz?$AAe?$AA?0@ 40158e38     LIBCMTD:setenv.obj
 0003:00029ea4       ??_C@_1BK@ECKIJLPM@?$AAc?$AAo?$AAp?$AAy?$AA_?$AAe?$AAn?$AAv?$AAi?$AAr?$AAo?$AAn?$AA?$AA@ 40158ea4     LIBCMTD:setenv.obj
 0003:00029ec4       ??_C@_1BE@JKKFLIKJ@?$AA_?$AAm?$AAb?$AAs?$AAc?$AAh?$AAr?$AA_?$AAl?$AA?$AA@ 40158ec4     LIBCMTD:mbschr.obj
 0003:00029ee0       ??_C@_1GA@GDCAGKMG@?$AAf?$AA?3?$AA?2?$AAd?$AAd?$AA?2?$AAv?$AAc?$AAt?$AAo?$AAo?$AAl?$AAs?$AA?2?$AAc?$AAr?$AAt?$AA_?$AAb?$AAl?$AAd?$AA?2?$AAs?$AAe?$AAl?$AAf?$AA_?$AAx?$AA8?$AA6?$AA?2?$AAc@ 40158ee0     LIBCMTD:mbschr.obj
 0003:00029f54       ??_C@_1BO@JIBAMMGI@?$AAs?$AAt?$AAr?$AAi?$AAn?$AAg?$AA?5?$AA?$CB?$AA?$DN?$AA?5?$AAN?$AAU?$AAL?$AAL?$AA?$AA@ 40158f54     LIBCMTD:mbschr.obj
 0003:00029f78       ??_C@_1BA@DIKNJIGG@?$AA_?$AAs?$AAt?$AAr?$AAu?$AAp?$AAr?$AA?$AA@ 40158f78     LIBCMTD:strupr.obj
 0003:00029f90       ??_C@_1GA@KLELBLFL@?$AAf?$AA?3?$AA?2?$AAd?$AAd?$AA?2?$AAv?$AAc?$AAt?$AAo?$AAo?$AAl?$AAs?$AA?2?$AAc?$AAr?$AAt?$AA_?$AAb?$AAl?$AAd?$AA?2?$AAs?$AAe?$AAl?$AAf?$AA_?$AAx?$AA8?$AA6?$AA?2?$AAc@ 40158f90     LIBCMTD:strupr.obj
 0003:0002a004       ??_C@_1CC@NFHGNMIC@?$AA_?$AAs?$AAt?$AAr?$AAu?$AAp?$AAr?$AA_?$AAs?$AA_?$AAl?$AA_?$AAs?$AAt?$AAa?$AAt?$AA?$AA@ 40159004     LIBCMTD:strupr.obj
 0003:0002b1a0       ??_R4bad_exception@std@@6B@ 4015a1a0     LIBCMTD:frame.obj
 0003:0002b1b8       ??_R3bad_exception@std@@8  4015a1b8     LIBCMTD:frame.obj
 0003:0002b1cc       ??_R2bad_exception@std@@8  4015a1cc     LIBCMTD:frame.obj
 0003:0002b1d8       ??_R1A@?0A@EA@bad_exception@std@@8 4015a1d8     LIBCMTD:frame.obj
 0003:0002b1fc       ??_R1A@?0A@EA@exception@std@@8 4015a1fc     LIBCMTD:frame.obj
 0003:0002b220       ??_R3exception@std@@8      4015a220     LIBCMTD:frame.obj
 0003:0002b234       ??_R2exception@std@@8      4015a234     LIBCMTD:frame.obj
 0003:0002b23c       ??_R4type_info@@6B@        4015a23c     LIBCMTD:typinfo.obj
 0003:0002b254       ??_R3type_info@@8          4015a254     LIBCMTD:typinfo.obj
 0003:0002b268       ??_R2type_info@@8          4015a268     LIBCMTD:typinfo.obj
 0003:0002b270       ??_R1A@?0A@EA@type_info@@8 4015a270     LIBCMTD:typinfo.obj
 0003:0002b294       ??_R4exception@std@@6B@    4015a294     LIBCMTD:stdexcpt.obj
 0003:0002b2ac       ??_R4bad_cast@std@@6B@     4015a2ac     LIBCMTD:stdexcpt.obj
 0003:0002b2c4       ??_R3bad_cast@std@@8       4015a2c4     LIBCMTD:stdexcpt.obj
 0003:0002b2d8       ??_R2bad_cast@std@@8       4015a2d8     LIBCMTD:stdexcpt.obj
 0003:0002b2e4       ??_R1A@?0A@EA@bad_cast@std@@8 4015a2e4     LIBCMTD:stdexcpt.obj
 0003:0002b308       ??_R4bad_typeid@std@@6B@   4015a308     LIBCMTD:stdexcpt.obj
 0003:0002b320       ??_R3bad_typeid@std@@8     4015a320     LIBCMTD:stdexcpt.obj
 0003:0002b334       ??_R2bad_typeid@std@@8     4015a334     LIBCMTD:stdexcpt.obj
 0003:0002b340       ??_R1A@?0A@EA@bad_typeid@std@@8 4015a340     LIBCMTD:stdexcpt.obj
 0003:0002b364       ??_R4__non_rtti_object@std@@6B@ 4015a364     LIBCMTD:stdexcpt.obj
 0003:0002b37c       ??_R3__non_rtti_object@std@@8 4015a37c     LIBCMTD:stdexcpt.obj
 0003:0002b390       ??_R2__non_rtti_object@std@@8 4015a390     LIBCMTD:stdexcpt.obj
 0003:0002b3a0       ??_R1A@?0A@EA@__non_rtti_object@std@@8 4015a3a0     LIBCMTD:stdexcpt.obj
 0003:0002b4d0       ___rtc_iaa                 4015a4d0     LIBCMTD:_initsect_.obj
 0003:0002b710       ___rtc_izz                 4015a710     LIBCMTD:_initsect_.obj
 0003:0002b814       ___rtc_taa                 4015a814     LIBCMTD:_initsect_.obj
 0003:0002ba54       ___rtc_tzz                 4015aa54     LIBCMTD:_initsect_.obj
 0003:0002c3c8       __TI2?AVbad_exception@std@@ 4015b3c8     LIBCMTD:frame.obj
 0003:0002c3dc       __CTA2?AVbad_exception@std@@ 4015b3dc     LIBCMTD:frame.obj
 0003:0002c3ec       __CT??_R0?AVbad_exception@std@@@8??0bad_exception@std@@QAE@ABV01@@Z12 4015b3ec     LIBCMTD:frame.obj
 0003:0002c40c       __CT??_R0?AVexception@std@@@8??0exception@std@@QAE@ABV01@@Z12 4015b40c     LIBCMTD:frame.obj
 0004:00000000       _bgToggleableSurfaces      4015c000     bg_misc.obj
 0004:0000007c       _bg_numItems               4015c07c     bg_misc.obj
 0004:00000080       _bg_customSiegeSoundNames  4015c080     bg_misc.obj
 0004:000000f8       _forceMasteryLevels        4015c0f8     bg_misc.obj
 0004:00000118       _forceMasteryPoints        4015c118     bg_misc.obj
 0004:00000138       _bgForcePowerCost          4015c138     bg_misc.obj
 0004:00000258       _forcePowerSorted          4015c258     bg_misc.obj
 0004:000002a0       _forcePowerDarkLight       4015c2a0     bg_misc.obj
 0004:000002e8       _WeaponReadyAnim           4015c2e8     bg_misc.obj
 0004:00000338       _WeaponReadyLegsAnim       4015c338     bg_misc.obj
 0004:00000388       _WeaponAttackAnim          4015c388     bg_misc.obj
 0004:000003d8       _bg_itemlist               4015c3d8     bg_misc.obj
 0004:00000f38       _eventnames                4015cf38     bg_misc.obj
 0004:00001470       _bgSiegeClassFlagNames     4015d470     bg_saga.obj
 0004:000014b8       _StanceTable               4015d4b8     bg_saga.obj
 0004:00001500       _WPTable                   4015d500     bg_saga.obj
 0004:000015b0       _FPTable                   4015d5b0     bg_saga.obj
 0004:00001648       _HoldableTable             4015d648     bg_saga.obj
 0004:000016b0       _PowerupTable              4015d6b0     bg_saga.obj
 0004:00001738       _classTitles               4015d738     bg_saga.obj
 0004:000017e4       ?__LINE__Var@?1??BG_SiegeParseClassFile@@9@9 4015d7e4     bg_saga.obj
 0004:000017e8       _numVehicleWeapons         4015d7e8     bg_vehicleLoad.obj
 0004:000017f0       _vehWeaponFields           4015d7f0     bg_vehicleLoad.obj
 0004:00001920       _vehicleFields             4015d920     bg_vehicleLoad.obj
 0004:00002154       _VehicleTable              4015e154     bg_vehicleLoad.obj
 0004:0000237c       ?__LINE__Var@?1??BG_ParseVehWeaponParm@@9@9@78219fc5 4015e37c     bg_vehicleLoad.obj
 0004:00002380       ?__LINE__Var@?1??BG_ParseVehicleParm@@9@9@78219fc5 4015e380     bg_vehicleLoad.obj
 0004:00002384       ?__LINE__Var@?1??BG_GetVehicleModelName@@9@9 4015e384     bg_vehicleLoad.obj
 0004:00002388       ?__LINE__Var@?1??BG_GetVehicleSkinName@@9@9 4015e388     bg_vehicleLoad.obj
 0004:00002390       _WP_MuzzlePoint            4015e390     bg_weapons.obj
 0004:00002478       _weaponData                4015e478     bg_weapons.obj
 0004:000028a0       _ammoData                  4015e8a0     bg_weapons.obj
 0004:000029d8       _axisDefault               4015e9d8     q_math.obj
 0004:000029fc       _colorBlack                4015e9fc     q_math.obj
 0004:00002a0c       _colorRed                  4015ea0c     q_math.obj
 0004:00002a1c       _colorGreen                4015ea1c     q_math.obj
 0004:00002a2c       _colorBlue                 4015ea2c     q_math.obj
 0004:00002a3c       _colorYellow               4015ea3c     q_math.obj
 0004:00002a4c       _colorMagenta              4015ea4c     q_math.obj
 0004:00002a5c       _colorCyan                 4015ea5c     q_math.obj
 0004:00002a6c       _colorWhite                4015ea6c     q_math.obj
 0004:00002a7c       _colorLtGrey               4015ea7c     q_math.obj
 0004:00002a8c       _colorMdGrey               4015ea8c     q_math.obj
 0004:00002a9c       _colorDkGrey               4015ea9c     q_math.obj
 0004:00002aac       _colorLtBlue               4015eaac     q_math.obj
 0004:00002abc       _colorDkBlue               4015eabc     q_math.obj
 0004:00002ad0       _g_color_table             4015ead0     q_math.obj
 0004:00002b50       _bytedirs                  4015eb50     q_math.obj
 0004:000034b8       ?__LINE__Var@?1??ProjectPointOnPlane@@9@9 4015f4b8     q_math.obj
 0004:000034bc       ?__LINE__Var@?1??irand@@9@9 4015f4bc     q_math.obj
 0004:000034c0       _uiForceSide               4015f4c0     ui_force.obj
 0004:000034c4       _uiJediNonJedi             4015f4c4     ui_force.obj
 0004:000034c8       _uiForceRank               4015f4c8     ui_force.obj
 0004:000034cc       _uiMaxRank                 4015f4cc     ui_force.obj
 0004:000034d0       _uiMaxPoints               4015f4d0     ui_force.obj
 0004:000034d8       _uiForcePowersRank         4015f4d8     ui_force.obj
 0004:00003520       _uiForcePowerDarkLight     4015f520     ui_force.obj
 0004:00003568       _gCustPowersRank           4015f568     ui_force.obj
 0004:000035e0       _animTable                 4015f5e0     ui_main.obj
 0004:00006620       _HolocronIcons             40162620     ui_main.obj
 0004:00006668       _forcepowerDesc            40162668     ui_main.obj
 0004:000066b0       _datapadMoveTitleData      401626b0     ui_main.obj
 0004:000066c8       _datapadMoveTitleBaseAnims 401626c8     ui_main.obj
 0004:00006ce0       _g_UIGloballySelectedSiegeClass 40162ce0     ui_main.obj
 0004:00006ce4       _uiNumAllAnims             40162ce4     ui_main.obj
 0004:00006dc8       _serverStatusCvars         40162dc8     ui_main.obj
 0004:000080c8       ?__LINE__Var@?1??UI_AnimsetAlloc@@9@9 401640c8     ui_main.obj
 0004:000080cc       ?__LINE__Var@?1??UI_ParseAnimationFile@@9@9 401640cc     ui_main.obj
 0004:000080d0       ?__LINE__Var@?1??UI_GetCharacterCvars@@9@9@affec591 401640d0     ui_main.obj
 0004:000080d4       ?__LINE__Var@?1??UI_ParseColorData@@9@9@affec591 401640d4     ui_main.obj
 0004:000080d8       _itemFlags                 401640d8     ui_shared.obj
 0004:000080e8       _styles                    401640e8     ui_shared.obj
 0004:00008104       _alignment                 40164104     ui_shared.obj
 0004:00008118       _types                     40164118     ui_shared.obj
 0004:0000815c       _scriptCommandCount        4016415c     ui_shared.obj
 0004:00008160       _commandList               40164160     ui_shared.obj
 0004:00008b50       _itemParseKeywords         40164b50     ui_shared.obj
 0004:00008f40       _menuParseKeywords         40164f40     ui_shared.obj
 0004:00009428       ?__LINE__Var@?1??String_Alloc@@9@9 40165428     ui_shared.obj
 0004:0000942c       ?__LINE__Var@?1??UI_InsertG2Pointer@@9@9 4016542c     ui_shared.obj
 0004:00009440       ___security_cookie         40165440     LIBCMTD:gs_cookie.obj
 0004:00009444       ___security_cookie_complement 40165444     LIBCMTD:gs_cookie.obj
 0004:00009450       __fltused                  40165450     LIBCMTD:_fpinit_.obj
 0004:00009454       __ldused                   40165454     LIBCMTD:_fpinit_.obj
 0004:00009500       __OP_FMODjmptab            40165500     LIBCMTD:_87fmod_.obj
 0004:00009570       ?_RTC_ErrorLevels@@3PAHA   40165570     LIBCMTD:_error_.obj
 0004:000095a0       __OP_ATAN2jmptab           401655a0     LIBCMTD:_87triga_.obj
 0004:00009600       __cfltcvt_tab              40165600     LIBCMTD:cmiscdat.obj
 0004:00009630       __indefinite               40165630     LIBCMTD:_87disp_.obj
 0004:0000963a       __piby2                    4016563a     LIBCMTD:_87disp_.obj
 0004:00009788       __d_inf                    40165788     LIBCMTD:_util_.obj
 0004:00009790       __d_ind                    40165790     LIBCMTD:_util_.obj
 0004:00009798       __d_max                    40165798     LIBCMTD:_util_.obj
 0004:000097a0       __d_min                    401657a0     LIBCMTD:_util_.obj
 0004:000097a8       __d_mzero                  401657a8     LIBCMTD:_util_.obj
 0004:000099a0       ___initialmbcinfo          401659a0     LIBCMTD:mbctype.obj
 0004:00009bc0       __mbctype                  40165bc0     LIBCMTD:mbctype.obj
 0004:00009cc8       __mbcasemap                40165cc8     LIBCMTD:mbctype.obj
 0004:00009dc8       ___ptmbcinfo               40165dc8     LIBCMTD:mbctype.obj
 0004:00009fcc       ___globallocalestatus      40165fcc     LIBCMTD:glstatus.obj
 0004:00009fd0       ___clocalestr              40165fd0     LIBCMTD:nlsdata2.obj
 0004:00009fd8       ___initiallocinfo          40165fd8     LIBCMTD:nlsdata2.obj
 0004:0000a0b0       ___ptlocinfo               401660b0     LIBCMTD:nlsdata2.obj
 0004:0000a0b4       ___lc_clike                401660b4     LIBCMTD:nlsdata2.obj
 0004:0000a0b8       ___initiallocalestructinfo 401660b8     LIBCMTD:nlsdata2.obj
 0004:0000a0f0       ___flsindex                401660f0     LIBCMTD:tidtable.obj
 0004:0000a0f4       ___getvalueindex           401660f4     LIBCMTD:tidtable.obj
 0004:0000a0fc       __aexit_rtn                401660fc     LIBCMTD:crt0dat.obj
 0004:0000a100       __iob                      40166100     LIBCMTD:_file.obj
 0004:0000a400       ___abort_behavior          40166400     LIBCMTD:abort.obj
 0004:0000a5c0       ___nullstring              401665c0     LIBCMTD:output.obj
 0004:0000a5c4       ___wnullstring             401665c4     LIBCMTD:output.obj
 0004:0000a5e0       __crtDbgFlag               401665e0     LIBCMTD:dbgheap.obj
 0004:0000a5e4       ___crtDebugFillThreshold   401665e4     LIBCMTD:dbgheap.obj
 0004:0000a5ec       __crtBreakAlloc            401665ec     LIBCMTD:dbgheap.obj
 0004:0000a5f8       ___badioinfo               401665f8     LIBCMTD:ioinit.obj
 0004:0000a644       __amblksiz                 40166644     LIBCMTD:heapinit.obj
 0004:0000a648       __First_FPE_Indx           40166648     LIBCMTD:winxfltr.obj
 0004:0000a64c       __Num_FPE                  4016664c     LIBCMTD:winxfltr.obj
 0004:0000a650       __XcptActTabSize           40166650     LIBCMTD:winxfltr.obj
 0004:0000a654       __XcptActTabCount          40166654     LIBCMTD:winxfltr.obj
 0004:0000a660       __pfnAllocHook             40166660     LIBCMTD:dbghook.obj
 0004:0000a670       __matherr_flag             40166670     LIBCMTD:_matherr_.obj
 0004:0000a80c       __crtAssertBusy            4016680c     LIBCMTD:dbgrptt.obj
 0004:0000a810       __CrtDbgMode               40166810     LIBCMTD:dbgrptt.obj
 0004:0000a81c       __CrtDbgFile               4016681c     LIBCMTD:dbgrptt.obj
 0004:0000a830       __pctype                   40166830     LIBCMTD:ctype.obj
 0004:0000a834       __pwctype                  40166834     LIBCMTD:ctype.obj
 0004:0000a840       ___lc_time_c               40166840     LIBCMTD:strftime.obj
 0004:0000a91c       ___lc_time_curr            4016691c     LIBCMTD:strftime.obj
 0004:0000a920       ___lconv_static_decimal    40166920     LIBCMTD:lconv.obj
 0004:0000a924       ___lconv_c                 40166924     LIBCMTD:lconv.obj
 0004:0000a954       ___lconv                   40166954     LIBCMTD:lconv.obj
 0004:0000a964       ___mb_cur_max              40166964     LIBCMTD:nlsdata1.obj
 0004:0000a968       ___decimal_point           40166968     LIBCMTD:nlsdata1.obj
 0004:0000a96c       ___decimal_point_length    4016696c     LIBCMTD:nlsdata1.obj
 0004:0000a980       __pow10pos                 40166980     LIBCMTD:_constpow_.obj
 0004:0000aae0       __pow10neg                 40166ae0     LIBCMTD:_constpow_.obj
 0004:0000adac       ??_R0?AVbad_exception@std@@@8 40166dac     LIBCMTD:frame.obj
 0004:0000add4       ??_R0?AVexception@std@@@8  40166dd4     LIBCMTD:frame.obj
 0004:0000ae00       __timezone                 40166e00     LIBCMTD:timeset.obj
 0004:0000ae04       __daylight                 40166e04     LIBCMTD:timeset.obj
 0004:0000ae08       __dstbias                  40166e08     LIBCMTD:timeset.obj
 0004:0000ae90       __tzname                   40166e90     LIBCMTD:timeset.obj
 0004:0000aed8       __lookuptrailbytes         40166ed8     LIBCMTD:read.obj
 0004:0000b00c       __NLG_Destination          4016700c     LIBCMTD:exsup.obj
 0004:0000b024       ??_R0?AVtype_info@@@8      40167024     LIBCMTD:typinfo.obj
 0004:0000b044       ??_R0?AVbad_cast@std@@@8   40167044     LIBCMTD:stdexcpt.obj
 0004:0000b064       ??_R0?AVbad_typeid@std@@@8 40167064     LIBCMTD:stdexcpt.obj
 0004:0000b088       ??_R0?AV__non_rtti_object@std@@@8 40167088     LIBCMTD:stdexcpt.obj
 0004:0000b0b4       __lpdays                   401670b4     LIBCMTD:days.obj
 0004:0000b0e8       __days                     401670e8     LIBCMTD:days.obj
 0004:0000b130       __coninpfh                 40167130     LIBCMTD:initcon.obj
 0004:0000b134       __confh                    40167134     LIBCMTD:initcon.obj
 0004:000a1404       _siege_valid               401fd404     bg_saga.obj
 0004:000a1408       _team1Theme                401fd408     bg_saga.obj
 0004:000a140c       _team2Theme                401fd40c     bg_saga.obj
 0004:000a1410       _bgNumSiegeClasses         401fd410     bg_saga.obj
 0004:000a1414       _bgNumSiegeTeams           401fd414     bg_saga.obj
 0004:000a1428       _numVehicles               401fd428     bg_vehicleLoad.obj
 0004:000a1474       _vec3_origin               401fd474     q_math.obj
 0004:000bc580       _newUI                     40218580     ui_atoms.obj
 0004:000bc728       _uiForceUsed               40218728     ui_force.obj
 0004:000bc72c       _uiForceAvailable          4021872c     ui_force.obj
 0004:000bc730       _gTouchedForce             40218730     ui_force.obj
 0004:000bc734       _gCustRank                 40218734     ui_force.obj
 0004:000bc738       _uiForcePowersDisabled     40218738     ui_force.obj
 0004:000bc780       _gCustSide                 40218780     ui_force.obj
 0004:000d79e4       _siegeTeam1                402339e4     ui_main.obj
 0004:000d79e8       _siegeTeam2                402339e8     ui_main.obj
 0004:000d79ec       _UIPAFtextLoaded           402339ec     ui_main.obj
 0004:000d79f0       _holdSPString              402339f0     ui_main.obj
 0004:000d7df0       _holdSPString2             40233df0     ui_main.obj
 0004:000d81f0       _uiSkinColor               402341f0     ui_main.obj
 0004:000d81f4       _uiHoldSkinColor           402341f4     ui_main.obj
 0004:000d81f8       _frameCount                402341f8     ui_main.obj
 0004:000d81fc       _defaultMenu               402341fc     ui_main.obj
 0004:000d8600       _gUISelectedMap            40234600     ui_main.obj
 0004:000d8608       _g_siegedFeederForcedSet   40234608     ui_main.obj
 0004:0015d7e0       _ui_saber_parms_parsed     402b97e0     ui_saber.obj
 0004:003db1cc       _DC                        405371cc     ui_shared.obj
 0004:003db1e0       _menuCount                 405371e0     ui_shared.obj
 0004:003db1e4       _openMenuCount             405371e4     ui_shared.obj
 0004:003db1f8       _FPMessageTime             405371f8     ui_shared.obj
 0004:003db1fc       _ui_deferredScriptItem     405371fc     ui_shared.obj
 0004:003db204       _ui_G2PtrTracker           40537204     ui_shared.obj
 0004:00455888       ___fastflag                405b1888     LIBCMTD:_fpinit_.obj
 0004:0045588c       __adjust_fdiv              405b188c     LIBCMTD:_fpinit_.obj
 0004:00455894       ?wsprintffp@@3P6AHPADPBDZZA 405b1894     LIBCMTD:_error_.obj
 0004:0045589c       __aenvptr                  405b189c     LIBCMTD:dllcrt0.obj
 0004:004558a0       __wenvptr                  405b18a0     LIBCMTD:dllcrt0.obj
 0004:004558a4       ___error_mode              405b18a4     LIBCMTD:dllcrt0.obj
 0004:004558a8       ___app_type                405b18a8     LIBCMTD:dllcrt0.obj
 0004:00455c84       ___pInvalidArgHandler      405b1c84     LIBCMTD:invarg.obj
 0004:00455c8c       ___mbulinfo                405b1c8c     LIBCMTD:mbctype.obj
 0004:00455c98       ___mbcodepage              405b1c98     LIBCMTD:mbctype.obj
 0004:00455c9c       ___ismbcodepage            405b1c9c     LIBCMTD:mbctype.obj
 0004:00455ca0       ___mblcid                  405b1ca0     LIBCMTD:mbctype.obj
 0004:00455cac       ___locale_changed          405b1cac     LIBCMTD:setlocal.obj
 0004:00455cb0       ___lc_handle               405b1cb0     LIBCMTD:nlsdata2.obj
 0004:00455cc8       ___lc_codepage             405b1cc8     LIBCMTD:nlsdata2.obj
 0004:00455ccc       ___lc_collate_cp           405b1ccc     LIBCMTD:nlsdata2.obj
 0004:00455cd8       _gpFlsAlloc                405b1cd8     LIBCMTD:tidtable.obj
 0004:00455cdc       _gpFlsGetValue             405b1cdc     LIBCMTD:tidtable.obj
 0004:00455ce0       _gpFlsSetValue             405b1ce0     LIBCMTD:tidtable.obj
 0004:00455ce4       _gpFlsFree                 405b1ce4     LIBCMTD:tidtable.obj
 0004:00455cec       __umaskval                 405b1cec     LIBCMTD:crt0dat.obj
 0004:00455cf0       ___argc                    405b1cf0     LIBCMTD:crt0dat.obj
 0004:00455cf4       ___argv                    405b1cf4     LIBCMTD:crt0dat.obj
 0004:00455cf8       ___wargv                   405b1cf8     LIBCMTD:crt0dat.obj
 0004:00455cfc       __environ                  405b1cfc     LIBCMTD:crt0dat.obj
 0004:00455d00       ___initenv                 405b1d00     LIBCMTD:crt0dat.obj
 0004:00455d04       __wenviron                 405b1d04     LIBCMTD:crt0dat.obj
 0004:00455d08       ___winitenv                405b1d08     LIBCMTD:crt0dat.obj
 0004:00455d0c       __pgmptr                   405b1d0c     LIBCMTD:crt0dat.obj
 0004:00455d10       __wpgmptr                  405b1d10     LIBCMTD:crt0dat.obj
 0004:00455d14       __exitflag                 405b1d14     LIBCMTD:crt0dat.obj
 0004:00455d18       __C_Termination_Done       405b1d18     LIBCMTD:crt0dat.obj
 0004:00455d1c       __C_Exit_Done              405b1d1c     LIBCMTD:crt0dat.obj
 0004:00455d60       __cflush                   405b1d60     LIBCMTD:_file.obj
 0004:00455d8c       ?_pfnDumpClient@@3P6AXPAXI@ZA 405b1d8c     LIBCMTD:dbgheap.obj
 0004:00455d94       ___crtDebugCheckCount      405b1d94     LIBCMTD:dbgheap.obj
 0004:00455ee8       __crtheap                  405b1ee8     LIBCMTD:heapinit.obj
 0004:00455eec       __outputformat             405b1eec     LIBCMTD:outputformat.obj
 0004:004560a8       ___lconv_static_null       405b20a8     LIBCMTD:lconv.obj
 0004:00456464       ?__pInconsistency@@3P6AXXZA 405b2464     LIBCMTD:hooks.obj
 0004:00456474       ___pPurecall               405b2474     LIBCMTD:inithelp.obj
 0004:00456480       ?_pnhHeap@@3P6AHI@ZA       405b2480     LIBCMTD:handler.obj
 0004:00456484       __stdbuf                   405b2484     LIBCMTD:_sftbuf.obj
 0004:00456494       __newmode                  405b2494     LIBCMTD:_newmode.obj
 0004:004564a4       ___sbh_pHeaderDefer        405b24a4     LIBCMTD:sbheap.obj
 0004:004565c0       ?pArgList@UnDecorator@@0PAVReplicator@@A 405b25c0     LIBCMTD:undname.obj
 0004:004565c4       ?pZNameList@UnDecorator@@0PAVReplicator@@A 405b25c4     LIBCMTD:undname.obj
 0004:004565c8       ?pTemplateArgList@UnDecorator@@0PAVReplicator@@A 405b25c8     LIBCMTD:undname.obj
 0004:004565cc       ?gName@UnDecorator@@0PBDB  405b25cc     LIBCMTD:undname.obj
 0004:004565d0       ?name@UnDecorator@@0PBDB   405b25d0     LIBCMTD:undname.obj
 0004:004565d4       ?outputString@UnDecorator@@0PADA 405b25d4     LIBCMTD:undname.obj
 0004:004565d8       ?maxStringLength@UnDecorator@@0HA 405b25d8     LIBCMTD:undname.obj
 0004:004565dc       ?disableFlags@UnDecorator@@0KA 405b25dc     LIBCMTD:undname.obj
 0004:004565e0       ?m_pGetParameter@UnDecorator@@0P6APADJ@ZA 405b25e0     LIBCMTD:undname.obj
 0004:004565e4       ?fExplicitTemplateParams@UnDecorator@@0_NA 405b25e4     LIBCMTD:undname.obj
 0004:004565e5       ?fGetTemplateArgumentList@UnDecorator@@0_NA 405b25e5     LIBCMTD:undname.obj
 0004:00456658       ?nodes@?1??make@DNameStatusNode@@SAPAV2@W4DNameStatus@@@Z@4PAV2@A 405b2658     LIBCMTD:undname.obj
 0004:00456694       ??_B?1??make@DNameStatusNode@@SAPAV1@W4DNameStatus@@@Z@51 405b2694     LIBCMTD:undname.obj
 0004:004566a0       _itemParseKeywordHash      405b26a0     <common>
 0004:0045b960       _Menus                     405b7960     <common>
 0004:00470660       _g_nameBind1               405cc660     <common>
 0004:00470680       _currLanguage              405cc680     <common>
 0004:00471680       _g_nameBind2               405cd680     <common>
 0004:004716a0       _menuParseKeywordHash      405cd6a0     <common>
 0004:00471ea0       _menuStack                 405cdea0     <common>
 0004:00471ee0       _ui_deferredScript         405cdee0     <common>
 0004:004726e0       _ui_ctf_capturelimit       405ce6e0     <common>
 0004:004a3000       _ui_redteam4               405ff000     <common>
 0004:004a3120       _ui_blueteam8              405ff120     <common>
 0004:004a3240       _ui_char_skin_head         405ff240     <common>
 0004:004a3360       _ui_redteam                405ff360     <common>
 0004:004a3480       _ui_saber_color            405ff480     <common>
 0004:004a35a0       _ui_serverFilterType       405ff5a0     <common>
 0004:004a36c0       _ui_spSkill                405ff6c0     <common>
 0004:004a37e0       _ui_ffa_timelimit          405ff7e0     <common>
 0004:004a3900       _ui_opponentName           405ff900     <common>
 0004:004a3a20       _ui_blueteam6              405ffa20     <common>
 0004:004a3b40       _ui_browserGameType        405ffb40     <common>
 0004:004a3c60       _ui_selectedPlayerName     405ffc60     <common>
 0004:004a3d80       _ui_saber2_color           405ffd80     <common>
 0004:004a3ea0       _g_UIClassDescriptions     405ffea0     <common>
 0004:00523ea0       _ui_char_color_green       4067fea0     <common>
 0004:00523fc0       _ui_initialized            4067ffc0     <common>
 0004:005240e0       _ui_netSource              406800e0     <common>
 0004:00524200       _ui_lastServerRefresh_3    40680200     <common>
 0004:00524320       _ui_marks                  40680320     <common>
 0004:00524440       _ui_currentOpponent        40680440     <common>
 0004:00524560       _ui_scoreDefends           40680560     <common>
 0004:00524680       _ui_blueteam               40680680     <common>
 0004:005247a0       _ui_gameType               406807a0     <common>
 0004:005248c0       _ui_teamName               406808c0     <common>
 0004:005249e0       _saberSingleHiltInfo       406809e0     <common>
 0004:00524ae0       _ui_blueteam2              40680ae0     <common>
 0004:00524c00       _ui_blueteam4              40680c00     <common>
 0004:00524d20       _ui_scoreAccuracy          40680d20     <common>
 0004:00524e40       _ui_selectedPlayer         40680e40     <common>
 0004:00524f60       _ui_debug                  40680f60     <common>
 0004:00525080       _uiHumanoidAnimations      40681080     <common>
 0004:00527ac0       _ui_drawCrosshair          40683ac0     <common>
 0004:00527be0       _bgAllAnims                40683be0     <common>
 0004:00528020       _ui_currentNetMap          40684020     <common>
 0004:00528140       _ui_char_color_blue        40684140     <common>
 0004:00528260       _ui_char_skin_legs         40684260     <common>
 0004:00528380       _ui_mapIndex               40684380     <common>
 0004:005284a0       _ui_redteam2               406844a0     <common>
 0004:005285c0       _ui_scoreExcellents        406845c0     <common>
 0004:005286e0       _ui_arenasFile             406846e0     <common>
 0004:00528800       _ui_lastServerRefresh_0    40684800     <common>
 0004:00528920       _ui_redteam5               40684920     <common>
 0004:00528a40       _ui_scoreTimeBonus         40684a40     <common>
 0004:00528b60       _ui_blueteam5              40684b60     <common>
 0004:00528c80       _ui_char_color_red         40684c80     <common>
 0004:00528da0       _ui_scoreBase              40684da0     <common>
 0004:00528ec0       _ui_browserSortKey         40684ec0     <common>
 0004:00528fe0       _sharedBuffer              40684fe0     <common>
 0004:0053cfe0       _ui_team_timelimit         40698fe0     <common>
 0004:0053d100       _ui_redteam7               40699100     <common>
 0004:0053d220       _ui_bypassMainMenuLoad     40699220     <common>
 0004:0053d340       _ui_browserMaster          40699340     <common>
 0004:0053d460       _ui_scoreCaptures          40699460     <common>
 0004:0053d580       _ui_ffa_fraglimit          40699580     <common>
 0004:0053d6a0       _ui_realWarmUp             406996a0     <common>
 0004:0053d7c0       _ui_scoreShutoutBonus      406997c0     <common>
 0004:0053d8e0       _ui_currentMap             406998e0     <common>
 0004:0053da00       _ui_PrecacheModels         40699a00     <common>
 0004:0053db20       _saberStaffHiltInfo        40699b20     <common>
 0004:0053dc20       _ui_scoreAssists           40699c20     <common>
 0004:0053dd40       _ui_netGameType            40699d40     <common>
 0004:0053de60       _ui_blueteam1              40699e60     <common>
 0004:0053df80       _ui_saber_type             40699f80     <common>
 0004:0053e0a0       _ui_redteam6               4069a0a0     <common>
 0004:0053e1c0       _ui_blueteam3              4069a1c0     <common>
 0004:0053e2e0       _ui_saber2                 4069a2e0     <common>
 0004:0053e400       _ui_rankChange             4069a400     <common>
 0004:0053e520       _ui_captureLimit           4069a520     <common>
 0004:0053e640       _ui_findPlayer             4069a640     <common>
 0004:0053e760       _ui_joinGameType           4069a760     <common>
 0004:0053e880       _ui_browserShowEmpty       4069a880     <common>
 0004:0053e9a0       _ui_team_friendly          4069a9a0     <common>
 0004:0053eac0       _ui_ctf_friendly           4069aac0     <common>
 0004:0053ebe0       _ui_blueteam7              4069abe0     <common>
 0004:0053ed00       _ui_redteam8               4069ad00     <common>
 0004:0053ee20       _ui_scoreGauntlets         4069ae20     <common>
 0004:0053ef40       _uiInfo                    4069af40     <common>
 0004:00593780       _ui_lastServerRefresh_2    406ef780     <common>
 0004:005938a0       _ui_recordSPDemo           406ef8a0     <common>
 0004:005939c0       _ui_dedicated              406ef9c0     <common>
 0004:00593ae0       _ui_char_anim              406efae0     <common>
 0004:00593c00       _ui_scoreSkillBonus        406efc00     <common>
 0004:00593d20       _ui_selectedModelIndex     406efd20     <common>
 0004:00593e40       _ui_actualNetGameType      406efe40     <common>
 0004:00593f60       _ui_char_skin_torso        406eff60     <common>
 0004:00594080       _ui_fragLimit              406f0080     <common>
 0004:005941a0       _ui_serverStatusTimeOut    406f01a0     <common>
 0004:005942c0       _ui_redteam1               406f02c0     <common>
 0004:005943d0       _startTime                 406f03d0     <common>
 0004:005943e0       _se_language               406f03e0     <common>
 0004:00594500       _ui_browserShowFull        406f0500     <common>
 0004:00594620       _ui_singlePlayerActive     406f0620     <common>
 0004:00594740       _ui_saber                  406f0740     <common>
 0004:00594860       _ui_scoreTeam              406f0860     <common>
 0004:00594980       _ui_menuFiles              406f0980     <common>
 0004:00594aa0       _ui_realCaptureLimit       406f0aa0     <common>
 0004:00594bc0       _ui_botsFile               406f0bc0     <common>
 0004:00594ce0       _ui_lastServerRefresh_1    406f0ce0     <common>
 0004:00594e00       _ui_hudFiles               406f0e00     <common>
 0004:00594f20       _parsedFPMessage           406f0f20     <common>
 0004:00595320       _ui_scoreScore             406f1320     <common>
 0004:00595440       _ui_scoreImpressives       406f1440     <common>
 0004:00595560       _ui_char_model             406f1560     <common>
 0004:00595680       _ui_drawCrosshairNames     406f1680     <common>
 0004:005957a0       _ui_team_fraglimit         406f17a0     <common>
 0004:005958c0       _ui_scorePerfect           406f18c0     <common>
 0004:005959e0       _ui_redteam3               406f19e0     <common>
 0004:00595b00       _ui_scoreTime              406f1b00     <common>
 0004:00595c20       _ui_ctf_timelimit          406f1c20     <common>
 0004:00595d30       _ui_numBots                406f1d30     <common>
 0004:00595d40       _ui_forcePowerDisable      406f1d40     <common>
 0004:00595ee0       _ui_freeSaber              406f1ee0     <common>
 0004:00596000       _uiForceStarShaders        406f2000     <common>
 0004:00596060       _uiSaberColorShaders       406f2060     <common>
 0004:00596078       _m_entersound              406f2078     <common>
 0004:005960a0       _VehicleParms              406f20a0     <common>
 0004:005aac20       _VehWeaponParms            40706c20     <common>
 0004:005aec20       _g_vehicleInfo             4070ac20     <common>
 0004:005b1ea0       _g_vehWeaponInfo           4070dea0     <common>
 0004:005b24e0       _bgSiegeClasses            4070e4e0     <common>
 0004:005ed9e0       _bgSiegeTeams              407499e0     <common>
 0004:005efe60       _siege_info                4074be60     <common>
 0004:005f3e60       ___sbh_initialized         4074fe60     <common>
 0004:005f3e74       ___sbh_cntHeaderList       4074fe74     <common>
 0004:005f3e78       ___sbh_pHeaderList         4074fe78     <common>
 0004:005f3e7c       ___sbh_threshold           4074fe7c     <common>
 0004:005f3e80       ___sbh_pHeaderScan         4074fe80     <common>
 0004:005f3e84       ___sbh_sizeHeaderList      4074fe84     <common>
 0004:005f3e88       ___sbh_indGroupDefer       4074fe88     <common>
 0004:005f3e8c       __pfnReportHook            4074fe8c     <common>
 0004:005f3e9c       __pReportHookListW         4074fe9c     <common>
 0004:005f3ea0       __pReportHookList          4074fea0     <common>
 0004:005f3ea4       __debugger_hook_dummy      4074fea4     <common>
 0004:005f3eb0       ___active_heap             4074feb0     <common>
 0004:005f3ebc       __nhandle                  4074febc     <common>
 0004:005f3f00       ___pioinfo                 4074ff00     <common>
 0004:005f4000       __pmatherr                 40750000     <common>
 0004:005f400c       ___piob                    4075000c     <common>
 0004:005f4360       __bufin                    40750360     <common>
 0004:005f5360       __nstream                  40751360     <common>
 0004:005f5364       ___env_initialized         40751364     <common>
 0004:005f5374       ___onexitend               40751374     <common>
 0004:005f5378       ___onexitbegin             40751378     <common>
 0004:005f537c       ___mbctype_initialized     4075137c     <common>
 0004:005f5380       ___dyn_tls_init_callback   40751380     <common>
 0004:005f5384       ___setlc_active            40751384     <common>
 0004:005f5394       ___unguarded_readlc_active 40751394     <common>
 0004:005f5398       ___use_sse2_mathfcns       40751398     <common>
 0004:005f53a8       ___sse2_available          407513a8     <common>
 0004:005f53ac       __acmdln                   407513ac     <common>
 0005:00000000       __IMPORT_DESCRIPTOR_KERNEL32 40752000     kernel32:KERNEL32.dll
 0005:00000014       __NULL_IMPORT_DESCRIPTOR   40752014     kernel32:KERNEL32.dll
 0005:00000220       __imp__GetModuleFileNameW@12 40752220     kernel32:KERNEL32.dll
 0005:00000224       __imp__WriteConsoleW@20    40752224     kernel32:KERNEL32.dll
 0005:00000228       __imp__GetFileType@4       40752228     kernel32:KERNEL32.dll
 0005:0000022c       __imp__GetStdHandle@4      4075222c     kernel32:KERNEL32.dll
 0005:00000230       __imp__IsDebuggerPresent@0 40752230     kernel32:KERNEL32.dll
 0005:00000234       __imp__RaiseException@16   40752234     kernel32:KERNEL32.dll
 0005:00000238       __imp__DebugBreak@0        40752238     kernel32:KERNEL32.dll
 0005:0000023c       __imp__WideCharToMultiByte@32 4075223c     kernel32:KERNEL32.dll
 0005:00000240       __imp__MultiByteToWideChar@24 40752240     kernel32:KERNEL32.dll
 0005:00000244       __imp__lstrlenA@4          40752244     kernel32:KERNEL32.dll
 0005:00000248       __imp__GetProcAddress@8    40752248     kernel32:KERNEL32.dll
 0005:0000024c       __imp__LoadLibraryA@4      4075224c     kernel32:KERNEL32.dll
 0005:00000250       __imp__GetCurrentThreadId@0 40752250     kernel32:KERNEL32.dll
 0005:00000254       __imp__GetCommandLineA@0   40752254     kernel32:KERNEL32.dll
 0005:00000258       __imp__TerminateProcess@8  40752258     kernel32:KERNEL32.dll
 0005:0000025c       __imp__GetCurrentProcess@0 4075225c     kernel32:KERNEL32.dll
 0005:00000260       __imp__UnhandledExceptionFilter@4 40752260     kernel32:KERNEL32.dll
 0005:00000264       __imp__SetUnhandledExceptionFilter@4 40752264     kernel32:KERNEL32.dll
 0005:00000268       __imp__GetModuleHandleA@4  40752268     kernel32:KERNEL32.dll
 0005:0000026c       __imp__InterlockedIncrement@4 4075226c     kernel32:KERNEL32.dll
 0005:00000270       __imp__InterlockedDecrement@4 40752270     kernel32:KERNEL32.dll
 0005:00000274       __imp__GetACP@0            40752274     kernel32:KERNEL32.dll
 0005:00000278       __imp__GetOEMCP@0          40752278     kernel32:KERNEL32.dll
 0005:0000027c       __imp__GetCPInfo@8         4075227c     kernel32:KERNEL32.dll
 0005:00000280       __imp__IsValidCodePage@4   40752280     kernel32:KERNEL32.dll
 0005:00000284       __imp__TlsGetValue@4       40752284     kernel32:KERNEL32.dll
 0005:00000288       __imp__GetModuleHandleW@4  40752288     kernel32:KERNEL32.dll
 0005:0000028c       __imp__TlsAlloc@0          4075228c     kernel32:KERNEL32.dll
 0005:00000290       __imp__TlsSetValue@8       40752290     kernel32:KERNEL32.dll
 0005:00000294       __imp__TlsFree@4           40752294     kernel32:KERNEL32.dll
 0005:00000298       __imp__SetLastError@4      40752298     kernel32:KERNEL32.dll
 0005:0000029c       __imp__GetLastError@0      4075229c     kernel32:KERNEL32.dll
 0005:000002a0       __imp__GetCurrentThread@0  407522a0     kernel32:KERNEL32.dll
 0005:000002a4       __imp__Sleep@4             407522a4     kernel32:KERNEL32.dll
 0005:000002a8       __imp__ExitProcess@4       407522a8     kernel32:KERNEL32.dll
 0005:000002ac       __imp__SetConsoleCtrlHandler@8 407522ac     kernel32:KERNEL32.dll
 0005:000002b0       __imp__LoadLibraryW@4      407522b0     kernel32:KERNEL32.dll
 0005:000002b4       __imp__EnterCriticalSection@4 407522b4     kernel32:KERNEL32.dll
 0005:000002b8       __imp__LeaveCriticalSection@4 407522b8     kernel32:KERNEL32.dll
 0005:000002bc       __imp__LCMapStringA@24     407522bc     kernel32:KERNEL32.dll
 0005:000002c0       __imp__LCMapStringW@24     407522c0     kernel32:KERNEL32.dll
 0005:000002c4       __imp__HeapFree@12         407522c4     kernel32:KERNEL32.dll
 0005:000002c8       __imp__HeapAlloc@12        407522c8     kernel32:KERNEL32.dll
 0005:000002cc       __imp__GetProcessHeap@0    407522cc     kernel32:KERNEL32.dll
 0005:000002d0       __imp__VirtualQuery@12     407522d0     kernel32:KERNEL32.dll
 0005:000002d4       __imp__FreeLibrary@4       407522d4     kernel32:KERNEL32.dll
 0005:000002d8       __imp__HeapValidate@12     407522d8     kernel32:KERNEL32.dll
 0005:000002dc       __imp__IsBadReadPtr@8      407522dc     kernel32:KERNEL32.dll
 0005:000002e0       __imp__SetHandleCount@4    407522e0     kernel32:KERNEL32.dll
 0005:000002e4       __imp__GetStartupInfoA@4   407522e4     kernel32:KERNEL32.dll
 0005:000002e8       __imp__DeleteCriticalSection@4 407522e8     kernel32:KERNEL32.dll
 0005:000002ec       __imp__GetModuleFileNameA@12 407522ec     kernel32:KERNEL32.dll
 0005:000002f0       __imp__FreeEnvironmentStringsA@4 407522f0     kernel32:KERNEL32.dll
 0005:000002f4       __imp__GetEnvironmentStrings@0 407522f4     kernel32:KERNEL32.dll
 0005:000002f8       __imp__FreeEnvironmentStringsW@4 407522f8     kernel32:KERNEL32.dll
 0005:000002fc       __imp__GetEnvironmentStringsW@0 407522fc     kernel32:KERNEL32.dll
 0005:00000300       __imp__HeapDestroy@4       40752300     kernel32:KERNEL32.dll
 0005:00000304       __imp__HeapCreate@12       40752304     kernel32:KERNEL32.dll
 0005:00000308       __imp__VirtualFree@12      40752308     kernel32:KERNEL32.dll
 0005:0000030c       __imp__QueryPerformanceCounter@4 4075230c     kernel32:KERNEL32.dll
 0005:00000310       __imp__GetTickCount@0      40752310     kernel32:KERNEL32.dll
 0005:00000314       __imp__GetCurrentProcessId@0 40752314     kernel32:KERNEL32.dll
 0005:00000318       __imp__GetSystemTimeAsFileTime@4 40752318     kernel32:KERNEL32.dll
 0005:0000031c       __imp__RtlUnwind@16        4075231c     kernel32:KERNEL32.dll
 0005:00000320       __imp__GetStringTypeA@20   40752320     kernel32:KERNEL32.dll
 0005:00000324       __imp__GetStringTypeW@16   40752324     kernel32:KERNEL32.dll
 0005:00000328       __imp__FatalAppExitA@8     40752328     kernel32:KERNEL32.dll
 0005:0000032c       __imp__WriteFile@20        4075232c     kernel32:KERNEL32.dll
 0005:00000330       __imp__OutputDebugStringA@4 40752330     kernel32:KERNEL32.dll
 0005:00000334       __imp__OutputDebugStringW@4 40752334     kernel32:KERNEL32.dll
 0005:00000338       __imp__GetTimeFormatA@24   40752338     kernel32:KERNEL32.dll
 0005:0000033c       __imp__GetDateFormatA@24   4075233c     kernel32:KERNEL32.dll
 0005:00000340       __imp__GetLocaleInfoA@16   40752340     kernel32:KERNEL32.dll
 0005:00000344       __imp__IsValidLocale@8     40752344     kernel32:KERNEL32.dll
 0005:00000348       __imp__EnumSystemLocalesA@8 40752348     kernel32:KERNEL32.dll
 0005:0000034c       __imp__GetUserDefaultLCID@0 4075234c     kernel32:KERNEL32.dll
 0005:00000350       __imp__InterlockedExchange@8 40752350     kernel32:KERNEL32.dll
 0005:00000354       __imp__InitializeCriticalSectionAndSpinCount@8 40752354     kernel32:KERNEL32.dll
 0005:00000358       __imp__FlushFileBuffers@4  40752358     kernel32:KERNEL32.dll
 0005:0000035c       __imp__GetConsoleCP@0      4075235c     kernel32:KERNEL32.dll
 0005:00000360       __imp__GetConsoleMode@8    40752360     kernel32:KERNEL32.dll
 0005:00000364       __imp__SetFilePointer@16   40752364     kernel32:KERNEL32.dll
 0005:00000368       __imp__HeapSize@12         40752368     kernel32:KERNEL32.dll
 0005:0000036c       __imp__HeapReAlloc@16      4075236c     kernel32:KERNEL32.dll
 0005:00000370       __imp__VirtualAlloc@16     40752370     kernel32:KERNEL32.dll
 0005:00000374       __imp__GetTimeZoneInformation@4 40752374     kernel32:KERNEL32.dll
 0005:00000378       __imp__GetLocaleInfoW@16   40752378     kernel32:KERNEL32.dll
 0005:0000037c       __imp__SetStdHandle@8      4075237c     kernel32:KERNEL32.dll
 0005:00000380       __imp__WriteConsoleA@20    40752380     kernel32:KERNEL32.dll
 0005:00000384       __imp__GetConsoleOutputCP@0 40752384     kernel32:KERNEL32.dll
 0005:00000388       __imp__ReadFile@20         40752388     kernel32:KERNEL32.dll
 0005:0000038c       __imp__CreateFileA@28      4075238c     kernel32:KERNEL32.dll
 0005:00000390       __imp__CloseHandle@4       40752390     kernel32:KERNEL32.dll
 0005:00000394       __imp__CompareStringA@24   40752394     kernel32:KERNEL32.dll
 0005:00000398       __imp__CompareStringW@24   40752398     kernel32:KERNEL32.dll
 0005:0000039c       __imp__SetEnvironmentVariableA@8 4075239c     kernel32:KERNEL32.dll
 0005:000003a0       \177KERNEL32_NULL_THUNK_DATA 407523a0     kernel32:KERNEL32.dll

 entry point at        0002:0000069a

